
main.elf:     file format elf32-avr

Sections:
Idx Name          Size      VMA       LMA       File off  Algn
  0 .data         000001c4  00800100  0000848e  00008522  2**0
                  CONTENTS, ALLOC, LOAD, DATA
  1 .text         0000848e  00000000  00000000  00000094  2**1
                  CONTENTS, ALLOC, LOAD, READONLY, CODE
  2 .bss          00000250  008002c4  008002c4  000086e6  2**0
                  ALLOC
  3 .stab         00019494  00000000  00000000  000086e8  2**2
                  CONTENTS, READONLY, DEBUGGING
  4 .stabstr      000074e1  00000000  00000000  00021b7c  2**0
                  CONTENTS, READONLY, DEBUGGING

Disassembly of section .text:

00000000 <__vectors>:
       0:	0c 94 e7 04 	jmp	0x9ce	; 0x9ce <__ctors_end>
       4:	0c 94 40 24 	jmp	0x4880	; 0x4880 <__vector_1>
       8:	0c 94 06 05 	jmp	0xa0c	; 0xa0c <__bad_interrupt>
       c:	0c 94 06 05 	jmp	0xa0c	; 0xa0c <__bad_interrupt>
      10:	0c 94 06 05 	jmp	0xa0c	; 0xa0c <__bad_interrupt>
      14:	0c 94 06 05 	jmp	0xa0c	; 0xa0c <__bad_interrupt>
      18:	0c 94 06 05 	jmp	0xa0c	; 0xa0c <__bad_interrupt>
      1c:	0c 94 06 05 	jmp	0xa0c	; 0xa0c <__bad_interrupt>
      20:	0c 94 06 05 	jmp	0xa0c	; 0xa0c <__bad_interrupt>
      24:	0c 94 e3 23 	jmp	0x47c6	; 0x47c6 <__vector_9>
      28:	0c 94 06 05 	jmp	0xa0c	; 0xa0c <__bad_interrupt>
      2c:	0c 94 06 05 	jmp	0xa0c	; 0xa0c <__bad_interrupt>
      30:	0c 94 06 05 	jmp	0xa0c	; 0xa0c <__bad_interrupt>
      34:	0c 94 06 05 	jmp	0xa0c	; 0xa0c <__bad_interrupt>
      38:	0c 94 06 05 	jmp	0xa0c	; 0xa0c <__bad_interrupt>
      3c:	0c 94 5f 23 	jmp	0x46be	; 0x46be <__vector_15>
      40:	0c 94 5f 23 	jmp	0x46be	; 0x46be <__vector_15>
      44:	0c 94 06 05 	jmp	0xa0c	; 0xa0c <__bad_interrupt>
      48:	0c 94 06 05 	jmp	0xa0c	; 0xa0c <__bad_interrupt>
      4c:	0c 94 06 05 	jmp	0xa0c	; 0xa0c <__bad_interrupt>
      50:	0c 94 06 05 	jmp	0xa0c	; 0xa0c <__bad_interrupt>
      54:	0c 94 06 05 	jmp	0xa0c	; 0xa0c <__bad_interrupt>
      58:	0c 94 06 05 	jmp	0xa0c	; 0xa0c <__bad_interrupt>
      5c:	0c 94 06 05 	jmp	0xa0c	; 0xa0c <__bad_interrupt>
      60:	0c 94 06 05 	jmp	0xa0c	; 0xa0c <__bad_interrupt>
      64:	0c 94 06 05 	jmp	0xa0c	; 0xa0c <__bad_interrupt>
      68:	0c 94 06 05 	jmp	0xa0c	; 0xa0c <__bad_interrupt>
      6c:	0c 94 06 05 	jmp	0xa0c	; 0xa0c <__bad_interrupt>
      70:	0c 94 06 05 	jmp	0xa0c	; 0xa0c <__bad_interrupt>
      74:	0c 94 06 05 	jmp	0xa0c	; 0xa0c <__bad_interrupt>
      78:	0c 94 06 05 	jmp	0xa0c	; 0xa0c <__bad_interrupt>
      7c:	0c 94 06 05 	jmp	0xa0c	; 0xa0c <__bad_interrupt>
      80:	0c 94 06 05 	jmp	0xa0c	; 0xa0c <__bad_interrupt>
      84:	0c 94 06 05 	jmp	0xa0c	; 0xa0c <__bad_interrupt>
      88:	0c 94 06 05 	jmp	0xa0c	; 0xa0c <__bad_interrupt>
      8c:	27 15       	cp	r18, r7
      8e:	2d 15       	cp	r18, r13
      90:	30 15       	cp	r19, r0
      92:	33 15       	cp	r19, r3
      94:	36 15       	cp	r19, r6
      96:	39 15       	cp	r19, r9
      98:	3f 15       	cp	r19, r15
      9a:	3c 15       	cp	r19, r12
      9c:	42 15       	cp	r20, r2
      9e:	45 15       	cp	r20, r5
      a0:	48 15       	cp	r20, r8
      a2:	51 15       	cp	r21, r1
      a4:	54 15       	cp	r21, r4
      a6:	57 15       	cp	r21, r7
      a8:	5a 15       	cp	r21, r10
      aa:	4e 15       	cp	r20, r14
      ac:	24 15       	cp	r18, r4
      ae:	2a 15       	cp	r18, r10
      b0:	5d 15       	cp	r21, r13
      b2:	60 15       	cp	r22, r0
      b4:	4b 15       	cp	r20, r11
      b6:	21 15       	cp	r18, r1
      b8:	08 00       	.word	0x0008	; ????
      ba:	00 00       	nop
      bc:	be 92       	st	-X, r11
      be:	24 49       	sbci	r18, 0x94	; 148
      c0:	12 3e       	cpi	r17, 0xE2	; 226
      c2:	ab aa       	std	Y+51, r10	; 0x33
      c4:	aa 2a       	or	r10, r26
      c6:	be cd       	rjmp	.-1156   	; 0xfffffc44 <__eeprom_end+0xff7efc44>
      c8:	cc cc       	rjmp	.-1640   	; 0xfffffa62 <__eeprom_end+0xff7efa62>
      ca:	4c 3e       	cpi	r20, 0xEC	; 236
      cc:	00 00       	nop
      ce:	00 80       	ld	r0, Z
      d0:	be ab       	std	Y+54, r27	; 0x36
      d2:	aa aa       	std	Y+50, r10	; 0x32
      d4:	aa 3e       	cpi	r26, 0xEA	; 234
      d6:	00 00       	nop
      d8:	00 00       	nop
      da:	bf 00       	.word	0x00bf	; ????
      dc:	00 00       	nop
      de:	80 3f       	cpi	r24, 0xF0	; 240
      e0:	00 00       	nop
      e2:	00 00       	nop
      e4:	00 08       	sbc	r0, r0
      e6:	41 78       	andi	r20, 0x81	; 129
      e8:	d3 bb       	out	0x13, r29	; 19
      ea:	43 87       	std	Z+11, r20	; 0x0b
      ec:	d1 13       	cpse	r29, r17
      ee:	3d 19       	sub	r19, r13
      f0:	0e 3c       	cpi	r16, 0xCE	; 206
      f2:	c3 bd       	out	0x23, r28	; 35
      f4:	42 82       	std	Z+2, r4	; 0x02
      f6:	ad 2b       	or	r26, r29
      f8:	3e 68       	ori	r19, 0x8E	; 142
      fa:	ec 82       	std	Y+4, r14	; 0x04
      fc:	76 be       	out	0x36, r7	; 54
      fe:	d9 8f       	std	Y+25, r29	; 0x19
     100:	e1 a9       	ldd	r30, Z+49	; 0x31
     102:	3e 4c       	sbci	r19, 0xCE	; 206
     104:	80 ef       	ldi	r24, 0xF0	; 240
     106:	ff be       	out	0x3f, r15	; 63
     108:	01 c4       	rjmp	.+2050   	; 0x90c <__c.1863+0x3d>
     10a:	ff 7f       	andi	r31, 0xFF	; 255
     10c:	3f 00       	.word	0x003f	; ????
     10e:	00 00       	nop
     110:	00 00       	nop
     112:	07 63       	ori	r16, 0x37	; 55
     114:	42 36       	cpi	r20, 0x62	; 98
     116:	b7 9b       	sbis	0x16, 7	; 22
     118:	d8 a7       	std	Y+40, r29	; 0x28
     11a:	1a 39       	cpi	r17, 0x9A	; 154
     11c:	68 56       	subi	r22, 0x68	; 104
     11e:	18 ae       	std	Y+56, r1	; 0x38
     120:	ba ab       	std	Y+50, r27	; 0x32
     122:	55 8c       	ldd	r5, Z+29	; 0x1d
     124:	1d 3c       	cpi	r17, 0xCD	; 205
     126:	b7 cc       	rjmp	.-1682   	; 0xfffffa96 <__eeprom_end+0xff7efa96>
     128:	57 63       	ori	r21, 0x37	; 55
     12a:	bd 6d       	ori	r27, 0xDD	; 221
     12c:	ed fd       	.word	0xfded	; ????
     12e:	75 3e       	cpi	r23, 0xE5	; 229
     130:	f6 17       	cp	r31, r22
     132:	72 31       	cpi	r23, 0x12	; 18
     134:	bf 00       	.word	0x00bf	; ????
     136:	00 00       	nop
     138:	80 3f       	cpi	r24, 0xF0	; 240

0000013a <__c.2119>:
     13a:	45 72       	andi	r20, 0x25	; 37
     13c:	72 6f       	ori	r23, 0xF2	; 242
     13e:	72 20       	and	r7, r2
     140:	73 65       	ori	r23, 0x53	; 83
     142:	74 74       	andi	r23, 0x44	; 68
     144:	69 6e       	ori	r22, 0xE9	; 233
     146:	67 20       	and	r6, r7
     148:	75 70       	andi	r23, 0x05	; 5
     14a:	20 74       	andi	r18, 0x40	; 64
     14c:	69 6d       	ori	r22, 0xD9	; 217
     14e:	65 72       	andi	r22, 0x25	; 37
     150:	20 63       	ori	r18, 0x30	; 48
     152:	61 6c       	ori	r22, 0xC1	; 193
     154:	6c 62       	ori	r22, 0x2C	; 44
     156:	61 63       	ori	r22, 0x31	; 49
     158:	6b 0d       	add	r22, r11
     15a:	0a 00       	.word	0x000a	; ????

0000015c <__c.2117>:
     15c:	43 61       	ori	r20, 0x13	; 19
     15e:	6c 6c       	ori	r22, 0xCC	; 204
     160:	62 61       	ori	r22, 0x12	; 18
     162:	63 6b       	ori	r22, 0xB3	; 179
     164:	20 74       	andi	r18, 0x40	; 64
     166:	69 6d       	ori	r22, 0xD9	; 217
     168:	65 72       	andi	r22, 0x25	; 37
     16a:	20 73       	andi	r18, 0x30	; 48
     16c:	65 74       	andi	r22, 0x45	; 69
     16e:	75 70       	andi	r23, 0x05	; 5
     170:	0d 0a       	sbc	r0, r29
     172:	00 53       	subi	r16, 0x30	; 48

00000173 <__c.2109>:
     173:	53 74       	andi	r21, 0x43	; 67
     175:	61 72       	andi	r22, 0x21	; 33
     177:	74 69       	ori	r23, 0x94	; 148
     179:	6e 67       	ori	r22, 0x7E	; 126
     17b:	20 75       	andi	r18, 0x50	; 80
     17d:	70 2e       	mov	r7, r16
     17f:	2e 2e       	mov	r2, r30
     181:	0d 0a       	sbc	r0, r29
     183:	00 55       	subi	r16, 0x50	; 80

00000184 <__c.2204>:
     184:	55 4e       	sbci	r21, 0xE5	; 229
     186:	4b 4f       	sbci	r20, 0xFB	; 251
     188:	57 4e       	sbci	r21, 0xE7	; 231
     18a:	00 45       	sbci	r16, 0x50	; 80

0000018b <__c.2201>:
     18b:	45 78       	andi	r20, 0x85	; 133
     18d:	74 65       	ori	r23, 0x54	; 84
     18f:	72 6e       	ori	r23, 0xE2	; 226
     191:	61 6c       	ori	r22, 0xC1	; 193
     193:	20 52       	subi	r18, 0x20	; 32
     195:	65 73       	andi	r22, 0x35	; 53
     197:	65 74       	andi	r22, 0x45	; 69
     199:	00 42       	sbci	r16, 0x20	; 32

0000019a <__c.2198>:
     19a:	42 72       	andi	r20, 0x22	; 34
     19c:	6f 77       	andi	r22, 0x7F	; 127
     19e:	6e 20       	and	r6, r14
     1a0:	4f 75       	andi	r20, 0x5F	; 95
     1a2:	74 20       	and	r7, r4
     1a4:	44 65       	ori	r20, 0x54	; 84
     1a6:	74 65       	ori	r23, 0x54	; 84
     1a8:	63 74       	andi	r22, 0x43	; 67
     1aa:	00 46       	sbci	r16, 0x60	; 96

000001ab <__c.2195>:
     1ab:	46 61       	ori	r20, 0x16	; 22
     1ad:	69 6c       	ori	r22, 0xC9	; 201
     1af:	65 64       	ori	r22, 0x45	; 69
     1b1:	20 74       	andi	r18, 0x40	; 64
     1b3:	6f 20       	and	r6, r15
     1b5:	63 72       	andi	r22, 0x23	; 35
     1b7:	65 61       	ori	r22, 0x15	; 21
     1b9:	74 65       	ori	r23, 0x54	; 84
     1bb:	20 53       	subi	r18, 0x30	; 48
     1bd:	65 6d       	ori	r22, 0xD5	; 213
     1bf:	61 70       	andi	r22, 0x01	; 1
     1c1:	68 6f       	ori	r22, 0xF8	; 248
     1c3:	72 65       	ori	r23, 0x52	; 82
     1c5:	00 46       	sbci	r16, 0x60	; 96

000001c6 <__c.2192>:
     1c6:	46 61       	ori	r20, 0x16	; 22
     1c8:	69 6c       	ori	r22, 0xC9	; 201
     1ca:	65 64       	ori	r22, 0x45	; 69
     1cc:	20 74       	andi	r18, 0x40	; 64
     1ce:	6f 20       	and	r6, r15
     1d0:	63 72       	andi	r22, 0x23	; 35
     1d2:	65 61       	ori	r22, 0x15	; 21
     1d4:	74 65       	ori	r23, 0x54	; 84
     1d6:	20 53       	subi	r18, 0x30	; 48
     1d8:	69 67       	ori	r22, 0x79	; 121
     1da:	6e 61       	ori	r22, 0x1E	; 30
     1dc:	6c 00       	.word	0x006c	; ????

000001de <__c.2189>:
     1de:	4b 65       	ori	r20, 0x5B	; 91
     1e0:	72 6e       	ori	r23, 0xE2	; 226
     1e2:	65 6c       	ori	r22, 0xC5	; 197
     1e4:	20 66       	ori	r18, 0x60	; 96
     1e6:	75 6e       	ori	r23, 0xE5	; 229
     1e8:	63 74       	andi	r22, 0x43	; 67
     1ea:	69 6f       	ori	r22, 0xF9	; 249
     1ec:	6e 20       	and	r6, r14
     1ee:	6e 6f       	ori	r22, 0xFE	; 254
     1f0:	74 20       	and	r7, r4
     1f2:	69 6d       	ori	r22, 0xD9	; 217
     1f4:	70 6c       	ori	r23, 0xC0	; 192
     1f6:	65 6d       	ori	r22, 0xD5	; 213
     1f8:	65 6e       	ori	r22, 0xE5	; 229
     1fa:	74 65       	ori	r23, 0x54	; 84
     1fc:	64 00       	.word	0x0064	; ????

000001fe <__c.2186>:
     1fe:	44 65       	ori	r20, 0x54	; 84
     200:	76 69       	ori	r23, 0x96	; 150
     202:	63 65       	ori	r22, 0x53	; 83
     204:	20 44       	sbci	r18, 0x40	; 64
     206:	72 69       	ori	r23, 0x92	; 146
     208:	76 65       	ori	r23, 0x56	; 86
     20a:	72 20       	and	r7, r2
     20c:	45 72       	andi	r20, 0x25	; 37
     20e:	72 6f       	ori	r23, 0xF2	; 242
     210:	72 00       	.word	0x0072	; ????

00000212 <__c.2183>:
     212:	57 61       	ori	r21, 0x17	; 23
     214:	74 63       	ori	r23, 0x34	; 52
     216:	68 64       	ori	r22, 0x48	; 72
     218:	6f 67       	ori	r22, 0x7F	; 127
     21a:	20 52       	subi	r18, 0x20	; 32
     21c:	65 73       	andi	r22, 0x35	; 53
     21e:	74 61       	ori	r23, 0x14	; 20
     220:	72 74       	andi	r23, 0x42	; 66
     222:	00 53       	subi	r16, 0x30	; 48

00000223 <__c.2180>:
     223:	53 57       	subi	r21, 0x73	; 115
     225:	20 57       	subi	r18, 0x70	; 112
     227:	61 74       	andi	r22, 0x41	; 65
     229:	63 68       	ori	r22, 0x83	; 131
     22b:	64 6f       	ori	r22, 0xF4	; 244
     22d:	67 20       	and	r6, r7
     22f:	52 65       	ori	r21, 0x52	; 82
     231:	73 74       	andi	r23, 0x43	; 67
     233:	61 72       	andi	r22, 0x21	; 33
     235:	74 00       	.word	0x0074	; ????

00000237 <__c.2177>:
     237:	54 69       	ori	r21, 0x94	; 148
     239:	6d 65       	ori	r22, 0x5D	; 93
     23b:	72 20       	and	r7, r2
     23d:	4f 76       	andi	r20, 0x6F	; 111
     23f:	65 72       	andi	r22, 0x25	; 37
     241:	66 6c       	ori	r22, 0xC6	; 198
     243:	6f 77       	andi	r22, 0x7F	; 127
     245:	00 55       	subi	r16, 0x50	; 80

00000246 <__c.2174>:
     246:	55 6e       	ori	r21, 0xE5	; 229
     248:	68 61       	ori	r22, 0x18	; 24
     24a:	6e 64       	ori	r22, 0x4E	; 78
     24c:	6c 65       	ori	r22, 0x5C	; 92
     24e:	64 20       	and	r6, r4
     250:	49 6e       	ori	r20, 0xE9	; 233
     252:	74 65       	ori	r23, 0x54	; 84
     254:	72 72       	andi	r23, 0x22	; 34
     256:	75 70       	andi	r23, 0x05	; 5
     258:	74 20       	and	r7, r4
     25a:	56 65       	ori	r21, 0x56	; 86
     25c:	63 74       	andi	r22, 0x43	; 67
     25e:	6f 72       	andi	r22, 0x2F	; 47
     260:	00 4c       	sbci	r16, 0xC0	; 192

00000261 <__c.2171>:
     261:	4c 6f       	ori	r20, 0xFC	; 252
     263:	77 20       	and	r7, r7
     265:	56 6f       	ori	r21, 0xF6	; 246
     267:	6c 74       	andi	r22, 0x4C	; 76
     269:	61 67       	ori	r22, 0x71	; 113
     26b:	65 00       	.word	0x0065	; ????

0000026d <__c.2168>:
     26d:	45 78       	andi	r20, 0x85	; 133
     26f:	74 72       	andi	r23, 0x24	; 36
     271:	61 20       	and	r6, r1
     273:	54 61       	ori	r21, 0x14	; 20
     275:	73 6b       	ori	r23, 0xB3	; 179
     277:	20 73       	andi	r18, 0x30	; 48
     279:	74 61       	ori	r23, 0x14	; 20
     27b:	72 74       	andi	r23, 0x42	; 66
     27d:	65 64       	ori	r22, 0x45	; 69
     27f:	2c 20       	and	r2, r12
     281:	69 73       	andi	r22, 0x39	; 57
     283:	20 6e       	ori	r18, 0xE0	; 224
     285:	72 6b       	ori	r23, 0xB2	; 178
     287:	5f 63       	ori	r21, 0x3F	; 63
     289:	66 67       	ori	r22, 0x76	; 118
     28b:	2e 68       	ori	r18, 0x8E	; 142
     28d:	20 6f       	ori	r18, 0xF0	; 240
     28f:	6b 3f       	cpi	r22, 0xFB	; 251
     291:	00 49       	sbci	r16, 0x90	; 144

00000292 <__c.2165>:
     292:	49 64       	ori	r20, 0x49	; 73
     294:	6c 65       	ori	r22, 0x5C	; 92
     296:	20 6f       	ori	r18, 0xF0	; 240
     298:	72 20       	and	r7, r2
     29a:	4b 65       	ori	r20, 0x5B	; 91
     29c:	72 6e       	ori	r23, 0xE2	; 226
     29e:	65 6c       	ori	r22, 0xC5	; 197
     2a0:	20 53       	subi	r18, 0x30	; 48
     2a2:	74 61       	ori	r23, 0x14	; 20
     2a4:	63 6b       	ori	r22, 0xB3	; 179
     2a6:	20 4f       	sbci	r18, 0xF0	; 240
     2a8:	76 65       	ori	r23, 0x56	; 86
     2aa:	72 66       	ori	r23, 0x62	; 98
     2ac:	6c 6f       	ori	r22, 0xFC	; 252
     2ae:	77 00       	.word	0x0077	; ????

000002b0 <__c.2162>:
     2b0:	55 6e       	ori	r21, 0xE5	; 229
     2b2:	65 78       	andi	r22, 0x85	; 133
     2b4:	70 65       	ori	r23, 0x50	; 80
     2b6:	63 74       	andi	r22, 0x43	; 67
     2b8:	65 64       	ori	r22, 0x45	; 69
     2ba:	20 52       	subi	r18, 0x20	; 32
     2bc:	65 73       	andi	r22, 0x35	; 53
     2be:	74 61       	ori	r23, 0x14	; 20
     2c0:	72 74       	andi	r23, 0x42	; 66
     2c2:	00 44       	sbci	r16, 0x40	; 64

000002c3 <__c.2159>:
     2c3:	44 75       	andi	r20, 0x54	; 84
     2c5:	70 6c       	ori	r23, 0xC0	; 192
     2c7:	69 63       	ori	r22, 0x39	; 57
     2c9:	61 74       	andi	r22, 0x41	; 65
     2cb:	65 64       	ori	r22, 0x45	; 69
     2cd:	20 54       	subi	r18, 0x40	; 64
     2cf:	61 73       	andi	r22, 0x31	; 49
     2d1:	6b 20       	and	r6, r11
     2d3:	49 44       	sbci	r20, 0x49	; 73
     2d5:	00 53       	subi	r16, 0x30	; 48

000002d6 <__c.2156>:
     2d6:	53 63       	ori	r21, 0x33	; 51
     2d8:	68 65       	ori	r22, 0x58	; 88
     2da:	64 75       	andi	r22, 0x54	; 84
     2dc:	6c 65       	ori	r22, 0x5C	; 92
     2de:	72 20       	and	r7, r2
     2e0:	4d 69       	ori	r20, 0x9D	; 157
     2e2:	73 73       	andi	r23, 0x33	; 51
     2e4:	65 64       	ori	r22, 0x45	; 69
     2e6:	20 57       	subi	r18, 0x70	; 112
     2e8:	61 6b       	ori	r22, 0xB1	; 177
     2ea:	65 75       	andi	r22, 0x55	; 85
     2ec:	70 00       	.word	0x0070	; ????

000002ee <__c.2153>:
     2ee:	54 61       	ori	r21, 0x14	; 20
     2f0:	73 6b       	ori	r23, 0xB3	; 179
     2f2:	20 52       	subi	r18, 0x20	; 32
     2f4:	65 73       	andi	r22, 0x35	; 53
     2f6:	65 72       	andi	r22, 0x25	; 37
     2f8:	76 65       	ori	r23, 0x56	; 86
     2fa:	20 56       	subi	r18, 0x60	; 96
     2fc:	69 6f       	ori	r22, 0xF9	; 249
     2fe:	6c 61       	ori	r22, 0x1C	; 28
     300:	74 65       	ori	r23, 0x54	; 84
     302:	64 00       	.word	0x0064	; ????

00000304 <__c.2150>:
     304:	52 65       	ori	r21, 0x52	; 82
     306:	73 65       	ori	r23, 0x53	; 83
     308:	72 76       	andi	r23, 0x62	; 98
     30a:	65 20       	and	r6, r5
     30c:	45 72       	andi	r20, 0x25	; 37
     30e:	72 6f       	ori	r23, 0xF2	; 242
     310:	72 20       	and	r7, r2
     312:	69 6e       	ori	r22, 0xE9	; 233
     314:	20 53       	subi	r18, 0x30	; 48
     316:	63 68       	ori	r22, 0x83	; 131
     318:	65 64       	ori	r22, 0x45	; 69
     31a:	75 6c       	ori	r23, 0xC5	; 197
     31c:	65 72       	andi	r22, 0x25	; 37
     31e:	00 49       	sbci	r16, 0x90	; 144

0000031f <__c.2147>:
     31f:	49 6e       	ori	r20, 0xE9	; 233
     321:	76 61       	ori	r23, 0x16	; 22
     323:	6c 69       	ori	r22, 0x9C	; 156
     325:	64 20       	and	r6, r4
     327:	53 74       	andi	r21, 0x43	; 67
     329:	61 63       	ori	r22, 0x31	; 49
     32b:	6b 20       	and	r6, r11
     32d:	50 6f       	ori	r21, 0xF0	; 240
     32f:	69 6e       	ori	r22, 0xE9	; 233
     331:	74 65       	ori	r23, 0x54	; 84
     333:	72 00       	.word	0x0072	; ????

00000335 <__c.2144>:
     335:	54 61       	ori	r21, 0x14	; 20
     337:	73 6b       	ori	r23, 0xB3	; 179
     339:	20 53       	subi	r18, 0x30	; 48
     33b:	74 61       	ori	r23, 0x14	; 20
     33d:	63 6b       	ori	r22, 0xB3	; 179
     33f:	20 4f       	sbci	r18, 0xF0	; 240
     341:	76 65       	ori	r23, 0x56	; 86
     343:	72 66       	ori	r23, 0x62	; 98
     345:	6c 6f       	ori	r22, 0xFC	; 252
     347:	77 00       	.word	0x0077	; ????

00000349 <__c.2141>:
     349:	53 74       	andi	r21, 0x43	; 67
     34b:	61 63       	ori	r22, 0x31	; 49
     34d:	6b 20       	and	r6, r11
     34f:	77 61       	ori	r23, 0x17	; 23
     351:	73 20       	and	r7, r3
     353:	6e 6f       	ori	r22, 0xFE	; 254
     355:	74 20       	and	r7, r4
     357:	64 65       	ori	r22, 0x54	; 84
     359:	66 69       	ori	r22, 0x96	; 150
     35b:	6e 65       	ori	r22, 0x5E	; 94
     35d:	64 20       	and	r6, r4
     35f:	61 73       	andi	r22, 0x31	; 49
     361:	20 6c       	ori	r18, 0xC0	; 192
     363:	61 72       	andi	r22, 0x21	; 33
     365:	67 65       	ori	r22, 0x57	; 87
     367:	20 65       	ori	r18, 0x50	; 80
     369:	6e 6f       	ori	r22, 0xFE	; 254
     36b:	75 67       	ori	r23, 0x75	; 117
     36d:	68 21       	and	r22, r8
     36f:	00 54       	subi	r16, 0x40	; 64

00000370 <__c.2137>:
     370:	54 61       	ori	r21, 0x14	; 20
     372:	73 6b       	ori	r23, 0xB3	; 179
     374:	20 70       	andi	r18, 0x00	; 0
     376:	65 72       	andi	r22, 0x25	; 37
     378:	69 6f       	ori	r22, 0xF9	; 249
     37a:	64 20       	and	r6, r4
     37c:	74 6f       	ori	r23, 0xF4	; 244
     37e:	6f 20       	and	r6, r15
     380:	6c 61       	ori	r22, 0x1C	; 28
     382:	72 67       	ori	r23, 0x72	; 114
     384:	65 2e       	mov	r6, r21
     386:	20 50       	subi	r18, 0x00	; 0
     388:	65 72       	andi	r22, 0x25	; 37
     38a:	69 6f       	ori	r22, 0xF9	; 249
     38c:	64 20       	and	r6, r4
     38e:	6d 75       	andi	r22, 0x5D	; 93
     390:	73 74       	andi	r23, 0x43	; 67
     392:	20 62       	ori	r18, 0x20	; 32
     394:	65 20       	and	r6, r5
     396:	6c 65       	ori	r22, 0x5C	; 92
     398:	73 73       	andi	r23, 0x33	; 51
     39a:	20 74       	andi	r18, 0x40	; 64
     39c:	68 61       	ori	r22, 0x18	; 24
     39e:	6e 20       	and	r6, r14
     3a0:	36 31       	cpi	r19, 0x16	; 22
     3a2:	20 73       	andi	r18, 0x30	; 48
     3a4:	65 63       	ori	r22, 0x35	; 53
     3a6:	6f 6e       	ori	r22, 0xEF	; 239
     3a8:	64 73       	andi	r22, 0x34	; 52
     3aa:	2e 00       	.word	0x002e	; ????

000003ac <__c.2134>:
     3ac:	29 3a       	cpi	r18, 0xA9	; 169
     3ae:	20 00       	.word	0x0020	; ????

000003b0 <__c.2132>:
     3b0:	2a 4e       	sbci	r18, 0xEA	; 234
     3b2:	52 4b       	sbci	r21, 0xB2	; 178
     3b4:	20 45       	sbci	r18, 0x50	; 80
     3b6:	52 52       	subi	r21, 0x22	; 34
     3b8:	4f 52       	subi	r20, 0x2F	; 47
     3ba:	28 00       	.word	0x0028	; ????

000003bc <__c.2057>:
     3bc:	0d 0a       	sbc	r0, r29
     3be:	53 54       	subi	r21, 0x43	; 67
     3c0:	41 43       	sbci	r20, 0x31	; 49
     3c2:	4b 20       	and	r4, r11
     3c4:	44 55       	subi	r20, 0x54	; 84
     3c6:	4d 50       	subi	r20, 0x0D	; 13
     3c8:	0d 0a       	sbc	r0, r29
     3ca:	00 08       	sbc	r0, r0

000003cb <font5x7>:
     3cb:	08 08       	sbc	r0, r8
     3cd:	2a 1c       	adc	r2, r10
     3cf:	08 08       	sbc	r0, r8
     3d1:	1c 2a       	or	r1, r28
     3d3:	08 08       	sbc	r0, r8
     3d5:	40 44       	sbci	r20, 0x40	; 64
     3d7:	4a 51       	subi	r20, 0x1A	; 26
     3d9:	40 40       	sbci	r20, 0x00	; 0
     3db:	51 4a       	sbci	r21, 0xA1	; 161
     3dd:	44 40       	sbci	r20, 0x04	; 4
     3df:	14 74       	andi	r17, 0x44	; 68
     3e1:	1c 17       	cp	r17, r28
     3e3:	14 10       	cpse	r1, r4
     3e5:	20 7f       	andi	r18, 0xF0	; 240
     3e7:	01 01       	movw	r0, r2
     3e9:	00 00       	nop
     3eb:	00 00       	nop
     3ed:	00 00       	nop
     3ef:	00 00       	nop
     3f1:	00 00       	nop
     3f3:	08 1c       	adc	r0, r8
     3f5:	2c 08       	sbc	r2, r12
     3f7:	08 7f       	andi	r16, 0xF8	; 248
     3f9:	01 01       	movw	r0, r2
     3fb:	01 01       	movw	r0, r2
     3fd:	01 01       	movw	r0, r2
     3ff:	01 01       	movw	r0, r2
     401:	7f 7f       	andi	r23, 0xFF	; 255
     403:	40 40       	sbci	r20, 0x00	; 0
     405:	40 40       	sbci	r20, 0x00	; 0
     407:	40 40       	sbci	r20, 0x00	; 0
     409:	40 40       	sbci	r20, 0x00	; 0
     40b:	7f 00       	.word	0x007f	; ????
     40d:	00 00       	nop
     40f:	00 00       	nop
     411:	00 00       	nop
     413:	00 00       	nop
     415:	00 00       	nop
     417:	00 00       	nop
     419:	00 00       	nop
     41b:	79 11       	cpse	r23, r9
     41d:	27 11       	cpse	r18, r7
     41f:	79 00       	.word	0x0079	; ????
     421:	00 00       	nop
     423:	00 00       	nop
     425:	00 00       	nop
     427:	00 00       	nop
     429:	00 00       	nop
     42b:	00 00       	nop
     42d:	00 00       	nop
     42f:	7f 01       	movw	r14, r30
     431:	01 01       	movw	r0, r2
     433:	03 60       	ori	r16, 0x03	; 3
     435:	50 48       	sbci	r21, 0x80	; 128
     437:	44 7e       	andi	r20, 0xE4	; 228
     439:	3e 49       	sbci	r19, 0x9E	; 158
     43b:	49 49       	sbci	r20, 0x99	; 153
     43d:	3e 70       	andi	r19, 0x0E	; 14
     43f:	0c 03       	fmul	r16, r20
     441:	0c 70       	andi	r16, 0x0C	; 12
     443:	63 49       	sbci	r22, 0x93	; 147
     445:	49 49       	sbci	r20, 0x99	; 153
     447:	63 01       	movw	r12, r6
     449:	7f 01       	movw	r14, r30
     44b:	7f 01       	movw	r14, r30
     44d:	63 55       	subi	r22, 0x53	; 83
     44f:	49 41       	sbci	r20, 0x19	; 25
     451:	41 06       	cpc	r4, r17
     453:	01 7e       	andi	r16, 0xE1	; 225
     455:	01 06       	cpc	r0, r17
     457:	08 55       	subi	r16, 0x58	; 88
     459:	7f 55       	subi	r23, 0x5F	; 95
     45b:	08 0f       	add	r16, r24
     45d:	10 7f       	andi	r17, 0xF0	; 240
     45f:	10 0f       	add	r17, r16
     461:	4e 71       	andi	r20, 0x1E	; 30
     463:	01 71       	andi	r16, 0x11	; 17
     465:	4e 38       	cpi	r20, 0x8E	; 142
     467:	44 44       	sbci	r20, 0x44	; 68
     469:	38 44       	sbci	r19, 0x48	; 72
     46b:	00 00       	nop
     46d:	00 00       	nop
     46f:	00 00       	nop
     471:	00 5f       	subi	r16, 0xF0	; 240
     473:	00 00       	nop
     475:	03 00       	.word	0x0003	; ????
     477:	03 00       	.word	0x0003	; ????
     479:	00 14       	cp	r0, r0
     47b:	3e 14       	cp	r3, r14
     47d:	3e 14       	cp	r3, r14
     47f:	26 49       	sbci	r18, 0x96	; 150
     481:	7f 49       	sbci	r23, 0x9F	; 159
     483:	32 62       	ori	r19, 0x22	; 34
     485:	15 2a       	or	r1, r21
     487:	54 23       	and	r21, r20
     489:	36 49       	sbci	r19, 0x96	; 150
     48b:	56 20       	and	r5, r6
     48d:	50 00       	.word	0x0050	; ????
     48f:	03 00       	.word	0x0003	; ????
     491:	00 00       	nop
     493:	00 1c       	adc	r0, r0
     495:	22 41       	sbci	r18, 0x12	; 18
     497:	00 00       	nop
     499:	41 22       	and	r4, r17
     49b:	1c 00       	.word	0x001c	; ????
     49d:	00 14       	cp	r0, r0
     49f:	0e 14       	cp	r0, r14
     4a1:	00 08       	sbc	r0, r0
     4a3:	08 3e       	cpi	r16, 0xE8	; 232
     4a5:	08 08       	sbc	r0, r8
     4a7:	00 60       	ori	r16, 0x00	; 0
     4a9:	00 00       	nop
     4ab:	00 08       	sbc	r0, r0
     4ad:	08 08       	sbc	r0, r8
     4af:	08 00       	.word	0x0008	; ????
     4b1:	00 40       	sbci	r16, 0x00	; 0
     4b3:	00 00       	nop
     4b5:	00 60       	ori	r16, 0x00	; 0
     4b7:	10 08       	sbc	r1, r0
     4b9:	04 03       	mulsu	r16, r20
     4bb:	3e 41       	sbci	r19, 0x1E	; 30
     4bd:	41 41       	sbci	r20, 0x11	; 17
     4bf:	3e 04       	cpc	r3, r14
     4c1:	02 7f       	andi	r16, 0xF2	; 242
     4c3:	00 00       	nop
     4c5:	62 51       	subi	r22, 0x12	; 18
     4c7:	49 45       	sbci	r20, 0x59	; 89
     4c9:	42 22       	and	r4, r18
     4cb:	41 49       	sbci	r20, 0x91	; 145
     4cd:	49 36       	cpi	r20, 0x69	; 105
     4cf:	0c 0b       	sbc	r16, r28
     4d1:	08 7e       	andi	r16, 0xE8	; 232
     4d3:	08 4f       	sbci	r16, 0xF8	; 248
     4d5:	49 49       	sbci	r20, 0x99	; 153
     4d7:	49 31       	cpi	r20, 0x19	; 25
     4d9:	3e 49       	sbci	r19, 0x9E	; 158
     4db:	49 49       	sbci	r20, 0x99	; 153
     4dd:	32 61       	ori	r19, 0x12	; 18
     4df:	11 09       	sbc	r17, r1
     4e1:	05 03       	mulsu	r16, r21
     4e3:	36 49       	sbci	r19, 0x96	; 150
     4e5:	49 49       	sbci	r20, 0x99	; 153
     4e7:	36 26       	eor	r3, r22
     4e9:	49 49       	sbci	r20, 0x99	; 153
     4eb:	49 3e       	cpi	r20, 0xE9	; 233
     4ed:	00 22       	and	r0, r16
     4ef:	00 00       	nop
     4f1:	00 00       	nop
     4f3:	61 00       	.word	0x0061	; ????
     4f5:	00 00       	nop
     4f7:	08 14       	cp	r0, r8
     4f9:	14 22       	and	r1, r20
     4fb:	22 14       	cp	r2, r2
     4fd:	14 14       	cp	r1, r4
     4ff:	14 14       	cp	r1, r4
     501:	22 22       	and	r2, r18
     503:	14 14       	cp	r1, r4
     505:	08 06       	cpc	r0, r24
     507:	01 59       	subi	r16, 0x91	; 145
     509:	05 02       	muls	r16, r21
     50b:	3e 41       	sbci	r19, 0x1E	; 30
     50d:	5d 55       	subi	r21, 0x5D	; 93
     50f:	5e 7e       	andi	r21, 0xEE	; 238
     511:	09 09       	sbc	r16, r9
     513:	09 7e       	andi	r16, 0xE9	; 233
     515:	7f 49       	sbci	r23, 0x9F	; 159
     517:	49 49       	sbci	r20, 0x99	; 153
     519:	36 3e       	cpi	r19, 0xE6	; 230
     51b:	41 41       	sbci	r20, 0x11	; 17
     51d:	41 22       	and	r4, r17
     51f:	7f 41       	sbci	r23, 0x1F	; 31
     521:	41 41       	sbci	r20, 0x11	; 17
     523:	3e 7f       	andi	r19, 0xFE	; 254
     525:	49 49       	sbci	r20, 0x99	; 153
     527:	49 41       	sbci	r20, 0x19	; 25
     529:	7f 09       	sbc	r23, r15
     52b:	09 09       	sbc	r16, r9
     52d:	01 3e       	cpi	r16, 0xE1	; 225
     52f:	41 49       	sbci	r20, 0x91	; 145
     531:	49 32       	cpi	r20, 0x29	; 41
     533:	7f 08       	sbc	r7, r15
     535:	08 08       	sbc	r0, r8
     537:	7f 00       	.word	0x007f	; ????
     539:	00 7f       	andi	r16, 0xF0	; 240
     53b:	00 00       	nop
     53d:	20 40       	sbci	r18, 0x00	; 0
     53f:	40 40       	sbci	r20, 0x00	; 0
     541:	3f 7f       	andi	r19, 0xFF	; 255
     543:	08 14       	cp	r0, r8
     545:	22 41       	sbci	r18, 0x12	; 18
     547:	7f 40       	sbci	r23, 0x0F	; 15
     549:	40 40       	sbci	r20, 0x00	; 0
     54b:	00 7f       	andi	r16, 0xF0	; 240
     54d:	02 04       	cpc	r0, r2
     54f:	02 7f       	andi	r16, 0xF2	; 242
     551:	7f 02       	muls	r23, r31
     553:	1c 20       	and	r1, r12
     555:	7f 3e       	cpi	r23, 0xEF	; 239
     557:	41 41       	sbci	r20, 0x11	; 17
     559:	41 3e       	cpi	r20, 0xE1	; 225
     55b:	7f 09       	sbc	r23, r15
     55d:	09 09       	sbc	r16, r9
     55f:	06 3e       	cpi	r16, 0xE6	; 230
     561:	41 51       	subi	r20, 0x11	; 17
     563:	61 7e       	andi	r22, 0xE1	; 225
     565:	7f 09       	sbc	r23, r15
     567:	19 29       	or	r17, r9
     569:	46 26       	eor	r4, r22
     56b:	49 49       	sbci	r20, 0x99	; 153
     56d:	49 32       	cpi	r20, 0x29	; 41
     56f:	01 01       	movw	r0, r2
     571:	7f 01       	movw	r14, r30
     573:	01 3f       	cpi	r16, 0xF1	; 241
     575:	40 40       	sbci	r20, 0x00	; 0
     577:	40 3f       	cpi	r20, 0xF0	; 240
     579:	1f 20       	and	r1, r15
     57b:	40 20       	and	r4, r0
     57d:	1f 3f       	cpi	r17, 0xFF	; 255
     57f:	40 30       	cpi	r20, 0x00	; 0
     581:	40 3f       	cpi	r20, 0xF0	; 240
     583:	63 14       	cp	r6, r3
     585:	08 14       	cp	r0, r8
     587:	63 03       	mulsu	r22, r19
     589:	04 78       	andi	r16, 0x84	; 132
     58b:	04 03       	mulsu	r16, r20
     58d:	61 51       	subi	r22, 0x11	; 17
     58f:	49 45       	sbci	r20, 0x59	; 89
     591:	43 7f       	andi	r20, 0xF3	; 243
     593:	41 00       	.word	0x0041	; ????
     595:	00 00       	nop
     597:	00 00       	nop
     599:	00 00       	nop
     59b:	00 00       	nop
     59d:	00 00       	nop
     59f:	41 7f       	andi	r20, 0xF1	; 241
     5a1:	06 01       	movw	r0, r12
     5a3:	06 00       	.word	0x0006	; ????
     5a5:	00 40       	sbci	r16, 0x00	; 0
     5a7:	40 40       	sbci	r20, 0x00	; 0
     5a9:	40 40       	sbci	r20, 0x00	; 0
     5ab:	01 02       	muls	r16, r17
     5ad:	00 00       	nop
     5af:	00 20       	and	r0, r0
     5b1:	54 54       	subi	r21, 0x44	; 68
     5b3:	54 78       	andi	r21, 0x84	; 132
     5b5:	7f 48       	sbci	r23, 0x8F	; 143
     5b7:	48 48       	sbci	r20, 0x88	; 136
     5b9:	30 38       	cpi	r19, 0x80	; 128
     5bb:	44 44       	sbci	r20, 0x44	; 68
     5bd:	44 28       	or	r4, r4
     5bf:	38 44       	sbci	r19, 0x48	; 72
     5c1:	44 44       	sbci	r20, 0x44	; 68
     5c3:	7f 38       	cpi	r23, 0x8F	; 143
     5c5:	54 54       	subi	r21, 0x44	; 68
     5c7:	54 18       	sub	r5, r4
     5c9:	08 7e       	andi	r16, 0xE8	; 232
     5cb:	09 09       	sbc	r16, r9
     5cd:	01 0c       	add	r0, r1
     5cf:	52 52       	subi	r21, 0x22	; 34
     5d1:	52 3e       	cpi	r21, 0xE2	; 226
     5d3:	7f 04       	cpc	r7, r15
     5d5:	04 04       	cpc	r0, r4
     5d7:	78 04       	cpc	r7, r8
     5d9:	7d 40       	sbci	r23, 0x0D	; 13
     5db:	40 20       	and	r4, r0
     5dd:	20 40       	sbci	r18, 0x00	; 0
     5df:	40 44       	sbci	r20, 0x40	; 64
     5e1:	3d 00       	.word	0x003d	; ????
     5e3:	7f 10       	cpse	r7, r15
     5e5:	28 44       	sbci	r18, 0x48	; 72
     5e7:	20 3e       	cpi	r18, 0xE0	; 224
     5e9:	51 49       	sbci	r21, 0x91	; 145
     5eb:	46 7c       	andi	r20, 0xC6	; 198
     5ed:	04 7c       	andi	r16, 0xC4	; 196
     5ef:	04 78       	andi	r16, 0x84	; 132
     5f1:	7c 08       	sbc	r7, r12
     5f3:	04 04       	cpc	r0, r4
     5f5:	78 38       	cpi	r23, 0x88	; 136
     5f7:	44 44       	sbci	r20, 0x44	; 68
     5f9:	44 38       	cpi	r20, 0x84	; 132
     5fb:	7e 12       	cpse	r7, r30
     5fd:	12 12       	cpse	r1, r18
     5ff:	0c 0c       	add	r0, r12
     601:	12 12       	cpse	r1, r18
     603:	12 7e       	andi	r17, 0xE2	; 226
     605:	04 78       	andi	r16, 0x84	; 132
     607:	04 04       	cpc	r0, r4
     609:	08 48       	sbci	r16, 0x88	; 136
     60b:	54 54       	subi	r21, 0x44	; 68
     60d:	54 24       	eor	r5, r4
     60f:	04 3f       	cpi	r16, 0xF4	; 244
     611:	44 44       	sbci	r20, 0x44	; 68
     613:	40 3c       	cpi	r20, 0xC0	; 192
     615:	40 40       	sbci	r20, 0x00	; 0
     617:	3c 40       	sbci	r19, 0x0C	; 12
     619:	1c 20       	and	r1, r12
     61b:	40 20       	and	r4, r0
     61d:	1c 3c       	cpi	r17, 0xCC	; 204
     61f:	40 30       	cpi	r20, 0x00	; 0
     621:	40 3c       	cpi	r20, 0xC0	; 192
     623:	44 28       	or	r4, r4
     625:	10 28       	or	r1, r0
     627:	44 26       	eor	r4, r20
     629:	48 48       	sbci	r20, 0x88	; 136
     62b:	48 3e       	cpi	r20, 0xE8	; 232
     62d:	44 64       	ori	r20, 0x44	; 68
     62f:	54 4c       	sbci	r21, 0xC4	; 196
     631:	44 00       	.word	0x0044	; ????
     633:	08 3e       	cpi	r16, 0xE8	; 232
     635:	41 00       	.word	0x0041	; ????
     637:	00 00       	nop
     639:	7f 00       	.word	0x007f	; ????
     63b:	00 00       	nop
     63d:	41 3e       	cpi	r20, 0xE1	; 225
     63f:	08 00       	.word	0x0008	; ????
     641:	00 00       	nop
     643:	00 00       	nop
     645:	00 00       	nop
     647:	00 00       	nop
     649:	00 00       	nop
     64b:	00 00       	nop
     64d:	00 00       	nop
     64f:	00 00       	nop
     651:	00 00       	nop
     653:	00 00       	nop
     655:	00 00       	nop
     657:	00 00       	nop
     659:	00 20       	and	r0, r0
     65b:	48 3e       	cpi	r20, 0xE8	; 232
     65d:	09 02       	muls	r16, r25
     65f:	00 00       	nop
     661:	00 00       	nop
     663:	00 00       	nop
     665:	00 00       	nop
     667:	00 00       	nop
     669:	04 04       	cpc	r0, r4
     66b:	7f 04       	cpc	r7, r15
     66d:	04 00       	.word	0x0004	; ????
     66f:	00 00       	nop
     671:	00 00       	nop
     673:	00 00       	nop
     675:	00 00       	nop
     677:	00 00       	nop
     679:	00 00       	nop
     67b:	00 00       	nop
     67d:	00 00       	nop
     67f:	00 00       	nop
     681:	00 00       	nop
     683:	00 00       	nop
     685:	00 00       	nop
     687:	00 00       	nop
     689:	00 00       	nop
     68b:	00 00       	nop
     68d:	00 00       	nop
     68f:	00 00       	nop
     691:	00 00       	nop
     693:	00 00       	nop
     695:	00 00       	nop
     697:	00 00       	nop
     699:	00 00       	nop
     69b:	00 00       	nop
     69d:	00 00       	nop
     69f:	00 00       	nop
     6a1:	00 00       	nop
     6a3:	00 00       	nop
     6a5:	00 00       	nop
     6a7:	00 00       	nop
     6a9:	00 02       	muls	r16, r16
     6ab:	04 01       	movw	r0, r8
     6ad:	02 00       	.word	0x0002	; ????
     6af:	00 00       	nop
     6b1:	00 00       	nop
     6b3:	00 00       	nop
     6b5:	18 18       	sub	r1, r8
     6b7:	00 00       	nop
     6b9:	00 00       	nop
     6bb:	00 00       	nop
     6bd:	00 00       	nop
     6bf:	00 00       	nop
     6c1:	00 00       	nop
     6c3:	00 00       	nop
     6c5:	00 00       	nop
     6c7:	00 00       	nop
     6c9:	00 00       	nop
     6cb:	00 00       	nop
     6cd:	00 00       	nop
     6cf:	00 00       	nop
     6d1:	00 00       	nop
     6d3:	00 00       	nop
     6d5:	00 00       	nop
     6d7:	00 00       	nop
     6d9:	00 00       	nop
     6db:	00 00       	nop
     6dd:	00 00       	nop
     6df:	00 00       	nop
     6e1:	00 00       	nop
     6e3:	00 00       	nop
     6e5:	00 00       	nop
     6e7:	00 00       	nop
     6e9:	00 00       	nop
     6eb:	00 00       	nop
     6ed:	00 00       	nop
     6ef:	00 00       	nop
     6f1:	00 79       	andi	r16, 0x90	; 144
     6f3:	00 00       	nop
     6f5:	00 00       	nop
     6f7:	00 00       	nop
     6f9:	00 48       	sbci	r16, 0x80	; 128
     6fb:	7e 49       	sbci	r23, 0x9E	; 158
     6fd:	49 42       	sbci	r20, 0x29	; 41
     6ff:	00 00       	nop
     701:	00 00       	nop
     703:	00 15       	cp	r16, r0
     705:	16 7c       	andi	r17, 0xC6	; 198
     707:	16 15       	cp	r17, r6
     709:	00 00       	nop
     70b:	00 00       	nop
     70d:	00 0a       	sbc	r0, r16
     70f:	55 55       	subi	r21, 0x55	; 85
     711:	55 28       	or	r5, r5
     713:	00 01       	movw	r0, r0
     715:	00 01       	movw	r0, r0
     717:	00 3e       	cpi	r16, 0xE0	; 224
     719:	63 5d       	subi	r22, 0xD3	; 211
     71b:	6b 3e       	cpi	r22, 0xEB	; 235
     71d:	00 00       	nop
     71f:	00 00       	nop
     721:	00 08       	sbc	r0, r0
     723:	14 2a       	or	r1, r20
     725:	14 22       	and	r1, r20
     727:	00 00       	nop
     729:	00 00       	nop
     72b:	00 00       	nop
     72d:	00 00       	nop
     72f:	00 00       	nop
     731:	3e 41       	sbci	r19, 0x1E	; 30
     733:	75 4b       	sbci	r23, 0xB5	; 181
     735:	3e 01       	movw	r6, r28
     737:	01 01       	movw	r0, r2
     739:	01 01       	movw	r0, r2
     73b:	00 02       	muls	r16, r16
     73d:	05 02       	muls	r16, r21
     73f:	00 00       	nop
     741:	00 00       	nop
     743:	00 00       	nop
     745:	00 00       	nop
     747:	00 00       	nop
     749:	00 00       	nop
     74b:	00 00       	nop
     74d:	00 00       	nop
     74f:	00 00       	nop
     751:	00 00       	nop
     753:	00 00       	nop
     755:	00 00       	nop
     757:	00 00       	nop
     759:	06 0f       	add	r16, r22
     75b:	7f 01       	movw	r14, r30
     75d:	7f 00       	.word	0x007f	; ????
     75f:	00 00       	nop
     761:	00 00       	nop
     763:	00 00       	nop
     765:	00 00       	nop
     767:	00 00       	nop
     769:	00 00       	nop
     76b:	00 00       	nop
     76d:	07 05       	cpc	r16, r7
     76f:	07 00       	.word	0x0007	; ????
     771:	00 22       	and	r0, r16
     773:	14 2a       	or	r1, r20
     775:	14 08       	sbc	r1, r4
     777:	0f 00       	.word	0x000f	; ????
     779:	3c 20       	and	r3, r12
     77b:	78 0f       	add	r23, r24
     77d:	00 48       	sbci	r16, 0x80	; 128
     77f:	64 58       	subi	r22, 0x84	; 132
     781:	00 00       	nop
     783:	00 00       	nop
     785:	00 30       	cpi	r16, 0x00	; 0
     787:	48 45       	sbci	r20, 0x58	; 88
     789:	40 20       	and	r4, r0
     78b:	00 00       	nop
     78d:	00 00       	nop
     78f:	00 00       	nop
     791:	00 00       	nop
     793:	00 00       	nop
     795:	00 00       	nop
     797:	00 00       	nop
     799:	00 72       	andi	r16, 0x20	; 32
     79b:	29 29       	or	r18, r9
     79d:	2a 71       	andi	r18, 0x1A	; 26
     79f:	78 25       	eor	r23, r8
     7a1:	24 25       	eor	r18, r4
     7a3:	78 70       	andi	r23, 0x08	; 8
     7a5:	2a 25       	eor	r18, r10
     7a7:	2a 70       	andi	r18, 0x0A	; 10
     7a9:	7e 09       	sbc	r23, r14
     7ab:	7f 49       	sbci	r23, 0x9F	; 159
     7ad:	49 0e       	add	r4, r25
     7af:	51 51       	subi	r21, 0x11	; 17
     7b1:	71 11       	cpse	r23, r1
     7b3:	00 00       	nop
     7b5:	00 00       	nop
     7b7:	00 7c       	andi	r16, 0xC0	; 192
     7b9:	54 56       	subi	r21, 0x64	; 100
     7bb:	55 44       	sbci	r21, 0x45	; 69
     7bd:	00 00       	nop
     7bf:	00 00       	nop
     7c1:	00 00       	nop
     7c3:	00 00       	nop
     7c5:	00 00       	nop
     7c7:	00 00       	nop
     7c9:	00 00       	nop
     7cb:	00 00       	nop
     7cd:	00 00       	nop
     7cf:	00 00       	nop
     7d1:	00 00       	nop
     7d3:	00 00       	nop
     7d5:	00 00       	nop
     7d7:	00 00       	nop
     7d9:	00 00       	nop
     7db:	00 00       	nop
     7dd:	00 00       	nop
     7df:	00 7a       	andi	r16, 0xA0	; 160
     7e1:	09 11       	cpse	r16, r9
     7e3:	22 79       	andi	r18, 0x92	; 146
     7e5:	00 00       	nop
     7e7:	00 00       	nop
     7e9:	00 00       	nop
     7eb:	00 00       	nop
     7ed:	00 00       	nop
     7ef:	00 00       	nop
     7f1:	00 00       	nop
     7f3:	00 3a       	cpi	r16, 0xA0	; 160
     7f5:	45 45       	sbci	r20, 0x55	; 85
     7f7:	46 39       	cpi	r20, 0x96	; 150
     7f9:	3d 42       	sbci	r19, 0x2D	; 45
     7fb:	42 42       	sbci	r20, 0x22	; 34
     7fd:	3d 22       	and	r3, r29
     7ff:	14 08       	sbc	r1, r4
     801:	14 22       	and	r1, r20
     803:	5c 32       	cpi	r21, 0x2C	; 44
     805:	2a 26       	eor	r2, r26
     807:	1d 00       	.word	0x001d	; ????
     809:	00 00       	nop
     80b:	00 00       	nop
     80d:	00 00       	nop
     80f:	00 00       	nop
     811:	00 00       	nop
     813:	00 00       	nop
     815:	00 00       	nop
     817:	3c 41       	sbci	r19, 0x1C	; 28
     819:	40 41       	sbci	r20, 0x10	; 16
     81b:	3c 00       	.word	0x003c	; ????
     81d:	00 00       	nop
     81f:	00 00       	nop
     821:	00 00       	nop
     823:	00 00       	nop
     825:	00 00       	nop
     827:	00 00       	nop
     829:	00 00       	nop
     82b:	20 55       	subi	r18, 0x50	; 80
     82d:	56 54       	subi	r21, 0x46	; 70
     82f:	78 20       	and	r7, r8
     831:	54 56       	subi	r21, 0x64	; 100
     833:	55 78       	andi	r21, 0x85	; 133
     835:	20 56       	subi	r18, 0x60	; 96
     837:	55 56       	subi	r21, 0x65	; 101
     839:	78 22       	and	r7, r24
     83b:	51 55       	subi	r21, 0x51	; 81
     83d:	56 79       	andi	r21, 0x96	; 150
     83f:	20 55       	subi	r18, 0x50	; 80
     841:	54 55       	subi	r21, 0x54	; 84
     843:	78 00       	.word	0x0078	; ????
     845:	00 00       	nop
     847:	00 00       	nop
     849:	24 54       	subi	r18, 0x44	; 68
     84b:	78 54       	subi	r23, 0x48	; 72
     84d:	58 0c       	add	r5, r8
     84f:	52 52       	subi	r21, 0x22	; 34
     851:	72 12       	cpse	r7, r18
     853:	38 55       	subi	r19, 0x58	; 88
     855:	56 54       	subi	r21, 0x46	; 70
     857:	18 38       	cpi	r17, 0x88	; 136
     859:	54 56       	subi	r21, 0x64	; 100
     85b:	55 18       	sub	r5, r5
     85d:	38 56       	subi	r19, 0x68	; 104
     85f:	55 56       	subi	r21, 0x65	; 101
     861:	18 38       	cpi	r17, 0x88	; 136
     863:	55 54       	subi	r21, 0x45	; 69
     865:	55 18       	sub	r5, r5
     867:	00 49       	sbci	r16, 0x90	; 144
     869:	7a 40       	sbci	r23, 0x0A	; 10
     86b:	00 00       	nop
     86d:	48 7a       	andi	r20, 0xA8	; 168
     86f:	41 00       	.word	0x0041	; ????
     871:	00 4a       	sbci	r16, 0xA0	; 160
     873:	79 42       	sbci	r23, 0x29	; 41
     875:	00 00       	nop
     877:	4a 78       	andi	r20, 0x8A	; 138
     879:	42 00       	.word	0x0042	; ????
     87b:	00 00       	nop
     87d:	00 00       	nop
     87f:	00 7a       	andi	r16, 0xA0	; 160
     881:	11 09       	sbc	r17, r1
     883:	0a 71       	andi	r16, 0x1A	; 26
     885:	30 49       	sbci	r19, 0x90	; 144
     887:	4a 48       	sbci	r20, 0x8A	; 138
     889:	30 30       	cpi	r19, 0x00	; 0
     88b:	48 4a       	sbci	r20, 0xA8	; 168
     88d:	49 30       	cpi	r20, 0x09	; 9
     88f:	30 4a       	sbci	r19, 0xA0	; 160
     891:	49 4a       	sbci	r20, 0xA9	; 169
     893:	30 32       	cpi	r19, 0x20	; 32
     895:	49 49       	sbci	r20, 0x99	; 153
     897:	4a 31       	cpi	r20, 0x1A	; 26
     899:	30 4a       	sbci	r19, 0xA0	; 160
     89b:	48 4a       	sbci	r20, 0xA8	; 168
     89d:	30 08       	sbc	r3, r0
     89f:	08 2a       	or	r0, r24
     8a1:	08 08       	sbc	r0, r8
     8a3:	18 64       	ori	r17, 0x48	; 72
     8a5:	3c 26       	eor	r3, r28
     8a7:	18 38       	cpi	r17, 0x88	; 136
     8a9:	41 42       	sbci	r20, 0x21	; 33
     8ab:	20 78       	andi	r18, 0x80	; 128
     8ad:	38 40       	sbci	r19, 0x08	; 8
     8af:	42 21       	and	r20, r2
     8b1:	78 38       	cpi	r23, 0x88	; 136
     8b3:	42 41       	sbci	r20, 0x12	; 18
     8b5:	22 78       	andi	r18, 0x82	; 130
     8b7:	38 42       	sbci	r19, 0x28	; 40
     8b9:	40 22       	and	r4, r16
     8bb:	78 00       	.word	0x0078	; ????
     8bd:	00 00       	nop
     8bf:	00 00       	nop
     8c1:	00 00       	nop
     8c3:	00 00       	nop
     8c5:	00 0c       	add	r0, r0
     8c7:	51 50       	subi	r21, 0x01	; 1
     8c9:	51 3c       	cpi	r21, 0xC1	; 193

000008cb <__c.1865>:
     8cb:	6e 61       	ori	r22, 0x1E	; 30
     8cd:	6e 00       	.word	0x006e	; ????

000008cf <__c.1863>:
     8cf:	69 6e       	ori	r22, 0xE9	; 233
     8d1:	66 00       	.word	0x0066	; ????
     8d3:	00 40       	sbci	r16, 0x00	; 0
     8d5:	7a 10       	cpse	r7, r10
     8d7:	f3 5a       	subi	r31, 0xA3	; 163
     8d9:	00 a0       	ldd	r0, Z+32	; 0x20
     8db:	72 4e       	sbci	r23, 0xE2	; 226
     8dd:	18 09       	sbc	r17, r8
     8df:	00 10       	cpse	r0, r0
     8e1:	a5 d4       	rcall	.+2378   	; 0x122d <rf_rx_off+0xd>
     8e3:	e8 00       	.word	0x00e8	; ????
     8e5:	00 e8       	ldi	r16, 0x80	; 128
     8e7:	76 48       	sbci	r23, 0x86	; 134
     8e9:	17 00       	.word	0x0017	; ????
     8eb:	00 e4       	ldi	r16, 0x40	; 64
     8ed:	0b 54       	subi	r16, 0x4B	; 75
     8ef:	02 00       	.word	0x0002	; ????
     8f1:	00 ca       	rjmp	.-3072   	; 0xfffffcf3 <__eeprom_end+0xff7efcf3>
     8f3:	9a 3b       	cpi	r25, 0xBA	; 186
     8f5:	00 00       	nop
     8f7:	00 e1       	ldi	r16, 0x10	; 16
     8f9:	f5 05       	cpc	r31, r5
     8fb:	00 00       	nop
     8fd:	80 96       	adiw	r24, 0x20	; 32
     8ff:	98 00       	.word	0x0098	; ????
     901:	00 00       	nop
     903:	40 42       	sbci	r20, 0x20	; 32
     905:	0f 00       	.word	0x000f	; ????
     907:	00 00       	nop
     909:	a0 86       	std	Z+8, r10	; 0x08
     90b:	01 00       	.word	0x0001	; ????
     90d:	00 00       	nop
     90f:	10 27       	eor	r17, r16
     911:	00 00       	nop
     913:	00 00       	nop
     915:	e8 03       	fmulsu	r22, r16
     917:	00 00       	nop
     919:	00 00       	nop
     91b:	64 00       	.word	0x0064	; ????
     91d:	00 00       	nop
     91f:	00 00       	nop
     921:	0a 00       	.word	0x000a	; ????
     923:	00 00       	nop
     925:	00 00       	nop
     927:	01 00       	.word	0x0001	; ????
     929:	00 00       	nop
     92b:	00 00       	nop
     92d:	2c 76       	andi	r18, 0x6C	; 108
     92f:	d8 88       	ldd	r13, Y+16	; 0x10
     931:	dc 67       	ori	r29, 0x7C	; 124
     933:	4f 08       	sbc	r4, r15
     935:	23 df       	rcall	.-442    	; 0x77d <font5x7+0x3b2>
     937:	c1 df       	rcall	.-126    	; 0x8bb <font5x7+0x4f0>
     939:	ae 59       	subi	r26, 0x9E	; 158
     93b:	e1 b1       	in	r30, 0x01	; 1
     93d:	b7 96       	adiw	r30, 0x27	; 39
     93f:	e5 e3       	ldi	r30, 0x35	; 53
     941:	e4 53       	subi	r30, 0x34	; 52
     943:	c6 3a       	cpi	r28, 0xA6	; 166
     945:	e6 51       	subi	r30, 0x16	; 22
     947:	99 76       	andi	r25, 0x69	; 105
     949:	96 e8       	ldi	r25, 0x86	; 134
     94b:	e6 c2       	rjmp	.+1484   	; 0xf19 <rf_addr_decode_enable+0x15>
     94d:	84 26       	eor	r8, r20
     94f:	eb 89       	ldd	r30, Y+19	; 0x13
     951:	8c 9b       	sbis	0x11, 4	; 17
     953:	62 ed       	ldi	r22, 0xD2	; 210
     955:	40 7c       	andi	r20, 0xC0	; 192
     957:	6f fc       	.word	0xfc6f	; ????
     959:	ef bc       	out	0x2f, r14	; 47
     95b:	9c 9f       	mul	r25, r28
     95d:	40 f2       	brcs	.-112    	; 0x8ef <__c.1863+0x20>
     95f:	ba a5       	ldd	r27, Y+42	; 0x2a
     961:	6f a5       	ldd	r22, Y+47	; 0x2f
     963:	f4 90       	lpm	r15, Z+
     965:	05 5a       	subi	r16, 0xA5	; 165
     967:	2a f7       	brpl	.-54     	; 0x933 <__c.1863+0x64>
     969:	5c 93       	st	X, r21
     96b:	6b 6c       	ori	r22, 0xCB	; 203
     96d:	f9 67       	ori	r31, 0x79	; 121
     96f:	6d c1       	rjmp	.+730    	; 0xc4b <rf_power_up+0x7>
     971:	1b fc       	.word	0xfc1b	; ????
     973:	e0 e4       	ldi	r30, 0x40	; 64
     975:	0d 47       	sbci	r16, 0x7D	; 125
     977:	fe f5       	brtc	.+126    	; 0x9f7 <__do_clear_bss+0x3>
     979:	20 e6       	ldi	r18, 0x60	; 96
     97b:	b5 00       	.word	0x00b5	; ????
     97d:	d0 ed       	ldi	r29, 0xD0	; 208
     97f:	90 2e       	mov	r9, r16
     981:	03 00       	.word	0x0003	; ????
     983:	94 35       	cpi	r25, 0x54	; 84
     985:	77 05       	cpc	r23, r7
     987:	00 80       	ld	r0, Z
     989:	84 1e       	adc	r8, r20
     98b:	08 00       	.word	0x0008	; ????
     98d:	00 20       	and	r0, r0
     98f:	4e 0a       	sbc	r4, r30
     991:	00 00       	nop
     993:	00 c8       	rjmp	.-4096   	; 0xfffff995 <__eeprom_end+0xff7ef995>
     995:	0c 33       	cpi	r16, 0x3C	; 60
     997:	33 33       	cpi	r19, 0x33	; 51
     999:	33 0f       	add	r19, r19
     99b:	98 6e       	ori	r25, 0xE8	; 232
     99d:	12 83       	std	Z+2, r17	; 0x02
     99f:	11 41       	sbci	r17, 0x11	; 17
     9a1:	ef 8d       	ldd	r30, Y+31	; 0x1f
     9a3:	21 14       	cp	r2, r1
     9a5:	89 3b       	cpi	r24, 0xB9	; 185
     9a7:	e6 55       	subi	r30, 0x56	; 86
     9a9:	16 cf       	rjmp	.-468    	; 0x7d7 <font5x7+0x40c>
     9ab:	fe e6       	ldi	r31, 0x6E	; 110
     9ad:	db 18       	sub	r13, r11
     9af:	d1 84       	ldd	r13, Z+9	; 0x09
     9b1:	4b 38       	cpi	r20, 0x8B	; 139
     9b3:	1b f7       	brvc	.-58     	; 0x97b <__c.1863+0xac>
     9b5:	7c 1d       	adc	r23, r12
     9b7:	90 1d       	adc	r25, r0
     9b9:	a4 bb       	out	0x14, r26	; 20
     9bb:	e4 24       	eor	r14, r4
     9bd:	20 32       	cpi	r18, 0x20	; 32
     9bf:	84 72       	andi	r24, 0x24	; 36
     9c1:	5e 22       	and	r5, r30
     9c3:	81 00       	.word	0x0081	; ????
     9c5:	c9 f1       	breq	.+114    	; 0xa39 <Task1+0x29>
     9c7:	24 ec       	ldi	r18, 0xC4	; 196
     9c9:	a1 e5       	ldi	r26, 0x51	; 81
     9cb:	3d 27       	eor	r19, r29
     9cd:	00 11       	cpse	r16, r0

000009ce <__ctors_end>:
     9ce:	11 24       	eor	r1, r1
     9d0:	1f be       	out	0x3f, r1	; 63
     9d2:	cf ef       	ldi	r28, 0xFF	; 255
     9d4:	d0 e1       	ldi	r29, 0x10	; 16
     9d6:	de bf       	out	0x3e, r29	; 62
     9d8:	cd bf       	out	0x3d, r28	; 61

000009da <__do_copy_data>:
     9da:	12 e0       	ldi	r17, 0x02	; 2
     9dc:	a0 e0       	ldi	r26, 0x00	; 0
     9de:	b1 e0       	ldi	r27, 0x01	; 1
     9e0:	ee e8       	ldi	r30, 0x8E	; 142
     9e2:	f4 e8       	ldi	r31, 0x84	; 132
     9e4:	00 e0       	ldi	r16, 0x00	; 0
     9e6:	0b bf       	out	0x3b, r16	; 59
     9e8:	02 c0       	rjmp	.+4      	; 0x9ee <__do_copy_data+0x14>
     9ea:	07 90       	elpm	r0, Z+
     9ec:	0d 92       	st	X+, r0
     9ee:	a4 3c       	cpi	r26, 0xC4	; 196
     9f0:	b1 07       	cpc	r27, r17
     9f2:	d9 f7       	brne	.-10     	; 0x9ea <__do_copy_data+0x10>

000009f4 <__do_clear_bss>:
     9f4:	15 e0       	ldi	r17, 0x05	; 5
     9f6:	a4 ec       	ldi	r26, 0xC4	; 196
     9f8:	b2 e0       	ldi	r27, 0x02	; 2
     9fa:	01 c0       	rjmp	.+2      	; 0x9fe <.do_clear_bss_start>

000009fc <.do_clear_bss_loop>:
     9fc:	1d 92       	st	X+, r1

000009fe <.do_clear_bss_start>:
     9fe:	a4 31       	cpi	r26, 0x14	; 20
     a00:	b1 07       	cpc	r27, r17
     a02:	e1 f7       	brne	.-8      	; 0x9fc <.do_clear_bss_loop>
     a04:	0e 94 c0 05 	call	0xb80	; 0xb80 <main>
     a08:	0c 94 45 42 	jmp	0x848a	; 0x848a <_exit>

00000a0c <__bad_interrupt>:
     a0c:	0c 94 35 23 	jmp	0x466a	; 0x466a <__vector_default>

00000a10 <Task1>:
     a10:	cf 93       	push	r28
     a12:	df 93       	push	r29
     a14:	00 d0       	rcall	.+0      	; 0xa16 <Task1+0x6>
     a16:	00 d0       	rcall	.+0      	; 0xa18 <Task1+0x8>
     a18:	80 e0       	ldi	r24, 0x00	; 0
     a1a:	91 e0       	ldi	r25, 0x01	; 1
     a1c:	ad b7       	in	r26, 0x3d	; 61
     a1e:	be b7       	in	r27, 0x3e	; 62
     a20:	12 96       	adiw	r26, 0x02	; 2
     a22:	9c 93       	st	X, r25
     a24:	8e 93       	st	-X, r24
     a26:	11 97       	sbiw	r26, 0x01	; 1
     a28:	14 96       	adiw	r26, 0x04	; 4
     a2a:	1c 92       	st	X, r1
     a2c:	1e 92       	st	-X, r1
     a2e:	13 97       	sbiw	r26, 0x03	; 3
     a30:	0e 94 31 40 	call	0x8062	; 0x8062 <printf>
     a34:	0f 90       	pop	r0
     a36:	0f 90       	pop	r0
     a38:	0f 90       	pop	r0
     a3a:	0f 90       	pop	r0
     a3c:	0e 94 73 1d 	call	0x3ae6	; 0x3ae6 <nrk_get_pid>
     a40:	00 d0       	rcall	.+0      	; 0xa42 <Task1+0x32>
     a42:	00 d0       	rcall	.+0      	; 0xa44 <Task1+0x34>
     a44:	ed b7       	in	r30, 0x3d	; 61
     a46:	fe b7       	in	r31, 0x3e	; 62
     a48:	31 96       	adiw	r30, 0x01	; 1
     a4a:	2a e1       	ldi	r18, 0x1A	; 26
     a4c:	31 e0       	ldi	r19, 0x01	; 1
     a4e:	ad b7       	in	r26, 0x3d	; 61
     a50:	be b7       	in	r27, 0x3e	; 62
     a52:	12 96       	adiw	r26, 0x02	; 2
     a54:	3c 93       	st	X, r19
     a56:	2e 93       	st	-X, r18
     a58:	11 97       	sbiw	r26, 0x01	; 1
     a5a:	82 83       	std	Z+2, r24	; 0x02
     a5c:	13 82       	std	Z+3, r1	; 0x03
     a5e:	0e 94 31 40 	call	0x8062	; 0x8062 <printf>
     a62:	0f 90       	pop	r0
     a64:	0f 90       	pop	r0
     a66:	0f 90       	pop	r0
     a68:	0f 90       	pop	r0
     a6a:	80 e0       	ldi	r24, 0x00	; 0
     a6c:	61 e0       	ldi	r22, 0x01	; 1
     a6e:	70 e0       	ldi	r23, 0x00	; 0
     a70:	40 e4       	ldi	r20, 0x40	; 64
     a72:	5c e9       	ldi	r21, 0x9C	; 156
     a74:	23 e6       	ldi	r18, 0x63	; 99
     a76:	35 e0       	ldi	r19, 0x05	; 5
     a78:	0e 94 b2 23 	call	0x4764	; 0x4764 <nrk_timer_int_configure>
     a7c:	81 30       	cpi	r24, 0x01	; 1
     a7e:	19 f4       	brne	.+6      	; 0xa86 <Task1+0x76>
     a80:	8c e5       	ldi	r24, 0x5C	; 92
     a82:	91 e0       	ldi	r25, 0x01	; 1
     a84:	02 c0       	rjmp	.+4      	; 0xa8a <Task1+0x7a>
     a86:	8a e3       	ldi	r24, 0x3A	; 58
     a88:	91 e0       	ldi	r25, 0x01	; 1
     a8a:	0e 94 c8 0e 	call	0x1d90	; 0x1d90 <nrk_kprintf>
     a8e:	80 e0       	ldi	r24, 0x00	; 0
     a90:	0e 94 99 23 	call	0x4732	; 0x4732 <nrk_timer_int_reset>
     a94:	80 e0       	ldi	r24, 0x00	; 0
     a96:	0e 94 a9 23 	call	0x4752	; 0x4752 <nrk_timer_int_start>
     a9a:	c9 e2       	ldi	r28, 0x29	; 41
     a9c:	d1 e0       	ldi	r29, 0x01	; 1
     a9e:	80 e0       	ldi	r24, 0x00	; 0
     aa0:	0e 94 a0 23 	call	0x4740	; 0x4740 <nrk_timer_int_read>
     aa4:	00 d0       	rcall	.+0      	; 0xaa6 <Task1+0x96>
     aa6:	00 d0       	rcall	.+0      	; 0xaa8 <Task1+0x98>
     aa8:	ed b7       	in	r30, 0x3d	; 61
     aaa:	fe b7       	in	r31, 0x3e	; 62
     aac:	d2 83       	std	Z+2, r29	; 0x02
     aae:	c1 83       	std	Z+1, r28	; 0x01
     ab0:	94 83       	std	Z+4, r25	; 0x04
     ab2:	83 83       	std	Z+3, r24	; 0x03
     ab4:	0e 94 31 40 	call	0x8062	; 0x8062 <printf>
     ab8:	0f 90       	pop	r0
     aba:	0f 90       	pop	r0
     abc:	0f 90       	pop	r0
     abe:	0f 90       	pop	r0
     ac0:	0e 94 e0 1c 	call	0x39c0	; 0x39c0 <nrk_wait_until_next_period>
     ac4:	ec cf       	rjmp	.-40     	; 0xa9e <Task1+0x8e>

00000ac6 <my_timer_callback>:
     ac6:	80 e0       	ldi	r24, 0x00	; 0
     ac8:	90 e0       	ldi	r25, 0x00	; 0
     aca:	0e 94 83 10 	call	0x2106	; 0x2106 <nrk_led_toggle>
     ace:	08 95       	ret

00000ad0 <nrk_create_taskset>:
     ad0:	88 e0       	ldi	r24, 0x08	; 8
     ad2:	95 e0       	ldi	r25, 0x05	; 5
     ad4:	90 93 dd 02 	sts	0x02DD, r25
     ad8:	80 93 dc 02 	sts	0x02DC, r24
     adc:	8e e7       	ldi	r24, 0x7E	; 126
     ade:	93 e0       	ldi	r25, 0x03	; 3
     ae0:	90 93 d9 02 	sts	0x02D9, r25
     ae4:	80 93 d8 02 	sts	0x02D8, r24
     ae8:	8e ef       	ldi	r24, 0xFE	; 254
     aea:	92 e0       	ldi	r25, 0x02	; 2
     aec:	90 93 db 02 	sts	0x02DB, r25
     af0:	80 93 da 02 	sts	0x02DA, r24
     af4:	81 e0       	ldi	r24, 0x01	; 1
     af6:	80 93 df 02 	sts	0x02DF, r24
     afa:	80 93 de 02 	sts	0x02DE, r24
     afe:	80 93 e0 02 	sts	0x02E0, r24
     b02:	80 93 e1 02 	sts	0x02E1, r24
     b06:	10 92 e2 02 	sts	0x02E2, r1
     b0a:	10 92 e3 02 	sts	0x02E3, r1
     b0e:	10 92 e4 02 	sts	0x02E4, r1
     b12:	10 92 e5 02 	sts	0x02E5, r1
     b16:	80 e8       	ldi	r24, 0x80	; 128
     b18:	92 eb       	ldi	r25, 0xB2	; 178
     b1a:	a6 ee       	ldi	r26, 0xE6	; 230
     b1c:	be e0       	ldi	r27, 0x0E	; 14
     b1e:	80 93 e6 02 	sts	0x02E6, r24
     b22:	90 93 e7 02 	sts	0x02E7, r25
     b26:	a0 93 e8 02 	sts	0x02E8, r26
     b2a:	b0 93 e9 02 	sts	0x02E9, r27
     b2e:	10 92 ea 02 	sts	0x02EA, r1
     b32:	10 92 eb 02 	sts	0x02EB, r1
     b36:	10 92 ec 02 	sts	0x02EC, r1
     b3a:	10 92 ed 02 	sts	0x02ED, r1
     b3e:	80 e8       	ldi	r24, 0x80	; 128
     b40:	90 ef       	ldi	r25, 0xF0	; 240
     b42:	aa ef       	ldi	r26, 0xFA	; 250
     b44:	b2 e0       	ldi	r27, 0x02	; 2
     b46:	80 93 ee 02 	sts	0x02EE, r24
     b4a:	90 93 ef 02 	sts	0x02EF, r25
     b4e:	a0 93 f0 02 	sts	0x02F0, r26
     b52:	b0 93 f1 02 	sts	0x02F1, r27
     b56:	10 92 f2 02 	sts	0x02F2, r1
     b5a:	10 92 f3 02 	sts	0x02F3, r1
     b5e:	10 92 f4 02 	sts	0x02F4, r1
     b62:	10 92 f5 02 	sts	0x02F5, r1
     b66:	10 92 f6 02 	sts	0x02F6, r1
     b6a:	10 92 f7 02 	sts	0x02F7, r1
     b6e:	10 92 f8 02 	sts	0x02F8, r1
     b72:	10 92 f9 02 	sts	0x02F9, r1
     b76:	87 ed       	ldi	r24, 0xD7	; 215
     b78:	92 e0       	ldi	r25, 0x02	; 2
     b7a:	0e 94 2c 1b 	call	0x3658	; 0x3658 <nrk_activate_task>
     b7e:	08 95       	ret

00000b80 <main>:
     b80:	0e 94 a9 10 	call	0x2152	; 0x2152 <nrk_setup_ports>
     b84:	87 e0       	ldi	r24, 0x07	; 7
     b86:	90 e0       	ldi	r25, 0x00	; 0
     b88:	0e 94 f8 10 	call	0x21f0	; 0x21f0 <nrk_setup_uart>
     b8c:	83 e7       	ldi	r24, 0x73	; 115
     b8e:	91 e0       	ldi	r25, 0x01	; 1
     b90:	0e 94 c8 0e 	call	0x1d90	; 0x1d90 <nrk_kprintf>
     b94:	0e 94 e7 11 	call	0x23ce	; 0x23ce <nrk_init>
     b98:	60 e0       	ldi	r22, 0x00	; 0
     b9a:	70 e0       	ldi	r23, 0x00	; 0
     b9c:	cb 01       	movw	r24, r22
     b9e:	20 e0       	ldi	r18, 0x00	; 0
     ba0:	30 e0       	ldi	r19, 0x00	; 0
     ba2:	a9 01       	movw	r20, r18
     ba4:	0e 94 e4 1e 	call	0x3dc8	; 0x3dc8 <nrk_time_set>
     ba8:	0e 94 68 05 	call	0xad0	; 0xad0 <nrk_create_taskset>
     bac:	0e 94 ae 12 	call	0x255c	; 0x255c <nrk_start>
     bb0:	80 e0       	ldi	r24, 0x00	; 0
     bb2:	90 e0       	ldi	r25, 0x00	; 0
     bb4:	08 95       	ret

00000bb6 <halRfSetChannel>:
     bb6:	90 e0       	ldi	r25, 0x00	; 0
     bb8:	9c 01       	movw	r18, r24
     bba:	2b 50       	subi	r18, 0x0B	; 11
     bbc:	30 40       	sbci	r19, 0x00	; 0
     bbe:	22 0f       	add	r18, r18
     bc0:	33 1f       	adc	r19, r19
     bc2:	22 0f       	add	r18, r18
     bc4:	33 1f       	adc	r19, r19
     bc6:	86 5a       	subi	r24, 0xA6	; 166
     bc8:	9e 4b       	sbci	r25, 0xBE	; 190
     bca:	82 0f       	add	r24, r18
     bcc:	93 1f       	adc	r25, r19
     bce:	f8 94       	cli
     bd0:	c0 98       	cbi	0x18, 0	; 24
     bd2:	28 e1       	ldi	r18, 0x18	; 24
     bd4:	2f b9       	out	0x0f, r18	; 15
     bd6:	77 9b       	sbis	0x0e, 7	; 14
     bd8:	fe cf       	rjmp	.-4      	; 0xbd6 <halRfSetChannel+0x20>
     bda:	9f b9       	out	0x0f, r25	; 15
     bdc:	77 9b       	sbis	0x0e, 7	; 14
     bde:	fe cf       	rjmp	.-4      	; 0xbdc <halRfSetChannel+0x26>
     be0:	8f b9       	out	0x0f, r24	; 15
     be2:	77 9b       	sbis	0x0e, 7	; 14
     be4:	fe cf       	rjmp	.-4      	; 0xbe2 <halRfSetChannel+0x2c>
     be6:	c0 9a       	sbi	0x18, 0	; 24
     be8:	78 94       	sei
     bea:	08 95       	ret

00000bec <halRfWaitForCrystalOscillator>:
     bec:	f8 94       	cli
     bee:	c0 98       	cbi	0x18, 0	; 24
     bf0:	1f b8       	out	0x0f, r1	; 15
     bf2:	77 9b       	sbis	0x0e, 7	; 14
     bf4:	fe cf       	rjmp	.-4      	; 0xbf2 <halRfWaitForCrystalOscillator+0x6>
     bf6:	8f b1       	in	r24, 0x0f	; 15
     bf8:	c0 9a       	sbi	0x18, 0	; 24
     bfa:	78 94       	sei
     bfc:	86 ff       	sbrs	r24, 6
     bfe:	f6 cf       	rjmp	.-20     	; 0xbec <halRfWaitForCrystalOscillator>
     c00:	08 95       	ret

00000c02 <cc259x_rx>:
     c02:	80 91 54 01 	lds	r24, 0x0154
     c06:	0e 94 db 0e 	call	0x1db6	; 0x1db6 <nrk_gpio_set>
     c0a:	80 91 53 01 	lds	r24, 0x0153
     c0e:	0e 94 21 0f 	call	0x1e42	; 0x1e42 <nrk_gpio_clr>
     c12:	08 95       	ret

00000c14 <cc259x_tx>:
     c14:	80 91 54 01 	lds	r24, 0x0154
     c18:	0e 94 db 0e 	call	0x1db6	; 0x1db6 <nrk_gpio_set>
     c1c:	80 91 53 01 	lds	r24, 0x0153
     c20:	0e 94 db 0e 	call	0x1db6	; 0x1db6 <nrk_gpio_set>
     c24:	08 95       	ret

00000c26 <rf_power_down>:
     c26:	f8 94       	cli
     c28:	c0 98       	cbi	0x18, 0	; 24
     c2a:	87 e0       	ldi	r24, 0x07	; 7
     c2c:	8f b9       	out	0x0f, r24	; 15
     c2e:	77 9b       	sbis	0x0e, 7	; 14
     c30:	fe cf       	rjmp	.-4      	; 0xc2e <rf_power_down+0x8>
     c32:	c0 9a       	sbi	0x18, 0	; 24
     c34:	c0 98       	cbi	0x18, 0	; 24
     c36:	86 e0       	ldi	r24, 0x06	; 6
     c38:	8f b9       	out	0x0f, r24	; 15
     c3a:	77 9b       	sbis	0x0e, 7	; 14
     c3c:	fe cf       	rjmp	.-4      	; 0xc3a <rf_power_down+0x14>
     c3e:	c0 9a       	sbi	0x18, 0	; 24
     c40:	78 94       	sei
     c42:	08 95       	ret

00000c44 <rf_power_up>:
     c44:	f8 94       	cli
     c46:	c0 98       	cbi	0x18, 0	; 24
     c48:	81 e0       	ldi	r24, 0x01	; 1
     c4a:	8f b9       	out	0x0f, r24	; 15
     c4c:	77 9b       	sbis	0x0e, 7	; 14
     c4e:	fe cf       	rjmp	.-4      	; 0xc4c <rf_power_up+0x8>
     c50:	c0 9a       	sbi	0x18, 0	; 24
     c52:	88 ee       	ldi	r24, 0xE8	; 232
     c54:	93 e0       	ldi	r25, 0x03	; 3
     c56:	0e 94 9c 22 	call	0x4538	; 0x4538 <nrk_spin_wait_us>
     c5a:	78 94       	sei
     c5c:	08 95       	ret

00000c5e <rf_security_last_pkt_status>:
     c5e:	80 91 18 04 	lds	r24, 0x0418
     c62:	08 95       	ret

00000c64 <rf_security_set_ctr_counter>:
     c64:	fc 01       	movw	r30, r24
     c66:	c0 98       	cbi	0x18, 0	; 24
     c68:	89 ec       	ldi	r24, 0xC9	; 201
     c6a:	8f b9       	out	0x0f, r24	; 15
     c6c:	77 9b       	sbis	0x0e, 7	; 14
     c6e:	fe cf       	rjmp	.-4      	; 0xc6c <rf_security_set_ctr_counter+0x8>
     c70:	80 e8       	ldi	r24, 0x80	; 128
     c72:	8f b9       	out	0x0f, r24	; 15
     c74:	77 9b       	sbis	0x0e, 7	; 14
     c76:	fe cf       	rjmp	.-4      	; 0xc74 <rf_security_set_ctr_counter+0x10>
     c78:	82 e0       	ldi	r24, 0x02	; 2
     c7a:	81 50       	subi	r24, 0x01	; 1
     c7c:	df 01       	movw	r26, r30
     c7e:	a8 0f       	add	r26, r24
     c80:	b1 1d       	adc	r27, r1
     c82:	9c 91       	ld	r25, X
     c84:	9f b9       	out	0x0f, r25	; 15
     c86:	77 9b       	sbis	0x0e, 7	; 14
     c88:	fe cf       	rjmp	.-4      	; 0xc86 <rf_security_set_ctr_counter+0x22>
     c8a:	88 23       	and	r24, r24
     c8c:	b1 f7       	brne	.-20     	; 0xc7a <rf_security_set_ctr_counter+0x16>
     c8e:	c0 9a       	sbi	0x18, 0	; 24
     c90:	c0 98       	cbi	0x18, 0	; 24
     c92:	8b ec       	ldi	r24, 0xCB	; 203
     c94:	8f b9       	out	0x0f, r24	; 15
     c96:	77 9b       	sbis	0x0e, 7	; 14
     c98:	fe cf       	rjmp	.-4      	; 0xc96 <rf_security_set_ctr_counter+0x32>
     c9a:	80 e8       	ldi	r24, 0x80	; 128
     c9c:	8f b9       	out	0x0f, r24	; 15
     c9e:	77 9b       	sbis	0x0e, 7	; 14
     ca0:	fe cf       	rjmp	.-4      	; 0xc9e <rf_security_set_ctr_counter+0x3a>
     ca2:	82 e0       	ldi	r24, 0x02	; 2
     ca4:	81 50       	subi	r24, 0x01	; 1
     ca6:	df 01       	movw	r26, r30
     ca8:	a8 0f       	add	r26, r24
     caa:	b1 1d       	adc	r27, r1
     cac:	12 96       	adiw	r26, 0x02	; 2
     cae:	9c 91       	ld	r25, X
     cb0:	12 97       	sbiw	r26, 0x02	; 2
     cb2:	9f b9       	out	0x0f, r25	; 15
     cb4:	77 9b       	sbis	0x0e, 7	; 14
     cb6:	fe cf       	rjmp	.-4      	; 0xcb4 <rf_security_set_ctr_counter+0x50>
     cb8:	88 23       	and	r24, r24
     cba:	a1 f7       	brne	.-24     	; 0xca4 <rf_security_set_ctr_counter+0x40>
     cbc:	c0 9a       	sbi	0x18, 0	; 24
     cbe:	80 81       	ld	r24, Z
     cc0:	80 93 19 04 	sts	0x0419, r24
     cc4:	81 81       	ldd	r24, Z+1	; 0x01
     cc6:	80 93 1a 04 	sts	0x041A, r24
     cca:	82 81       	ldd	r24, Z+2	; 0x02
     ccc:	80 93 1b 04 	sts	0x041B, r24
     cd0:	83 81       	ldd	r24, Z+3	; 0x03
     cd2:	80 93 1c 04 	sts	0x041C, r24
     cd6:	08 95       	ret

00000cd8 <rf_security_set_key>:
     cd8:	8f 92       	push	r8
     cda:	9f 92       	push	r9
     cdc:	af 92       	push	r10
     cde:	bf 92       	push	r11
     ce0:	cf 92       	push	r12
     ce2:	df 92       	push	r13
     ce4:	ef 92       	push	r14
     ce6:	ff 92       	push	r15
     ce8:	0f 93       	push	r16
     cea:	1f 93       	push	r17
     cec:	df 93       	push	r29
     cee:	cf 93       	push	r28
     cf0:	00 d0       	rcall	.+0      	; 0xcf2 <rf_security_set_key+0x1a>
     cf2:	00 d0       	rcall	.+0      	; 0xcf4 <rf_security_set_key+0x1c>
     cf4:	cd b7       	in	r28, 0x3d	; 61
     cf6:	de b7       	in	r29, 0x3e	; 62
     cf8:	e8 2e       	mov	r14, r24
     cfa:	09 2f       	mov	r16, r25
     cfc:	84 e6       	ldi	r24, 0x64	; 100
     cfe:	90 e0       	ldi	r25, 0x00	; 0
     d00:	0e 94 9c 22 	call	0x4538	; 0x4538 <nrk_spin_wait_us>
     d04:	f0 2e       	mov	r15, r16
     d06:	20 e0       	ldi	r18, 0x00	; 0
     d08:	31 e0       	ldi	r19, 0x01	; 1
     d0a:	8e 01       	movw	r16, r28
     d0c:	0f 5f       	subi	r16, 0xFF	; 255
     d0e:	1f 4f       	sbci	r17, 0xFF	; 255
     d10:	f3 e0       	ldi	r31, 0x03	; 3
     d12:	cf 2e       	mov	r12, r31
     d14:	d1 2c       	mov	r13, r1
     d16:	cc 0e       	add	r12, r28
     d18:	dd 1e       	adc	r13, r29
     d1a:	f7 01       	movw	r30, r14
     d1c:	91 90       	ld	r9, Z+
     d1e:	7f 01       	movw	r14, r30
     d20:	88 24       	eor	r8, r8
     d22:	80 81       	ld	r24, Z
     d24:	90 e0       	ldi	r25, 0x00	; 0
     d26:	88 29       	or	r24, r8
     d28:	99 29       	or	r25, r9
     d2a:	9a 83       	std	Y+2, r25	; 0x02
     d2c:	89 83       	std	Y+1, r24	; 0x01
     d2e:	84 e6       	ldi	r24, 0x64	; 100
     d30:	90 e0       	ldi	r25, 0x00	; 0
     d32:	2b 83       	std	Y+3, r18	; 0x03
     d34:	3c 83       	std	Y+4, r19	; 0x04
     d36:	0e 94 9c 22 	call	0x4538	; 0x4538 <nrk_spin_wait_us>
     d3a:	c0 98       	cbi	0x18, 0	; 24
     d3c:	2b 81       	ldd	r18, Y+3	; 0x03
     d3e:	3c 81       	ldd	r19, Y+4	; 0x04
     d40:	82 2f       	mov	r24, r18
     d42:	80 68       	ori	r24, 0x80	; 128
     d44:	8f b9       	out	0x0f, r24	; 15
     d46:	77 9b       	sbis	0x0e, 7	; 14
     d48:	fe cf       	rjmp	.-4      	; 0xd46 <rf_security_set_key+0x6e>
     d4a:	c9 01       	movw	r24, r18
     d4c:	95 95       	asr	r25
     d4e:	87 95       	ror	r24
     d50:	80 7c       	andi	r24, 0xC0	; 192
     d52:	8f b9       	out	0x0f, r24	; 15
     d54:	77 9b       	sbis	0x0e, 7	; 14
     d56:	fe cf       	rjmp	.-4      	; 0xd54 <rf_security_set_key+0x7c>
     d58:	58 01       	movw	r10, r16
     d5a:	f8 01       	movw	r30, r16
     d5c:	81 91       	ld	r24, Z+
     d5e:	8f b9       	out	0x0f, r24	; 15
     d60:	77 9b       	sbis	0x0e, 7	; 14
     d62:	fe cf       	rjmp	.-4      	; 0xd60 <rf_security_set_key+0x88>
     d64:	ec 15       	cp	r30, r12
     d66:	fd 05       	cpc	r31, r13
     d68:	c9 f7       	brne	.-14     	; 0xd5c <rf_security_set_key+0x84>
     d6a:	c0 9a       	sbi	0x18, 0	; 24
     d6c:	2e 5f       	subi	r18, 0xFE	; 254
     d6e:	3f 4f       	sbci	r19, 0xFF	; 255
     d70:	f1 e0       	ldi	r31, 0x01	; 1
     d72:	20 31       	cpi	r18, 0x10	; 16
     d74:	3f 07       	cpc	r19, r31
     d76:	89 f6       	brne	.-94     	; 0xd1a <rf_security_set_key+0x42>
     d78:	84 e6       	ldi	r24, 0x64	; 100
     d7a:	90 e0       	ldi	r25, 0x00	; 0
     d7c:	0e 94 9c 22 	call	0x4538	; 0x4538 <nrk_spin_wait_us>
     d80:	20 e4       	ldi	r18, 0x40	; 64
     d82:	31 e0       	ldi	r19, 0x01	; 1
     d84:	80 e1       	ldi	r24, 0x10	; 16
     d86:	91 e0       	ldi	r25, 0x01	; 1
     d88:	1a 82       	std	Y+2, r1	; 0x02
     d8a:	19 82       	std	Y+1, r1	; 0x01
     d8c:	c0 98       	cbi	0x18, 0	; 24
     d8e:	42 2f       	mov	r20, r18
     d90:	40 68       	ori	r20, 0x80	; 128
     d92:	4f b9       	out	0x0f, r20	; 15
     d94:	77 9b       	sbis	0x0e, 7	; 14
     d96:	fe cf       	rjmp	.-4      	; 0xd94 <rf_security_set_key+0xbc>
     d98:	a9 01       	movw	r20, r18
     d9a:	55 95       	asr	r21
     d9c:	47 95       	ror	r20
     d9e:	40 7c       	andi	r20, 0xC0	; 192
     da0:	4f b9       	out	0x0f, r20	; 15
     da2:	77 9b       	sbis	0x0e, 7	; 14
     da4:	fe cf       	rjmp	.-4      	; 0xda2 <rf_security_set_key+0xca>
     da6:	f8 01       	movw	r30, r16
     da8:	41 91       	ld	r20, Z+
     daa:	4f b9       	out	0x0f, r20	; 15
     dac:	77 9b       	sbis	0x0e, 7	; 14
     dae:	fe cf       	rjmp	.-4      	; 0xdac <rf_security_set_key+0xd4>
     db0:	ec 15       	cp	r30, r12
     db2:	fd 05       	cpc	r31, r13
     db4:	c9 f7       	brne	.-14     	; 0xda8 <rf_security_set_key+0xd0>
     db6:	c0 9a       	sbi	0x18, 0	; 24
     db8:	c0 98       	cbi	0x18, 0	; 24
     dba:	48 2f       	mov	r20, r24
     dbc:	40 68       	ori	r20, 0x80	; 128
     dbe:	4f b9       	out	0x0f, r20	; 15
     dc0:	77 9b       	sbis	0x0e, 7	; 14
     dc2:	fe cf       	rjmp	.-4      	; 0xdc0 <rf_security_set_key+0xe8>
     dc4:	ac 01       	movw	r20, r24
     dc6:	55 95       	asr	r21
     dc8:	47 95       	ror	r20
     dca:	40 7c       	andi	r20, 0xC0	; 192
     dcc:	4f b9       	out	0x0f, r20	; 15
     dce:	77 9b       	sbis	0x0e, 7	; 14
     dd0:	fe cf       	rjmp	.-4      	; 0xdce <rf_security_set_key+0xf6>
     dd2:	f8 01       	movw	r30, r16
     dd4:	41 91       	ld	r20, Z+
     dd6:	4f b9       	out	0x0f, r20	; 15
     dd8:	77 9b       	sbis	0x0e, 7	; 14
     dda:	fe cf       	rjmp	.-4      	; 0xdd8 <rf_security_set_key+0x100>
     ddc:	ec 15       	cp	r30, r12
     dde:	fd 05       	cpc	r31, r13
     de0:	c9 f7       	brne	.-14     	; 0xdd4 <rf_security_set_key+0xfc>
     de2:	c0 9a       	sbi	0x18, 0	; 24
     de4:	02 96       	adiw	r24, 0x02	; 2
     de6:	2e 5f       	subi	r18, 0xFE	; 254
     de8:	3f 4f       	sbci	r19, 0xFF	; 255
     dea:	41 e0       	ldi	r20, 0x01	; 1
     dec:	8e 31       	cpi	r24, 0x1E	; 30
     dee:	94 07       	cpc	r25, r20
     df0:	59 f6       	brne	.-106    	; 0xd88 <rf_security_set_key+0xb0>
     df2:	81 e0       	ldi	r24, 0x01	; 1
     df4:	90 e0       	ldi	r25, 0x00	; 0
     df6:	9a 83       	std	Y+2, r25	; 0x02
     df8:	89 83       	std	Y+1, r24	; 0x01
     dfa:	c0 98       	cbi	0x18, 0	; 24
     dfc:	8e ec       	ldi	r24, 0xCE	; 206
     dfe:	8f b9       	out	0x0f, r24	; 15
     e00:	77 9b       	sbis	0x0e, 7	; 14
     e02:	fe cf       	rjmp	.-4      	; 0xe00 <rf_security_set_key+0x128>
     e04:	80 e8       	ldi	r24, 0x80	; 128
     e06:	8f b9       	out	0x0f, r24	; 15
     e08:	77 9b       	sbis	0x0e, 7	; 14
     e0a:	fe cf       	rjmp	.-4      	; 0xe08 <rf_security_set_key+0x130>
     e0c:	c8 01       	movw	r24, r16
     e0e:	02 96       	adiw	r24, 0x02	; 2
     e10:	f8 01       	movw	r30, r16
     e12:	21 91       	ld	r18, Z+
     e14:	2f b9       	out	0x0f, r18	; 15
     e16:	77 9b       	sbis	0x0e, 7	; 14
     e18:	fe cf       	rjmp	.-4      	; 0xe16 <rf_security_set_key+0x13e>
     e1a:	e8 17       	cp	r30, r24
     e1c:	f9 07       	cpc	r31, r25
     e1e:	c9 f7       	brne	.-14     	; 0xe12 <rf_security_set_key+0x13a>
     e20:	c0 9a       	sbi	0x18, 0	; 24
     e22:	c0 98       	cbi	0x18, 0	; 24
     e24:	8e e9       	ldi	r24, 0x9E	; 158
     e26:	8f b9       	out	0x0f, r24	; 15
     e28:	77 9b       	sbis	0x0e, 7	; 14
     e2a:	fe cf       	rjmp	.-4      	; 0xe28 <rf_security_set_key+0x150>
     e2c:	80 e8       	ldi	r24, 0x80	; 128
     e2e:	8f b9       	out	0x0f, r24	; 15
     e30:	77 9b       	sbis	0x0e, 7	; 14
     e32:	fe cf       	rjmp	.-4      	; 0xe30 <rf_security_set_key+0x158>
     e34:	0e 5f       	subi	r16, 0xFE	; 254
     e36:	1f 4f       	sbci	r17, 0xFF	; 255
     e38:	f5 01       	movw	r30, r10
     e3a:	81 91       	ld	r24, Z+
     e3c:	5f 01       	movw	r10, r30
     e3e:	8f b9       	out	0x0f, r24	; 15
     e40:	77 9b       	sbis	0x0e, 7	; 14
     e42:	fe cf       	rjmp	.-4      	; 0xe40 <rf_security_set_key+0x168>
     e44:	a0 16       	cp	r10, r16
     e46:	b1 06       	cpc	r11, r17
     e48:	b9 f7       	brne	.-18     	; 0xe38 <rf_security_set_key+0x160>
     e4a:	c0 9a       	sbi	0x18, 0	; 24
     e4c:	0f 90       	pop	r0
     e4e:	0f 90       	pop	r0
     e50:	0f 90       	pop	r0
     e52:	0f 90       	pop	r0
     e54:	cf 91       	pop	r28
     e56:	df 91       	pop	r29
     e58:	1f 91       	pop	r17
     e5a:	0f 91       	pop	r16
     e5c:	ff 90       	pop	r15
     e5e:	ef 90       	pop	r14
     e60:	df 90       	pop	r13
     e62:	cf 90       	pop	r12
     e64:	bf 90       	pop	r11
     e66:	af 90       	pop	r10
     e68:	9f 90       	pop	r9
     e6a:	8f 90       	pop	r8
     e6c:	08 95       	ret

00000e6e <rf_security_enable>:
     e6e:	c0 98       	cbi	0x18, 0	; 24
     e70:	89 e1       	ldi	r24, 0x19	; 25
     e72:	8f b9       	out	0x0f, r24	; 15
     e74:	77 9b       	sbis	0x0e, 7	; 14
     e76:	fe cf       	rjmp	.-4      	; 0xe74 <rf_security_enable+0x6>
     e78:	83 e0       	ldi	r24, 0x03	; 3
     e7a:	8f b9       	out	0x0f, r24	; 15
     e7c:	77 9b       	sbis	0x0e, 7	; 14
     e7e:	fe cf       	rjmp	.-4      	; 0xe7c <rf_security_enable+0xe>
     e80:	86 e0       	ldi	r24, 0x06	; 6
     e82:	8f b9       	out	0x0f, r24	; 15
     e84:	77 9b       	sbis	0x0e, 7	; 14
     e86:	fe cf       	rjmp	.-4      	; 0xe84 <rf_security_enable+0x16>
     e88:	c0 9a       	sbi	0x18, 0	; 24
     e8a:	c0 98       	cbi	0x18, 0	; 24
     e8c:	8a e1       	ldi	r24, 0x1A	; 26
     e8e:	8f b9       	out	0x0f, r24	; 15
     e90:	77 9b       	sbis	0x0e, 7	; 14
     e92:	fe cf       	rjmp	.-4      	; 0xe90 <rf_security_enable+0x22>
     e94:	8e e0       	ldi	r24, 0x0E	; 14
     e96:	8f b9       	out	0x0f, r24	; 15
     e98:	77 9b       	sbis	0x0e, 7	; 14
     e9a:	fe cf       	rjmp	.-4      	; 0xe98 <rf_security_enable+0x2a>
     e9c:	8e e0       	ldi	r24, 0x0E	; 14
     e9e:	8f b9       	out	0x0f, r24	; 15
     ea0:	77 9b       	sbis	0x0e, 7	; 14
     ea2:	fe cf       	rjmp	.-4      	; 0xea0 <rf_security_enable+0x32>
     ea4:	c0 9a       	sbi	0x18, 0	; 24
     ea6:	81 e0       	ldi	r24, 0x01	; 1
     ea8:	80 93 09 04 	sts	0x0409, r24
     eac:	08 95       	ret

00000eae <rf_security_disable>:
     eae:	c0 98       	cbi	0x18, 0	; 24
     eb0:	89 e1       	ldi	r24, 0x19	; 25
     eb2:	8f b9       	out	0x0f, r24	; 15
     eb4:	77 9b       	sbis	0x0e, 7	; 14
     eb6:	fe cf       	rjmp	.-4      	; 0xeb4 <rf_security_disable+0x6>
     eb8:	81 e0       	ldi	r24, 0x01	; 1
     eba:	8f b9       	out	0x0f, r24	; 15
     ebc:	77 9b       	sbis	0x0e, 7	; 14
     ebe:	fe cf       	rjmp	.-4      	; 0xebc <rf_security_disable+0xe>
     ec0:	84 ec       	ldi	r24, 0xC4	; 196
     ec2:	8f b9       	out	0x0f, r24	; 15
     ec4:	77 9b       	sbis	0x0e, 7	; 14
     ec6:	fe cf       	rjmp	.-4      	; 0xec4 <rf_security_disable+0x16>
     ec8:	c0 9a       	sbi	0x18, 0	; 24
     eca:	10 92 09 04 	sts	0x0409, r1
     ece:	08 95       	ret

00000ed0 <rf_get_sem>:
     ed0:	80 91 07 04 	lds	r24, 0x0407
     ed4:	90 91 08 04 	lds	r25, 0x0408
     ed8:	08 95       	ret

00000eda <rf_tx_power>:
     eda:	90 e0       	ldi	r25, 0x00	; 0
     edc:	8f 71       	andi	r24, 0x1F	; 31
     ede:	90 70       	andi	r25, 0x00	; 0
     ee0:	80 6e       	ori	r24, 0xE0	; 224
     ee2:	90 6a       	ori	r25, 0xA0	; 160
     ee4:	c0 98       	cbi	0x18, 0	; 24
     ee6:	25 e1       	ldi	r18, 0x15	; 21
     ee8:	2f b9       	out	0x0f, r18	; 15
     eea:	77 9b       	sbis	0x0e, 7	; 14
     eec:	fe cf       	rjmp	.-4      	; 0xeea <rf_tx_power+0x10>
     eee:	9f b9       	out	0x0f, r25	; 15
     ef0:	77 9b       	sbis	0x0e, 7	; 14
     ef2:	fe cf       	rjmp	.-4      	; 0xef0 <rf_tx_power+0x16>
     ef4:	8f b9       	out	0x0f, r24	; 15
     ef6:	77 9b       	sbis	0x0e, 7	; 14
     ef8:	fe cf       	rjmp	.-4      	; 0xef6 <rf_tx_power+0x1c>
     efa:	c0 9a       	sbi	0x18, 0	; 24
     efc:	08 95       	ret

00000efe <rf_set_channel>:
     efe:	0e 94 db 05 	call	0xbb6	; 0xbb6 <halRfSetChannel>
     f02:	08 95       	ret

00000f04 <rf_addr_decode_enable>:
     f04:	80 91 0a 04 	lds	r24, 0x040A
     f08:	90 91 0b 04 	lds	r25, 0x040B
     f0c:	98 60       	ori	r25, 0x08	; 8
     f0e:	90 93 0b 04 	sts	0x040B, r25
     f12:	80 93 0a 04 	sts	0x040A, r24
     f16:	c0 98       	cbi	0x18, 0	; 24
     f18:	81 e1       	ldi	r24, 0x11	; 17
     f1a:	8f b9       	out	0x0f, r24	; 15
     f1c:	77 9b       	sbis	0x0e, 7	; 14
     f1e:	fe cf       	rjmp	.-4      	; 0xf1c <rf_addr_decode_enable+0x18>
     f20:	80 91 0b 04 	lds	r24, 0x040B
     f24:	8f b9       	out	0x0f, r24	; 15
     f26:	77 9b       	sbis	0x0e, 7	; 14
     f28:	fe cf       	rjmp	.-4      	; 0xf26 <rf_addr_decode_enable+0x22>
     f2a:	80 91 0a 04 	lds	r24, 0x040A
     f2e:	8f b9       	out	0x0f, r24	; 15
     f30:	77 9b       	sbis	0x0e, 7	; 14
     f32:	fe cf       	rjmp	.-4      	; 0xf30 <rf_addr_decode_enable+0x2c>
     f34:	c0 9a       	sbi	0x18, 0	; 24
     f36:	08 95       	ret

00000f38 <rf_addr_decode_disable>:
     f38:	80 91 0a 04 	lds	r24, 0x040A
     f3c:	90 91 0b 04 	lds	r25, 0x040B
     f40:	97 7f       	andi	r25, 0xF7	; 247
     f42:	90 93 0b 04 	sts	0x040B, r25
     f46:	80 93 0a 04 	sts	0x040A, r24
     f4a:	c0 98       	cbi	0x18, 0	; 24
     f4c:	81 e1       	ldi	r24, 0x11	; 17
     f4e:	8f b9       	out	0x0f, r24	; 15
     f50:	77 9b       	sbis	0x0e, 7	; 14
     f52:	fe cf       	rjmp	.-4      	; 0xf50 <rf_addr_decode_disable+0x18>
     f54:	80 91 0b 04 	lds	r24, 0x040B
     f58:	8f b9       	out	0x0f, r24	; 15
     f5a:	77 9b       	sbis	0x0e, 7	; 14
     f5c:	fe cf       	rjmp	.-4      	; 0xf5a <rf_addr_decode_disable+0x22>
     f5e:	80 91 0a 04 	lds	r24, 0x040A
     f62:	8f b9       	out	0x0f, r24	; 15
     f64:	77 9b       	sbis	0x0e, 7	; 14
     f66:	fe cf       	rjmp	.-4      	; 0xf64 <rf_addr_decode_disable+0x2c>
     f68:	c0 9a       	sbi	0x18, 0	; 24
     f6a:	08 95       	ret

00000f6c <rf_auto_ack_enable>:
     f6c:	81 e0       	ldi	r24, 0x01	; 1
     f6e:	80 93 17 04 	sts	0x0417, r24
     f72:	80 91 0a 04 	lds	r24, 0x040A
     f76:	90 91 0b 04 	lds	r25, 0x040B
     f7a:	80 61       	ori	r24, 0x10	; 16
     f7c:	90 93 0b 04 	sts	0x040B, r25
     f80:	80 93 0a 04 	sts	0x040A, r24
     f84:	c0 98       	cbi	0x18, 0	; 24
     f86:	81 e1       	ldi	r24, 0x11	; 17
     f88:	8f b9       	out	0x0f, r24	; 15
     f8a:	77 9b       	sbis	0x0e, 7	; 14
     f8c:	fe cf       	rjmp	.-4      	; 0xf8a <rf_auto_ack_enable+0x1e>
     f8e:	80 91 0b 04 	lds	r24, 0x040B
     f92:	8f b9       	out	0x0f, r24	; 15
     f94:	77 9b       	sbis	0x0e, 7	; 14
     f96:	fe cf       	rjmp	.-4      	; 0xf94 <rf_auto_ack_enable+0x28>
     f98:	80 91 0a 04 	lds	r24, 0x040A
     f9c:	8f b9       	out	0x0f, r24	; 15
     f9e:	77 9b       	sbis	0x0e, 7	; 14
     fa0:	fe cf       	rjmp	.-4      	; 0xf9e <rf_auto_ack_enable+0x32>
     fa2:	c0 9a       	sbi	0x18, 0	; 24
     fa4:	08 95       	ret

00000fa6 <rf_auto_ack_disable>:
     fa6:	10 92 17 04 	sts	0x0417, r1
     faa:	80 91 0a 04 	lds	r24, 0x040A
     fae:	90 91 0b 04 	lds	r25, 0x040B
     fb2:	8f 7e       	andi	r24, 0xEF	; 239
     fb4:	90 93 0b 04 	sts	0x040B, r25
     fb8:	80 93 0a 04 	sts	0x040A, r24
     fbc:	c0 98       	cbi	0x18, 0	; 24
     fbe:	81 e1       	ldi	r24, 0x11	; 17
     fc0:	8f b9       	out	0x0f, r24	; 15
     fc2:	77 9b       	sbis	0x0e, 7	; 14
     fc4:	fe cf       	rjmp	.-4      	; 0xfc2 <rf_auto_ack_disable+0x1c>
     fc6:	80 91 0b 04 	lds	r24, 0x040B
     fca:	8f b9       	out	0x0f, r24	; 15
     fcc:	77 9b       	sbis	0x0e, 7	; 14
     fce:	fe cf       	rjmp	.-4      	; 0xfcc <rf_auto_ack_disable+0x26>
     fd0:	80 91 0a 04 	lds	r24, 0x040A
     fd4:	8f b9       	out	0x0f, r24	; 15
     fd6:	77 9b       	sbis	0x0e, 7	; 14
     fd8:	fe cf       	rjmp	.-4      	; 0xfd6 <rf_auto_ack_disable+0x30>
     fda:	c0 9a       	sbi	0x18, 0	; 24
     fdc:	08 95       	ret

00000fde <rf_addr_decode_set_my_mac>:
     fde:	df 93       	push	r29
     fe0:	cf 93       	push	r28
     fe2:	00 d0       	rcall	.+0      	; 0xfe4 <rf_addr_decode_set_my_mac+0x6>
     fe4:	cd b7       	in	r28, 0x3d	; 61
     fe6:	de b7       	in	r29, 0x3e	; 62
     fe8:	9a 83       	std	Y+2, r25	; 0x02
     fea:	89 83       	std	Y+1, r24	; 0x01
     fec:	90 93 13 04 	sts	0x0413, r25
     ff0:	80 93 12 04 	sts	0x0412, r24
     ff4:	84 ef       	ldi	r24, 0xF4	; 244
     ff6:	91 e0       	ldi	r25, 0x01	; 1
     ff8:	0e 94 9c 22 	call	0x4538	; 0x4538 <nrk_spin_wait_us>
     ffc:	c0 98       	cbi	0x18, 0	; 24
     ffe:	8a ee       	ldi	r24, 0xEA	; 234
    1000:	8f b9       	out	0x0f, r24	; 15
    1002:	77 9b       	sbis	0x0e, 7	; 14
    1004:	fe cf       	rjmp	.-4      	; 0x1002 <rf_addr_decode_set_my_mac+0x24>
    1006:	80 e8       	ldi	r24, 0x80	; 128
    1008:	8f b9       	out	0x0f, r24	; 15
    100a:	77 9b       	sbis	0x0e, 7	; 14
    100c:	fe cf       	rjmp	.-4      	; 0x100a <rf_addr_decode_set_my_mac+0x2c>
    100e:	fe 01       	movw	r30, r28
    1010:	31 96       	adiw	r30, 0x01	; 1
    1012:	ce 01       	movw	r24, r28
    1014:	03 96       	adiw	r24, 0x03	; 3
    1016:	21 91       	ld	r18, Z+
    1018:	2f b9       	out	0x0f, r18	; 15
    101a:	77 9b       	sbis	0x0e, 7	; 14
    101c:	fe cf       	rjmp	.-4      	; 0x101a <rf_addr_decode_set_my_mac+0x3c>
    101e:	e8 17       	cp	r30, r24
    1020:	f9 07       	cpc	r31, r25
    1022:	c9 f7       	brne	.-14     	; 0x1016 <rf_addr_decode_set_my_mac+0x38>
    1024:	c0 9a       	sbi	0x18, 0	; 24
    1026:	84 ef       	ldi	r24, 0xF4	; 244
    1028:	91 e0       	ldi	r25, 0x01	; 1
    102a:	0e 94 9c 22 	call	0x4538	; 0x4538 <nrk_spin_wait_us>
    102e:	0f 90       	pop	r0
    1030:	0f 90       	pop	r0
    1032:	cf 91       	pop	r28
    1034:	df 91       	pop	r29
    1036:	08 95       	ret

00001038 <rf_set_rx>:
    1038:	cf 93       	push	r28
    103a:	df 93       	push	r29
    103c:	ec 01       	movw	r28, r24
    103e:	86 2f       	mov	r24, r22
    1040:	c0 98       	cbi	0x18, 0	; 24
    1042:	98 e0       	ldi	r25, 0x08	; 8
    1044:	9f b9       	out	0x0f, r25	; 15
    1046:	77 9b       	sbis	0x0e, 7	; 14
    1048:	fe cf       	rjmp	.-4      	; 0x1046 <rf_set_rx+0xe>
    104a:	c0 9a       	sbi	0x18, 0	; 24
    104c:	c0 98       	cbi	0x18, 0	; 24
    104e:	98 e0       	ldi	r25, 0x08	; 8
    1050:	9f b9       	out	0x0f, r25	; 15
    1052:	77 9b       	sbis	0x0e, 7	; 14
    1054:	fe cf       	rjmp	.-4      	; 0x1052 <rf_set_rx+0x1a>
    1056:	c0 9a       	sbi	0x18, 0	; 24
    1058:	0e 94 db 05 	call	0xbb6	; 0xbb6 <halRfSetChannel>
    105c:	d0 93 0d 04 	sts	0x040D, r29
    1060:	c0 93 0c 04 	sts	0x040C, r28
    1064:	df 91       	pop	r29
    1066:	cf 91       	pop	r28
    1068:	08 95       	ret

0000106a <rf_init>:
    106a:	df 92       	push	r13
    106c:	ef 92       	push	r14
    106e:	ff 92       	push	r15
    1070:	0f 93       	push	r16
    1072:	1f 93       	push	r17
    1074:	df 93       	push	r29
    1076:	cf 93       	push	r28
    1078:	00 d0       	rcall	.+0      	; 0x107a <rf_init+0x10>
    107a:	cd b7       	in	r28, 0x3d	; 61
    107c:	de b7       	in	r29, 0x3e	; 62
    107e:	8c 01       	movw	r16, r24
    1080:	d6 2e       	mov	r13, r22
    1082:	5a 83       	std	Y+2, r21	; 0x02
    1084:	49 83       	std	Y+1, r20	; 0x01
    1086:	79 01       	movw	r14, r18
    1088:	dd 9a       	sbi	0x1b, 5	; 27
    108a:	88 ee       	ldi	r24, 0xE8	; 232
    108c:	93 e0       	ldi	r25, 0x03	; 3
    108e:	0e 94 38 11 	call	0x2270	; 0x2270 <halWait>
    1092:	de 98       	cbi	0x1b, 6	; 27
    1094:	81 e0       	ldi	r24, 0x01	; 1
    1096:	90 e0       	ldi	r25, 0x00	; 0
    1098:	0e 94 38 11 	call	0x2270	; 0x2270 <halWait>
    109c:	de 9a       	sbi	0x1b, 6	; 27
    109e:	84 e6       	ldi	r24, 0x64	; 100
    10a0:	90 e0       	ldi	r25, 0x00	; 0
    10a2:	0e 94 38 11 	call	0x2270	; 0x2270 <halWait>
    10a6:	f8 94       	cli
    10a8:	c0 98       	cbi	0x18, 0	; 24
    10aa:	81 e0       	ldi	r24, 0x01	; 1
    10ac:	8f b9       	out	0x0f, r24	; 15
    10ae:	77 9b       	sbis	0x0e, 7	; 14
    10b0:	fe cf       	rjmp	.-4      	; 0x10ae <rf_init+0x44>
    10b2:	c0 9a       	sbi	0x18, 0	; 24
    10b4:	82 ee       	ldi	r24, 0xE2	; 226
    10b6:	92 e0       	ldi	r25, 0x02	; 2
    10b8:	90 93 0b 04 	sts	0x040B, r25
    10bc:	80 93 0a 04 	sts	0x040A, r24
    10c0:	c0 98       	cbi	0x18, 0	; 24
    10c2:	81 e1       	ldi	r24, 0x11	; 17
    10c4:	8f b9       	out	0x0f, r24	; 15
    10c6:	77 9b       	sbis	0x0e, 7	; 14
    10c8:	fe cf       	rjmp	.-4      	; 0x10c6 <rf_init+0x5c>
    10ca:	80 91 0b 04 	lds	r24, 0x040B
    10ce:	8f b9       	out	0x0f, r24	; 15
    10d0:	77 9b       	sbis	0x0e, 7	; 14
    10d2:	fe cf       	rjmp	.-4      	; 0x10d0 <rf_init+0x66>
    10d4:	80 91 0a 04 	lds	r24, 0x040A
    10d8:	8f b9       	out	0x0f, r24	; 15
    10da:	77 9b       	sbis	0x0e, 7	; 14
    10dc:	fe cf       	rjmp	.-4      	; 0x10da <rf_init+0x70>
    10de:	c0 9a       	sbi	0x18, 0	; 24
    10e0:	c0 98       	cbi	0x18, 0	; 24
    10e2:	82 e1       	ldi	r24, 0x12	; 18
    10e4:	8f b9       	out	0x0f, r24	; 15
    10e6:	77 9b       	sbis	0x0e, 7	; 14
    10e8:	fe cf       	rjmp	.-4      	; 0x10e6 <rf_init+0x7c>
    10ea:	85 e0       	ldi	r24, 0x05	; 5
    10ec:	8f b9       	out	0x0f, r24	; 15
    10ee:	77 9b       	sbis	0x0e, 7	; 14
    10f0:	fe cf       	rjmp	.-4      	; 0x10ee <rf_init+0x84>
    10f2:	1f b8       	out	0x0f, r1	; 15
    10f4:	77 9b       	sbis	0x0e, 7	; 14
    10f6:	fe cf       	rjmp	.-4      	; 0x10f4 <rf_init+0x8a>
    10f8:	c0 9a       	sbi	0x18, 0	; 24
    10fa:	c0 98       	cbi	0x18, 0	; 24
    10fc:	8c e1       	ldi	r24, 0x1C	; 28
    10fe:	8f b9       	out	0x0f, r24	; 15
    1100:	77 9b       	sbis	0x0e, 7	; 14
    1102:	fe cf       	rjmp	.-4      	; 0x1100 <__stack+0x1>
    1104:	1f b8       	out	0x0f, r1	; 15
    1106:	77 9b       	sbis	0x0e, 7	; 14
    1108:	fe cf       	rjmp	.-4      	; 0x1106 <__stack+0x7>
    110a:	8f e7       	ldi	r24, 0x7F	; 127
    110c:	8f b9       	out	0x0f, r24	; 15
    110e:	77 9b       	sbis	0x0e, 7	; 14
    1110:	fe cf       	rjmp	.-4      	; 0x110e <__stack+0xf>
    1112:	c0 9a       	sbi	0x18, 0	; 24
    1114:	c0 98       	cbi	0x18, 0	; 24
    1116:	89 e1       	ldi	r24, 0x19	; 25
    1118:	8f b9       	out	0x0f, r24	; 15
    111a:	77 9b       	sbis	0x0e, 7	; 14
    111c:	fe cf       	rjmp	.-4      	; 0x111a <__stack+0x1b>
    111e:	81 e0       	ldi	r24, 0x01	; 1
    1120:	8f b9       	out	0x0f, r24	; 15
    1122:	77 9b       	sbis	0x0e, 7	; 14
    1124:	fe cf       	rjmp	.-4      	; 0x1122 <__stack+0x23>
    1126:	84 ec       	ldi	r24, 0xC4	; 196
    1128:	8f b9       	out	0x0f, r24	; 15
    112a:	77 9b       	sbis	0x0e, 7	; 14
    112c:	fe cf       	rjmp	.-4      	; 0x112a <__stack+0x2b>
    112e:	c0 9a       	sbi	0x18, 0	; 24
    1130:	c0 98       	cbi	0x18, 0	; 24
    1132:	87 e1       	ldi	r24, 0x17	; 23
    1134:	8f b9       	out	0x0f, r24	; 15
    1136:	77 9b       	sbis	0x0e, 7	; 14
    1138:	fe cf       	rjmp	.-4      	; 0x1136 <__stack+0x37>
    113a:	8a e1       	ldi	r24, 0x1A	; 26
    113c:	8f b9       	out	0x0f, r24	; 15
    113e:	77 9b       	sbis	0x0e, 7	; 14
    1140:	fe cf       	rjmp	.-4      	; 0x113e <__stack+0x3f>
    1142:	86 e5       	ldi	r24, 0x56	; 86
    1144:	8f b9       	out	0x0f, r24	; 15
    1146:	77 9b       	sbis	0x0e, 7	; 14
    1148:	fe cf       	rjmp	.-4      	; 0x1146 <__stack+0x47>
    114a:	c0 9a       	sbi	0x18, 0	; 24
    114c:	84 ef       	ldi	r24, 0xF4	; 244
    114e:	91 e0       	ldi	r25, 0x01	; 1
    1150:	0e 94 9c 22 	call	0x4538	; 0x4538 <nrk_spin_wait_us>
    1154:	c0 98       	cbi	0x18, 0	; 24
    1156:	88 ee       	ldi	r24, 0xE8	; 232
    1158:	8f b9       	out	0x0f, r24	; 15
    115a:	77 9b       	sbis	0x0e, 7	; 14
    115c:	fe cf       	rjmp	.-4      	; 0x115a <__stack+0x5b>
    115e:	80 e8       	ldi	r24, 0x80	; 128
    1160:	8f b9       	out	0x0f, r24	; 15
    1162:	77 9b       	sbis	0x0e, 7	; 14
    1164:	fe cf       	rjmp	.-4      	; 0x1162 <__stack+0x63>
    1166:	fe 01       	movw	r30, r28
    1168:	31 96       	adiw	r30, 0x01	; 1
    116a:	ce 01       	movw	r24, r28
    116c:	03 96       	adiw	r24, 0x03	; 3
    116e:	21 91       	ld	r18, Z+
    1170:	2f b9       	out	0x0f, r18	; 15
    1172:	77 9b       	sbis	0x0e, 7	; 14
    1174:	fe cf       	rjmp	.-4      	; 0x1172 <__stack+0x73>
    1176:	e8 17       	cp	r30, r24
    1178:	f9 07       	cpc	r31, r25
    117a:	c9 f7       	brne	.-14     	; 0x116e <__stack+0x6f>
    117c:	c0 9a       	sbi	0x18, 0	; 24
    117e:	84 ef       	ldi	r24, 0xF4	; 244
    1180:	91 e0       	ldi	r25, 0x01	; 1
    1182:	0e 94 9c 22 	call	0x4538	; 0x4538 <nrk_spin_wait_us>
    1186:	78 94       	sei
    1188:	8d 2d       	mov	r24, r13
    118a:	0e 94 db 05 	call	0xbb6	; 0xbb6 <halRfSetChannel>
    118e:	78 94       	sei
    1190:	10 93 0d 04 	sts	0x040D, r17
    1194:	00 93 0c 04 	sts	0x040C, r16
    1198:	89 81       	ldd	r24, Y+1	; 0x01
    119a:	9a 81       	ldd	r25, Y+2	; 0x02
    119c:	90 93 11 04 	sts	0x0411, r25
    11a0:	80 93 10 04 	sts	0x0410, r24
    11a4:	f0 92 13 04 	sts	0x0413, r15
    11a8:	e0 92 12 04 	sts	0x0412, r14
    11ac:	10 92 0e 04 	sts	0x040E, r1
    11b0:	10 92 14 04 	sts	0x0414, r1
    11b4:	0e 94 f6 05 	call	0xbec	; 0xbec <halRfWaitForCrystalOscillator>
    11b8:	10 92 17 04 	sts	0x0417, r1
    11bc:	10 92 09 04 	sts	0x0409, r1
    11c0:	10 92 18 04 	sts	0x0418, r1
    11c4:	0f 90       	pop	r0
    11c6:	0f 90       	pop	r0
    11c8:	cf 91       	pop	r28
    11ca:	df 91       	pop	r29
    11cc:	1f 91       	pop	r17
    11ce:	0f 91       	pop	r16
    11d0:	ff 90       	pop	r15
    11d2:	ef 90       	pop	r14
    11d4:	df 90       	pop	r13
    11d6:	08 95       	ret

000011d8 <rf_rx_on>:
    11d8:	81 e0       	ldi	r24, 0x01	; 1
    11da:	80 93 14 04 	sts	0x0414, r24
    11de:	c0 98       	cbi	0x18, 0	; 24
    11e0:	83 e0       	ldi	r24, 0x03	; 3
    11e2:	8f b9       	out	0x0f, r24	; 15
    11e4:	77 9b       	sbis	0x0e, 7	; 14
    11e6:	fe cf       	rjmp	.-4      	; 0x11e4 <rf_rx_on+0xc>
    11e8:	c0 9a       	sbi	0x18, 0	; 24
    11ea:	c0 98       	cbi	0x18, 0	; 24
    11ec:	88 e0       	ldi	r24, 0x08	; 8
    11ee:	8f b9       	out	0x0f, r24	; 15
    11f0:	77 9b       	sbis	0x0e, 7	; 14
    11f2:	fe cf       	rjmp	.-4      	; 0x11f0 <rf_rx_on+0x18>
    11f4:	c0 9a       	sbi	0x18, 0	; 24
    11f6:	10 92 1d 04 	sts	0x041D, r1
    11fa:	08 95       	ret

000011fc <rf_polling_rx_on>:
    11fc:	81 e0       	ldi	r24, 0x01	; 1
    11fe:	80 93 14 04 	sts	0x0414, r24
    1202:	c0 98       	cbi	0x18, 0	; 24
    1204:	83 e0       	ldi	r24, 0x03	; 3
    1206:	8f b9       	out	0x0f, r24	; 15
    1208:	77 9b       	sbis	0x0e, 7	; 14
    120a:	fe cf       	rjmp	.-4      	; 0x1208 <rf_polling_rx_on+0xc>
    120c:	c0 9a       	sbi	0x18, 0	; 24
    120e:	c0 98       	cbi	0x18, 0	; 24
    1210:	88 e0       	ldi	r24, 0x08	; 8
    1212:	8f b9       	out	0x0f, r24	; 15
    1214:	77 9b       	sbis	0x0e, 7	; 14
    1216:	fe cf       	rjmp	.-4      	; 0x1214 <rf_polling_rx_on+0x18>
    1218:	c0 9a       	sbi	0x18, 0	; 24
    121a:	10 92 1d 04 	sts	0x041D, r1
    121e:	08 95       	ret

00001220 <rf_rx_off>:
    1220:	10 92 14 04 	sts	0x0414, r1
    1224:	c0 98       	cbi	0x18, 0	; 24
    1226:	86 e0       	ldi	r24, 0x06	; 6
    1228:	8f b9       	out	0x0f, r24	; 15
    122a:	77 9b       	sbis	0x0e, 7	; 14
    122c:	fe cf       	rjmp	.-4      	; 0x122a <rf_rx_off+0xa>
    122e:	c0 9a       	sbi	0x18, 0	; 24
    1230:	10 92 1d 04 	sts	0x041D, r1
    1234:	08 95       	ret

00001236 <rf_tx_tdma_packet>:
    1236:	bf 92       	push	r11
    1238:	cf 92       	push	r12
    123a:	df 92       	push	r13
    123c:	ef 92       	push	r14
    123e:	ff 92       	push	r15
    1240:	0f 93       	push	r16
    1242:	1f 93       	push	r17
    1244:	df 93       	push	r29
    1246:	cf 93       	push	r28
    1248:	00 d0       	rcall	.+0      	; 0x124a <rf_tx_tdma_packet+0x14>
    124a:	0f 92       	push	r0
    124c:	cd b7       	in	r28, 0x3d	; 61
    124e:	de b7       	in	r29, 0x3e	; 62
    1250:	8c 01       	movw	r16, r24
    1252:	6b 01       	movw	r12, r22
    1254:	7a 01       	movw	r14, r20
    1256:	0e 94 33 23 	call	0x4666	; 0x4666 <_nrk_os_timer_get>
    125a:	c0 98       	cbi	0x18, 0	; 24
    125c:	88 e0       	ldi	r24, 0x08	; 8
    125e:	8f b9       	out	0x0f, r24	; 15
    1260:	77 9b       	sbis	0x0e, 7	; 14
    1262:	fe cf       	rjmp	.-4      	; 0x1260 <rf_tx_tdma_packet+0x2a>
    1264:	c0 9a       	sbi	0x18, 0	; 24
    1266:	c0 98       	cbi	0x18, 0	; 24
    1268:	88 e0       	ldi	r24, 0x08	; 8
    126a:	8f b9       	out	0x0f, r24	; 15
    126c:	77 9b       	sbis	0x0e, 7	; 14
    126e:	fe cf       	rjmp	.-4      	; 0x126c <rf_tx_tdma_packet+0x36>
    1270:	c0 9a       	sbi	0x18, 0	; 24
    1272:	0e 99       	sbic	0x01, 6	; 1
    1274:	fe cf       	rjmp	.-4      	; 0x1272 <rf_tx_tdma_packet+0x3c>
    1276:	84 99       	sbic	0x10, 4	; 16
    1278:	fc cf       	rjmp	.-8      	; 0x1272 <rf_tx_tdma_packet+0x3c>
    127a:	f8 94       	cli
    127c:	c0 98       	cbi	0x18, 0	; 24
    127e:	89 e0       	ldi	r24, 0x09	; 9
    1280:	8f b9       	out	0x0f, r24	; 15
    1282:	77 9b       	sbis	0x0e, 7	; 14
    1284:	fe cf       	rjmp	.-4      	; 0x1282 <rf_tx_tdma_packet+0x4c>
    1286:	c0 9a       	sbi	0x18, 0	; 24
    1288:	c0 98       	cbi	0x18, 0	; 24
    128a:	89 e0       	ldi	r24, 0x09	; 9
    128c:	8f b9       	out	0x0f, r24	; 15
    128e:	77 9b       	sbis	0x0e, 7	; 14
    1290:	fe cf       	rjmp	.-4      	; 0x128e <rf_tx_tdma_packet+0x58>
    1292:	c0 9a       	sbi	0x18, 0	; 24
    1294:	d8 01       	movw	r26, r16
    1296:	12 96       	adiw	r26, 0x02	; 2
    1298:	5c 91       	ld	r21, X
    129a:	12 97       	sbiw	r26, 0x02	; 2
    129c:	25 2f       	mov	r18, r21
    129e:	33 27       	eor	r19, r19
    12a0:	27 fd       	sbrc	r18, 7
    12a2:	30 95       	com	r19
    12a4:	bb 24       	eor	r11, r11
    12a6:	40 e0       	ldi	r20, 0x00	; 0
    12a8:	0a c0       	rjmp	.+20     	; 0x12be <rf_tx_tdma_packet+0x88>
    12aa:	d8 01       	movw	r26, r16
    12ac:	13 96       	adiw	r26, 0x03	; 3
    12ae:	ed 91       	ld	r30, X+
    12b0:	fc 91       	ld	r31, X
    12b2:	14 97       	sbiw	r26, 0x04	; 4
    12b4:	e8 0f       	add	r30, r24
    12b6:	f9 1f       	adc	r31, r25
    12b8:	80 81       	ld	r24, Z
    12ba:	b8 0e       	add	r11, r24
    12bc:	4f 5f       	subi	r20, 0xFF	; 255
    12be:	84 2f       	mov	r24, r20
    12c0:	90 e0       	ldi	r25, 0x00	; 0
    12c2:	82 17       	cp	r24, r18
    12c4:	93 07       	cpc	r25, r19
    12c6:	8c f3       	brlt	.-30     	; 0x12aa <rf_tx_tdma_packet+0x74>
    12c8:	54 5f       	subi	r21, 0xF4	; 244
    12ca:	c0 98       	cbi	0x18, 0	; 24
    12cc:	8e e3       	ldi	r24, 0x3E	; 62
    12ce:	8f b9       	out	0x0f, r24	; 15
    12d0:	77 9b       	sbis	0x0e, 7	; 14
    12d2:	fe cf       	rjmp	.-4      	; 0x12d0 <rf_tx_tdma_packet+0x9a>
    12d4:	5f b9       	out	0x0f, r21	; 15
    12d6:	77 9b       	sbis	0x0e, 7	; 14
    12d8:	fe cf       	rjmp	.-4      	; 0x12d6 <rf_tx_tdma_packet+0xa0>
    12da:	c0 9a       	sbi	0x18, 0	; 24
    12dc:	f8 01       	movw	r30, r16
    12de:	86 81       	ldd	r24, Z+6	; 0x06
    12e0:	88 23       	and	r24, r24
    12e2:	19 f0       	breq	.+6      	; 0x12ea <rf_tx_tdma_packet+0xb4>
    12e4:	81 e6       	ldi	r24, 0x61	; 97
    12e6:	98 e8       	ldi	r25, 0x88	; 136
    12e8:	02 c0       	rjmp	.+4      	; 0x12ee <rf_tx_tdma_packet+0xb8>
    12ea:	81 e4       	ldi	r24, 0x41	; 65
    12ec:	98 e8       	ldi	r25, 0x88	; 136
    12ee:	9a 83       	std	Y+2, r25	; 0x02
    12f0:	89 83       	std	Y+1, r24	; 0x01
    12f2:	c0 98       	cbi	0x18, 0	; 24
    12f4:	8e e3       	ldi	r24, 0x3E	; 62
    12f6:	8f b9       	out	0x0f, r24	; 15
    12f8:	77 9b       	sbis	0x0e, 7	; 14
    12fa:	fe cf       	rjmp	.-4      	; 0x12f8 <rf_tx_tdma_packet+0xc2>
    12fc:	fe 01       	movw	r30, r28
    12fe:	31 96       	adiw	r30, 0x01	; 1
    1300:	ce 01       	movw	r24, r28
    1302:	03 96       	adiw	r24, 0x03	; 3
    1304:	21 91       	ld	r18, Z+
    1306:	2f b9       	out	0x0f, r18	; 15
    1308:	77 9b       	sbis	0x0e, 7	; 14
    130a:	fe cf       	rjmp	.-4      	; 0x1308 <rf_tx_tdma_packet+0xd2>
    130c:	e8 17       	cp	r30, r24
    130e:	f9 07       	cpc	r31, r25
    1310:	c9 f7       	brne	.-14     	; 0x1304 <rf_tx_tdma_packet+0xce>
    1312:	c0 9a       	sbi	0x18, 0	; 24
    1314:	c0 98       	cbi	0x18, 0	; 24
    1316:	8e e3       	ldi	r24, 0x3E	; 62
    1318:	8f b9       	out	0x0f, r24	; 15
    131a:	77 9b       	sbis	0x0e, 7	; 14
    131c:	fe cf       	rjmp	.-4      	; 0x131a <rf_tx_tdma_packet+0xe4>
    131e:	80 91 0e 04 	lds	r24, 0x040E
    1322:	8f b9       	out	0x0f, r24	; 15
    1324:	77 9b       	sbis	0x0e, 7	; 14
    1326:	fe cf       	rjmp	.-4      	; 0x1324 <rf_tx_tdma_packet+0xee>
    1328:	c0 9a       	sbi	0x18, 0	; 24
    132a:	c0 98       	cbi	0x18, 0	; 24
    132c:	8e e3       	ldi	r24, 0x3E	; 62
    132e:	8f b9       	out	0x0f, r24	; 15
    1330:	77 9b       	sbis	0x0e, 7	; 14
    1332:	fe cf       	rjmp	.-4      	; 0x1330 <rf_tx_tdma_packet+0xfa>
    1334:	80 e0       	ldi	r24, 0x00	; 0
    1336:	90 e0       	ldi	r25, 0x00	; 0
    1338:	fc 01       	movw	r30, r24
    133a:	e4 5f       	subi	r30, 0xF4	; 244
    133c:	fb 4f       	sbci	r31, 0xFB	; 251
    133e:	24 81       	ldd	r18, Z+4	; 0x04
    1340:	2f b9       	out	0x0f, r18	; 15
    1342:	77 9b       	sbis	0x0e, 7	; 14
    1344:	fe cf       	rjmp	.-4      	; 0x1342 <rf_tx_tdma_packet+0x10c>
    1346:	01 96       	adiw	r24, 0x01	; 1
    1348:	82 30       	cpi	r24, 0x02	; 2
    134a:	91 05       	cpc	r25, r1
    134c:	a9 f7       	brne	.-22     	; 0x1338 <rf_tx_tdma_packet+0x102>
    134e:	c0 9a       	sbi	0x18, 0	; 24
    1350:	c0 98       	cbi	0x18, 0	; 24
    1352:	8e e3       	ldi	r24, 0x3E	; 62
    1354:	8f b9       	out	0x0f, r24	; 15
    1356:	77 9b       	sbis	0x0e, 7	; 14
    1358:	fe cf       	rjmp	.-4      	; 0x1356 <rf_tx_tdma_packet+0x120>
    135a:	80 e0       	ldi	r24, 0x00	; 0
    135c:	90 e0       	ldi	r25, 0x00	; 0
    135e:	f8 01       	movw	r30, r16
    1360:	e8 0f       	add	r30, r24
    1362:	f9 1f       	adc	r31, r25
    1364:	20 81       	ld	r18, Z
    1366:	2f b9       	out	0x0f, r18	; 15
    1368:	77 9b       	sbis	0x0e, 7	; 14
    136a:	fe cf       	rjmp	.-4      	; 0x1368 <rf_tx_tdma_packet+0x132>
    136c:	01 96       	adiw	r24, 0x01	; 1
    136e:	82 30       	cpi	r24, 0x02	; 2
    1370:	91 05       	cpc	r25, r1
    1372:	a9 f7       	brne	.-22     	; 0x135e <rf_tx_tdma_packet+0x128>
    1374:	c0 9a       	sbi	0x18, 0	; 24
    1376:	c0 98       	cbi	0x18, 0	; 24
    1378:	8e e3       	ldi	r24, 0x3E	; 62
    137a:	8f b9       	out	0x0f, r24	; 15
    137c:	77 9b       	sbis	0x0e, 7	; 14
    137e:	fe cf       	rjmp	.-4      	; 0x137c <rf_tx_tdma_packet+0x146>
    1380:	80 e0       	ldi	r24, 0x00	; 0
    1382:	90 e0       	ldi	r25, 0x00	; 0
    1384:	fc 01       	movw	r30, r24
    1386:	e4 5f       	subi	r30, 0xF4	; 244
    1388:	fb 4f       	sbci	r31, 0xFB	; 251
    138a:	26 81       	ldd	r18, Z+6	; 0x06
    138c:	2f b9       	out	0x0f, r18	; 15
    138e:	77 9b       	sbis	0x0e, 7	; 14
    1390:	fe cf       	rjmp	.-4      	; 0x138e <rf_tx_tdma_packet+0x158>
    1392:	01 96       	adiw	r24, 0x01	; 1
    1394:	82 30       	cpi	r24, 0x02	; 2
    1396:	91 05       	cpc	r25, r1
    1398:	a9 f7       	brne	.-22     	; 0x1384 <rf_tx_tdma_packet+0x14e>
    139a:	c0 9a       	sbi	0x18, 0	; 24
    139c:	c6 01       	movw	r24, r12
    139e:	b7 01       	movw	r22, r14
    13a0:	0e 94 bf 22 	call	0x457e	; 0x457e <nrk_high_speed_timer_wait>
    13a4:	d8 01       	movw	r26, r16
    13a6:	15 96       	adiw	r26, 0x05	; 5
    13a8:	8c 91       	ld	r24, X
    13aa:	15 97       	sbiw	r26, 0x05	; 5
    13ac:	88 23       	and	r24, r24
    13ae:	a9 f1       	breq	.+106    	; 0x141a <rf_tx_tdma_packet+0x1e4>
    13b0:	80 91 14 04 	lds	r24, 0x0414
    13b4:	88 23       	and	r24, r24
    13b6:	31 f4       	brne	.+12     	; 0x13c4 <rf_tx_tdma_packet+0x18e>
    13b8:	c0 98       	cbi	0x18, 0	; 24
    13ba:	83 e0       	ldi	r24, 0x03	; 3
    13bc:	8f b9       	out	0x0f, r24	; 15
    13be:	77 9b       	sbis	0x0e, 7	; 14
    13c0:	fe cf       	rjmp	.-4      	; 0x13be <rf_tx_tdma_packet+0x188>
    13c2:	c0 9a       	sbi	0x18, 0	; 24
    13c4:	c0 98       	cbi	0x18, 0	; 24
    13c6:	1f b8       	out	0x0f, r1	; 15
    13c8:	77 9b       	sbis	0x0e, 7	; 14
    13ca:	fe cf       	rjmp	.-4      	; 0x13c8 <rf_tx_tdma_packet+0x192>
    13cc:	8f b1       	in	r24, 0x0f	; 15
    13ce:	c0 9a       	sbi	0x18, 0	; 24
    13d0:	81 ff       	sbrs	r24, 1
    13d2:	f8 cf       	rjmp	.-16     	; 0x13c4 <rf_tx_tdma_packet+0x18e>
    13d4:	20 e0       	ldi	r18, 0x00	; 0
    13d6:	a5 e0       	ldi	r26, 0x05	; 5
    13d8:	ea 2e       	mov	r14, r26
    13da:	c0 98       	cbi	0x18, 0	; 24
    13dc:	ef b8       	out	0x0f, r14	; 15
    13de:	77 9b       	sbis	0x0e, 7	; 14
    13e0:	fe cf       	rjmp	.-4      	; 0x13de <rf_tx_tdma_packet+0x1a8>
    13e2:	c0 9a       	sbi	0x18, 0	; 24
    13e4:	c0 98       	cbi	0x18, 0	; 24
    13e6:	1f b8       	out	0x0f, r1	; 15
    13e8:	77 9b       	sbis	0x0e, 7	; 14
    13ea:	fe cf       	rjmp	.-4      	; 0x13e8 <rf_tx_tdma_packet+0x1b2>
    13ec:	cf b0       	in	r12, 0x0f	; 15
    13ee:	c0 9a       	sbi	0x18, 0	; 24
    13f0:	2f 5f       	subi	r18, 0xFF	; 255
    13f2:	25 36       	cpi	r18, 0x65	; 101
    13f4:	49 f4       	brne	.+18     	; 0x1408 <rf_tx_tdma_packet+0x1d2>
    13f6:	78 94       	sei
    13f8:	80 91 07 04 	lds	r24, 0x0407
    13fc:	90 91 08 04 	lds	r25, 0x0408
    1400:	0e 94 4a 19 	call	0x3294	; 0x3294 <nrk_sem_post>
    1404:	80 e0       	ldi	r24, 0x00	; 0
    1406:	60 c0       	rjmp	.+192    	; 0x14c8 <rf_tx_tdma_packet+0x292>
    1408:	84 e6       	ldi	r24, 0x64	; 100
    140a:	90 e0       	ldi	r25, 0x00	; 0
    140c:	2b 83       	std	Y+3, r18	; 0x03
    140e:	0e 94 38 11 	call	0x2270	; 0x2270 <halWait>
    1412:	2b 81       	ldd	r18, Y+3	; 0x03
    1414:	c3 fe       	sbrs	r12, 3
    1416:	e1 cf       	rjmp	.-62     	; 0x13da <rf_tx_tdma_packet+0x1a4>
    1418:	06 c0       	rjmp	.+12     	; 0x1426 <rf_tx_tdma_packet+0x1f0>
    141a:	c0 98       	cbi	0x18, 0	; 24
    141c:	84 e0       	ldi	r24, 0x04	; 4
    141e:	8f b9       	out	0x0f, r24	; 15
    1420:	77 9b       	sbis	0x0e, 7	; 14
    1422:	fe cf       	rjmp	.-4      	; 0x1420 <rf_tx_tdma_packet+0x1ea>
    1424:	c0 9a       	sbi	0x18, 0	; 24
    1426:	c0 98       	cbi	0x18, 0	; 24
    1428:	8e e3       	ldi	r24, 0x3E	; 62
    142a:	8f b9       	out	0x0f, r24	; 15
    142c:	77 9b       	sbis	0x0e, 7	; 14
    142e:	fe cf       	rjmp	.-4      	; 0x142c <rf_tx_tdma_packet+0x1f6>
    1430:	40 e0       	ldi	r20, 0x00	; 0
    1432:	0c c0       	rjmp	.+24     	; 0x144c <rf_tx_tdma_packet+0x216>
    1434:	d8 01       	movw	r26, r16
    1436:	13 96       	adiw	r26, 0x03	; 3
    1438:	ed 91       	ld	r30, X+
    143a:	fc 91       	ld	r31, X
    143c:	14 97       	sbiw	r26, 0x04	; 4
    143e:	e8 0f       	add	r30, r24
    1440:	f9 1f       	adc	r31, r25
    1442:	80 81       	ld	r24, Z
    1444:	8f b9       	out	0x0f, r24	; 15
    1446:	77 9b       	sbis	0x0e, 7	; 14
    1448:	fe cf       	rjmp	.-4      	; 0x1446 <rf_tx_tdma_packet+0x210>
    144a:	4f 5f       	subi	r20, 0xFF	; 255
    144c:	84 2f       	mov	r24, r20
    144e:	90 e0       	ldi	r25, 0x00	; 0
    1450:	f8 01       	movw	r30, r16
    1452:	22 81       	ldd	r18, Z+2	; 0x02
    1454:	33 27       	eor	r19, r19
    1456:	27 fd       	sbrc	r18, 7
    1458:	30 95       	com	r19
    145a:	82 17       	cp	r24, r18
    145c:	93 07       	cpc	r25, r19
    145e:	54 f3       	brlt	.-44     	; 0x1434 <rf_tx_tdma_packet+0x1fe>
    1460:	c0 9a       	sbi	0x18, 0	; 24
    1462:	c0 98       	cbi	0x18, 0	; 24
    1464:	8e e3       	ldi	r24, 0x3E	; 62
    1466:	8f b9       	out	0x0f, r24	; 15
    1468:	77 9b       	sbis	0x0e, 7	; 14
    146a:	fe cf       	rjmp	.-4      	; 0x1468 <rf_tx_tdma_packet+0x232>
    146c:	bf b8       	out	0x0f, r11	; 15
    146e:	77 9b       	sbis	0x0e, 7	; 14
    1470:	fe cf       	rjmp	.-4      	; 0x146e <rf_tx_tdma_packet+0x238>
    1472:	c0 9a       	sbi	0x18, 0	; 24
    1474:	84 9b       	sbis	0x10, 4	; 16
    1476:	fe cf       	rjmp	.-4      	; 0x1474 <rf_tx_tdma_packet+0x23e>
    1478:	f8 94       	cli
    147a:	84 99       	sbic	0x10, 4	; 16
    147c:	fe cf       	rjmp	.-4      	; 0x147a <rf_tx_tdma_packet+0x244>
    147e:	c0 98       	cbi	0x18, 0	; 24
    1480:	88 e0       	ldi	r24, 0x08	; 8
    1482:	8f b9       	out	0x0f, r24	; 15
    1484:	77 9b       	sbis	0x0e, 7	; 14
    1486:	fe cf       	rjmp	.-4      	; 0x1484 <rf_tx_tdma_packet+0x24e>
    1488:	c0 9a       	sbi	0x18, 0	; 24
    148a:	c0 98       	cbi	0x18, 0	; 24
    148c:	88 e0       	ldi	r24, 0x08	; 8
    148e:	8f b9       	out	0x0f, r24	; 15
    1490:	77 9b       	sbis	0x0e, 7	; 14
    1492:	fe cf       	rjmp	.-4      	; 0x1490 <rf_tx_tdma_packet+0x25a>
    1494:	c0 9a       	sbi	0x18, 0	; 24
    1496:	c0 98       	cbi	0x18, 0	; 24
    1498:	89 e0       	ldi	r24, 0x09	; 9
    149a:	8f b9       	out	0x0f, r24	; 15
    149c:	77 9b       	sbis	0x0e, 7	; 14
    149e:	fe cf       	rjmp	.-4      	; 0x149c <rf_tx_tdma_packet+0x266>
    14a0:	c0 9a       	sbi	0x18, 0	; 24
    14a2:	c0 98       	cbi	0x18, 0	; 24
    14a4:	89 e0       	ldi	r24, 0x09	; 9
    14a6:	8f b9       	out	0x0f, r24	; 15
    14a8:	77 9b       	sbis	0x0e, 7	; 14
    14aa:	fe cf       	rjmp	.-4      	; 0x14a8 <rf_tx_tdma_packet+0x272>
    14ac:	c0 9a       	sbi	0x18, 0	; 24
    14ae:	c0 98       	cbi	0x18, 0	; 24
    14b0:	86 e0       	ldi	r24, 0x06	; 6
    14b2:	8f b9       	out	0x0f, r24	; 15
    14b4:	77 9b       	sbis	0x0e, 7	; 14
    14b6:	fe cf       	rjmp	.-4      	; 0x14b4 <rf_tx_tdma_packet+0x27e>
    14b8:	c0 9a       	sbi	0x18, 0	; 24
    14ba:	78 94       	sei
    14bc:	80 91 0e 04 	lds	r24, 0x040E
    14c0:	8f 5f       	subi	r24, 0xFF	; 255
    14c2:	80 93 0e 04 	sts	0x040E, r24
    14c6:	81 e0       	ldi	r24, 0x01	; 1
    14c8:	0f 90       	pop	r0
    14ca:	0f 90       	pop	r0
    14cc:	0f 90       	pop	r0
    14ce:	cf 91       	pop	r28
    14d0:	df 91       	pop	r29
    14d2:	1f 91       	pop	r17
    14d4:	0f 91       	pop	r16
    14d6:	ff 90       	pop	r15
    14d8:	ef 90       	pop	r14
    14da:	df 90       	pop	r13
    14dc:	cf 90       	pop	r12
    14de:	bf 90       	pop	r11
    14e0:	08 95       	ret

000014e2 <rf_tx_packet>:
    14e2:	ff 92       	push	r15
    14e4:	0f 93       	push	r16
    14e6:	1f 93       	push	r17
    14e8:	df 93       	push	r29
    14ea:	cf 93       	push	r28
    14ec:	00 d0       	rcall	.+0      	; 0x14ee <rf_tx_packet+0xc>
    14ee:	cd b7       	in	r28, 0x3d	; 61
    14f0:	de b7       	in	r29, 0x3e	; 62
    14f2:	fc 01       	movw	r30, r24
    14f4:	80 91 09 04 	lds	r24, 0x0409
    14f8:	88 23       	and	r24, r24
    14fa:	31 f0       	breq	.+12     	; 0x1508 <rf_tx_packet+0x26>
    14fc:	c0 98       	cbi	0x18, 0	; 24
    14fe:	8d e0       	ldi	r24, 0x0D	; 13
    1500:	8f b9       	out	0x0f, r24	; 15
    1502:	77 9b       	sbis	0x0e, 7	; 14
    1504:	fe cf       	rjmp	.-4      	; 0x1502 <rf_tx_packet+0x20>
    1506:	c0 9a       	sbi	0x18, 0	; 24
    1508:	32 81       	ldd	r19, Z+2	; 0x02
    150a:	43 2f       	mov	r20, r19
    150c:	55 27       	eor	r21, r21
    150e:	47 fd       	sbrc	r20, 7
    1510:	50 95       	com	r21
    1512:	20 e0       	ldi	r18, 0x00	; 0
    1514:	60 e0       	ldi	r22, 0x00	; 0
    1516:	07 c0       	rjmp	.+14     	; 0x1526 <rf_tx_packet+0x44>
    1518:	a3 81       	ldd	r26, Z+3	; 0x03
    151a:	b4 81       	ldd	r27, Z+4	; 0x04
    151c:	a8 0f       	add	r26, r24
    151e:	b9 1f       	adc	r27, r25
    1520:	8c 91       	ld	r24, X
    1522:	28 0f       	add	r18, r24
    1524:	6f 5f       	subi	r22, 0xFF	; 255
    1526:	86 2f       	mov	r24, r22
    1528:	90 e0       	ldi	r25, 0x00	; 0
    152a:	84 17       	cp	r24, r20
    152c:	95 07       	cpc	r25, r21
    152e:	a4 f3       	brlt	.-24     	; 0x1518 <rf_tx_packet+0x36>
    1530:	83 2f       	mov	r24, r19
    1532:	84 5f       	subi	r24, 0xF4	; 244
    1534:	90 91 09 04 	lds	r25, 0x0409
    1538:	91 11       	cpse	r25, r1
    153a:	8c 5f       	subi	r24, 0xFC	; 252
    153c:	c0 98       	cbi	0x18, 0	; 24
    153e:	98 e0       	ldi	r25, 0x08	; 8
    1540:	9f b9       	out	0x0f, r25	; 15
    1542:	77 9b       	sbis	0x0e, 7	; 14
    1544:	fe cf       	rjmp	.-4      	; 0x1542 <rf_tx_packet+0x60>
    1546:	c0 9a       	sbi	0x18, 0	; 24
    1548:	c0 98       	cbi	0x18, 0	; 24
    154a:	98 e0       	ldi	r25, 0x08	; 8
    154c:	9f b9       	out	0x0f, r25	; 15
    154e:	77 9b       	sbis	0x0e, 7	; 14
    1550:	fe cf       	rjmp	.-4      	; 0x154e <rf_tx_packet+0x6c>
    1552:	c0 9a       	sbi	0x18, 0	; 24
    1554:	0e 99       	sbic	0x01, 6	; 1
    1556:	fe cf       	rjmp	.-4      	; 0x1554 <rf_tx_packet+0x72>
    1558:	84 99       	sbic	0x10, 4	; 16
    155a:	fc cf       	rjmp	.-8      	; 0x1554 <rf_tx_packet+0x72>
    155c:	f8 94       	cli
    155e:	c0 98       	cbi	0x18, 0	; 24
    1560:	99 e0       	ldi	r25, 0x09	; 9
    1562:	9f b9       	out	0x0f, r25	; 15
    1564:	77 9b       	sbis	0x0e, 7	; 14
    1566:	fe cf       	rjmp	.-4      	; 0x1564 <rf_tx_packet+0x82>
    1568:	c0 9a       	sbi	0x18, 0	; 24
    156a:	c0 98       	cbi	0x18, 0	; 24
    156c:	99 e0       	ldi	r25, 0x09	; 9
    156e:	9f b9       	out	0x0f, r25	; 15
    1570:	77 9b       	sbis	0x0e, 7	; 14
    1572:	fe cf       	rjmp	.-4      	; 0x1570 <rf_tx_packet+0x8e>
    1574:	c0 9a       	sbi	0x18, 0	; 24
    1576:	c0 98       	cbi	0x18, 0	; 24
    1578:	9e e3       	ldi	r25, 0x3E	; 62
    157a:	9f b9       	out	0x0f, r25	; 15
    157c:	77 9b       	sbis	0x0e, 7	; 14
    157e:	fe cf       	rjmp	.-4      	; 0x157c <rf_tx_packet+0x9a>
    1580:	8f b9       	out	0x0f, r24	; 15
    1582:	77 9b       	sbis	0x0e, 7	; 14
    1584:	fe cf       	rjmp	.-4      	; 0x1582 <rf_tx_packet+0xa0>
    1586:	c0 9a       	sbi	0x18, 0	; 24
    1588:	81 e4       	ldi	r24, 0x41	; 65
    158a:	98 e8       	ldi	r25, 0x88	; 136
    158c:	9a 83       	std	Y+2, r25	; 0x02
    158e:	89 83       	std	Y+1, r24	; 0x01
    1590:	80 91 17 04 	lds	r24, 0x0417
    1594:	88 23       	and	r24, r24
    1596:	21 f0       	breq	.+8      	; 0x15a0 <rf_tx_packet+0xbe>
    1598:	81 e6       	ldi	r24, 0x61	; 97
    159a:	98 e8       	ldi	r25, 0x88	; 136
    159c:	9a 83       	std	Y+2, r25	; 0x02
    159e:	89 83       	std	Y+1, r24	; 0x01
    15a0:	80 91 09 04 	lds	r24, 0x0409
    15a4:	88 23       	and	r24, r24
    15a6:	29 f0       	breq	.+10     	; 0x15b2 <rf_tx_packet+0xd0>
    15a8:	89 81       	ldd	r24, Y+1	; 0x01
    15aa:	9a 81       	ldd	r25, Y+2	; 0x02
    15ac:	88 60       	ori	r24, 0x08	; 8
    15ae:	9a 83       	std	Y+2, r25	; 0x02
    15b0:	89 83       	std	Y+1, r24	; 0x01
    15b2:	c0 98       	cbi	0x18, 0	; 24
    15b4:	8e e3       	ldi	r24, 0x3E	; 62
    15b6:	8f b9       	out	0x0f, r24	; 15
    15b8:	77 9b       	sbis	0x0e, 7	; 14
    15ba:	fe cf       	rjmp	.-4      	; 0x15b8 <rf_tx_packet+0xd6>
    15bc:	de 01       	movw	r26, r28
    15be:	11 96       	adiw	r26, 0x01	; 1
    15c0:	ce 01       	movw	r24, r28
    15c2:	03 96       	adiw	r24, 0x03	; 3
    15c4:	3d 91       	ld	r19, X+
    15c6:	3f b9       	out	0x0f, r19	; 15
    15c8:	77 9b       	sbis	0x0e, 7	; 14
    15ca:	fe cf       	rjmp	.-4      	; 0x15c8 <rf_tx_packet+0xe6>
    15cc:	a8 17       	cp	r26, r24
    15ce:	b9 07       	cpc	r27, r25
    15d0:	c9 f7       	brne	.-14     	; 0x15c4 <rf_tx_packet+0xe2>
    15d2:	c0 9a       	sbi	0x18, 0	; 24
    15d4:	c0 98       	cbi	0x18, 0	; 24
    15d6:	8e e3       	ldi	r24, 0x3E	; 62
    15d8:	8f b9       	out	0x0f, r24	; 15
    15da:	77 9b       	sbis	0x0e, 7	; 14
    15dc:	fe cf       	rjmp	.-4      	; 0x15da <rf_tx_packet+0xf8>
    15de:	80 91 0e 04 	lds	r24, 0x040E
    15e2:	8f b9       	out	0x0f, r24	; 15
    15e4:	77 9b       	sbis	0x0e, 7	; 14
    15e6:	fe cf       	rjmp	.-4      	; 0x15e4 <rf_tx_packet+0x102>
    15e8:	c0 9a       	sbi	0x18, 0	; 24
    15ea:	c0 98       	cbi	0x18, 0	; 24
    15ec:	8e e3       	ldi	r24, 0x3E	; 62
    15ee:	8f b9       	out	0x0f, r24	; 15
    15f0:	77 9b       	sbis	0x0e, 7	; 14
    15f2:	fe cf       	rjmp	.-4      	; 0x15f0 <rf_tx_packet+0x10e>
    15f4:	80 e0       	ldi	r24, 0x00	; 0
    15f6:	90 e0       	ldi	r25, 0x00	; 0
    15f8:	dc 01       	movw	r26, r24
    15fa:	a4 5f       	subi	r26, 0xF4	; 244
    15fc:	bb 4f       	sbci	r27, 0xFB	; 251
    15fe:	14 96       	adiw	r26, 0x04	; 4
    1600:	3c 91       	ld	r19, X
    1602:	14 97       	sbiw	r26, 0x04	; 4
    1604:	3f b9       	out	0x0f, r19	; 15
    1606:	77 9b       	sbis	0x0e, 7	; 14
    1608:	fe cf       	rjmp	.-4      	; 0x1606 <rf_tx_packet+0x124>
    160a:	01 96       	adiw	r24, 0x01	; 1
    160c:	82 30       	cpi	r24, 0x02	; 2
    160e:	91 05       	cpc	r25, r1
    1610:	99 f7       	brne	.-26     	; 0x15f8 <rf_tx_packet+0x116>
    1612:	c0 9a       	sbi	0x18, 0	; 24
    1614:	c0 98       	cbi	0x18, 0	; 24
    1616:	8e e3       	ldi	r24, 0x3E	; 62
    1618:	8f b9       	out	0x0f, r24	; 15
    161a:	77 9b       	sbis	0x0e, 7	; 14
    161c:	fe cf       	rjmp	.-4      	; 0x161a <rf_tx_packet+0x138>
    161e:	80 e0       	ldi	r24, 0x00	; 0
    1620:	90 e0       	ldi	r25, 0x00	; 0
    1622:	df 01       	movw	r26, r30
    1624:	a8 0f       	add	r26, r24
    1626:	b9 1f       	adc	r27, r25
    1628:	3c 91       	ld	r19, X
    162a:	3f b9       	out	0x0f, r19	; 15
    162c:	77 9b       	sbis	0x0e, 7	; 14
    162e:	fe cf       	rjmp	.-4      	; 0x162c <rf_tx_packet+0x14a>
    1630:	01 96       	adiw	r24, 0x01	; 1
    1632:	82 30       	cpi	r24, 0x02	; 2
    1634:	91 05       	cpc	r25, r1
    1636:	a9 f7       	brne	.-22     	; 0x1622 <rf_tx_packet+0x140>
    1638:	c0 9a       	sbi	0x18, 0	; 24
    163a:	c0 98       	cbi	0x18, 0	; 24
    163c:	8e e3       	ldi	r24, 0x3E	; 62
    163e:	8f b9       	out	0x0f, r24	; 15
    1640:	77 9b       	sbis	0x0e, 7	; 14
    1642:	fe cf       	rjmp	.-4      	; 0x1640 <rf_tx_packet+0x15e>
    1644:	80 e0       	ldi	r24, 0x00	; 0
    1646:	90 e0       	ldi	r25, 0x00	; 0
    1648:	dc 01       	movw	r26, r24
    164a:	a4 5f       	subi	r26, 0xF4	; 244
    164c:	bb 4f       	sbci	r27, 0xFB	; 251
    164e:	16 96       	adiw	r26, 0x06	; 6
    1650:	3c 91       	ld	r19, X
    1652:	16 97       	sbiw	r26, 0x06	; 6
    1654:	3f b9       	out	0x0f, r19	; 15
    1656:	77 9b       	sbis	0x0e, 7	; 14
    1658:	fe cf       	rjmp	.-4      	; 0x1656 <rf_tx_packet+0x174>
    165a:	01 96       	adiw	r24, 0x01	; 1
    165c:	82 30       	cpi	r24, 0x02	; 2
    165e:	91 05       	cpc	r25, r1
    1660:	99 f7       	brne	.-26     	; 0x1648 <rf_tx_packet+0x166>
    1662:	c0 9a       	sbi	0x18, 0	; 24
    1664:	80 91 09 04 	lds	r24, 0x0409
    1668:	88 23       	and	r24, r24
    166a:	81 f0       	breq	.+32     	; 0x168c <rf_tx_packet+0x1aa>
    166c:	c0 98       	cbi	0x18, 0	; 24
    166e:	8e e3       	ldi	r24, 0x3E	; 62
    1670:	8f b9       	out	0x0f, r24	; 15
    1672:	77 9b       	sbis	0x0e, 7	; 14
    1674:	fe cf       	rjmp	.-4      	; 0x1672 <rf_tx_packet+0x190>
    1676:	a9 e1       	ldi	r26, 0x19	; 25
    1678:	b4 e0       	ldi	r27, 0x04	; 4
    167a:	8d 91       	ld	r24, X+
    167c:	8f b9       	out	0x0f, r24	; 15
    167e:	77 9b       	sbis	0x0e, 7	; 14
    1680:	fe cf       	rjmp	.-4      	; 0x167e <rf_tx_packet+0x19c>
    1682:	84 e0       	ldi	r24, 0x04	; 4
    1684:	ad 31       	cpi	r26, 0x1D	; 29
    1686:	b8 07       	cpc	r27, r24
    1688:	c1 f7       	brne	.-16     	; 0x167a <rf_tx_packet+0x198>
    168a:	c0 9a       	sbi	0x18, 0	; 24
    168c:	c0 98       	cbi	0x18, 0	; 24
    168e:	8e e3       	ldi	r24, 0x3E	; 62
    1690:	8f b9       	out	0x0f, r24	; 15
    1692:	77 9b       	sbis	0x0e, 7	; 14
    1694:	fe cf       	rjmp	.-4      	; 0x1692 <rf_tx_packet+0x1b0>
    1696:	30 e0       	ldi	r19, 0x00	; 0
    1698:	09 c0       	rjmp	.+18     	; 0x16ac <rf_tx_packet+0x1ca>
    169a:	a3 81       	ldd	r26, Z+3	; 0x03
    169c:	b4 81       	ldd	r27, Z+4	; 0x04
    169e:	a8 0f       	add	r26, r24
    16a0:	b9 1f       	adc	r27, r25
    16a2:	8c 91       	ld	r24, X
    16a4:	8f b9       	out	0x0f, r24	; 15
    16a6:	77 9b       	sbis	0x0e, 7	; 14
    16a8:	fe cf       	rjmp	.-4      	; 0x16a6 <rf_tx_packet+0x1c4>
    16aa:	3f 5f       	subi	r19, 0xFF	; 255
    16ac:	83 2f       	mov	r24, r19
    16ae:	90 e0       	ldi	r25, 0x00	; 0
    16b0:	42 81       	ldd	r20, Z+2	; 0x02
    16b2:	55 27       	eor	r21, r21
    16b4:	47 fd       	sbrc	r20, 7
    16b6:	50 95       	com	r21
    16b8:	84 17       	cp	r24, r20
    16ba:	95 07       	cpc	r25, r21
    16bc:	74 f3       	brlt	.-36     	; 0x169a <rf_tx_packet+0x1b8>
    16be:	c0 9a       	sbi	0x18, 0	; 24
    16c0:	c0 98       	cbi	0x18, 0	; 24
    16c2:	8e e3       	ldi	r24, 0x3E	; 62
    16c4:	8f b9       	out	0x0f, r24	; 15
    16c6:	77 9b       	sbis	0x0e, 7	; 14
    16c8:	fe cf       	rjmp	.-4      	; 0x16c6 <rf_tx_packet+0x1e4>
    16ca:	2f b9       	out	0x0f, r18	; 15
    16cc:	77 9b       	sbis	0x0e, 7	; 14
    16ce:	fe cf       	rjmp	.-4      	; 0x16cc <rf_tx_packet+0x1ea>
    16d0:	c0 9a       	sbi	0x18, 0	; 24
    16d2:	85 81       	ldd	r24, Z+5	; 0x05
    16d4:	88 23       	and	r24, r24
    16d6:	91 f1       	breq	.+100    	; 0x173c <rf_tx_packet+0x25a>
    16d8:	80 91 14 04 	lds	r24, 0x0414
    16dc:	88 23       	and	r24, r24
    16de:	31 f4       	brne	.+12     	; 0x16ec <rf_tx_packet+0x20a>
    16e0:	c0 98       	cbi	0x18, 0	; 24
    16e2:	83 e0       	ldi	r24, 0x03	; 3
    16e4:	8f b9       	out	0x0f, r24	; 15
    16e6:	77 9b       	sbis	0x0e, 7	; 14
    16e8:	fe cf       	rjmp	.-4      	; 0x16e6 <rf_tx_packet+0x204>
    16ea:	c0 9a       	sbi	0x18, 0	; 24
    16ec:	c0 98       	cbi	0x18, 0	; 24
    16ee:	1f b8       	out	0x0f, r1	; 15
    16f0:	77 9b       	sbis	0x0e, 7	; 14
    16f2:	fe cf       	rjmp	.-4      	; 0x16f0 <rf_tx_packet+0x20e>
    16f4:	8f b1       	in	r24, 0x0f	; 15
    16f6:	c0 9a       	sbi	0x18, 0	; 24
    16f8:	81 ff       	sbrs	r24, 1
    16fa:	f8 cf       	rjmp	.-16     	; 0x16ec <rf_tx_packet+0x20a>
    16fc:	10 e0       	ldi	r17, 0x00	; 0
    16fe:	05 e0       	ldi	r16, 0x05	; 5
    1700:	c0 98       	cbi	0x18, 0	; 24
    1702:	0f b9       	out	0x0f, r16	; 15
    1704:	77 9b       	sbis	0x0e, 7	; 14
    1706:	fe cf       	rjmp	.-4      	; 0x1704 <rf_tx_packet+0x222>
    1708:	c0 9a       	sbi	0x18, 0	; 24
    170a:	c0 98       	cbi	0x18, 0	; 24
    170c:	1f b8       	out	0x0f, r1	; 15
    170e:	77 9b       	sbis	0x0e, 7	; 14
    1710:	fe cf       	rjmp	.-4      	; 0x170e <rf_tx_packet+0x22c>
    1712:	ff b0       	in	r15, 0x0f	; 15
    1714:	c0 9a       	sbi	0x18, 0	; 24
    1716:	1f 5f       	subi	r17, 0xFF	; 255
    1718:	15 36       	cpi	r17, 0x65	; 101
    171a:	49 f4       	brne	.+18     	; 0x172e <rf_tx_packet+0x24c>
    171c:	78 94       	sei
    171e:	80 91 07 04 	lds	r24, 0x0407
    1722:	90 91 08 04 	lds	r25, 0x0408
    1726:	0e 94 4a 19 	call	0x3294	; 0x3294 <nrk_sem_post>
    172a:	80 e0       	ldi	r24, 0x00	; 0
    172c:	43 c0       	rjmp	.+134    	; 0x17b4 <rf_tx_packet+0x2d2>
    172e:	84 e6       	ldi	r24, 0x64	; 100
    1730:	90 e0       	ldi	r25, 0x00	; 0
    1732:	0e 94 38 11 	call	0x2270	; 0x2270 <halWait>
    1736:	f3 fe       	sbrs	r15, 3
    1738:	e3 cf       	rjmp	.-58     	; 0x1700 <rf_tx_packet+0x21e>
    173a:	06 c0       	rjmp	.+12     	; 0x1748 <rf_tx_packet+0x266>
    173c:	c0 98       	cbi	0x18, 0	; 24
    173e:	84 e0       	ldi	r24, 0x04	; 4
    1740:	8f b9       	out	0x0f, r24	; 15
    1742:	77 9b       	sbis	0x0e, 7	; 14
    1744:	fe cf       	rjmp	.-4      	; 0x1742 <rf_tx_packet+0x260>
    1746:	c0 9a       	sbi	0x18, 0	; 24
    1748:	78 94       	sei
    174a:	84 9b       	sbis	0x10, 4	; 16
    174c:	fe cf       	rjmp	.-4      	; 0x174a <rf_tx_packet+0x268>
    174e:	84 99       	sbic	0x10, 4	; 16
    1750:	fe cf       	rjmp	.-4      	; 0x174e <rf_tx_packet+0x26c>
    1752:	80 91 17 04 	lds	r24, 0x0417
    1756:	88 23       	and	r24, r24
    1758:	f9 f0       	breq	.+62     	; 0x1798 <rf_tx_packet+0x2b6>
    175a:	84 ea       	ldi	r24, 0xA4	; 164
    175c:	92 e0       	ldi	r25, 0x02	; 2
    175e:	0e 94 38 11 	call	0x2270	; 0x2270 <halWait>
    1762:	b7 9b       	sbis	0x16, 7	; 22
    1764:	0b c0       	rjmp	.+22     	; 0x177c <rf_tx_packet+0x29a>
    1766:	c0 98       	cbi	0x18, 0	; 24
    1768:	8f e7       	ldi	r24, 0x7F	; 127
    176a:	8f b9       	out	0x0f, r24	; 15
    176c:	77 9b       	sbis	0x0e, 7	; 14
    176e:	fe cf       	rjmp	.-4      	; 0x176c <rf_tx_packet+0x28a>
    1770:	1f b8       	out	0x0f, r1	; 15
    1772:	77 9b       	sbis	0x0e, 7	; 14
    1774:	fe cf       	rjmp	.-4      	; 0x1772 <rf_tx_packet+0x290>
    1776:	8f b1       	in	r24, 0x0f	; 15
    1778:	c0 9a       	sbi	0x18, 0	; 24
    177a:	0e c0       	rjmp	.+28     	; 0x1798 <rf_tx_packet+0x2b6>
    177c:	c0 98       	cbi	0x18, 0	; 24
    177e:	88 e0       	ldi	r24, 0x08	; 8
    1780:	8f b9       	out	0x0f, r24	; 15
    1782:	77 9b       	sbis	0x0e, 7	; 14
    1784:	fe cf       	rjmp	.-4      	; 0x1782 <rf_tx_packet+0x2a0>
    1786:	c0 9a       	sbi	0x18, 0	; 24
    1788:	c0 98       	cbi	0x18, 0	; 24
    178a:	88 e0       	ldi	r24, 0x08	; 8
    178c:	8f b9       	out	0x0f, r24	; 15
    178e:	77 9b       	sbis	0x0e, 7	; 14
    1790:	fe cf       	rjmp	.-4      	; 0x178e <rf_tx_packet+0x2ac>
    1792:	c0 9a       	sbi	0x18, 0	; 24
    1794:	80 e0       	ldi	r24, 0x00	; 0
    1796:	01 c0       	rjmp	.+2      	; 0x179a <rf_tx_packet+0x2b8>
    1798:	81 e0       	ldi	r24, 0x01	; 1
    179a:	f8 94       	cli
    179c:	c0 98       	cbi	0x18, 0	; 24
    179e:	96 e0       	ldi	r25, 0x06	; 6
    17a0:	9f b9       	out	0x0f, r25	; 15
    17a2:	77 9b       	sbis	0x0e, 7	; 14
    17a4:	fe cf       	rjmp	.-4      	; 0x17a2 <rf_tx_packet+0x2c0>
    17a6:	c0 9a       	sbi	0x18, 0	; 24
    17a8:	78 94       	sei
    17aa:	90 91 0e 04 	lds	r25, 0x040E
    17ae:	9f 5f       	subi	r25, 0xFF	; 255
    17b0:	90 93 0e 04 	sts	0x040E, r25
    17b4:	0f 90       	pop	r0
    17b6:	0f 90       	pop	r0
    17b8:	cf 91       	pop	r28
    17ba:	df 91       	pop	r29
    17bc:	1f 91       	pop	r17
    17be:	0f 91       	pop	r16
    17c0:	ff 90       	pop	r15
    17c2:	08 95       	ret

000017c4 <rf_busy>:
    17c4:	81 e0       	ldi	r24, 0x01	; 1
    17c6:	84 9b       	sbis	0x10, 4	; 16
    17c8:	80 e0       	ldi	r24, 0x00	; 0
    17ca:	08 95       	ret

000017cc <rf_rx_check_fifop>:
    17cc:	81 e0       	ldi	r24, 0x01	; 1
    17ce:	0e 9b       	sbis	0x01, 6	; 1
    17d0:	80 e0       	ldi	r24, 0x00	; 0
    17d2:	08 95       	ret

000017d4 <rf_rx_check_sfd>:
    17d4:	81 e0       	ldi	r24, 0x01	; 1
    17d6:	84 9b       	sbis	0x10, 4	; 16
    17d8:	80 e0       	ldi	r24, 0x00	; 0
    17da:	08 95       	ret

000017dc <rf_polling_rx_packet>:
    17dc:	df 93       	push	r29
    17de:	cf 93       	push	r28
    17e0:	00 d0       	rcall	.+0      	; 0x17e2 <rf_polling_rx_packet+0x6>
    17e2:	00 d0       	rcall	.+0      	; 0x17e4 <rf_polling_rx_packet+0x8>
    17e4:	cd b7       	in	r28, 0x3d	; 61
    17e6:	de b7       	in	r29, 0x3e	; 62
    17e8:	0e 9b       	sbis	0x01, 6	; 1
    17ea:	c7 c1       	rjmp	.+910    	; 0x1b7a <rf_polling_rx_packet+0x39e>
    17ec:	10 92 18 04 	sts	0x0418, r1
    17f0:	0e 9b       	sbis	0x01, 6	; 1
    17f2:	1a c0       	rjmp	.+52     	; 0x1828 <rf_polling_rx_packet+0x4c>
    17f4:	b7 99       	sbic	0x16, 7	; 22
    17f6:	18 c0       	rjmp	.+48     	; 0x1828 <rf_polling_rx_packet+0x4c>
    17f8:	c0 98       	cbi	0x18, 0	; 24
    17fa:	8f e7       	ldi	r24, 0x7F	; 127
    17fc:	8f b9       	out	0x0f, r24	; 15
    17fe:	77 9b       	sbis	0x0e, 7	; 14
    1800:	fe cf       	rjmp	.-4      	; 0x17fe <rf_polling_rx_packet+0x22>
    1802:	1f b8       	out	0x0f, r1	; 15
    1804:	77 9b       	sbis	0x0e, 7	; 14
    1806:	fe cf       	rjmp	.-4      	; 0x1804 <rf_polling_rx_packet+0x28>
    1808:	8f b1       	in	r24, 0x0f	; 15
    180a:	c0 9a       	sbi	0x18, 0	; 24
    180c:	c0 98       	cbi	0x18, 0	; 24
    180e:	88 e0       	ldi	r24, 0x08	; 8
    1810:	8f b9       	out	0x0f, r24	; 15
    1812:	77 9b       	sbis	0x0e, 7	; 14
    1814:	fe cf       	rjmp	.-4      	; 0x1812 <rf_polling_rx_packet+0x36>
    1816:	c0 9a       	sbi	0x18, 0	; 24
    1818:	c0 98       	cbi	0x18, 0	; 24
    181a:	88 e0       	ldi	r24, 0x08	; 8
    181c:	8f b9       	out	0x0f, r24	; 15
    181e:	77 9b       	sbis	0x0e, 7	; 14
    1820:	fe cf       	rjmp	.-4      	; 0x181e <rf_polling_rx_packet+0x42>
    1822:	c0 9a       	sbi	0x18, 0	; 24
    1824:	8f ef       	ldi	r24, 0xFF	; 255
    1826:	aa c1       	rjmp	.+852    	; 0x1b7c <rf_polling_rx_packet+0x3a0>
    1828:	c0 98       	cbi	0x18, 0	; 24
    182a:	8f e7       	ldi	r24, 0x7F	; 127
    182c:	8f b9       	out	0x0f, r24	; 15
    182e:	77 9b       	sbis	0x0e, 7	; 14
    1830:	fe cf       	rjmp	.-4      	; 0x182e <rf_polling_rx_packet+0x52>
    1832:	1f b8       	out	0x0f, r1	; 15
    1834:	77 9b       	sbis	0x0e, 7	; 14
    1836:	fe cf       	rjmp	.-4      	; 0x1834 <rf_polling_rx_packet+0x58>
    1838:	4f b1       	in	r20, 0x0f	; 15
    183a:	c0 9a       	sbi	0x18, 0	; 24
    183c:	4f 77       	andi	r20, 0x7F	; 127
    183e:	c1 f4       	brne	.+48     	; 0x1870 <rf_polling_rx_packet+0x94>
    1840:	c0 98       	cbi	0x18, 0	; 24
    1842:	8f e7       	ldi	r24, 0x7F	; 127
    1844:	8f b9       	out	0x0f, r24	; 15
    1846:	77 9b       	sbis	0x0e, 7	; 14
    1848:	fe cf       	rjmp	.-4      	; 0x1846 <rf_polling_rx_packet+0x6a>
    184a:	1f b8       	out	0x0f, r1	; 15
    184c:	77 9b       	sbis	0x0e, 7	; 14
    184e:	fe cf       	rjmp	.-4      	; 0x184c <rf_polling_rx_packet+0x70>
    1850:	8f b1       	in	r24, 0x0f	; 15
    1852:	c0 9a       	sbi	0x18, 0	; 24
    1854:	c0 98       	cbi	0x18, 0	; 24
    1856:	88 e0       	ldi	r24, 0x08	; 8
    1858:	8f b9       	out	0x0f, r24	; 15
    185a:	77 9b       	sbis	0x0e, 7	; 14
    185c:	fe cf       	rjmp	.-4      	; 0x185a <rf_polling_rx_packet+0x7e>
    185e:	c0 9a       	sbi	0x18, 0	; 24
    1860:	c0 98       	cbi	0x18, 0	; 24
    1862:	88 e0       	ldi	r24, 0x08	; 8
    1864:	8f b9       	out	0x0f, r24	; 15
    1866:	77 9b       	sbis	0x0e, 7	; 14
    1868:	fe cf       	rjmp	.-4      	; 0x1866 <rf_polling_rx_packet+0x8a>
    186a:	c0 9a       	sbi	0x18, 0	; 24
    186c:	8e ef       	ldi	r24, 0xFE	; 254
    186e:	86 c1       	rjmp	.+780    	; 0x1b7c <rf_polling_rx_packet+0x3a0>
    1870:	4c 30       	cpi	r20, 0x0C	; 12
    1872:	84 f0       	brlt	.+32     	; 0x1894 <rf_polling_rx_packet+0xb8>
    1874:	e0 91 0c 04 	lds	r30, 0x040C
    1878:	f0 91 0d 04 	lds	r31, 0x040D
    187c:	84 2f       	mov	r24, r20
    187e:	99 27       	eor	r25, r25
    1880:	87 fd       	sbrc	r24, 7
    1882:	90 95       	com	r25
    1884:	0b 97       	sbiw	r24, 0x0b	; 11
    1886:	24 81       	ldd	r18, Z+4	; 0x04
    1888:	33 27       	eor	r19, r19
    188a:	27 fd       	sbrc	r18, 7
    188c:	30 95       	com	r19
    188e:	28 17       	cp	r18, r24
    1890:	39 07       	cpc	r19, r25
    1892:	7c f5       	brge	.+94     	; 0x18f2 <rf_polling_rx_packet+0x116>
    1894:	c0 98       	cbi	0x18, 0	; 24
    1896:	8f e7       	ldi	r24, 0x7F	; 127
    1898:	8f b9       	out	0x0f, r24	; 15
    189a:	77 9b       	sbis	0x0e, 7	; 14
    189c:	fe cf       	rjmp	.-4      	; 0x189a <rf_polling_rx_packet+0xbe>
    189e:	50 e0       	ldi	r21, 0x00	; 0
    18a0:	84 2f       	mov	r24, r20
    18a2:	99 27       	eor	r25, r25
    18a4:	87 fd       	sbrc	r24, 7
    18a6:	90 95       	com	r25
    18a8:	04 c0       	rjmp	.+8      	; 0x18b2 <rf_polling_rx_packet+0xd6>
    18aa:	1f b8       	out	0x0f, r1	; 15
    18ac:	77 9b       	sbis	0x0e, 7	; 14
    18ae:	fe cf       	rjmp	.-4      	; 0x18ac <rf_polling_rx_packet+0xd0>
    18b0:	5f 5f       	subi	r21, 0xFF	; 255
    18b2:	25 2f       	mov	r18, r21
    18b4:	30 e0       	ldi	r19, 0x00	; 0
    18b6:	28 17       	cp	r18, r24
    18b8:	39 07       	cpc	r19, r25
    18ba:	14 f4       	brge	.+4      	; 0x18c0 <rf_polling_rx_packet+0xe4>
    18bc:	b7 99       	sbic	0x16, 7	; 22
    18be:	f5 cf       	rjmp	.-22     	; 0x18aa <rf_polling_rx_packet+0xce>
    18c0:	c0 9a       	sbi	0x18, 0	; 24
    18c2:	c0 98       	cbi	0x18, 0	; 24
    18c4:	8f e7       	ldi	r24, 0x7F	; 127
    18c6:	8f b9       	out	0x0f, r24	; 15
    18c8:	77 9b       	sbis	0x0e, 7	; 14
    18ca:	fe cf       	rjmp	.-4      	; 0x18c8 <rf_polling_rx_packet+0xec>
    18cc:	1f b8       	out	0x0f, r1	; 15
    18ce:	77 9b       	sbis	0x0e, 7	; 14
    18d0:	fe cf       	rjmp	.-4      	; 0x18ce <rf_polling_rx_packet+0xf2>
    18d2:	8f b1       	in	r24, 0x0f	; 15
    18d4:	c0 9a       	sbi	0x18, 0	; 24
    18d6:	c0 98       	cbi	0x18, 0	; 24
    18d8:	88 e0       	ldi	r24, 0x08	; 8
    18da:	8f b9       	out	0x0f, r24	; 15
    18dc:	77 9b       	sbis	0x0e, 7	; 14
    18de:	fe cf       	rjmp	.-4      	; 0x18dc <rf_polling_rx_packet+0x100>
    18e0:	c0 9a       	sbi	0x18, 0	; 24
    18e2:	c0 98       	cbi	0x18, 0	; 24
    18e4:	88 e0       	ldi	r24, 0x08	; 8
    18e6:	8f b9       	out	0x0f, r24	; 15
    18e8:	77 9b       	sbis	0x0e, 7	; 14
    18ea:	fe cf       	rjmp	.-4      	; 0x18e8 <rf_polling_rx_packet+0x10c>
    18ec:	c0 9a       	sbi	0x18, 0	; 24
    18ee:	8d ef       	ldi	r24, 0xFD	; 253
    18f0:	45 c1       	rjmp	.+650    	; 0x1b7c <rf_polling_rx_packet+0x3a0>
    18f2:	e0 91 0c 04 	lds	r30, 0x040C
    18f6:	f0 91 0d 04 	lds	r31, 0x040D
    18fa:	4c 50       	subi	r20, 0x0C	; 12
    18fc:	43 83       	std	Z+3, r20	; 0x03
    18fe:	c0 98       	cbi	0x18, 0	; 24
    1900:	8f e7       	ldi	r24, 0x7F	; 127
    1902:	8f b9       	out	0x0f, r24	; 15
    1904:	77 9b       	sbis	0x0e, 7	; 14
    1906:	fe cf       	rjmp	.-4      	; 0x1904 <rf_polling_rx_packet+0x128>
    1908:	fe 01       	movw	r30, r28
    190a:	31 96       	adiw	r30, 0x01	; 1
    190c:	ce 01       	movw	r24, r28
    190e:	03 96       	adiw	r24, 0x03	; 3
    1910:	1f b8       	out	0x0f, r1	; 15
    1912:	77 9b       	sbis	0x0e, 7	; 14
    1914:	fe cf       	rjmp	.-4      	; 0x1912 <rf_polling_rx_packet+0x136>
    1916:	2f b1       	in	r18, 0x0f	; 15
    1918:	21 93       	st	Z+, r18
    191a:	e8 17       	cp	r30, r24
    191c:	f9 07       	cpc	r31, r25
    191e:	c1 f7       	brne	.-16     	; 0x1910 <rf_polling_rx_packet+0x134>
    1920:	c0 9a       	sbi	0x18, 0	; 24
    1922:	e0 91 0c 04 	lds	r30, 0x040C
    1926:	f0 91 0d 04 	lds	r31, 0x040D
    192a:	99 81       	ldd	r25, Y+1	; 0x01
    192c:	81 e0       	ldi	r24, 0x01	; 1
    192e:	95 ff       	sbrs	r25, 5
    1930:	80 e0       	ldi	r24, 0x00	; 0
    1932:	87 83       	std	Z+7, r24	; 0x07
    1934:	c0 98       	cbi	0x18, 0	; 24
    1936:	8f e7       	ldi	r24, 0x7F	; 127
    1938:	8f b9       	out	0x0f, r24	; 15
    193a:	77 9b       	sbis	0x0e, 7	; 14
    193c:	fe cf       	rjmp	.-4      	; 0x193a <rf_polling_rx_packet+0x15e>
    193e:	1f b8       	out	0x0f, r1	; 15
    1940:	77 9b       	sbis	0x0e, 7	; 14
    1942:	fe cf       	rjmp	.-4      	; 0x1940 <rf_polling_rx_packet+0x164>
    1944:	e0 91 0c 04 	lds	r30, 0x040C
    1948:	f0 91 0d 04 	lds	r31, 0x040D
    194c:	8f b1       	in	r24, 0x0f	; 15
    194e:	80 83       	st	Z, r24
    1950:	c0 9a       	sbi	0x18, 0	; 24
    1952:	c0 98       	cbi	0x18, 0	; 24
    1954:	8f e7       	ldi	r24, 0x7F	; 127
    1956:	8f b9       	out	0x0f, r24	; 15
    1958:	77 9b       	sbis	0x0e, 7	; 14
    195a:	fe cf       	rjmp	.-4      	; 0x1958 <rf_polling_rx_packet+0x17c>
    195c:	84 e0       	ldi	r24, 0x04	; 4
    195e:	05 c0       	rjmp	.+10     	; 0x196a <rf_polling_rx_packet+0x18e>
    1960:	1f b8       	out	0x0f, r1	; 15
    1962:	77 9b       	sbis	0x0e, 7	; 14
    1964:	fe cf       	rjmp	.-4      	; 0x1962 <rf_polling_rx_packet+0x186>
    1966:	81 50       	subi	r24, 0x01	; 1
    1968:	11 f0       	breq	.+4      	; 0x196e <rf_polling_rx_packet+0x192>
    196a:	b7 99       	sbic	0x16, 7	; 22
    196c:	f9 cf       	rjmp	.-14     	; 0x1960 <rf_polling_rx_packet+0x184>
    196e:	c0 9a       	sbi	0x18, 0	; 24
    1970:	c0 98       	cbi	0x18, 0	; 24
    1972:	8f e7       	ldi	r24, 0x7F	; 127
    1974:	8f b9       	out	0x0f, r24	; 15
    1976:	77 9b       	sbis	0x0e, 7	; 14
    1978:	fe cf       	rjmp	.-4      	; 0x1976 <rf_polling_rx_packet+0x19a>
    197a:	80 e0       	ldi	r24, 0x00	; 0
    197c:	90 e0       	ldi	r25, 0x00	; 0
    197e:	1f b8       	out	0x0f, r1	; 15
    1980:	77 9b       	sbis	0x0e, 7	; 14
    1982:	fe cf       	rjmp	.-4      	; 0x1980 <rf_polling_rx_packet+0x1a4>
    1984:	e0 91 0c 04 	lds	r30, 0x040C
    1988:	f0 91 0d 04 	lds	r31, 0x040D
    198c:	2f b1       	in	r18, 0x0f	; 15
    198e:	e8 0f       	add	r30, r24
    1990:	f9 1f       	adc	r31, r25
    1992:	21 83       	std	Z+1, r18	; 0x01
    1994:	01 96       	adiw	r24, 0x01	; 1
    1996:	82 30       	cpi	r24, 0x02	; 2
    1998:	91 05       	cpc	r25, r1
    199a:	89 f7       	brne	.-30     	; 0x197e <rf_polling_rx_packet+0x1a2>
    199c:	c0 9a       	sbi	0x18, 0	; 24
    199e:	89 81       	ldd	r24, Y+1	; 0x01
    19a0:	83 ff       	sbrs	r24, 3
    19a2:	4d c0       	rjmp	.+154    	; 0x1a3e <rf_polling_rx_packet+0x262>
    19a4:	c0 98       	cbi	0x18, 0	; 24
    19a6:	8f e7       	ldi	r24, 0x7F	; 127
    19a8:	8f b9       	out	0x0f, r24	; 15
    19aa:	77 9b       	sbis	0x0e, 7	; 14
    19ac:	fe cf       	rjmp	.-4      	; 0x19aa <rf_polling_rx_packet+0x1ce>
    19ae:	e3 e0       	ldi	r30, 0x03	; 3
    19b0:	f4 e0       	ldi	r31, 0x04	; 4
    19b2:	1f b8       	out	0x0f, r1	; 15
    19b4:	77 9b       	sbis	0x0e, 7	; 14
    19b6:	fe cf       	rjmp	.-4      	; 0x19b4 <rf_polling_rx_packet+0x1d8>
    19b8:	8f b1       	in	r24, 0x0f	; 15
    19ba:	81 93       	st	Z+, r24
    19bc:	84 e0       	ldi	r24, 0x04	; 4
    19be:	e7 30       	cpi	r30, 0x07	; 7
    19c0:	f8 07       	cpc	r31, r24
    19c2:	b9 f7       	brne	.-18     	; 0x19b2 <rf_polling_rx_packet+0x1d6>
    19c4:	c0 9a       	sbi	0x18, 0	; 24
    19c6:	c0 98       	cbi	0x18, 0	; 24
    19c8:	89 e9       	ldi	r24, 0x99	; 153
    19ca:	8f b9       	out	0x0f, r24	; 15
    19cc:	77 9b       	sbis	0x0e, 7	; 14
    19ce:	fe cf       	rjmp	.-4      	; 0x19cc <rf_polling_rx_packet+0x1f0>
    19d0:	80 e8       	ldi	r24, 0x80	; 128
    19d2:	8f b9       	out	0x0f, r24	; 15
    19d4:	77 9b       	sbis	0x0e, 7	; 14
    19d6:	fe cf       	rjmp	.-4      	; 0x19d4 <rf_polling_rx_packet+0x1f8>
    19d8:	82 e0       	ldi	r24, 0x02	; 2
    19da:	81 50       	subi	r24, 0x01	; 1
    19dc:	e8 2f       	mov	r30, r24
    19de:	f0 e0       	ldi	r31, 0x00	; 0
    19e0:	ed 5f       	subi	r30, 0xFD	; 253
    19e2:	fb 4f       	sbci	r31, 0xFB	; 251
    19e4:	90 81       	ld	r25, Z
    19e6:	9f b9       	out	0x0f, r25	; 15
    19e8:	77 9b       	sbis	0x0e, 7	; 14
    19ea:	fe cf       	rjmp	.-4      	; 0x19e8 <rf_polling_rx_packet+0x20c>
    19ec:	88 23       	and	r24, r24
    19ee:	a9 f7       	brne	.-22     	; 0x19da <rf_polling_rx_packet+0x1fe>
    19f0:	c0 9a       	sbi	0x18, 0	; 24
    19f2:	c0 98       	cbi	0x18, 0	; 24
    19f4:	8b e9       	ldi	r24, 0x9B	; 155
    19f6:	8f b9       	out	0x0f, r24	; 15
    19f8:	77 9b       	sbis	0x0e, 7	; 14
    19fa:	fe cf       	rjmp	.-4      	; 0x19f8 <rf_polling_rx_packet+0x21c>
    19fc:	80 e8       	ldi	r24, 0x80	; 128
    19fe:	8f b9       	out	0x0f, r24	; 15
    1a00:	77 9b       	sbis	0x0e, 7	; 14
    1a02:	fe cf       	rjmp	.-4      	; 0x1a00 <rf_polling_rx_packet+0x224>
    1a04:	82 e0       	ldi	r24, 0x02	; 2
    1a06:	81 50       	subi	r24, 0x01	; 1
    1a08:	e8 2f       	mov	r30, r24
    1a0a:	f0 e0       	ldi	r31, 0x00	; 0
    1a0c:	eb 5f       	subi	r30, 0xFB	; 251
    1a0e:	fb 4f       	sbci	r31, 0xFB	; 251
    1a10:	90 81       	ld	r25, Z
    1a12:	9f b9       	out	0x0f, r25	; 15
    1a14:	77 9b       	sbis	0x0e, 7	; 14
    1a16:	fe cf       	rjmp	.-4      	; 0x1a14 <rf_polling_rx_packet+0x238>
    1a18:	88 23       	and	r24, r24
    1a1a:	a9 f7       	brne	.-22     	; 0x1a06 <rf_polling_rx_packet+0x22a>
    1a1c:	c0 9a       	sbi	0x18, 0	; 24
    1a1e:	c0 98       	cbi	0x18, 0	; 24
    1a20:	8c e0       	ldi	r24, 0x0C	; 12
    1a22:	8f b9       	out	0x0f, r24	; 15
    1a24:	77 9b       	sbis	0x0e, 7	; 14
    1a26:	fe cf       	rjmp	.-4      	; 0x1a24 <rf_polling_rx_packet+0x248>
    1a28:	c0 9a       	sbi	0x18, 0	; 24
    1a2a:	81 e0       	ldi	r24, 0x01	; 1
    1a2c:	80 93 18 04 	sts	0x0418, r24
    1a30:	e0 91 0c 04 	lds	r30, 0x040C
    1a34:	f0 91 0d 04 	lds	r31, 0x040D
    1a38:	83 81       	ldd	r24, Z+3	; 0x03
    1a3a:	84 50       	subi	r24, 0x04	; 4
    1a3c:	83 83       	std	Z+3, r24	; 0x03
    1a3e:	c0 98       	cbi	0x18, 0	; 24
    1a40:	8f e7       	ldi	r24, 0x7F	; 127
    1a42:	8f b9       	out	0x0f, r24	; 15
    1a44:	77 9b       	sbis	0x0e, 7	; 14
    1a46:	fe cf       	rjmp	.-4      	; 0x1a44 <rf_polling_rx_packet+0x268>
    1a48:	40 e0       	ldi	r20, 0x00	; 0
    1a4a:	0f c0       	rjmp	.+30     	; 0x1a6a <rf_polling_rx_packet+0x28e>
    1a4c:	1f b8       	out	0x0f, r1	; 15
    1a4e:	77 9b       	sbis	0x0e, 7	; 14
    1a50:	fe cf       	rjmp	.-4      	; 0x1a4e <rf_polling_rx_packet+0x272>
    1a52:	e0 91 0c 04 	lds	r30, 0x040C
    1a56:	f0 91 0d 04 	lds	r31, 0x040D
    1a5a:	8f b1       	in	r24, 0x0f	; 15
    1a5c:	05 80       	ldd	r0, Z+5	; 0x05
    1a5e:	f6 81       	ldd	r31, Z+6	; 0x06
    1a60:	e0 2d       	mov	r30, r0
    1a62:	e4 0f       	add	r30, r20
    1a64:	f1 1d       	adc	r31, r1
    1a66:	80 83       	st	Z, r24
    1a68:	4f 5f       	subi	r20, 0xFF	; 255
    1a6a:	e0 91 0c 04 	lds	r30, 0x040C
    1a6e:	f0 91 0d 04 	lds	r31, 0x040D
    1a72:	24 2f       	mov	r18, r20
    1a74:	30 e0       	ldi	r19, 0x00	; 0
    1a76:	83 81       	ldd	r24, Z+3	; 0x03
    1a78:	99 27       	eor	r25, r25
    1a7a:	87 fd       	sbrc	r24, 7
    1a7c:	90 95       	com	r25
    1a7e:	28 17       	cp	r18, r24
    1a80:	39 07       	cpc	r19, r25
    1a82:	24 f3       	brlt	.-56     	; 0x1a4c <rf_polling_rx_packet+0x270>
    1a84:	c0 9a       	sbi	0x18, 0	; 24
    1a86:	c0 98       	cbi	0x18, 0	; 24
    1a88:	8f e7       	ldi	r24, 0x7F	; 127
    1a8a:	8f b9       	out	0x0f, r24	; 15
    1a8c:	77 9b       	sbis	0x0e, 7	; 14
    1a8e:	fe cf       	rjmp	.-4      	; 0x1a8c <rf_polling_rx_packet+0x2b0>
    1a90:	1f b8       	out	0x0f, r1	; 15
    1a92:	77 9b       	sbis	0x0e, 7	; 14
    1a94:	fe cf       	rjmp	.-4      	; 0x1a92 <rf_polling_rx_packet+0x2b6>
    1a96:	6f b1       	in	r22, 0x0f	; 15
    1a98:	c0 9a       	sbi	0x18, 0	; 24
    1a9a:	c0 98       	cbi	0x18, 0	; 24
    1a9c:	8f e7       	ldi	r24, 0x7F	; 127
    1a9e:	8f b9       	out	0x0f, r24	; 15
    1aa0:	77 9b       	sbis	0x0e, 7	; 14
    1aa2:	fe cf       	rjmp	.-4      	; 0x1aa0 <rf_polling_rx_packet+0x2c4>
    1aa4:	fe 01       	movw	r30, r28
    1aa6:	33 96       	adiw	r30, 0x03	; 3
    1aa8:	ce 01       	movw	r24, r28
    1aaa:	05 96       	adiw	r24, 0x05	; 5
    1aac:	1f b8       	out	0x0f, r1	; 15
    1aae:	77 9b       	sbis	0x0e, 7	; 14
    1ab0:	fe cf       	rjmp	.-4      	; 0x1aae <rf_polling_rx_packet+0x2d2>
    1ab2:	2f b1       	in	r18, 0x0f	; 15
    1ab4:	21 93       	st	Z+, r18
    1ab6:	e8 17       	cp	r30, r24
    1ab8:	f9 07       	cpc	r31, r25
    1aba:	c1 f7       	brne	.-16     	; 0x1aac <rf_polling_rx_packet+0x2d0>
    1abc:	c0 9a       	sbi	0x18, 0	; 24
    1abe:	e0 91 0c 04 	lds	r30, 0x040C
    1ac2:	f0 91 0d 04 	lds	r31, 0x040D
    1ac6:	8b 81       	ldd	r24, Y+3	; 0x03
    1ac8:	80 87       	std	Z+8, r24	; 0x08
    1aca:	50 e0       	ldi	r21, 0x00	; 0
    1acc:	40 e0       	ldi	r20, 0x00	; 0
    1ace:	0c c0       	rjmp	.+24     	; 0x1ae8 <rf_polling_rx_packet+0x30c>
    1ad0:	e0 91 0c 04 	lds	r30, 0x040C
    1ad4:	f0 91 0d 04 	lds	r31, 0x040D
    1ad8:	05 80       	ldd	r0, Z+5	; 0x05
    1ada:	f6 81       	ldd	r31, Z+6	; 0x06
    1adc:	e0 2d       	mov	r30, r0
    1ade:	e8 0f       	add	r30, r24
    1ae0:	f9 1f       	adc	r31, r25
    1ae2:	80 81       	ld	r24, Z
    1ae4:	48 0f       	add	r20, r24
    1ae6:	5f 5f       	subi	r21, 0xFF	; 255
    1ae8:	e0 91 0c 04 	lds	r30, 0x040C
    1aec:	f0 91 0d 04 	lds	r31, 0x040D
    1af0:	85 2f       	mov	r24, r21
    1af2:	90 e0       	ldi	r25, 0x00	; 0
    1af4:	23 81       	ldd	r18, Z+3	; 0x03
    1af6:	33 27       	eor	r19, r19
    1af8:	27 fd       	sbrc	r18, 7
    1afa:	30 95       	com	r19
    1afc:	82 17       	cp	r24, r18
    1afe:	93 07       	cpc	r25, r19
    1b00:	3c f3       	brlt	.-50     	; 0x1ad0 <rf_polling_rx_packet+0x2f4>
    1b02:	46 17       	cp	r20, r22
    1b04:	c1 f0       	breq	.+48     	; 0x1b36 <rf_polling_rx_packet+0x35a>
    1b06:	c0 98       	cbi	0x18, 0	; 24
    1b08:	8f e7       	ldi	r24, 0x7F	; 127
    1b0a:	8f b9       	out	0x0f, r24	; 15
    1b0c:	77 9b       	sbis	0x0e, 7	; 14
    1b0e:	fe cf       	rjmp	.-4      	; 0x1b0c <rf_polling_rx_packet+0x330>
    1b10:	1f b8       	out	0x0f, r1	; 15
    1b12:	77 9b       	sbis	0x0e, 7	; 14
    1b14:	fe cf       	rjmp	.-4      	; 0x1b12 <rf_polling_rx_packet+0x336>
    1b16:	8f b1       	in	r24, 0x0f	; 15
    1b18:	c0 9a       	sbi	0x18, 0	; 24
    1b1a:	c0 98       	cbi	0x18, 0	; 24
    1b1c:	88 e0       	ldi	r24, 0x08	; 8
    1b1e:	8f b9       	out	0x0f, r24	; 15
    1b20:	77 9b       	sbis	0x0e, 7	; 14
    1b22:	fe cf       	rjmp	.-4      	; 0x1b20 <rf_polling_rx_packet+0x344>
    1b24:	c0 9a       	sbi	0x18, 0	; 24
    1b26:	c0 98       	cbi	0x18, 0	; 24
    1b28:	88 e0       	ldi	r24, 0x08	; 8
    1b2a:	8f b9       	out	0x0f, r24	; 15
    1b2c:	77 9b       	sbis	0x0e, 7	; 14
    1b2e:	fe cf       	rjmp	.-4      	; 0x1b2c <rf_polling_rx_packet+0x350>
    1b30:	c0 9a       	sbi	0x18, 0	; 24
    1b32:	8c ef       	ldi	r24, 0xFC	; 252
    1b34:	23 c0       	rjmp	.+70     	; 0x1b7c <rf_polling_rx_packet+0x3a0>
    1b36:	8c 81       	ldd	r24, Y+4	; 0x04
    1b38:	87 ff       	sbrs	r24, 7
    1b3a:	07 c0       	rjmp	.+14     	; 0x1b4a <rf_polling_rx_packet+0x36e>
    1b3c:	80 91 1d 04 	lds	r24, 0x041D
    1b40:	8f 5f       	subi	r24, 0xFF	; 255
    1b42:	80 93 1d 04 	sts	0x041D, r24
    1b46:	81 e0       	ldi	r24, 0x01	; 1
    1b48:	19 c0       	rjmp	.+50     	; 0x1b7c <rf_polling_rx_packet+0x3a0>
    1b4a:	c0 98       	cbi	0x18, 0	; 24
    1b4c:	8f e7       	ldi	r24, 0x7F	; 127
    1b4e:	8f b9       	out	0x0f, r24	; 15
    1b50:	77 9b       	sbis	0x0e, 7	; 14
    1b52:	fe cf       	rjmp	.-4      	; 0x1b50 <rf_polling_rx_packet+0x374>
    1b54:	1f b8       	out	0x0f, r1	; 15
    1b56:	77 9b       	sbis	0x0e, 7	; 14
    1b58:	fe cf       	rjmp	.-4      	; 0x1b56 <rf_polling_rx_packet+0x37a>
    1b5a:	8f b1       	in	r24, 0x0f	; 15
    1b5c:	c0 9a       	sbi	0x18, 0	; 24
    1b5e:	c0 98       	cbi	0x18, 0	; 24
    1b60:	88 e0       	ldi	r24, 0x08	; 8
    1b62:	8f b9       	out	0x0f, r24	; 15
    1b64:	77 9b       	sbis	0x0e, 7	; 14
    1b66:	fe cf       	rjmp	.-4      	; 0x1b64 <rf_polling_rx_packet+0x388>
    1b68:	c0 9a       	sbi	0x18, 0	; 24
    1b6a:	c0 98       	cbi	0x18, 0	; 24
    1b6c:	88 e0       	ldi	r24, 0x08	; 8
    1b6e:	8f b9       	out	0x0f, r24	; 15
    1b70:	77 9b       	sbis	0x0e, 7	; 14
    1b72:	fe cf       	rjmp	.-4      	; 0x1b70 <rf_polling_rx_packet+0x394>
    1b74:	c0 9a       	sbi	0x18, 0	; 24
    1b76:	8b ef       	ldi	r24, 0xFB	; 251
    1b78:	01 c0       	rjmp	.+2      	; 0x1b7c <rf_polling_rx_packet+0x3a0>
    1b7a:	80 e0       	ldi	r24, 0x00	; 0
    1b7c:	0f 90       	pop	r0
    1b7e:	0f 90       	pop	r0
    1b80:	0f 90       	pop	r0
    1b82:	0f 90       	pop	r0
    1b84:	cf 91       	pop	r28
    1b86:	df 91       	pop	r29
    1b88:	08 95       	ret

00001b8a <rf_rx_packet>:
    1b8a:	80 91 1d 04 	lds	r24, 0x041D
    1b8e:	88 23       	and	r24, r24
    1b90:	29 f0       	breq	.+10     	; 0x1b9c <rf_rx_packet+0x12>
    1b92:	80 91 1d 04 	lds	r24, 0x041D
    1b96:	10 92 1d 04 	sts	0x041D, r1
    1b9a:	08 95       	ret
    1b9c:	80 e0       	ldi	r24, 0x00	; 0
    1b9e:	08 95       	ret

00001ba0 <rf_flush_rx_fifo>:
    1ba0:	c0 98       	cbi	0x18, 0	; 24
    1ba2:	88 e0       	ldi	r24, 0x08	; 8
    1ba4:	8f b9       	out	0x0f, r24	; 15
    1ba6:	77 9b       	sbis	0x0e, 7	; 14
    1ba8:	fe cf       	rjmp	.-4      	; 0x1ba6 <rf_flush_rx_fifo+0x6>
    1baa:	c0 9a       	sbi	0x18, 0	; 24
    1bac:	c0 98       	cbi	0x18, 0	; 24
    1bae:	88 e0       	ldi	r24, 0x08	; 8
    1bb0:	8f b9       	out	0x0f, r24	; 15
    1bb2:	77 9b       	sbis	0x0e, 7	; 14
    1bb4:	fe cf       	rjmp	.-4      	; 0x1bb2 <rf_flush_rx_fifo+0x12>
    1bb6:	c0 9a       	sbi	0x18, 0	; 24
    1bb8:	08 95       	ret

00001bba <rf_set_cca_thresh>:
    1bba:	99 27       	eor	r25, r25
    1bbc:	87 fd       	sbrc	r24, 7
    1bbe:	90 95       	com	r25
    1bc0:	98 2f       	mov	r25, r24
    1bc2:	88 27       	eor	r24, r24
    1bc4:	80 68       	ori	r24, 0x80	; 128
    1bc6:	c0 98       	cbi	0x18, 0	; 24
    1bc8:	23 e1       	ldi	r18, 0x13	; 19
    1bca:	2f b9       	out	0x0f, r18	; 15
    1bcc:	77 9b       	sbis	0x0e, 7	; 14
    1bce:	fe cf       	rjmp	.-4      	; 0x1bcc <rf_set_cca_thresh+0x12>
    1bd0:	9f b9       	out	0x0f, r25	; 15
    1bd2:	77 9b       	sbis	0x0e, 7	; 14
    1bd4:	fe cf       	rjmp	.-4      	; 0x1bd2 <rf_set_cca_thresh+0x18>
    1bd6:	8f b9       	out	0x0f, r24	; 15
    1bd8:	77 9b       	sbis	0x0e, 7	; 14
    1bda:	fe cf       	rjmp	.-4      	; 0x1bd8 <rf_set_cca_thresh+0x1e>
    1bdc:	c0 9a       	sbi	0x18, 0	; 24
    1bde:	08 95       	ret

00001be0 <rf_test_mode>:
    1be0:	c0 98       	cbi	0x18, 0	; 24
    1be2:	86 e0       	ldi	r24, 0x06	; 6
    1be4:	8f b9       	out	0x0f, r24	; 15
    1be6:	77 9b       	sbis	0x0e, 7	; 14
    1be8:	fe cf       	rjmp	.-4      	; 0x1be6 <rf_test_mode+0x6>
    1bea:	c0 9a       	sbi	0x18, 0	; 24
    1bec:	c0 98       	cbi	0x18, 0	; 24
    1bee:	82 e1       	ldi	r24, 0x12	; 18
    1bf0:	8f b9       	out	0x0f, r24	; 15
    1bf2:	77 9b       	sbis	0x0e, 7	; 14
    1bf4:	fe cf       	rjmp	.-4      	; 0x1bf2 <rf_test_mode+0x12>
    1bf6:	85 e0       	ldi	r24, 0x05	; 5
    1bf8:	8f b9       	out	0x0f, r24	; 15
    1bfa:	77 9b       	sbis	0x0e, 7	; 14
    1bfc:	fe cf       	rjmp	.-4      	; 0x1bfa <rf_test_mode+0x1a>
    1bfe:	88 e0       	ldi	r24, 0x08	; 8
    1c00:	8f b9       	out	0x0f, r24	; 15
    1c02:	77 9b       	sbis	0x0e, 7	; 14
    1c04:	fe cf       	rjmp	.-4      	; 0x1c02 <rf_test_mode+0x22>
    1c06:	c0 9a       	sbi	0x18, 0	; 24
    1c08:	c0 98       	cbi	0x18, 0	; 24
    1c0a:	8e e2       	ldi	r24, 0x2E	; 46
    1c0c:	8f b9       	out	0x0f, r24	; 15
    1c0e:	77 9b       	sbis	0x0e, 7	; 14
    1c10:	fe cf       	rjmp	.-4      	; 0x1c0e <rf_test_mode+0x2e>
    1c12:	88 e1       	ldi	r24, 0x18	; 24
    1c14:	8f b9       	out	0x0f, r24	; 15
    1c16:	77 9b       	sbis	0x0e, 7	; 14
    1c18:	fe cf       	rjmp	.-4      	; 0x1c16 <rf_test_mode+0x36>
    1c1a:	1f b8       	out	0x0f, r1	; 15
    1c1c:	77 9b       	sbis	0x0e, 7	; 14
    1c1e:	fe cf       	rjmp	.-4      	; 0x1c1c <rf_test_mode+0x3c>
    1c20:	c0 9a       	sbi	0x18, 0	; 24
    1c22:	0e 94 d0 0d 	call	0x1ba0	; 0x1ba0 <rf_flush_rx_fifo>
    1c26:	08 95       	ret

00001c28 <rf_data_mode>:
    1c28:	c0 98       	cbi	0x18, 0	; 24
    1c2a:	86 e0       	ldi	r24, 0x06	; 6
    1c2c:	8f b9       	out	0x0f, r24	; 15
    1c2e:	77 9b       	sbis	0x0e, 7	; 14
    1c30:	fe cf       	rjmp	.-4      	; 0x1c2e <rf_data_mode+0x6>
    1c32:	c0 9a       	sbi	0x18, 0	; 24
    1c34:	c0 98       	cbi	0x18, 0	; 24
    1c36:	82 e1       	ldi	r24, 0x12	; 18
    1c38:	8f b9       	out	0x0f, r24	; 15
    1c3a:	77 9b       	sbis	0x0e, 7	; 14
    1c3c:	fe cf       	rjmp	.-4      	; 0x1c3a <rf_data_mode+0x12>
    1c3e:	85 e0       	ldi	r24, 0x05	; 5
    1c40:	8f b9       	out	0x0f, r24	; 15
    1c42:	77 9b       	sbis	0x0e, 7	; 14
    1c44:	fe cf       	rjmp	.-4      	; 0x1c42 <rf_data_mode+0x1a>
    1c46:	1f b8       	out	0x0f, r1	; 15
    1c48:	77 9b       	sbis	0x0e, 7	; 14
    1c4a:	fe cf       	rjmp	.-4      	; 0x1c48 <rf_data_mode+0x20>
    1c4c:	c0 9a       	sbi	0x18, 0	; 24
    1c4e:	c0 98       	cbi	0x18, 0	; 24
    1c50:	8e e2       	ldi	r24, 0x2E	; 46
    1c52:	8f b9       	out	0x0f, r24	; 15
    1c54:	77 9b       	sbis	0x0e, 7	; 14
    1c56:	fe cf       	rjmp	.-4      	; 0x1c54 <rf_data_mode+0x2c>
    1c58:	1f b8       	out	0x0f, r1	; 15
    1c5a:	77 9b       	sbis	0x0e, 7	; 14
    1c5c:	fe cf       	rjmp	.-4      	; 0x1c5a <rf_data_mode+0x32>
    1c5e:	1f b8       	out	0x0f, r1	; 15
    1c60:	77 9b       	sbis	0x0e, 7	; 14
    1c62:	fe cf       	rjmp	.-4      	; 0x1c60 <rf_data_mode+0x38>
    1c64:	c0 9a       	sbi	0x18, 0	; 24
    1c66:	0e 94 d0 0d 	call	0x1ba0	; 0x1ba0 <rf_flush_rx_fifo>
    1c6a:	08 95       	ret

00001c6c <rf_rx_set_serial>:
    1c6c:	c0 98       	cbi	0x18, 0	; 24
    1c6e:	86 e0       	ldi	r24, 0x06	; 6
    1c70:	8f b9       	out	0x0f, r24	; 15
    1c72:	77 9b       	sbis	0x0e, 7	; 14
    1c74:	fe cf       	rjmp	.-4      	; 0x1c72 <rf_rx_set_serial+0x6>
    1c76:	c0 9a       	sbi	0x18, 0	; 24
    1c78:	c0 98       	cbi	0x18, 0	; 24
    1c7a:	82 e1       	ldi	r24, 0x12	; 18
    1c7c:	8f b9       	out	0x0f, r24	; 15
    1c7e:	77 9b       	sbis	0x0e, 7	; 14
    1c80:	fe cf       	rjmp	.-4      	; 0x1c7e <rf_rx_set_serial+0x12>
    1c82:	85 e0       	ldi	r24, 0x05	; 5
    1c84:	8f b9       	out	0x0f, r24	; 15
    1c86:	77 9b       	sbis	0x0e, 7	; 14
    1c88:	fe cf       	rjmp	.-4      	; 0x1c86 <rf_rx_set_serial+0x1a>
    1c8a:	81 e0       	ldi	r24, 0x01	; 1
    1c8c:	8f b9       	out	0x0f, r24	; 15
    1c8e:	77 9b       	sbis	0x0e, 7	; 14
    1c90:	fe cf       	rjmp	.-4      	; 0x1c8e <rf_rx_set_serial+0x22>
    1c92:	c0 9a       	sbi	0x18, 0	; 24
    1c94:	0e 94 d0 0d 	call	0x1ba0	; 0x1ba0 <rf_flush_rx_fifo>
    1c98:	08 95       	ret

00001c9a <rf_tx_set_serial>:
    1c9a:	c0 98       	cbi	0x18, 0	; 24
    1c9c:	82 e1       	ldi	r24, 0x12	; 18
    1c9e:	8f b9       	out	0x0f, r24	; 15
    1ca0:	77 9b       	sbis	0x0e, 7	; 14
    1ca2:	fe cf       	rjmp	.-4      	; 0x1ca0 <rf_tx_set_serial+0x6>
    1ca4:	85 e0       	ldi	r24, 0x05	; 5
    1ca6:	8f b9       	out	0x0f, r24	; 15
    1ca8:	77 9b       	sbis	0x0e, 7	; 14
    1caa:	fe cf       	rjmp	.-4      	; 0x1ca8 <rf_tx_set_serial+0xe>
    1cac:	84 e0       	ldi	r24, 0x04	; 4
    1cae:	8f b9       	out	0x0f, r24	; 15
    1cb0:	77 9b       	sbis	0x0e, 7	; 14
    1cb2:	fe cf       	rjmp	.-4      	; 0x1cb0 <rf_tx_set_serial+0x16>
    1cb4:	c0 9a       	sbi	0x18, 0	; 24
    1cb6:	0e 94 d0 0d 	call	0x1ba0	; 0x1ba0 <rf_flush_rx_fifo>
    1cba:	08 95       	ret

00001cbc <rf_set_preamble_length>:
    1cbc:	90 e0       	ldi	r25, 0x00	; 0
    1cbe:	8f 70       	andi	r24, 0x0F	; 15
    1cc0:	90 70       	andi	r25, 0x00	; 0
    1cc2:	20 91 0a 04 	lds	r18, 0x040A
    1cc6:	30 91 0b 04 	lds	r19, 0x040B
    1cca:	20 7f       	andi	r18, 0xF0	; 240
    1ccc:	82 2b       	or	r24, r18
    1cce:	93 2b       	or	r25, r19
    1cd0:	90 93 0b 04 	sts	0x040B, r25
    1cd4:	80 93 0a 04 	sts	0x040A, r24
    1cd8:	c0 98       	cbi	0x18, 0	; 24
    1cda:	81 e1       	ldi	r24, 0x11	; 17
    1cdc:	8f b9       	out	0x0f, r24	; 15
    1cde:	77 9b       	sbis	0x0e, 7	; 14
    1ce0:	fe cf       	rjmp	.-4      	; 0x1cde <rf_set_preamble_length+0x22>
    1ce2:	80 91 0b 04 	lds	r24, 0x040B
    1ce6:	8f b9       	out	0x0f, r24	; 15
    1ce8:	77 9b       	sbis	0x0e, 7	; 14
    1cea:	fe cf       	rjmp	.-4      	; 0x1ce8 <rf_set_preamble_length+0x2c>
    1cec:	80 91 0a 04 	lds	r24, 0x040A
    1cf0:	8f b9       	out	0x0f, r24	; 15
    1cf2:	77 9b       	sbis	0x0e, 7	; 14
    1cf4:	fe cf       	rjmp	.-4      	; 0x1cf2 <rf_set_preamble_length+0x36>
    1cf6:	c0 9a       	sbi	0x18, 0	; 24
    1cf8:	08 95       	ret

00001cfa <rf_set_cca_mode>:
    1cfa:	90 e0       	ldi	r25, 0x00	; 0
    1cfc:	26 e0       	ldi	r18, 0x06	; 6
    1cfe:	88 0f       	add	r24, r24
    1d00:	99 1f       	adc	r25, r25
    1d02:	2a 95       	dec	r18
    1d04:	e1 f7       	brne	.-8      	; 0x1cfe <rf_set_cca_mode+0x4>
    1d06:	90 70       	andi	r25, 0x00	; 0
    1d08:	20 91 0a 04 	lds	r18, 0x040A
    1d0c:	30 91 0b 04 	lds	r19, 0x040B
    1d10:	2f 73       	andi	r18, 0x3F	; 63
    1d12:	82 2b       	or	r24, r18
    1d14:	93 2b       	or	r25, r19
    1d16:	90 93 0b 04 	sts	0x040B, r25
    1d1a:	80 93 0a 04 	sts	0x040A, r24
    1d1e:	c0 98       	cbi	0x18, 0	; 24
    1d20:	81 e1       	ldi	r24, 0x11	; 17
    1d22:	8f b9       	out	0x0f, r24	; 15
    1d24:	77 9b       	sbis	0x0e, 7	; 14
    1d26:	fe cf       	rjmp	.-4      	; 0x1d24 <rf_set_cca_mode+0x2a>
    1d28:	80 91 0b 04 	lds	r24, 0x040B
    1d2c:	8f b9       	out	0x0f, r24	; 15
    1d2e:	77 9b       	sbis	0x0e, 7	; 14
    1d30:	fe cf       	rjmp	.-4      	; 0x1d2e <rf_set_cca_mode+0x34>
    1d32:	80 91 0a 04 	lds	r24, 0x040A
    1d36:	8f b9       	out	0x0f, r24	; 15
    1d38:	77 9b       	sbis	0x0e, 7	; 14
    1d3a:	fe cf       	rjmp	.-4      	; 0x1d38 <rf_set_cca_mode+0x3e>
    1d3c:	c0 9a       	sbi	0x18, 0	; 24
    1d3e:	08 95       	ret

00001d40 <rf_carrier_on>:
    1d40:	c0 98       	cbi	0x18, 0	; 24
    1d42:	84 e0       	ldi	r24, 0x04	; 4
    1d44:	8f b9       	out	0x0f, r24	; 15
    1d46:	77 9b       	sbis	0x0e, 7	; 14
    1d48:	fe cf       	rjmp	.-4      	; 0x1d46 <rf_carrier_on+0x6>
    1d4a:	c0 9a       	sbi	0x18, 0	; 24
    1d4c:	08 95       	ret

00001d4e <rf_carrier_off>:
    1d4e:	c0 98       	cbi	0x18, 0	; 24
    1d50:	86 e0       	ldi	r24, 0x06	; 6
    1d52:	8f b9       	out	0x0f, r24	; 15
    1d54:	77 9b       	sbis	0x0e, 7	; 14
    1d56:	fe cf       	rjmp	.-4      	; 0x1d54 <rf_carrier_off+0x6>
    1d58:	c0 9a       	sbi	0x18, 0	; 24
    1d5a:	08 95       	ret

00001d5c <getc0>:
    1d5c:	5f 9b       	sbis	0x0b, 7	; 11
    1d5e:	fe cf       	rjmp	.-4      	; 0x1d5c <getc0>
    1d60:	5f 98       	cbi	0x0b, 7	; 11
    1d62:	8c b1       	in	r24, 0x0c	; 12
    1d64:	08 95       	ret

00001d66 <putc0>:
    1d66:	5d 9b       	sbis	0x0b, 5	; 11
    1d68:	fe cf       	rjmp	.-4      	; 0x1d66 <putc0>
    1d6a:	5d 98       	cbi	0x0b, 5	; 11
    1d6c:	8c b9       	out	0x0c, r24	; 12
    1d6e:	08 95       	ret

00001d70 <nrk_uart_rx_signal_get>:
    1d70:	8f ef       	ldi	r24, 0xFF	; 255
    1d72:	08 95       	ret

00001d74 <nrk_uart_data_ready>:
    1d74:	88 23       	and	r24, r24
    1d76:	11 f4       	brne	.+4      	; 0x1d7c <nrk_uart_data_ready+0x8>
    1d78:	8b b1       	in	r24, 0x0b	; 11
    1d7a:	04 c0       	rjmp	.+8      	; 0x1d84 <nrk_uart_data_ready+0x10>
    1d7c:	81 30       	cpi	r24, 0x01	; 1
    1d7e:	31 f4       	brne	.+12     	; 0x1d8c <nrk_uart_data_ready+0x18>
    1d80:	80 91 9b 00 	lds	r24, 0x009B
    1d84:	88 1f       	adc	r24, r24
    1d86:	88 27       	eor	r24, r24
    1d88:	88 1f       	adc	r24, r24
    1d8a:	08 95       	ret
    1d8c:	80 e0       	ldi	r24, 0x00	; 0
    1d8e:	08 95       	ret

00001d90 <nrk_kprintf>:
    1d90:	cf 93       	push	r28
    1d92:	df 93       	push	r29
    1d94:	ec 01       	movw	r28, r24
    1d96:	07 c0       	rjmp	.+14     	; 0x1da6 <nrk_kprintf+0x16>
    1d98:	60 91 0c 05 	lds	r22, 0x050C
    1d9c:	70 91 0d 05 	lds	r23, 0x050D
    1da0:	90 e0       	ldi	r25, 0x00	; 0
    1da2:	0e 94 05 40 	call	0x800a	; 0x800a <fputc>
    1da6:	fe 01       	movw	r30, r28
    1da8:	21 96       	adiw	r28, 0x01	; 1
    1daa:	84 91       	lpm	r24, Z+
    1dac:	88 23       	and	r24, r24
    1dae:	a1 f7       	brne	.-24     	; 0x1d98 <nrk_kprintf+0x8>
    1db0:	df 91       	pop	r29
    1db2:	cf 91       	pop	r28
    1db4:	08 95       	ret

00001db6 <nrk_gpio_set>:
    1db6:	8f 3f       	cpi	r24, 0xFF	; 255
    1db8:	09 f4       	brne	.+2      	; 0x1dbc <nrk_gpio_set+0x6>
    1dba:	3f c0       	rjmp	.+126    	; 0x1e3a <nrk_gpio_set+0x84>
    1dbc:	98 2f       	mov	r25, r24
    1dbe:	96 95       	lsr	r25
    1dc0:	96 95       	lsr	r25
    1dc2:	96 95       	lsr	r25
    1dc4:	21 e0       	ldi	r18, 0x01	; 1
    1dc6:	30 e0       	ldi	r19, 0x00	; 0
    1dc8:	02 c0       	rjmp	.+4      	; 0x1dce <nrk_gpio_set+0x18>
    1dca:	22 0f       	add	r18, r18
    1dcc:	33 1f       	adc	r19, r19
    1dce:	9a 95       	dec	r25
    1dd0:	e2 f7       	brpl	.-8      	; 0x1dca <nrk_gpio_set+0x14>
    1dd2:	90 e0       	ldi	r25, 0x00	; 0
    1dd4:	87 70       	andi	r24, 0x07	; 7
    1dd6:	90 70       	andi	r25, 0x00	; 0
    1dd8:	82 30       	cpi	r24, 0x02	; 2
    1dda:	91 05       	cpc	r25, r1
    1ddc:	d9 f0       	breq	.+54     	; 0x1e14 <nrk_gpio_set+0x5e>
    1dde:	83 30       	cpi	r24, 0x03	; 3
    1de0:	91 05       	cpc	r25, r1
    1de2:	34 f4       	brge	.+12     	; 0x1df0 <nrk_gpio_set+0x3a>
    1de4:	00 97       	sbiw	r24, 0x00	; 0
    1de6:	71 f0       	breq	.+28     	; 0x1e04 <nrk_gpio_set+0x4e>
    1de8:	81 30       	cpi	r24, 0x01	; 1
    1dea:	91 05       	cpc	r25, r1
    1dec:	41 f5       	brne	.+80     	; 0x1e3e <nrk_gpio_set+0x88>
    1dee:	0e c0       	rjmp	.+28     	; 0x1e0c <nrk_gpio_set+0x56>
    1df0:	84 30       	cpi	r24, 0x04	; 4
    1df2:	91 05       	cpc	r25, r1
    1df4:	c1 f0       	breq	.+48     	; 0x1e26 <nrk_gpio_set+0x70>
    1df6:	84 30       	cpi	r24, 0x04	; 4
    1df8:	91 05       	cpc	r25, r1
    1dfa:	8c f0       	brlt	.+34     	; 0x1e1e <nrk_gpio_set+0x68>
    1dfc:	85 30       	cpi	r24, 0x05	; 5
    1dfe:	91 05       	cpc	r25, r1
    1e00:	f1 f4       	brne	.+60     	; 0x1e3e <nrk_gpio_set+0x88>
    1e02:	15 c0       	rjmp	.+42     	; 0x1e2e <nrk_gpio_set+0x78>
    1e04:	8b b3       	in	r24, 0x1b	; 27
    1e06:	82 2b       	or	r24, r18
    1e08:	8b bb       	out	0x1b, r24	; 27
    1e0a:	07 c0       	rjmp	.+14     	; 0x1e1a <nrk_gpio_set+0x64>
    1e0c:	88 b3       	in	r24, 0x18	; 24
    1e0e:	82 2b       	or	r24, r18
    1e10:	88 bb       	out	0x18, r24	; 24
    1e12:	03 c0       	rjmp	.+6      	; 0x1e1a <nrk_gpio_set+0x64>
    1e14:	85 b3       	in	r24, 0x15	; 21
    1e16:	82 2b       	or	r24, r18
    1e18:	85 bb       	out	0x15, r24	; 21
    1e1a:	81 e0       	ldi	r24, 0x01	; 1
    1e1c:	08 95       	ret
    1e1e:	82 b3       	in	r24, 0x12	; 18
    1e20:	82 2b       	or	r24, r18
    1e22:	82 bb       	out	0x12, r24	; 18
    1e24:	fa cf       	rjmp	.-12     	; 0x1e1a <nrk_gpio_set+0x64>
    1e26:	83 b1       	in	r24, 0x03	; 3
    1e28:	82 2b       	or	r24, r18
    1e2a:	83 b9       	out	0x03, r24	; 3
    1e2c:	f6 cf       	rjmp	.-20     	; 0x1e1a <nrk_gpio_set+0x64>
    1e2e:	80 91 62 00 	lds	r24, 0x0062
    1e32:	82 2b       	or	r24, r18
    1e34:	80 93 62 00 	sts	0x0062, r24
    1e38:	f0 cf       	rjmp	.-32     	; 0x1e1a <nrk_gpio_set+0x64>
    1e3a:	8f ef       	ldi	r24, 0xFF	; 255
    1e3c:	08 95       	ret
    1e3e:	8f ef       	ldi	r24, 0xFF	; 255
    1e40:	08 95       	ret

00001e42 <nrk_gpio_clr>:
    1e42:	8f 3f       	cpi	r24, 0xFF	; 255
    1e44:	09 f4       	brne	.+2      	; 0x1e48 <nrk_gpio_clr+0x6>
    1e46:	40 c0       	rjmp	.+128    	; 0x1ec8 <nrk_gpio_clr+0x86>
    1e48:	98 2f       	mov	r25, r24
    1e4a:	96 95       	lsr	r25
    1e4c:	96 95       	lsr	r25
    1e4e:	96 95       	lsr	r25
    1e50:	21 e0       	ldi	r18, 0x01	; 1
    1e52:	30 e0       	ldi	r19, 0x00	; 0
    1e54:	02 c0       	rjmp	.+4      	; 0x1e5a <nrk_gpio_clr+0x18>
    1e56:	22 0f       	add	r18, r18
    1e58:	33 1f       	adc	r19, r19
    1e5a:	9a 95       	dec	r25
    1e5c:	e2 f7       	brpl	.-8      	; 0x1e56 <nrk_gpio_clr+0x14>
    1e5e:	20 95       	com	r18
    1e60:	90 e0       	ldi	r25, 0x00	; 0
    1e62:	87 70       	andi	r24, 0x07	; 7
    1e64:	90 70       	andi	r25, 0x00	; 0
    1e66:	82 30       	cpi	r24, 0x02	; 2
    1e68:	91 05       	cpc	r25, r1
    1e6a:	d9 f0       	breq	.+54     	; 0x1ea2 <nrk_gpio_clr+0x60>
    1e6c:	83 30       	cpi	r24, 0x03	; 3
    1e6e:	91 05       	cpc	r25, r1
    1e70:	34 f4       	brge	.+12     	; 0x1e7e <nrk_gpio_clr+0x3c>
    1e72:	00 97       	sbiw	r24, 0x00	; 0
    1e74:	71 f0       	breq	.+28     	; 0x1e92 <nrk_gpio_clr+0x50>
    1e76:	81 30       	cpi	r24, 0x01	; 1
    1e78:	91 05       	cpc	r25, r1
    1e7a:	41 f5       	brne	.+80     	; 0x1ecc <nrk_gpio_clr+0x8a>
    1e7c:	0e c0       	rjmp	.+28     	; 0x1e9a <nrk_gpio_clr+0x58>
    1e7e:	84 30       	cpi	r24, 0x04	; 4
    1e80:	91 05       	cpc	r25, r1
    1e82:	c1 f0       	breq	.+48     	; 0x1eb4 <nrk_gpio_clr+0x72>
    1e84:	84 30       	cpi	r24, 0x04	; 4
    1e86:	91 05       	cpc	r25, r1
    1e88:	8c f0       	brlt	.+34     	; 0x1eac <nrk_gpio_clr+0x6a>
    1e8a:	85 30       	cpi	r24, 0x05	; 5
    1e8c:	91 05       	cpc	r25, r1
    1e8e:	f1 f4       	brne	.+60     	; 0x1ecc <nrk_gpio_clr+0x8a>
    1e90:	15 c0       	rjmp	.+42     	; 0x1ebc <nrk_gpio_clr+0x7a>
    1e92:	8b b3       	in	r24, 0x1b	; 27
    1e94:	82 23       	and	r24, r18
    1e96:	8b bb       	out	0x1b, r24	; 27
    1e98:	07 c0       	rjmp	.+14     	; 0x1ea8 <nrk_gpio_clr+0x66>
    1e9a:	88 b3       	in	r24, 0x18	; 24
    1e9c:	82 23       	and	r24, r18
    1e9e:	88 bb       	out	0x18, r24	; 24
    1ea0:	03 c0       	rjmp	.+6      	; 0x1ea8 <nrk_gpio_clr+0x66>
    1ea2:	85 b3       	in	r24, 0x15	; 21
    1ea4:	82 23       	and	r24, r18
    1ea6:	85 bb       	out	0x15, r24	; 21
    1ea8:	81 e0       	ldi	r24, 0x01	; 1
    1eaa:	08 95       	ret
    1eac:	82 b3       	in	r24, 0x12	; 18
    1eae:	82 23       	and	r24, r18
    1eb0:	82 bb       	out	0x12, r24	; 18
    1eb2:	fa cf       	rjmp	.-12     	; 0x1ea8 <nrk_gpio_clr+0x66>
    1eb4:	83 b1       	in	r24, 0x03	; 3
    1eb6:	82 23       	and	r24, r18
    1eb8:	83 b9       	out	0x03, r24	; 3
    1eba:	f6 cf       	rjmp	.-20     	; 0x1ea8 <nrk_gpio_clr+0x66>
    1ebc:	80 91 62 00 	lds	r24, 0x0062
    1ec0:	82 23       	and	r24, r18
    1ec2:	80 93 62 00 	sts	0x0062, r24
    1ec6:	f0 cf       	rjmp	.-32     	; 0x1ea8 <nrk_gpio_clr+0x66>
    1ec8:	8f ef       	ldi	r24, 0xFF	; 255
    1eca:	08 95       	ret
    1ecc:	8f ef       	ldi	r24, 0xFF	; 255
    1ece:	08 95       	ret

00001ed0 <nrk_gpio_get>:
    1ed0:	8f 3f       	cpi	r24, 0xFF	; 255
    1ed2:	89 f1       	breq	.+98     	; 0x1f36 <nrk_gpio_get+0x66>
    1ed4:	28 2f       	mov	r18, r24
    1ed6:	30 e0       	ldi	r19, 0x00	; 0
    1ed8:	27 70       	andi	r18, 0x07	; 7
    1eda:	30 70       	andi	r19, 0x00	; 0
    1edc:	22 30       	cpi	r18, 0x02	; 2
    1ede:	31 05       	cpc	r19, r1
    1ee0:	c1 f0       	breq	.+48     	; 0x1f12 <nrk_gpio_get+0x42>
    1ee2:	23 30       	cpi	r18, 0x03	; 3
    1ee4:	31 05       	cpc	r19, r1
    1ee6:	3c f4       	brge	.+14     	; 0x1ef6 <nrk_gpio_get+0x26>
    1ee8:	21 15       	cp	r18, r1
    1eea:	31 05       	cpc	r19, r1
    1eec:	71 f0       	breq	.+28     	; 0x1f0a <nrk_gpio_get+0x3a>
    1eee:	21 30       	cpi	r18, 0x01	; 1
    1ef0:	31 05       	cpc	r19, r1
    1ef2:	09 f5       	brne	.+66     	; 0x1f36 <nrk_gpio_get+0x66>
    1ef4:	0c c0       	rjmp	.+24     	; 0x1f0e <nrk_gpio_get+0x3e>
    1ef6:	24 30       	cpi	r18, 0x04	; 4
    1ef8:	31 05       	cpc	r19, r1
    1efa:	79 f0       	breq	.+30     	; 0x1f1a <nrk_gpio_get+0x4a>
    1efc:	24 30       	cpi	r18, 0x04	; 4
    1efe:	31 05       	cpc	r19, r1
    1f00:	54 f0       	brlt	.+20     	; 0x1f16 <nrk_gpio_get+0x46>
    1f02:	25 30       	cpi	r18, 0x05	; 5
    1f04:	31 05       	cpc	r19, r1
    1f06:	b9 f4       	brne	.+46     	; 0x1f36 <nrk_gpio_get+0x66>
    1f08:	0a c0       	rjmp	.+20     	; 0x1f1e <nrk_gpio_get+0x4e>
    1f0a:	29 b3       	in	r18, 0x19	; 25
    1f0c:	09 c0       	rjmp	.+18     	; 0x1f20 <nrk_gpio_get+0x50>
    1f0e:	26 b3       	in	r18, 0x16	; 22
    1f10:	07 c0       	rjmp	.+14     	; 0x1f20 <nrk_gpio_get+0x50>
    1f12:	23 b3       	in	r18, 0x13	; 19
    1f14:	05 c0       	rjmp	.+10     	; 0x1f20 <nrk_gpio_get+0x50>
    1f16:	20 b3       	in	r18, 0x10	; 16
    1f18:	03 c0       	rjmp	.+6      	; 0x1f20 <nrk_gpio_get+0x50>
    1f1a:	21 b1       	in	r18, 0x01	; 1
    1f1c:	01 c0       	rjmp	.+2      	; 0x1f20 <nrk_gpio_get+0x50>
    1f1e:	20 b1       	in	r18, 0x00	; 0
    1f20:	30 e0       	ldi	r19, 0x00	; 0
    1f22:	86 95       	lsr	r24
    1f24:	86 95       	lsr	r24
    1f26:	86 95       	lsr	r24
    1f28:	02 c0       	rjmp	.+4      	; 0x1f2e <nrk_gpio_get+0x5e>
    1f2a:	35 95       	asr	r19
    1f2c:	27 95       	ror	r18
    1f2e:	8a 95       	dec	r24
    1f30:	e2 f7       	brpl	.-8      	; 0x1f2a <nrk_gpio_get+0x5a>
    1f32:	21 70       	andi	r18, 0x01	; 1
    1f34:	01 c0       	rjmp	.+2      	; 0x1f38 <nrk_gpio_get+0x68>
    1f36:	2f ef       	ldi	r18, 0xFF	; 255
    1f38:	82 2f       	mov	r24, r18
    1f3a:	08 95       	ret

00001f3c <nrk_gpio_pullups>:
    1f3c:	88 23       	and	r24, r24
    1f3e:	19 f0       	breq	.+6      	; 0x1f46 <nrk_gpio_pullups+0xa>
    1f40:	80 b5       	in	r24, 0x20	; 32
    1f42:	8b 7f       	andi	r24, 0xFB	; 251
    1f44:	02 c0       	rjmp	.+4      	; 0x1f4a <nrk_gpio_pullups+0xe>
    1f46:	80 b5       	in	r24, 0x20	; 32
    1f48:	84 60       	ori	r24, 0x04	; 4
    1f4a:	80 bd       	out	0x20, r24	; 32
    1f4c:	81 e0       	ldi	r24, 0x01	; 1
    1f4e:	08 95       	ret

00001f50 <nrk_gpio_toggle>:
    1f50:	8f 3f       	cpi	r24, 0xFF	; 255
    1f52:	09 f4       	brne	.+2      	; 0x1f56 <nrk_gpio_toggle+0x6>
    1f54:	3f c0       	rjmp	.+126    	; 0x1fd4 <nrk_gpio_toggle+0x84>
    1f56:	98 2f       	mov	r25, r24
    1f58:	96 95       	lsr	r25
    1f5a:	96 95       	lsr	r25
    1f5c:	96 95       	lsr	r25
    1f5e:	21 e0       	ldi	r18, 0x01	; 1
    1f60:	30 e0       	ldi	r19, 0x00	; 0
    1f62:	02 c0       	rjmp	.+4      	; 0x1f68 <nrk_gpio_toggle+0x18>
    1f64:	22 0f       	add	r18, r18
    1f66:	33 1f       	adc	r19, r19
    1f68:	9a 95       	dec	r25
    1f6a:	e2 f7       	brpl	.-8      	; 0x1f64 <nrk_gpio_toggle+0x14>
    1f6c:	90 e0       	ldi	r25, 0x00	; 0
    1f6e:	87 70       	andi	r24, 0x07	; 7
    1f70:	90 70       	andi	r25, 0x00	; 0
    1f72:	82 30       	cpi	r24, 0x02	; 2
    1f74:	91 05       	cpc	r25, r1
    1f76:	d9 f0       	breq	.+54     	; 0x1fae <nrk_gpio_toggle+0x5e>
    1f78:	83 30       	cpi	r24, 0x03	; 3
    1f7a:	91 05       	cpc	r25, r1
    1f7c:	34 f4       	brge	.+12     	; 0x1f8a <nrk_gpio_toggle+0x3a>
    1f7e:	00 97       	sbiw	r24, 0x00	; 0
    1f80:	71 f0       	breq	.+28     	; 0x1f9e <nrk_gpio_toggle+0x4e>
    1f82:	81 30       	cpi	r24, 0x01	; 1
    1f84:	91 05       	cpc	r25, r1
    1f86:	41 f5       	brne	.+80     	; 0x1fd8 <nrk_gpio_toggle+0x88>
    1f88:	0e c0       	rjmp	.+28     	; 0x1fa6 <nrk_gpio_toggle+0x56>
    1f8a:	84 30       	cpi	r24, 0x04	; 4
    1f8c:	91 05       	cpc	r25, r1
    1f8e:	c1 f0       	breq	.+48     	; 0x1fc0 <nrk_gpio_toggle+0x70>
    1f90:	84 30       	cpi	r24, 0x04	; 4
    1f92:	91 05       	cpc	r25, r1
    1f94:	8c f0       	brlt	.+34     	; 0x1fb8 <nrk_gpio_toggle+0x68>
    1f96:	85 30       	cpi	r24, 0x05	; 5
    1f98:	91 05       	cpc	r25, r1
    1f9a:	f1 f4       	brne	.+60     	; 0x1fd8 <nrk_gpio_toggle+0x88>
    1f9c:	15 c0       	rjmp	.+42     	; 0x1fc8 <nrk_gpio_toggle+0x78>
    1f9e:	8b b3       	in	r24, 0x1b	; 27
    1fa0:	82 27       	eor	r24, r18
    1fa2:	8b bb       	out	0x1b, r24	; 27
    1fa4:	07 c0       	rjmp	.+14     	; 0x1fb4 <nrk_gpio_toggle+0x64>
    1fa6:	88 b3       	in	r24, 0x18	; 24
    1fa8:	82 27       	eor	r24, r18
    1faa:	88 bb       	out	0x18, r24	; 24
    1fac:	03 c0       	rjmp	.+6      	; 0x1fb4 <nrk_gpio_toggle+0x64>
    1fae:	85 b3       	in	r24, 0x15	; 21
    1fb0:	82 27       	eor	r24, r18
    1fb2:	85 bb       	out	0x15, r24	; 21
    1fb4:	81 e0       	ldi	r24, 0x01	; 1
    1fb6:	08 95       	ret
    1fb8:	82 b3       	in	r24, 0x12	; 18
    1fba:	82 27       	eor	r24, r18
    1fbc:	82 bb       	out	0x12, r24	; 18
    1fbe:	fa cf       	rjmp	.-12     	; 0x1fb4 <nrk_gpio_toggle+0x64>
    1fc0:	83 b1       	in	r24, 0x03	; 3
    1fc2:	82 27       	eor	r24, r18
    1fc4:	83 b9       	out	0x03, r24	; 3
    1fc6:	f6 cf       	rjmp	.-20     	; 0x1fb4 <nrk_gpio_toggle+0x64>
    1fc8:	80 91 62 00 	lds	r24, 0x0062
    1fcc:	82 27       	eor	r24, r18
    1fce:	80 93 62 00 	sts	0x0062, r24
    1fd2:	f0 cf       	rjmp	.-32     	; 0x1fb4 <nrk_gpio_toggle+0x64>
    1fd4:	8f ef       	ldi	r24, 0xFF	; 255
    1fd6:	08 95       	ret
    1fd8:	8f ef       	ldi	r24, 0xFF	; 255
    1fda:	08 95       	ret

00001fdc <nrk_gpio_direction>:
    1fdc:	8f 3f       	cpi	r24, 0xFF	; 255
    1fde:	09 f4       	brne	.+2      	; 0x1fe2 <nrk_gpio_direction+0x6>
    1fe0:	8c c0       	rjmp	.+280    	; 0x20fa <nrk_gpio_direction+0x11e>
    1fe2:	98 2f       	mov	r25, r24
    1fe4:	96 95       	lsr	r25
    1fe6:	96 95       	lsr	r25
    1fe8:	96 95       	lsr	r25
    1fea:	21 e0       	ldi	r18, 0x01	; 1
    1fec:	30 e0       	ldi	r19, 0x00	; 0
    1fee:	02 c0       	rjmp	.+4      	; 0x1ff4 <nrk_gpio_direction+0x18>
    1ff0:	22 0f       	add	r18, r18
    1ff2:	33 1f       	adc	r19, r19
    1ff4:	9a 95       	dec	r25
    1ff6:	e2 f7       	brpl	.-8      	; 0x1ff0 <nrk_gpio_direction+0x14>
    1ff8:	90 e0       	ldi	r25, 0x00	; 0
    1ffa:	66 23       	and	r22, r22
    1ffc:	09 f0       	breq	.+2      	; 0x2000 <nrk_gpio_direction+0x24>
    1ffe:	4a c0       	rjmp	.+148    	; 0x2094 <nrk_gpio_direction+0xb8>
    2000:	32 2f       	mov	r19, r18
    2002:	30 95       	com	r19
    2004:	87 70       	andi	r24, 0x07	; 7
    2006:	90 70       	andi	r25, 0x00	; 0
    2008:	82 30       	cpi	r24, 0x02	; 2
    200a:	91 05       	cpc	r25, r1
    200c:	19 f1       	breq	.+70     	; 0x2054 <nrk_gpio_direction+0x78>
    200e:	83 30       	cpi	r24, 0x03	; 3
    2010:	91 05       	cpc	r25, r1
    2012:	3c f4       	brge	.+14     	; 0x2022 <nrk_gpio_direction+0x46>
    2014:	00 97       	sbiw	r24, 0x00	; 0
    2016:	81 f0       	breq	.+32     	; 0x2038 <nrk_gpio_direction+0x5c>
    2018:	81 30       	cpi	r24, 0x01	; 1
    201a:	91 05       	cpc	r25, r1
    201c:	09 f0       	breq	.+2      	; 0x2020 <nrk_gpio_direction+0x44>
    201e:	6d c0       	rjmp	.+218    	; 0x20fa <nrk_gpio_direction+0x11e>
    2020:	12 c0       	rjmp	.+36     	; 0x2046 <nrk_gpio_direction+0x6a>
    2022:	84 30       	cpi	r24, 0x04	; 4
    2024:	91 05       	cpc	r25, r1
    2026:	21 f1       	breq	.+72     	; 0x2070 <nrk_gpio_direction+0x94>
    2028:	84 30       	cpi	r24, 0x04	; 4
    202a:	91 05       	cpc	r25, r1
    202c:	d4 f0       	brlt	.+52     	; 0x2062 <nrk_gpio_direction+0x86>
    202e:	85 30       	cpi	r24, 0x05	; 5
    2030:	91 05       	cpc	r25, r1
    2032:	09 f0       	breq	.+2      	; 0x2036 <nrk_gpio_direction+0x5a>
    2034:	62 c0       	rjmp	.+196    	; 0x20fa <nrk_gpio_direction+0x11e>
    2036:	23 c0       	rjmp	.+70     	; 0x207e <nrk_gpio_direction+0xa2>
    2038:	8a b3       	in	r24, 0x1a	; 26
    203a:	83 23       	and	r24, r19
    203c:	8a bb       	out	0x1a, r24	; 26
    203e:	8b b3       	in	r24, 0x1b	; 27
    2040:	82 2b       	or	r24, r18
    2042:	8b bb       	out	0x1b, r24	; 27
    2044:	58 c0       	rjmp	.+176    	; 0x20f6 <nrk_gpio_direction+0x11a>
    2046:	87 b3       	in	r24, 0x17	; 23
    2048:	83 23       	and	r24, r19
    204a:	87 bb       	out	0x17, r24	; 23
    204c:	88 b3       	in	r24, 0x18	; 24
    204e:	82 2b       	or	r24, r18
    2050:	88 bb       	out	0x18, r24	; 24
    2052:	51 c0       	rjmp	.+162    	; 0x20f6 <nrk_gpio_direction+0x11a>
    2054:	84 b3       	in	r24, 0x14	; 20
    2056:	83 23       	and	r24, r19
    2058:	84 bb       	out	0x14, r24	; 20
    205a:	85 b3       	in	r24, 0x15	; 21
    205c:	82 2b       	or	r24, r18
    205e:	85 bb       	out	0x15, r24	; 21
    2060:	4a c0       	rjmp	.+148    	; 0x20f6 <nrk_gpio_direction+0x11a>
    2062:	81 b3       	in	r24, 0x11	; 17
    2064:	83 23       	and	r24, r19
    2066:	81 bb       	out	0x11, r24	; 17
    2068:	82 b3       	in	r24, 0x12	; 18
    206a:	82 2b       	or	r24, r18
    206c:	82 bb       	out	0x12, r24	; 18
    206e:	43 c0       	rjmp	.+134    	; 0x20f6 <nrk_gpio_direction+0x11a>
    2070:	82 b1       	in	r24, 0x02	; 2
    2072:	83 23       	and	r24, r19
    2074:	82 b9       	out	0x02, r24	; 2
    2076:	83 b1       	in	r24, 0x03	; 3
    2078:	82 2b       	or	r24, r18
    207a:	83 b9       	out	0x03, r24	; 3
    207c:	3c c0       	rjmp	.+120    	; 0x20f6 <nrk_gpio_direction+0x11a>
    207e:	80 91 61 00 	lds	r24, 0x0061
    2082:	83 23       	and	r24, r19
    2084:	80 93 61 00 	sts	0x0061, r24
    2088:	80 91 62 00 	lds	r24, 0x0062
    208c:	82 2b       	or	r24, r18
    208e:	80 93 62 00 	sts	0x0062, r24
    2092:	31 c0       	rjmp	.+98     	; 0x20f6 <nrk_gpio_direction+0x11a>
    2094:	87 70       	andi	r24, 0x07	; 7
    2096:	90 70       	andi	r25, 0x00	; 0
    2098:	82 30       	cpi	r24, 0x02	; 2
    209a:	91 05       	cpc	r25, r1
    209c:	d9 f0       	breq	.+54     	; 0x20d4 <nrk_gpio_direction+0xf8>
    209e:	83 30       	cpi	r24, 0x03	; 3
    20a0:	91 05       	cpc	r25, r1
    20a2:	34 f4       	brge	.+12     	; 0x20b0 <nrk_gpio_direction+0xd4>
    20a4:	00 97       	sbiw	r24, 0x00	; 0
    20a6:	71 f0       	breq	.+28     	; 0x20c4 <nrk_gpio_direction+0xe8>
    20a8:	81 30       	cpi	r24, 0x01	; 1
    20aa:	91 05       	cpc	r25, r1
    20ac:	41 f5       	brne	.+80     	; 0x20fe <nrk_gpio_direction+0x122>
    20ae:	0e c0       	rjmp	.+28     	; 0x20cc <nrk_gpio_direction+0xf0>
    20b0:	84 30       	cpi	r24, 0x04	; 4
    20b2:	91 05       	cpc	r25, r1
    20b4:	b9 f0       	breq	.+46     	; 0x20e4 <nrk_gpio_direction+0x108>
    20b6:	84 30       	cpi	r24, 0x04	; 4
    20b8:	91 05       	cpc	r25, r1
    20ba:	84 f0       	brlt	.+32     	; 0x20dc <nrk_gpio_direction+0x100>
    20bc:	85 30       	cpi	r24, 0x05	; 5
    20be:	91 05       	cpc	r25, r1
    20c0:	f1 f4       	brne	.+60     	; 0x20fe <nrk_gpio_direction+0x122>
    20c2:	14 c0       	rjmp	.+40     	; 0x20ec <nrk_gpio_direction+0x110>
    20c4:	8a b3       	in	r24, 0x1a	; 26
    20c6:	82 2b       	or	r24, r18
    20c8:	8a bb       	out	0x1a, r24	; 26
    20ca:	15 c0       	rjmp	.+42     	; 0x20f6 <nrk_gpio_direction+0x11a>
    20cc:	87 b3       	in	r24, 0x17	; 23
    20ce:	82 2b       	or	r24, r18
    20d0:	87 bb       	out	0x17, r24	; 23
    20d2:	11 c0       	rjmp	.+34     	; 0x20f6 <nrk_gpio_direction+0x11a>
    20d4:	84 b3       	in	r24, 0x14	; 20
    20d6:	82 2b       	or	r24, r18
    20d8:	84 bb       	out	0x14, r24	; 20
    20da:	0d c0       	rjmp	.+26     	; 0x20f6 <nrk_gpio_direction+0x11a>
    20dc:	81 b3       	in	r24, 0x11	; 17
    20de:	82 2b       	or	r24, r18
    20e0:	81 bb       	out	0x11, r24	; 17
    20e2:	09 c0       	rjmp	.+18     	; 0x20f6 <nrk_gpio_direction+0x11a>
    20e4:	82 b1       	in	r24, 0x02	; 2
    20e6:	82 2b       	or	r24, r18
    20e8:	82 b9       	out	0x02, r24	; 2
    20ea:	05 c0       	rjmp	.+10     	; 0x20f6 <nrk_gpio_direction+0x11a>
    20ec:	80 91 61 00 	lds	r24, 0x0061
    20f0:	82 2b       	or	r24, r18
    20f2:	80 93 61 00 	sts	0x0061, r24
    20f6:	81 e0       	ldi	r24, 0x01	; 1
    20f8:	08 95       	ret
    20fa:	8f ef       	ldi	r24, 0xFF	; 255
    20fc:	08 95       	ret
    20fe:	8f ef       	ldi	r24, 0xFF	; 255
    2100:	08 95       	ret

00002102 <nrk_get_button>:
    2102:	8f ef       	ldi	r24, 0xFF	; 255
    2104:	08 95       	ret

00002106 <nrk_led_toggle>:
    2106:	00 97       	sbiw	r24, 0x00	; 0
    2108:	11 f4       	brne	.+4      	; 0x210e <nrk_led_toggle+0x8>
    210a:	80 e0       	ldi	r24, 0x00	; 0
    210c:	09 c0       	rjmp	.+18     	; 0x2120 <nrk_led_toggle+0x1a>
    210e:	81 30       	cpi	r24, 0x01	; 1
    2110:	91 05       	cpc	r25, r1
    2112:	11 f4       	brne	.+4      	; 0x2118 <nrk_led_toggle+0x12>
    2114:	88 e0       	ldi	r24, 0x08	; 8
    2116:	04 c0       	rjmp	.+8      	; 0x2120 <nrk_led_toggle+0x1a>
    2118:	82 30       	cpi	r24, 0x02	; 2
    211a:	91 05       	cpc	r25, r1
    211c:	29 f4       	brne	.+10     	; 0x2128 <nrk_led_toggle+0x22>
    211e:	80 e1       	ldi	r24, 0x10	; 16
    2120:	0e 94 a8 0f 	call	0x1f50	; 0x1f50 <nrk_gpio_toggle>
    2124:	81 e0       	ldi	r24, 0x01	; 1
    2126:	08 95       	ret
    2128:	8f ef       	ldi	r24, 0xFF	; 255
    212a:	08 95       	ret

0000212c <nrk_led_clr>:
    212c:	00 97       	sbiw	r24, 0x00	; 0
    212e:	11 f4       	brne	.+4      	; 0x2134 <nrk_led_clr+0x8>
    2130:	80 e0       	ldi	r24, 0x00	; 0
    2132:	09 c0       	rjmp	.+18     	; 0x2146 <nrk_led_clr+0x1a>
    2134:	81 30       	cpi	r24, 0x01	; 1
    2136:	91 05       	cpc	r25, r1
    2138:	11 f4       	brne	.+4      	; 0x213e <nrk_led_clr+0x12>
    213a:	88 e0       	ldi	r24, 0x08	; 8
    213c:	04 c0       	rjmp	.+8      	; 0x2146 <nrk_led_clr+0x1a>
    213e:	82 30       	cpi	r24, 0x02	; 2
    2140:	91 05       	cpc	r25, r1
    2142:	29 f4       	brne	.+10     	; 0x214e <nrk_led_clr+0x22>
    2144:	80 e1       	ldi	r24, 0x10	; 16
    2146:	0e 94 db 0e 	call	0x1db6	; 0x1db6 <nrk_gpio_set>
    214a:	81 e0       	ldi	r24, 0x01	; 1
    214c:	08 95       	ret
    214e:	8f ef       	ldi	r24, 0xFF	; 255
    2150:	08 95       	ret

00002152 <nrk_setup_ports>:
    2152:	80 b5       	in	r24, 0x20	; 32
    2154:	84 60       	ori	r24, 0x04	; 4
    2156:	80 bd       	out	0x20, r24	; 32
    2158:	87 e0       	ldi	r24, 0x07	; 7
    215a:	87 bb       	out	0x17, r24	; 23
    215c:	88 bb       	out	0x18, r24	; 24
    215e:	8f ef       	ldi	r24, 0xFF	; 255
    2160:	84 bb       	out	0x14, r24	; 20
    2162:	15 ba       	out	0x15, r1	; 21
    2164:	82 e0       	ldi	r24, 0x02	; 2
    2166:	82 b9       	out	0x02, r24	; 2
    2168:	87 e6       	ldi	r24, 0x67	; 103
    216a:	8a bb       	out	0x1a, r24	; 26
    216c:	80 e4       	ldi	r24, 0x40	; 64
    216e:	8b bb       	out	0x1b, r24	; 27
    2170:	80 e5       	ldi	r24, 0x50	; 80
    2172:	8d b9       	out	0x0d, r24	; 13
    2174:	81 e0       	ldi	r24, 0x01	; 1
    2176:	8e b9       	out	0x0e, r24	; 14
    2178:	80 e0       	ldi	r24, 0x00	; 0
    217a:	90 e0       	ldi	r25, 0x00	; 0
    217c:	0e 94 96 10 	call	0x212c	; 0x212c <nrk_led_clr>
    2180:	81 e0       	ldi	r24, 0x01	; 1
    2182:	90 e0       	ldi	r25, 0x00	; 0
    2184:	0e 94 96 10 	call	0x212c	; 0x212c <nrk_led_clr>
    2188:	82 e0       	ldi	r24, 0x02	; 2
    218a:	90 e0       	ldi	r25, 0x00	; 0
    218c:	0e 94 96 10 	call	0x212c	; 0x212c <nrk_led_clr>
    2190:	83 e0       	ldi	r24, 0x03	; 3
    2192:	90 e0       	ldi	r25, 0x00	; 0
    2194:	0e 94 96 10 	call	0x212c	; 0x212c <nrk_led_clr>
    2198:	08 95       	ret

0000219a <nrk_led_set>:
    219a:	00 97       	sbiw	r24, 0x00	; 0
    219c:	11 f4       	brne	.+4      	; 0x21a2 <nrk_led_set+0x8>
    219e:	80 e0       	ldi	r24, 0x00	; 0
    21a0:	09 c0       	rjmp	.+18     	; 0x21b4 <nrk_led_set+0x1a>
    21a2:	81 30       	cpi	r24, 0x01	; 1
    21a4:	91 05       	cpc	r25, r1
    21a6:	11 f4       	brne	.+4      	; 0x21ac <nrk_led_set+0x12>
    21a8:	88 e0       	ldi	r24, 0x08	; 8
    21aa:	04 c0       	rjmp	.+8      	; 0x21b4 <nrk_led_set+0x1a>
    21ac:	82 30       	cpi	r24, 0x02	; 2
    21ae:	91 05       	cpc	r25, r1
    21b0:	29 f4       	brne	.+10     	; 0x21bc <nrk_led_set+0x22>
    21b2:	80 e1       	ldi	r24, 0x10	; 16
    21b4:	0e 94 21 0f 	call	0x1e42	; 0x1e42 <nrk_gpio_clr>
    21b8:	81 e0       	ldi	r24, 0x01	; 1
    21ba:	08 95       	ret
    21bc:	8f ef       	ldi	r24, 0xFF	; 255
    21be:	08 95       	ret

000021c0 <putc1>:
    21c0:	90 91 9b 00 	lds	r25, 0x009B
    21c4:	95 ff       	sbrs	r25, 5
    21c6:	fc cf       	rjmp	.-8      	; 0x21c0 <putc1>
    21c8:	90 91 9b 00 	lds	r25, 0x009B
    21cc:	9f 7d       	andi	r25, 0xDF	; 223
    21ce:	90 93 9b 00 	sts	0x009B, r25
    21d2:	80 93 9c 00 	sts	0x009C, r24
    21d6:	08 95       	ret

000021d8 <setup_uart0>:
    21d8:	90 93 90 00 	sts	0x0090, r25
    21dc:	89 b9       	out	0x09, r24	; 9
    21de:	86 e0       	ldi	r24, 0x06	; 6
    21e0:	80 93 95 00 	sts	0x0095, r24
    21e4:	52 98       	cbi	0x0a, 2	; 10
    21e6:	59 9a       	sbi	0x0b, 1	; 11
    21e8:	8a b1       	in	r24, 0x0a	; 10
    21ea:	88 61       	ori	r24, 0x18	; 24
    21ec:	8a b9       	out	0x0a, r24	; 10
    21ee:	08 95       	ret

000021f0 <nrk_setup_uart>:
    21f0:	0f 93       	push	r16
    21f2:	1f 93       	push	r17
    21f4:	cf 93       	push	r28
    21f6:	df 93       	push	r29
    21f8:	0e 94 ec 10 	call	0x21d8	; 0x21d8 <setup_uart0>
    21fc:	c3 eb       	ldi	r28, 0xB3	; 179
    21fe:	de e0       	ldi	r29, 0x0E	; 14
    2200:	0e ea       	ldi	r16, 0xAE	; 174
    2202:	1e e0       	ldi	r17, 0x0E	; 14
    2204:	ce 01       	movw	r24, r28
    2206:	b8 01       	movw	r22, r16
    2208:	0e 94 78 3f 	call	0x7ef0	; 0x7ef0 <fdevopen>
    220c:	90 93 0d 05 	sts	0x050D, r25
    2210:	80 93 0c 05 	sts	0x050C, r24
    2214:	ce 01       	movw	r24, r28
    2216:	b8 01       	movw	r22, r16
    2218:	0e 94 78 3f 	call	0x7ef0	; 0x7ef0 <fdevopen>
    221c:	90 93 0b 05 	sts	0x050B, r25
    2220:	80 93 0a 05 	sts	0x050A, r24
    2224:	df 91       	pop	r29
    2226:	cf 91       	pop	r28
    2228:	1f 91       	pop	r17
    222a:	0f 91       	pop	r16
    222c:	08 95       	ret

0000222e <setup_uart1>:
    222e:	90 93 98 00 	sts	0x0098, r25
    2232:	80 93 99 00 	sts	0x0099, r24
    2236:	86 e0       	ldi	r24, 0x06	; 6
    2238:	80 93 9d 00 	sts	0x009D, r24
    223c:	ea e9       	ldi	r30, 0x9A	; 154
    223e:	f0 e0       	ldi	r31, 0x00	; 0
    2240:	80 81       	ld	r24, Z
    2242:	8b 7f       	andi	r24, 0xFB	; 251
    2244:	80 83       	st	Z, r24
    2246:	ab e9       	ldi	r26, 0x9B	; 155
    2248:	b0 e0       	ldi	r27, 0x00	; 0
    224a:	8c 91       	ld	r24, X
    224c:	82 60       	ori	r24, 0x02	; 2
    224e:	8c 93       	st	X, r24
    2250:	80 81       	ld	r24, Z
    2252:	88 61       	ori	r24, 0x18	; 24
    2254:	80 83       	st	Z, r24
    2256:	08 95       	ret

00002258 <getc1>:
    2258:	80 91 9b 00 	lds	r24, 0x009B
    225c:	87 ff       	sbrs	r24, 7
    225e:	fc cf       	rjmp	.-8      	; 0x2258 <getc1>
    2260:	80 91 9b 00 	lds	r24, 0x009B
    2264:	8f 77       	andi	r24, 0x7F	; 127
    2266:	80 93 9b 00 	sts	0x009B, r24
    226a:	80 91 9c 00 	lds	r24, 0x009C
    226e:	08 95       	ret

00002270 <halWait>:
    2270:	00 00       	nop
    2272:	00 00       	nop
    2274:	00 00       	nop
    2276:	00 00       	nop
    2278:	01 97       	sbiw	r24, 0x01	; 1
    227a:	d1 f7       	brne	.-12     	; 0x2270 <halWait>
    227c:	08 95       	ret

0000227e <nrk_eeprom_read_byte>:
    227e:	0e 94 d1 40 	call	0x81a2	; 0x81a2 <__eerd_byte_m128>
    2282:	08 95       	ret

00002284 <nrk_eeprom_write_byte>:
    2284:	0e 94 d9 40 	call	0x81b2	; 0x81b2 <__eewr_byte_m128>
    2288:	80 e0       	ldi	r24, 0x00	; 0
    228a:	08 95       	ret

0000228c <read_eeprom_mac_address>:
    228c:	ef 92       	push	r14
    228e:	ff 92       	push	r15
    2290:	0f 93       	push	r16
    2292:	1f 93       	push	r17
    2294:	cf 93       	push	r28
    2296:	df 93       	push	r29
    2298:	e8 2e       	mov	r14, r24
    229a:	e7 01       	movw	r28, r14
    229c:	7e 01       	movw	r14, r28
    229e:	f9 2e       	mov	r15, r25
    22a0:	e7 01       	movw	r28, r14
    22a2:	80 e0       	ldi	r24, 0x00	; 0
    22a4:	90 e0       	ldi	r25, 0x00	; 0
    22a6:	0e 94 d1 40 	call	0x81a2	; 0x81a2 <__eerd_byte_m128>
    22aa:	08 2f       	mov	r16, r24
    22ac:	8b 83       	std	Y+3, r24	; 0x03
    22ae:	81 e0       	ldi	r24, 0x01	; 1
    22b0:	90 e0       	ldi	r25, 0x00	; 0
    22b2:	0e 94 d1 40 	call	0x81a2	; 0x81a2 <__eerd_byte_m128>
    22b6:	e8 2e       	mov	r14, r24
    22b8:	8a 83       	std	Y+2, r24	; 0x02
    22ba:	82 e0       	ldi	r24, 0x02	; 2
    22bc:	90 e0       	ldi	r25, 0x00	; 0
    22be:	0e 94 d1 40 	call	0x81a2	; 0x81a2 <__eerd_byte_m128>
    22c2:	f8 2e       	mov	r15, r24
    22c4:	89 83       	std	Y+1, r24	; 0x01
    22c6:	83 e0       	ldi	r24, 0x03	; 3
    22c8:	90 e0       	ldi	r25, 0x00	; 0
    22ca:	0e 94 d1 40 	call	0x81a2	; 0x81a2 <__eerd_byte_m128>
    22ce:	18 2f       	mov	r17, r24
    22d0:	88 83       	st	Y, r24
    22d2:	84 e0       	ldi	r24, 0x04	; 4
    22d4:	90 e0       	ldi	r25, 0x00	; 0
    22d6:	0e 94 d1 40 	call	0x81a2	; 0x81a2 <__eerd_byte_m128>
    22da:	fe 0c       	add	r15, r14
    22dc:	f0 0e       	add	r15, r16
    22de:	f1 0e       	add	r15, r17
    22e0:	8f 15       	cp	r24, r15
    22e2:	11 f4       	brne	.+4      	; 0x22e8 <read_eeprom_mac_address+0x5c>
    22e4:	81 e0       	ldi	r24, 0x01	; 1
    22e6:	01 c0       	rjmp	.+2      	; 0x22ea <read_eeprom_mac_address+0x5e>
    22e8:	8f ef       	ldi	r24, 0xFF	; 255
    22ea:	df 91       	pop	r29
    22ec:	cf 91       	pop	r28
    22ee:	1f 91       	pop	r17
    22f0:	0f 91       	pop	r16
    22f2:	ff 90       	pop	r15
    22f4:	ef 90       	pop	r14
    22f6:	08 95       	ret

000022f8 <read_eeprom_channel>:
    22f8:	cf 93       	push	r28
    22fa:	df 93       	push	r29
    22fc:	ec 01       	movw	r28, r24
    22fe:	85 e0       	ldi	r24, 0x05	; 5
    2300:	90 e0       	ldi	r25, 0x00	; 0
    2302:	0e 94 d1 40 	call	0x81a2	; 0x81a2 <__eerd_byte_m128>
    2306:	88 83       	st	Y, r24
    2308:	81 e0       	ldi	r24, 0x01	; 1
    230a:	df 91       	pop	r29
    230c:	cf 91       	pop	r28
    230e:	08 95       	ret

00002310 <write_eeprom_load_img_pages>:
    2310:	fc 01       	movw	r30, r24
    2312:	86 e0       	ldi	r24, 0x06	; 6
    2314:	90 e0       	ldi	r25, 0x00	; 0
    2316:	60 81       	ld	r22, Z
    2318:	0e 94 d9 40 	call	0x81b2	; 0x81b2 <__eewr_byte_m128>
    231c:	81 e0       	ldi	r24, 0x01	; 1
    231e:	08 95       	ret

00002320 <read_eeprom_load_img_pages>:
    2320:	cf 93       	push	r28
    2322:	df 93       	push	r29
    2324:	ec 01       	movw	r28, r24
    2326:	86 e0       	ldi	r24, 0x06	; 6
    2328:	90 e0       	ldi	r25, 0x00	; 0
    232a:	0e 94 d1 40 	call	0x81a2	; 0x81a2 <__eerd_byte_m128>
    232e:	88 83       	st	Y, r24
    2330:	81 e0       	ldi	r24, 0x01	; 1
    2332:	df 91       	pop	r29
    2334:	cf 91       	pop	r28
    2336:	08 95       	ret

00002338 <read_eeprom_aes_key>:
    2338:	0f 93       	push	r16
    233a:	1f 93       	push	r17
    233c:	cf 93       	push	r28
    233e:	df 93       	push	r29
    2340:	08 2f       	mov	r16, r24
    2342:	19 2f       	mov	r17, r25
    2344:	c8 e0       	ldi	r28, 0x08	; 8
    2346:	d0 e0       	ldi	r29, 0x00	; 0
    2348:	ce 01       	movw	r24, r28
    234a:	0e 94 d1 40 	call	0x81a2	; 0x81a2 <__eerd_byte_m128>
    234e:	f8 01       	movw	r30, r16
    2350:	81 93       	st	Z+, r24
    2352:	8f 01       	movw	r16, r30
    2354:	21 96       	adiw	r28, 0x01	; 1
    2356:	c8 31       	cpi	r28, 0x18	; 24
    2358:	d1 05       	cpc	r29, r1
    235a:	b1 f7       	brne	.-20     	; 0x2348 <read_eeprom_aes_key+0x10>
    235c:	81 e0       	ldi	r24, 0x01	; 1
    235e:	df 91       	pop	r29
    2360:	cf 91       	pop	r28
    2362:	1f 91       	pop	r17
    2364:	0f 91       	pop	r16
    2366:	08 95       	ret

00002368 <write_eeprom_aes_key>:
    2368:	0f 93       	push	r16
    236a:	1f 93       	push	r17
    236c:	cf 93       	push	r28
    236e:	df 93       	push	r29
    2370:	08 2f       	mov	r16, r24
    2372:	19 2f       	mov	r17, r25
    2374:	c8 e0       	ldi	r28, 0x08	; 8
    2376:	d0 e0       	ldi	r29, 0x00	; 0
    2378:	f8 01       	movw	r30, r16
    237a:	61 91       	ld	r22, Z+
    237c:	8f 01       	movw	r16, r30
    237e:	ce 01       	movw	r24, r28
    2380:	0e 94 d9 40 	call	0x81b2	; 0x81b2 <__eewr_byte_m128>
    2384:	21 96       	adiw	r28, 0x01	; 1
    2386:	c8 31       	cpi	r28, 0x18	; 24
    2388:	d1 05       	cpc	r29, r1
    238a:	b1 f7       	brne	.-20     	; 0x2378 <write_eeprom_aes_key+0x10>
    238c:	81 e0       	ldi	r24, 0x01	; 1
    238e:	df 91       	pop	r29
    2390:	cf 91       	pop	r28
    2392:	1f 91       	pop	r17
    2394:	0f 91       	pop	r16
    2396:	08 95       	ret

00002398 <read_eeprom_current_image_checksum>:
    2398:	cf 93       	push	r28
    239a:	df 93       	push	r29
    239c:	ec 01       	movw	r28, r24
    239e:	87 e0       	ldi	r24, 0x07	; 7
    23a0:	90 e0       	ldi	r25, 0x00	; 0
    23a2:	0e 94 d1 40 	call	0x81a2	; 0x81a2 <__eerd_byte_m128>
    23a6:	88 83       	st	Y, r24
    23a8:	81 e0       	ldi	r24, 0x01	; 1
    23aa:	df 91       	pop	r29
    23ac:	cf 91       	pop	r28
    23ae:	08 95       	ret

000023b0 <write_eeprom_current_image_checksum>:
    23b0:	fc 01       	movw	r30, r24
    23b2:	87 e0       	ldi	r24, 0x07	; 7
    23b4:	90 e0       	ldi	r25, 0x00	; 0
    23b6:	60 81       	ld	r22, Z
    23b8:	0e 94 d9 40 	call	0x81b2	; 0x81b2 <__eewr_byte_m128>
    23bc:	81 e0       	ldi	r24, 0x01	; 1
    23be:	08 95       	ret

000023c0 <nrk_int_disable>:
    23c0:	f8 94       	cli
    23c2:	08 95       	ret

000023c4 <nrk_int_enable>:
    23c4:	78 94       	sei
    23c6:	08 95       	ret

000023c8 <nrk_halt>:
    23c8:	0e 94 e0 11 	call	0x23c0	; 0x23c0 <nrk_int_disable>
    23cc:	ff cf       	rjmp	.-2      	; 0x23cc <nrk_halt+0x4>

000023ce <nrk_init>:
    23ce:	0f 93       	push	r16
    23d0:	1f 93       	push	r17
    23d2:	df 93       	push	r29
    23d4:	cf 93       	push	r28
    23d6:	cd b7       	in	r28, 0x3d	; 61
    23d8:	de b7       	in	r29, 0x3e	; 62
    23da:	a3 97       	sbiw	r28, 0x23	; 35
    23dc:	0f b6       	in	r0, 0x3f	; 63
    23de:	f8 94       	cli
    23e0:	de bf       	out	0x3e, r29	; 62
    23e2:	0f be       	out	0x3f, r0	; 63
    23e4:	cd bf       	out	0x3d, r28	; 61
    23e6:	0e 94 32 17 	call	0x2e64	; 0x2e64 <nrk_signal_create>
    23ea:	80 93 cb 04 	sts	0x04CB, r24
    23ee:	8f 3f       	cpi	r24, 0xFF	; 255
    23f0:	21 f4       	brne	.+8      	; 0x23fa <nrk_init+0x2c>
    23f2:	8e e0       	ldi	r24, 0x0E	; 14
    23f4:	60 e0       	ldi	r22, 0x00	; 0
    23f6:	0e 94 ba 15 	call	0x2b74	; 0x2b74 <nrk_kernel_error_add>
    23fa:	0e 94 15 24 	call	0x482a	; 0x482a <_nrk_startup_error>
    23fe:	80 ff       	sbrs	r24, 0
    2400:	04 c0       	rjmp	.+8      	; 0x240a <nrk_init+0x3c>
    2402:	86 e0       	ldi	r24, 0x06	; 6
    2404:	60 e0       	ldi	r22, 0x00	; 0
    2406:	0e 94 ba 15 	call	0x2b74	; 0x2b74 <nrk_kernel_error_add>
    240a:	0e 94 85 24 	call	0x490a	; 0x490a <nrk_watchdog_check>
    240e:	8f 3f       	cpi	r24, 0xFF	; 255
    2410:	31 f4       	brne	.+12     	; 0x241e <nrk_init+0x50>
    2412:	0e 94 6a 24 	call	0x48d4	; 0x48d4 <nrk_watchdog_disable>
    2416:	80 e1       	ldi	r24, 0x10	; 16
    2418:	60 e0       	ldi	r22, 0x00	; 0
    241a:	0e 94 ba 15 	call	0x2b74	; 0x2b74 <nrk_kernel_error_add>
    241e:	0e 94 77 24 	call	0x48ee	; 0x48ee <nrk_watchdog_enable>
    2422:	10 92 ce 04 	sts	0x04CE, r1
    2426:	10 92 dc 04 	sts	0x04DC, r1
    242a:	10 92 db 04 	sts	0x04DB, r1
    242e:	10 92 cd 04 	sts	0x04CD, r1
    2432:	10 92 cc 04 	sts	0x04CC, r1
    2436:	10 92 dd 04 	sts	0x04DD, r1
    243a:	10 92 da 04 	sts	0x04DA, r1
    243e:	8f ef       	ldi	r24, 0xFF	; 255
    2440:	80 93 c7 04 	sts	0x04C7, r24
    2444:	80 93 c9 04 	sts	0x04C9, r24
    2448:	80 93 c8 04 	sts	0x04C8, r24
    244c:	93 e6       	ldi	r25, 0x63	; 99
    244e:	90 93 2a 04 	sts	0x042A, r25
    2452:	80 93 28 04 	sts	0x0428, r24
    2456:	90 93 4b 04 	sts	0x044B, r25
    245a:	80 93 49 04 	sts	0x0449, r24
    245e:	90 93 6c 04 	sts	0x046C, r25
    2462:	80 93 6a 04 	sts	0x046A, r24
    2466:	90 93 8d 04 	sts	0x048D, r25
    246a:	80 93 8b 04 	sts	0x048B, r24
    246e:	90 93 ae 04 	sts	0x04AE, r25
    2472:	80 93 ac 04 	sts	0x04AC, r24
    2476:	e1 ee       	ldi	r30, 0xE1	; 225
    2478:	f4 e0       	ldi	r31, 0x04	; 4
    247a:	20 e0       	ldi	r18, 0x00	; 0
    247c:	30 e0       	ldi	r19, 0x00	; 0
    247e:	01 c0       	rjmp	.+2      	; 0x2482 <nrk_init+0xb4>
    2480:	9a 01       	movw	r18, r20
    2482:	a9 01       	movw	r20, r18
    2484:	4f 5f       	subi	r20, 0xFF	; 255
    2486:	5f 4f       	sbci	r21, 0xFF	; 255
    2488:	ca 01       	movw	r24, r20
    248a:	88 0f       	add	r24, r24
    248c:	99 1f       	adc	r25, r25
    248e:	88 0f       	add	r24, r24
    2490:	99 1f       	adc	r25, r25
    2492:	84 0f       	add	r24, r20
    2494:	95 1f       	adc	r25, r21
    2496:	82 52       	subi	r24, 0x22	; 34
    2498:	9b 4f       	sbci	r25, 0xFB	; 251
    249a:	91 83       	std	Z+1, r25	; 0x01
    249c:	80 83       	st	Z, r24
    249e:	c9 01       	movw	r24, r18
    24a0:	88 0f       	add	r24, r24
    24a2:	99 1f       	adc	r25, r25
    24a4:	88 0f       	add	r24, r24
    24a6:	99 1f       	adc	r25, r25
    24a8:	82 0f       	add	r24, r18
    24aa:	93 1f       	adc	r25, r19
    24ac:	82 52       	subi	r24, 0x22	; 34
    24ae:	9b 4f       	sbci	r25, 0xFB	; 251
    24b0:	94 83       	std	Z+4, r25	; 0x04
    24b2:	83 83       	std	Z+3, r24	; 0x03
    24b4:	35 96       	adiw	r30, 0x05	; 5
    24b6:	45 30       	cpi	r20, 0x05	; 5
    24b8:	51 05       	cpc	r21, r1
    24ba:	11 f7       	brne	.-60     	; 0x2480 <nrk_init+0xb2>
    24bc:	10 92 e0 04 	sts	0x04E0, r1
    24c0:	10 92 df 04 	sts	0x04DF, r1
    24c4:	10 92 fb 04 	sts	0x04FB, r1
    24c8:	10 92 fa 04 	sts	0x04FA, r1
    24cc:	10 92 d1 04 	sts	0x04D1, r1
    24d0:	10 92 d0 04 	sts	0x04D0, r1
    24d4:	8e ed       	ldi	r24, 0xDE	; 222
    24d6:	94 e0       	ldi	r25, 0x04	; 4
    24d8:	90 93 1f 04 	sts	0x041F, r25
    24dc:	80 93 1e 04 	sts	0x041E, r24
    24e0:	8e 01       	movw	r16, r28
    24e2:	0f 5f       	subi	r16, 0xFF	; 255
    24e4:	1f 4f       	sbci	r17, 0xFF	; 255
    24e6:	c8 01       	movw	r24, r16
    24e8:	64 e4       	ldi	r22, 0x44	; 68
    24ea:	70 e2       	ldi	r23, 0x20	; 32
    24ec:	0e 94 8f 24 	call	0x491e	; 0x491e <nrk_task_set_entry_function>
    24f0:	c8 01       	movw	r24, r16
    24f2:	63 e8       	ldi	r22, 0x83	; 131
    24f4:	73 e0       	ldi	r23, 0x03	; 3
    24f6:	40 e8       	ldi	r20, 0x80	; 128
    24f8:	50 e0       	ldi	r21, 0x00	; 0
    24fa:	0e 94 d5 24 	call	0x49aa	; 0x49aa <nrk_task_set_stk>
    24fe:	85 e5       	ldi	r24, 0x55	; 85
    2500:	80 93 83 03 	sts	0x0383, r24
    2504:	19 86       	std	Y+9, r1	; 0x09
    2506:	1c 86       	std	Y+12, r1	; 0x0c
    2508:	1d 86       	std	Y+13, r1	; 0x0d
    250a:	1e 86       	std	Y+14, r1	; 0x0e
    250c:	1f 86       	std	Y+15, r1	; 0x0f
    250e:	18 8a       	std	Y+16, r1	; 0x10
    2510:	19 8a       	std	Y+17, r1	; 0x11
    2512:	1a 8a       	std	Y+18, r1	; 0x12
    2514:	1b 8a       	std	Y+19, r1	; 0x13
    2516:	1c 8a       	std	Y+20, r1	; 0x14
    2518:	1d 8a       	std	Y+21, r1	; 0x15
    251a:	1e 8a       	std	Y+22, r1	; 0x16
    251c:	1f 8a       	std	Y+23, r1	; 0x17
    251e:	18 8e       	std	Y+24, r1	; 0x18
    2520:	19 8e       	std	Y+25, r1	; 0x19
    2522:	1a 8e       	std	Y+26, r1	; 0x1a
    2524:	1b 8e       	std	Y+27, r1	; 0x1b
    2526:	1c 8e       	std	Y+28, r1	; 0x1c
    2528:	1d 8e       	std	Y+29, r1	; 0x1d
    252a:	1e 8e       	std	Y+30, r1	; 0x1e
    252c:	1f 8e       	std	Y+31, r1	; 0x1f
    252e:	18 a2       	std	Y+32, r1	; 0x20
    2530:	19 a2       	std	Y+33, r1	; 0x21
    2532:	1a a2       	std	Y+34, r1	; 0x22
    2534:	1b a2       	std	Y+35, r1	; 0x23
    2536:	81 e0       	ldi	r24, 0x01	; 1
    2538:	88 87       	std	Y+8, r24	; 0x08
    253a:	92 e0       	ldi	r25, 0x02	; 2
    253c:	9a 87       	std	Y+10, r25	; 0x0a
    253e:	8b 87       	std	Y+11, r24	; 0x0b
    2540:	c8 01       	movw	r24, r16
    2542:	0e 94 2c 1b 	call	0x3658	; 0x3658 <nrk_activate_task>
    2546:	a3 96       	adiw	r28, 0x23	; 35
    2548:	0f b6       	in	r0, 0x3f	; 63
    254a:	f8 94       	cli
    254c:	de bf       	out	0x3e, r29	; 62
    254e:	0f be       	out	0x3f, r0	; 63
    2550:	cd bf       	out	0x3d, r28	; 61
    2552:	cf 91       	pop	r28
    2554:	df 91       	pop	r29
    2556:	1f 91       	pop	r17
    2558:	0f 91       	pop	r16
    255a:	08 95       	ret

0000255c <nrk_start>:
    255c:	cf 92       	push	r12
    255e:	df 92       	push	r13
    2560:	ff 92       	push	r15
    2562:	0f 93       	push	r16
    2564:	1f 93       	push	r17
    2566:	df 93       	push	r29
    2568:	cf 93       	push	r28
    256a:	00 d0       	rcall	.+0      	; 0x256c <nrk_start+0x10>
    256c:	cd b7       	in	r28, 0x3d	; 61
    256e:	de b7       	in	r29, 0x3e	; 62
    2570:	b8 e2       	ldi	r27, 0x28	; 40
    2572:	cb 2e       	mov	r12, r27
    2574:	b4 e0       	ldi	r27, 0x04	; 4
    2576:	db 2e       	mov	r13, r27
    2578:	90 e0       	ldi	r25, 0x00	; 0
    257a:	f6 01       	movw	r30, r12
    257c:	f0 80       	ld	r15, Z
    257e:	ff 2d       	mov	r31, r15
    2580:	ff 3f       	cpi	r31, 0xFF	; 255
    2582:	b1 f0       	breq	.+44     	; 0x25b0 <nrk_start+0x54>
    2584:	08 e2       	ldi	r16, 0x28	; 40
    2586:	14 e0       	ldi	r17, 0x04	; 4
    2588:	20 e0       	ldi	r18, 0x00	; 0
    258a:	92 17       	cp	r25, r18
    258c:	61 f0       	breq	.+24     	; 0x25a6 <nrk_start+0x4a>
    258e:	f8 01       	movw	r30, r16
    2590:	80 81       	ld	r24, Z
    2592:	f8 16       	cp	r15, r24
    2594:	41 f4       	brne	.+16     	; 0x25a6 <nrk_start+0x4a>
    2596:	85 e0       	ldi	r24, 0x05	; 5
    2598:	6f 2d       	mov	r22, r15
    259a:	29 83       	std	Y+1, r18	; 0x01
    259c:	9a 83       	std	Y+2, r25	; 0x02
    259e:	0e 94 ba 15 	call	0x2b74	; 0x2b74 <nrk_kernel_error_add>
    25a2:	9a 81       	ldd	r25, Y+2	; 0x02
    25a4:	29 81       	ldd	r18, Y+1	; 0x01
    25a6:	2f 5f       	subi	r18, 0xFF	; 255
    25a8:	0f 5d       	subi	r16, 0xDF	; 223
    25aa:	1f 4f       	sbci	r17, 0xFF	; 255
    25ac:	25 30       	cpi	r18, 0x05	; 5
    25ae:	69 f7       	brne	.-38     	; 0x258a <nrk_start+0x2e>
    25b0:	9f 5f       	subi	r25, 0xFF	; 255
    25b2:	21 e2       	ldi	r18, 0x21	; 33
    25b4:	30 e0       	ldi	r19, 0x00	; 0
    25b6:	c2 0e       	add	r12, r18
    25b8:	d3 1e       	adc	r13, r19
    25ba:	95 30       	cpi	r25, 0x05	; 5
    25bc:	f1 f6       	brne	.-68     	; 0x257a <nrk_start+0x1e>
    25be:	0e 94 1a 1a 	call	0x3434	; 0x3434 <nrk_get_high_ready_task_ID>
    25c2:	99 27       	eor	r25, r25
    25c4:	87 fd       	sbrc	r24, 7
    25c6:	90 95       	com	r25
    25c8:	fc 01       	movw	r30, r24
    25ca:	a5 e0       	ldi	r26, 0x05	; 5
    25cc:	ee 0f       	add	r30, r30
    25ce:	ff 1f       	adc	r31, r31
    25d0:	aa 95       	dec	r26
    25d2:	e1 f7       	brne	.-8      	; 0x25cc <nrk_start+0x70>
    25d4:	e8 0f       	add	r30, r24
    25d6:	f9 1f       	adc	r31, r25
    25d8:	e0 5e       	subi	r30, 0xE0	; 224
    25da:	fb 4f       	sbci	r31, 0xFB	; 251
    25dc:	82 85       	ldd	r24, Z+10	; 0x0a
    25de:	80 93 dd 04 	sts	0x04DD, r24
    25e2:	f0 93 dc 04 	sts	0x04DC, r31
    25e6:	e0 93 db 04 	sts	0x04DB, r30
    25ea:	f0 93 cd 04 	sts	0x04CD, r31
    25ee:	e0 93 cc 04 	sts	0x04CC, r30
    25f2:	80 93 ce 04 	sts	0x04CE, r24
    25f6:	0e 94 0a 25 	call	0x4a14	; 0x4a14 <nrk_target_start>
    25fa:	0e 94 fb 24 	call	0x49f6	; 0x49f6 <nrk_stack_pointer_init>
    25fe:	0e 94 57 30 	call	0x60ae	; 0x60ae <nrk_start_high_ready_task>
    2602:	ff cf       	rjmp	.-2      	; 0x2602 <nrk_start+0xa6>

00002604 <nrk_TCB_init>:
    2604:	ef 92       	push	r14
    2606:	ff 92       	push	r15
    2608:	0f 93       	push	r16
    260a:	1f 93       	push	r17
    260c:	cf 93       	push	r28
    260e:	df 93       	push	r29
    2610:	ec 01       	movw	r28, r24
    2612:	7b 01       	movw	r14, r22
    2614:	8a 01       	movw	r16, r20
    2616:	89 85       	ldd	r24, Y+9	; 0x09
    2618:	82 30       	cpi	r24, 0x02	; 2
    261a:	21 f0       	breq	.+8      	; 0x2624 <nrk_TCB_init+0x20>
    261c:	80 91 ca 04 	lds	r24, 0x04CA
    2620:	88 83       	st	Y, r24
    2622:	01 c0       	rjmp	.+2      	; 0x2626 <nrk_TCB_init+0x22>
    2624:	18 82       	st	Y, r1
    2626:	80 91 ca 04 	lds	r24, 0x04CA
    262a:	85 30       	cpi	r24, 0x05	; 5
    262c:	20 f0       	brcs	.+8      	; 0x2636 <nrk_TCB_init+0x32>
    262e:	87 e0       	ldi	r24, 0x07	; 7
    2630:	60 e0       	ldi	r22, 0x00	; 0
    2632:	0e 94 ba 15 	call	0x2b74	; 0x2b74 <nrk_kernel_error_add>
    2636:	89 85       	ldd	r24, Y+9	; 0x09
    2638:	82 30       	cpi	r24, 0x02	; 2
    263a:	29 f0       	breq	.+10     	; 0x2646 <nrk_TCB_init+0x42>
    263c:	80 91 ca 04 	lds	r24, 0x04CA
    2640:	8f 5f       	subi	r24, 0xFF	; 255
    2642:	80 93 ca 04 	sts	0x04CA, r24
    2646:	80 91 ca 04 	lds	r24, 0x04CA
    264a:	88 23       	and	r24, r24
    264c:	19 f4       	brne	.+6      	; 0x2654 <nrk_TCB_init+0x50>
    264e:	81 e0       	ldi	r24, 0x01	; 1
    2650:	80 93 ca 04 	sts	0x04CA, r24
    2654:	88 81       	ld	r24, Y
    2656:	99 27       	eor	r25, r25
    2658:	87 fd       	sbrc	r24, 7
    265a:	90 95       	com	r25
    265c:	fc 01       	movw	r30, r24
    265e:	a5 e0       	ldi	r26, 0x05	; 5
    2660:	ee 0f       	add	r30, r30
    2662:	ff 1f       	adc	r31, r31
    2664:	aa 95       	dec	r26
    2666:	e1 f7       	brne	.-8      	; 0x2660 <nrk_TCB_init+0x5c>
    2668:	e8 0f       	add	r30, r24
    266a:	f9 1f       	adc	r31, r25
    266c:	e0 5e       	subi	r30, 0xE0	; 224
    266e:	fb 4f       	sbci	r31, 0xFB	; 251
    2670:	f1 82       	std	Z+1, r15	; 0x01
    2672:	e0 82       	st	Z, r14
    2674:	88 85       	ldd	r24, Y+8	; 0x08
    2676:	82 87       	std	Z+10, r24	; 0x0a
    2678:	88 81       	ld	r24, Y
    267a:	99 27       	eor	r25, r25
    267c:	87 fd       	sbrc	r24, 7
    267e:	90 95       	com	r25
    2680:	fc 01       	movw	r30, r24
    2682:	75 e0       	ldi	r23, 0x05	; 5
    2684:	ee 0f       	add	r30, r30
    2686:	ff 1f       	adc	r31, r31
    2688:	7a 95       	dec	r23
    268a:	e1 f7       	brne	.-8      	; 0x2684 <nrk_TCB_init+0x80>
    268c:	e8 0f       	add	r30, r24
    268e:	f9 1f       	adc	r31, r25
    2690:	e0 5e       	subi	r30, 0xE0	; 224
    2692:	fb 4f       	sbci	r31, 0xFB	; 251
    2694:	83 e0       	ldi	r24, 0x03	; 3
    2696:	81 87       	std	Z+9, r24	; 0x09
    2698:	28 81       	ld	r18, Y
    269a:	82 2f       	mov	r24, r18
    269c:	99 27       	eor	r25, r25
    269e:	87 fd       	sbrc	r24, 7
    26a0:	90 95       	com	r25
    26a2:	fc 01       	movw	r30, r24
    26a4:	65 e0       	ldi	r22, 0x05	; 5
    26a6:	ee 0f       	add	r30, r30
    26a8:	ff 1f       	adc	r31, r31
    26aa:	6a 95       	dec	r22
    26ac:	e1 f7       	brne	.-8      	; 0x26a6 <nrk_TCB_init+0xa2>
    26ae:	e8 0f       	add	r30, r24
    26b0:	f9 1f       	adc	r31, r25
    26b2:	e0 5e       	subi	r30, 0xE0	; 224
    26b4:	fb 4f       	sbci	r31, 0xFB	; 251
    26b6:	20 87       	std	Z+8, r18	; 0x08
    26b8:	88 81       	ld	r24, Y
    26ba:	99 27       	eor	r25, r25
    26bc:	87 fd       	sbrc	r24, 7
    26be:	90 95       	com	r25
    26c0:	7c 01       	movw	r14, r24
    26c2:	55 e0       	ldi	r21, 0x05	; 5
    26c4:	ee 0c       	add	r14, r14
    26c6:	ff 1c       	adc	r15, r15
    26c8:	5a 95       	dec	r21
    26ca:	e1 f7       	brne	.-8      	; 0x26c4 <nrk_TCB_init+0xc0>
    26cc:	e8 0e       	add	r14, r24
    26ce:	f9 1e       	adc	r15, r25
    26d0:	80 e2       	ldi	r24, 0x20	; 32
    26d2:	94 e0       	ldi	r25, 0x04	; 4
    26d4:	e8 0e       	add	r14, r24
    26d6:	f9 1e       	adc	r15, r25
    26d8:	f7 01       	movw	r30, r14
    26da:	15 82       	std	Z+5, r1	; 0x05
    26dc:	ce 01       	movw	r24, r28
    26de:	0b 96       	adiw	r24, 0x0b	; 11
    26e0:	0e 94 f5 1e 	call	0x3dea	; 0x3dea <_nrk_time_to_ticks>
    26e4:	f7 01       	movw	r30, r14
    26e6:	94 8f       	std	Z+28, r25	; 0x1c
    26e8:	83 8f       	std	Z+27, r24	; 0x1b
    26ea:	8b 85       	ldd	r24, Y+11	; 0x0b
    26ec:	9c 85       	ldd	r25, Y+12	; 0x0c
    26ee:	ad 85       	ldd	r26, Y+13	; 0x0d
    26f0:	be 85       	ldd	r27, Y+14	; 0x0e
    26f2:	8e 33       	cpi	r24, 0x3E	; 62
    26f4:	91 05       	cpc	r25, r1
    26f6:	a1 05       	cpc	r26, r1
    26f8:	b1 05       	cpc	r27, r1
    26fa:	20 f0       	brcs	.+8      	; 0x2704 <nrk_TCB_init+0x100>
    26fc:	86 e1       	ldi	r24, 0x16	; 22
    26fe:	68 81       	ld	r22, Y
    2700:	0e 94 ba 15 	call	0x2b74	; 0x2b74 <nrk_kernel_error_add>
    2704:	e8 80       	ld	r14, Y
    2706:	ff 24       	eor	r15, r15
    2708:	e7 fc       	sbrc	r14, 7
    270a:	f0 94       	com	r15
    270c:	ce 01       	movw	r24, r28
    270e:	4b 96       	adiw	r24, 0x1b	; 27
    2710:	0e 94 f5 1e 	call	0x3dea	; 0x3dea <_nrk_time_to_ticks>
    2714:	f7 01       	movw	r30, r14
    2716:	45 e0       	ldi	r20, 0x05	; 5
    2718:	ee 0f       	add	r30, r30
    271a:	ff 1f       	adc	r31, r31
    271c:	4a 95       	dec	r20
    271e:	e1 f7       	brne	.-8      	; 0x2718 <nrk_TCB_init+0x114>
    2720:	ee 0d       	add	r30, r14
    2722:	ff 1d       	adc	r31, r15
    2724:	e0 5e       	subi	r30, 0xE0	; 224
    2726:	fb 4f       	sbci	r31, 0xFB	; 251
    2728:	96 8b       	std	Z+22, r25	; 0x16
    272a:	85 8b       	std	Z+21, r24	; 0x15
    272c:	88 81       	ld	r24, Y
    272e:	99 27       	eor	r25, r25
    2730:	87 fd       	sbrc	r24, 7
    2732:	90 95       	com	r25
    2734:	7c 01       	movw	r14, r24
    2736:	35 e0       	ldi	r19, 0x05	; 5
    2738:	ee 0c       	add	r14, r14
    273a:	ff 1c       	adc	r15, r15
    273c:	3a 95       	dec	r19
    273e:	e1 f7       	brne	.-8      	; 0x2738 <nrk_TCB_init+0x134>
    2740:	e8 0e       	add	r14, r24
    2742:	f9 1e       	adc	r15, r25
    2744:	80 e2       	ldi	r24, 0x20	; 32
    2746:	94 e0       	ldi	r25, 0x04	; 4
    2748:	e8 0e       	add	r14, r24
    274a:	f9 1e       	adc	r15, r25
    274c:	f7 01       	movw	r30, r14
    274e:	85 89       	ldd	r24, Z+21	; 0x15
    2750:	96 89       	ldd	r25, Z+22	; 0x16
    2752:	23 8d       	ldd	r18, Z+27	; 0x1b
    2754:	34 8d       	ldd	r19, Z+28	; 0x1c
    2756:	82 0f       	add	r24, r18
    2758:	93 1f       	adc	r25, r19
    275a:	90 8f       	std	Z+24, r25	; 0x18
    275c:	87 8b       	std	Z+23, r24	; 0x17
    275e:	ce 01       	movw	r24, r28
    2760:	43 96       	adiw	r24, 0x13	; 19
    2762:	0e 94 f5 1e 	call	0x3dea	; 0x3dea <_nrk_time_to_ticks>
    2766:	f7 01       	movw	r30, r14
    2768:	96 8f       	std	Z+30, r25	; 0x1e
    276a:	85 8f       	std	Z+29, r24	; 0x1d
    276c:	88 81       	ld	r24, Y
    276e:	99 27       	eor	r25, r25
    2770:	87 fd       	sbrc	r24, 7
    2772:	90 95       	com	r25
    2774:	fc 01       	movw	r30, r24
    2776:	25 e0       	ldi	r18, 0x05	; 5
    2778:	ee 0f       	add	r30, r30
    277a:	ff 1f       	adc	r31, r31
    277c:	2a 95       	dec	r18
    277e:	e1 f7       	brne	.-8      	; 0x2778 <nrk_TCB_init+0x174>
    2780:	e8 0f       	add	r30, r24
    2782:	f9 1f       	adc	r31, r25
    2784:	e0 5e       	subi	r30, 0xE0	; 224
    2786:	fb 4f       	sbci	r31, 0xFB	; 251
    2788:	85 8d       	ldd	r24, Z+29	; 0x1d
    278a:	96 8d       	ldd	r25, Z+30	; 0x1e
    278c:	92 8f       	std	Z+26, r25	; 0x1a
    278e:	81 8f       	std	Z+25, r24	; 0x19
    2790:	81 e0       	ldi	r24, 0x01	; 1
    2792:	90 e0       	ldi	r25, 0x00	; 0
    2794:	90 a3       	std	Z+32, r25	; 0x20
    2796:	87 8f       	std	Z+31, r24	; 0x1f
    2798:	13 83       	std	Z+3, r17	; 0x03
    279a:	02 83       	std	Z+2, r16	; 0x02
    279c:	81 e0       	ldi	r24, 0x01	; 1
    279e:	84 87       	std	Z+12, r24	; 0x0c
    27a0:	df 91       	pop	r29
    27a2:	cf 91       	pop	r28
    27a4:	1f 91       	pop	r17
    27a6:	0f 91       	pop	r16
    27a8:	ff 90       	pop	r15
    27aa:	ef 90       	pop	r14
    27ac:	08 95       	ret

000027ae <_nrk_timer_tick>:
    27ae:	0e 94 5f 20 	call	0x40be	; 0x40be <_nrk_scheduler>
    27b2:	08 95       	ret

000027b4 <nrk_version>:
    27b4:	85 e6       	ldi	r24, 0x65	; 101
    27b6:	90 e0       	ldi	r25, 0x00	; 0
    27b8:	08 95       	ret

000027ba <_nrk_errno_set>:
    27ba:	e0 91 db 04 	lds	r30, 0x04DB
    27be:	f0 91 dc 04 	lds	r31, 0x04DC
    27c2:	84 87       	std	Z+12, r24	; 0x0c
    27c4:	08 95       	ret

000027c6 <nrk_errno_get>:
    27c6:	e0 91 db 04 	lds	r30, 0x04DB
    27ca:	f0 91 dc 04 	lds	r31, 0x04DC
    27ce:	84 85       	ldd	r24, Z+12	; 0x0c
    27d0:	08 95       	ret

000027d2 <nrk_error_get>:
    27d2:	20 91 82 03 	lds	r18, 0x0382
    27d6:	22 23       	and	r18, r18
    27d8:	41 f0       	breq	.+16     	; 0x27ea <nrk_error_get+0x18>
    27da:	fb 01       	movw	r30, r22
    27dc:	20 83       	st	Z, r18
    27de:	20 91 d5 02 	lds	r18, 0x02D5
    27e2:	fc 01       	movw	r30, r24
    27e4:	20 83       	st	Z, r18
    27e6:	81 e0       	ldi	r24, 0x01	; 1
    27e8:	08 95       	ret
    27ea:	80 e0       	ldi	r24, 0x00	; 0
    27ec:	08 95       	ret

000027ee <pause>:
    27ee:	df 93       	push	r29
    27f0:	cf 93       	push	r28
    27f2:	0f 92       	push	r0
    27f4:	cd b7       	in	r28, 0x3d	; 61
    27f6:	de b7       	in	r29, 0x3e	; 62
    27f8:	19 82       	std	Y+1, r1	; 0x01
    27fa:	07 c0       	rjmp	.+14     	; 0x280a <pause+0x1c>
    27fc:	80 ed       	ldi	r24, 0xD0	; 208
    27fe:	97 e0       	ldi	r25, 0x07	; 7
    2800:	0e 94 9c 22 	call	0x4538	; 0x4538 <nrk_spin_wait_us>
    2804:	89 81       	ldd	r24, Y+1	; 0x01
    2806:	8f 5f       	subi	r24, 0xFF	; 255
    2808:	89 83       	std	Y+1, r24	; 0x01
    280a:	89 81       	ldd	r24, Y+1	; 0x01
    280c:	84 36       	cpi	r24, 0x64	; 100
    280e:	b0 f3       	brcs	.-20     	; 0x27fc <pause+0xe>
    2810:	0f 90       	pop	r0
    2812:	cf 91       	pop	r28
    2814:	df 91       	pop	r29
    2816:	08 95       	ret

00002818 <blink_dot>:
    2818:	81 e0       	ldi	r24, 0x01	; 1
    281a:	90 e0       	ldi	r25, 0x00	; 0
    281c:	0e 94 cd 10 	call	0x219a	; 0x219a <nrk_led_set>
    2820:	0e 94 f7 13 	call	0x27ee	; 0x27ee <pause>
    2824:	81 e0       	ldi	r24, 0x01	; 1
    2826:	90 e0       	ldi	r25, 0x00	; 0
    2828:	0e 94 96 10 	call	0x212c	; 0x212c <nrk_led_clr>
    282c:	0e 94 f7 13 	call	0x27ee	; 0x27ee <pause>
    2830:	08 95       	ret

00002832 <blink_dash>:
    2832:	81 e0       	ldi	r24, 0x01	; 1
    2834:	90 e0       	ldi	r25, 0x00	; 0
    2836:	0e 94 cd 10 	call	0x219a	; 0x219a <nrk_led_set>
    283a:	0e 94 f7 13 	call	0x27ee	; 0x27ee <pause>
    283e:	0e 94 f7 13 	call	0x27ee	; 0x27ee <pause>
    2842:	0e 94 f7 13 	call	0x27ee	; 0x27ee <pause>
    2846:	81 e0       	ldi	r24, 0x01	; 1
    2848:	90 e0       	ldi	r25, 0x00	; 0
    284a:	0e 94 96 10 	call	0x212c	; 0x212c <nrk_led_clr>
    284e:	0e 94 f7 13 	call	0x27ee	; 0x27ee <pause>
    2852:	08 95       	ret

00002854 <blink_morse_code_error>:
    2854:	ff 92       	push	r15
    2856:	0f 93       	push	r16
    2858:	1f 93       	push	r17
    285a:	df 93       	push	r29
    285c:	cf 93       	push	r28
    285e:	00 d0       	rcall	.+0      	; 0x2860 <blink_morse_code_error+0xc>
    2860:	0f 92       	push	r0
    2862:	cd b7       	in	r28, 0x3d	; 61
    2864:	de b7       	in	r29, 0x3e	; 62
    2866:	00 d0       	rcall	.+0      	; 0x2868 <blink_morse_code_error+0x14>
    2868:	00 d0       	rcall	.+0      	; 0x286a <blink_morse_code_error+0x16>
    286a:	00 d0       	rcall	.+0      	; 0x286c <blink_morse_code_error+0x18>
    286c:	ed b7       	in	r30, 0x3d	; 61
    286e:	fe b7       	in	r31, 0x3e	; 62
    2870:	31 96       	adiw	r30, 0x01	; 1
    2872:	8e 01       	movw	r16, r28
    2874:	0f 5f       	subi	r16, 0xFF	; 255
    2876:	1f 4f       	sbci	r17, 0xFF	; 255
    2878:	ad b7       	in	r26, 0x3d	; 61
    287a:	be b7       	in	r27, 0x3e	; 62
    287c:	12 96       	adiw	r26, 0x02	; 2
    287e:	1c 93       	st	X, r17
    2880:	0e 93       	st	-X, r16
    2882:	11 97       	sbiw	r26, 0x01	; 1
    2884:	2d e5       	ldi	r18, 0x5D	; 93
    2886:	31 e0       	ldi	r19, 0x01	; 1
    2888:	33 83       	std	Z+3, r19	; 0x03
    288a:	22 83       	std	Z+2, r18	; 0x02
    288c:	84 83       	std	Z+4, r24	; 0x04
    288e:	15 82       	std	Z+5, r1	; 0x05
    2890:	0e 94 43 40 	call	0x8086	; 0x8086 <sprintf>
    2894:	ed b7       	in	r30, 0x3d	; 61
    2896:	fe b7       	in	r31, 0x3e	; 62
    2898:	36 96       	adiw	r30, 0x06	; 6
    289a:	0f b6       	in	r0, 0x3f	; 63
    289c:	f8 94       	cli
    289e:	fe bf       	out	0x3e, r31	; 62
    28a0:	0f be       	out	0x3f, r0	; 63
    28a2:	ed bf       	out	0x3d, r30	; 61
    28a4:	ff 24       	eor	r15, r15
    28a6:	72 c0       	rjmp	.+228    	; 0x298c <blink_morse_code_error+0x138>
    28a8:	80 0f       	add	r24, r16
    28aa:	91 1f       	adc	r25, r17
    28ac:	dc 01       	movw	r26, r24
    28ae:	8c 91       	ld	r24, X
    28b0:	84 33       	cpi	r24, 0x34	; 52
    28b2:	d1 f1       	breq	.+116    	; 0x2928 <blink_morse_code_error+0xd4>
    28b4:	85 33       	cpi	r24, 0x35	; 53
    28b6:	70 f4       	brcc	.+28     	; 0x28d4 <blink_morse_code_error+0x80>
    28b8:	81 33       	cpi	r24, 0x31	; 49
    28ba:	f9 f0       	breq	.+62     	; 0x28fa <blink_morse_code_error+0xa6>
    28bc:	82 33       	cpi	r24, 0x32	; 50
    28be:	20 f4       	brcc	.+8      	; 0x28c8 <blink_morse_code_error+0x74>
    28c0:	80 33       	cpi	r24, 0x30	; 48
    28c2:	09 f0       	breq	.+2      	; 0x28c6 <blink_morse_code_error+0x72>
    28c4:	5c c0       	rjmp	.+184    	; 0x297e <blink_morse_code_error+0x12a>
    28c6:	16 c0       	rjmp	.+44     	; 0x28f4 <blink_morse_code_error+0xa0>
    28c8:	82 33       	cpi	r24, 0x32	; 50
    28ca:	11 f1       	breq	.+68     	; 0x2910 <blink_morse_code_error+0xbc>
    28cc:	83 33       	cpi	r24, 0x33	; 51
    28ce:	09 f0       	breq	.+2      	; 0x28d2 <blink_morse_code_error+0x7e>
    28d0:	56 c0       	rjmp	.+172    	; 0x297e <blink_morse_code_error+0x12a>
    28d2:	23 c0       	rjmp	.+70     	; 0x291a <blink_morse_code_error+0xc6>
    28d4:	87 33       	cpi	r24, 0x37	; 55
    28d6:	c9 f1       	breq	.+114    	; 0x294a <blink_morse_code_error+0xf6>
    28d8:	88 33       	cpi	r24, 0x38	; 56
    28da:	30 f4       	brcc	.+12     	; 0x28e8 <blink_morse_code_error+0x94>
    28dc:	85 33       	cpi	r24, 0x35	; 53
    28de:	69 f1       	breq	.+90     	; 0x293a <blink_morse_code_error+0xe6>
    28e0:	86 33       	cpi	r24, 0x36	; 54
    28e2:	09 f0       	breq	.+2      	; 0x28e6 <blink_morse_code_error+0x92>
    28e4:	4c c0       	rjmp	.+152    	; 0x297e <blink_morse_code_error+0x12a>
    28e6:	2c c0       	rjmp	.+88     	; 0x2940 <blink_morse_code_error+0xec>
    28e8:	88 33       	cpi	r24, 0x38	; 56
    28ea:	b1 f1       	breq	.+108    	; 0x2958 <blink_morse_code_error+0x104>
    28ec:	89 33       	cpi	r24, 0x39	; 57
    28ee:	09 f0       	breq	.+2      	; 0x28f2 <blink_morse_code_error+0x9e>
    28f0:	46 c0       	rjmp	.+140    	; 0x297e <blink_morse_code_error+0x12a>
    28f2:	3b c0       	rjmp	.+118    	; 0x296a <blink_morse_code_error+0x116>
    28f4:	0e 94 19 14 	call	0x2832	; 0x2832 <blink_dash>
    28f8:	02 c0       	rjmp	.+4      	; 0x28fe <blink_morse_code_error+0xaa>
    28fa:	0e 94 0c 14 	call	0x2818	; 0x2818 <blink_dot>
    28fe:	0e 94 19 14 	call	0x2832	; 0x2832 <blink_dash>
    2902:	0e 94 19 14 	call	0x2832	; 0x2832 <blink_dash>
    2906:	0e 94 19 14 	call	0x2832	; 0x2832 <blink_dash>
    290a:	0e 94 19 14 	call	0x2832	; 0x2832 <blink_dash>
    290e:	37 c0       	rjmp	.+110    	; 0x297e <blink_morse_code_error+0x12a>
    2910:	0e 94 0c 14 	call	0x2818	; 0x2818 <blink_dot>
    2914:	0e 94 0c 14 	call	0x2818	; 0x2818 <blink_dot>
    2918:	f4 cf       	rjmp	.-24     	; 0x2902 <blink_morse_code_error+0xae>
    291a:	0e 94 0c 14 	call	0x2818	; 0x2818 <blink_dot>
    291e:	0e 94 0c 14 	call	0x2818	; 0x2818 <blink_dot>
    2922:	0e 94 0c 14 	call	0x2818	; 0x2818 <blink_dot>
    2926:	ef cf       	rjmp	.-34     	; 0x2906 <blink_morse_code_error+0xb2>
    2928:	0e 94 0c 14 	call	0x2818	; 0x2818 <blink_dot>
    292c:	0e 94 0c 14 	call	0x2818	; 0x2818 <blink_dot>
    2930:	0e 94 0c 14 	call	0x2818	; 0x2818 <blink_dot>
    2934:	0e 94 0c 14 	call	0x2818	; 0x2818 <blink_dot>
    2938:	e8 cf       	rjmp	.-48     	; 0x290a <blink_morse_code_error+0xb6>
    293a:	0e 94 0c 14 	call	0x2818	; 0x2818 <blink_dot>
    293e:	02 c0       	rjmp	.+4      	; 0x2944 <blink_morse_code_error+0xf0>
    2940:	0e 94 19 14 	call	0x2832	; 0x2832 <blink_dash>
    2944:	0e 94 0c 14 	call	0x2818	; 0x2818 <blink_dot>
    2948:	04 c0       	rjmp	.+8      	; 0x2952 <blink_morse_code_error+0xfe>
    294a:	0e 94 19 14 	call	0x2832	; 0x2832 <blink_dash>
    294e:	0e 94 19 14 	call	0x2832	; 0x2832 <blink_dash>
    2952:	0e 94 0c 14 	call	0x2818	; 0x2818 <blink_dot>
    2956:	06 c0       	rjmp	.+12     	; 0x2964 <blink_morse_code_error+0x110>
    2958:	0e 94 19 14 	call	0x2832	; 0x2832 <blink_dash>
    295c:	0e 94 19 14 	call	0x2832	; 0x2832 <blink_dash>
    2960:	0e 94 19 14 	call	0x2832	; 0x2832 <blink_dash>
    2964:	0e 94 0c 14 	call	0x2818	; 0x2818 <blink_dot>
    2968:	08 c0       	rjmp	.+16     	; 0x297a <blink_morse_code_error+0x126>
    296a:	0e 94 19 14 	call	0x2832	; 0x2832 <blink_dash>
    296e:	0e 94 19 14 	call	0x2832	; 0x2832 <blink_dash>
    2972:	0e 94 19 14 	call	0x2832	; 0x2832 <blink_dash>
    2976:	0e 94 19 14 	call	0x2832	; 0x2832 <blink_dash>
    297a:	0e 94 0c 14 	call	0x2818	; 0x2818 <blink_dot>
    297e:	0e 94 f7 13 	call	0x27ee	; 0x27ee <pause>
    2982:	0e 94 f7 13 	call	0x27ee	; 0x27ee <pause>
    2986:	0e 94 f7 13 	call	0x27ee	; 0x27ee <pause>
    298a:	f3 94       	inc	r15
    298c:	f8 01       	movw	r30, r16
    298e:	01 90       	ld	r0, Z+
    2990:	00 20       	and	r0, r0
    2992:	e9 f7       	brne	.-6      	; 0x298e <blink_morse_code_error+0x13a>
    2994:	31 97       	sbiw	r30, 0x01	; 1
    2996:	e0 1b       	sub	r30, r16
    2998:	f1 0b       	sbc	r31, r17
    299a:	8f 2d       	mov	r24, r15
    299c:	90 e0       	ldi	r25, 0x00	; 0
    299e:	8e 17       	cp	r24, r30
    29a0:	9f 07       	cpc	r25, r31
    29a2:	08 f4       	brcc	.+2      	; 0x29a6 <blink_morse_code_error+0x152>
    29a4:	81 cf       	rjmp	.-254    	; 0x28a8 <blink_morse_code_error+0x54>
    29a6:	0f 90       	pop	r0
    29a8:	0f 90       	pop	r0
    29aa:	0f 90       	pop	r0
    29ac:	cf 91       	pop	r28
    29ae:	df 91       	pop	r29
    29b0:	1f 91       	pop	r17
    29b2:	0f 91       	pop	r16
    29b4:	ff 90       	pop	r15
    29b6:	08 95       	ret

000029b8 <nrk_error_print>:
    29b8:	0f 93       	push	r16
    29ba:	1f 93       	push	r17
    29bc:	80 91 82 03 	lds	r24, 0x0382
    29c0:	88 23       	and	r24, r24
    29c2:	19 f4       	brne	.+6      	; 0x29ca <nrk_error_print+0x12>
    29c4:	1f 91       	pop	r17
    29c6:	0f 91       	pop	r16
    29c8:	08 95       	ret
    29ca:	0e 94 e0 11 	call	0x23c0	; 0x23c0 <nrk_int_disable>
    29ce:	0e 94 6a 24 	call	0x48d4	; 0x48d4 <nrk_watchdog_disable>
    29d2:	0e 94 e0 11 	call	0x23c0	; 0x23c0 <nrk_int_disable>
    29d6:	80 eb       	ldi	r24, 0xB0	; 176
    29d8:	93 e0       	ldi	r25, 0x03	; 3
    29da:	0e 94 c8 0e 	call	0x1d90	; 0x1d90 <nrk_kprintf>
    29de:	00 d0       	rcall	.+0      	; 0x29e0 <nrk_error_print+0x28>
    29e0:	00 d0       	rcall	.+0      	; 0x29e2 <nrk_error_print+0x2a>
    29e2:	ed b7       	in	r30, 0x3d	; 61
    29e4:	fe b7       	in	r31, 0x3e	; 62
    29e6:	31 96       	adiw	r30, 0x01	; 1
    29e8:	8d e5       	ldi	r24, 0x5D	; 93
    29ea:	91 e0       	ldi	r25, 0x01	; 1
    29ec:	ad b7       	in	r26, 0x3d	; 61
    29ee:	be b7       	in	r27, 0x3e	; 62
    29f0:	12 96       	adiw	r26, 0x02	; 2
    29f2:	9c 93       	st	X, r25
    29f4:	8e 93       	st	-X, r24
    29f6:	11 97       	sbiw	r26, 0x01	; 1
    29f8:	80 91 d5 02 	lds	r24, 0x02D5
    29fc:	82 83       	std	Z+2, r24	; 0x02
    29fe:	13 82       	std	Z+3, r1	; 0x03
    2a00:	0e 94 31 40 	call	0x8062	; 0x8062 <printf>
    2a04:	0f 90       	pop	r0
    2a06:	0f 90       	pop	r0
    2a08:	0f 90       	pop	r0
    2a0a:	0f 90       	pop	r0
    2a0c:	8c ea       	ldi	r24, 0xAC	; 172
    2a0e:	93 e0       	ldi	r25, 0x03	; 3
    2a10:	0e 94 c8 0e 	call	0x1d90	; 0x1d90 <nrk_kprintf>
    2a14:	80 91 82 03 	lds	r24, 0x0382
    2a18:	88 31       	cpi	r24, 0x18	; 24
    2a1a:	10 f0       	brcs	.+4      	; 0x2a20 <nrk_error_print+0x68>
    2a1c:	10 92 82 03 	sts	0x0382, r1
    2a20:	80 91 82 03 	lds	r24, 0x0382
    2a24:	90 e0       	ldi	r25, 0x00	; 0
    2a26:	01 97       	sbiw	r24, 0x01	; 1
    2a28:	86 31       	cpi	r24, 0x16	; 22
    2a2a:	91 05       	cpc	r25, r1
    2a2c:	08 f0       	brcs	.+2      	; 0x2a30 <nrk_error_print+0x78>
    2a2e:	4b c0       	rjmp	.+150    	; 0x2ac6 <nrk_error_print+0x10e>
    2a30:	8a 5b       	subi	r24, 0xBA	; 186
    2a32:	9f 4f       	sbci	r25, 0xFF	; 255
    2a34:	fc 01       	movw	r30, r24
    2a36:	ee 0f       	add	r30, r30
    2a38:	ff 1f       	adc	r31, r31
    2a3a:	05 90       	lpm	r0, Z+
    2a3c:	f4 91       	lpm	r31, Z+
    2a3e:	e0 2d       	mov	r30, r0
    2a40:	09 94       	ijmp
    2a42:	80 e7       	ldi	r24, 0x70	; 112
    2a44:	93 e0       	ldi	r25, 0x03	; 3
    2a46:	41 c0       	rjmp	.+130    	; 0x2aca <nrk_error_print+0x112>
    2a48:	89 e4       	ldi	r24, 0x49	; 73
    2a4a:	93 e0       	ldi	r25, 0x03	; 3
    2a4c:	3e c0       	rjmp	.+124    	; 0x2aca <nrk_error_print+0x112>
    2a4e:	85 e3       	ldi	r24, 0x35	; 53
    2a50:	93 e0       	ldi	r25, 0x03	; 3
    2a52:	3b c0       	rjmp	.+118    	; 0x2aca <nrk_error_print+0x112>
    2a54:	8f e1       	ldi	r24, 0x1F	; 31
    2a56:	93 e0       	ldi	r25, 0x03	; 3
    2a58:	38 c0       	rjmp	.+112    	; 0x2aca <nrk_error_print+0x112>
    2a5a:	84 e0       	ldi	r24, 0x04	; 4
    2a5c:	93 e0       	ldi	r25, 0x03	; 3
    2a5e:	35 c0       	rjmp	.+106    	; 0x2aca <nrk_error_print+0x112>
    2a60:	8e ee       	ldi	r24, 0xEE	; 238
    2a62:	92 e0       	ldi	r25, 0x02	; 2
    2a64:	32 c0       	rjmp	.+100    	; 0x2aca <nrk_error_print+0x112>
    2a66:	86 ed       	ldi	r24, 0xD6	; 214
    2a68:	92 e0       	ldi	r25, 0x02	; 2
    2a6a:	2f c0       	rjmp	.+94     	; 0x2aca <nrk_error_print+0x112>
    2a6c:	83 ec       	ldi	r24, 0xC3	; 195
    2a6e:	92 e0       	ldi	r25, 0x02	; 2
    2a70:	2c c0       	rjmp	.+88     	; 0x2aca <nrk_error_print+0x112>
    2a72:	80 eb       	ldi	r24, 0xB0	; 176
    2a74:	92 e0       	ldi	r25, 0x02	; 2
    2a76:	29 c0       	rjmp	.+82     	; 0x2aca <nrk_error_print+0x112>
    2a78:	82 e9       	ldi	r24, 0x92	; 146
    2a7a:	92 e0       	ldi	r25, 0x02	; 2
    2a7c:	26 c0       	rjmp	.+76     	; 0x2aca <nrk_error_print+0x112>
    2a7e:	8d e6       	ldi	r24, 0x6D	; 109
    2a80:	92 e0       	ldi	r25, 0x02	; 2
    2a82:	23 c0       	rjmp	.+70     	; 0x2aca <nrk_error_print+0x112>
    2a84:	81 e6       	ldi	r24, 0x61	; 97
    2a86:	92 e0       	ldi	r25, 0x02	; 2
    2a88:	20 c0       	rjmp	.+64     	; 0x2aca <nrk_error_print+0x112>
    2a8a:	86 e4       	ldi	r24, 0x46	; 70
    2a8c:	92 e0       	ldi	r25, 0x02	; 2
    2a8e:	1d c0       	rjmp	.+58     	; 0x2aca <nrk_error_print+0x112>
    2a90:	87 e3       	ldi	r24, 0x37	; 55
    2a92:	92 e0       	ldi	r25, 0x02	; 2
    2a94:	1a c0       	rjmp	.+52     	; 0x2aca <nrk_error_print+0x112>
    2a96:	83 e2       	ldi	r24, 0x23	; 35
    2a98:	92 e0       	ldi	r25, 0x02	; 2
    2a9a:	17 c0       	rjmp	.+46     	; 0x2aca <nrk_error_print+0x112>
    2a9c:	82 e1       	ldi	r24, 0x12	; 18
    2a9e:	92 e0       	ldi	r25, 0x02	; 2
    2aa0:	14 c0       	rjmp	.+40     	; 0x2aca <nrk_error_print+0x112>
    2aa2:	8e ef       	ldi	r24, 0xFE	; 254
    2aa4:	91 e0       	ldi	r25, 0x01	; 1
    2aa6:	11 c0       	rjmp	.+34     	; 0x2aca <nrk_error_print+0x112>
    2aa8:	8e ed       	ldi	r24, 0xDE	; 222
    2aaa:	91 e0       	ldi	r25, 0x01	; 1
    2aac:	0e c0       	rjmp	.+28     	; 0x2aca <nrk_error_print+0x112>
    2aae:	86 ec       	ldi	r24, 0xC6	; 198
    2ab0:	91 e0       	ldi	r25, 0x01	; 1
    2ab2:	0b c0       	rjmp	.+22     	; 0x2aca <nrk_error_print+0x112>
    2ab4:	8b ea       	ldi	r24, 0xAB	; 171
    2ab6:	91 e0       	ldi	r25, 0x01	; 1
    2ab8:	08 c0       	rjmp	.+16     	; 0x2aca <nrk_error_print+0x112>
    2aba:	8a e9       	ldi	r24, 0x9A	; 154
    2abc:	91 e0       	ldi	r25, 0x01	; 1
    2abe:	05 c0       	rjmp	.+10     	; 0x2aca <nrk_error_print+0x112>
    2ac0:	8b e8       	ldi	r24, 0x8B	; 139
    2ac2:	91 e0       	ldi	r25, 0x01	; 1
    2ac4:	02 c0       	rjmp	.+4      	; 0x2aca <nrk_error_print+0x112>
    2ac6:	84 e8       	ldi	r24, 0x84	; 132
    2ac8:	91 e0       	ldi	r25, 0x01	; 1
    2aca:	0e 94 c8 0e 	call	0x1d90	; 0x1d90 <nrk_kprintf>
    2ace:	60 91 0c 05 	lds	r22, 0x050C
    2ad2:	70 91 0d 05 	lds	r23, 0x050D
    2ad6:	8d e0       	ldi	r24, 0x0D	; 13
    2ad8:	90 e0       	ldi	r25, 0x00	; 0
    2ada:	0e 94 05 40 	call	0x800a	; 0x800a <fputc>
    2ade:	60 91 0c 05 	lds	r22, 0x050C
    2ae2:	70 91 0d 05 	lds	r23, 0x050D
    2ae6:	8a e0       	ldi	r24, 0x0A	; 10
    2ae8:	90 e0       	ldi	r25, 0x00	; 0
    2aea:	0e 94 05 40 	call	0x800a	; 0x800a <fputc>
    2aee:	10 e0       	ldi	r17, 0x00	; 0
    2af0:	1f c0       	rjmp	.+62     	; 0x2b30 <nrk_error_print+0x178>
    2af2:	82 e0       	ldi	r24, 0x02	; 2
    2af4:	90 e0       	ldi	r25, 0x00	; 0
    2af6:	0e 94 cd 10 	call	0x219a	; 0x219a <nrk_led_set>
    2afa:	83 e0       	ldi	r24, 0x03	; 3
    2afc:	90 e0       	ldi	r25, 0x00	; 0
    2afe:	0e 94 96 10 	call	0x212c	; 0x212c <nrk_led_clr>
    2b02:	04 e6       	ldi	r16, 0x64	; 100
    2b04:	88 ee       	ldi	r24, 0xE8	; 232
    2b06:	93 e0       	ldi	r25, 0x03	; 3
    2b08:	0e 94 9c 22 	call	0x4538	; 0x4538 <nrk_spin_wait_us>
    2b0c:	01 50       	subi	r16, 0x01	; 1
    2b0e:	d1 f7       	brne	.-12     	; 0x2b04 <nrk_error_print+0x14c>
    2b10:	83 e0       	ldi	r24, 0x03	; 3
    2b12:	90 e0       	ldi	r25, 0x00	; 0
    2b14:	0e 94 cd 10 	call	0x219a	; 0x219a <nrk_led_set>
    2b18:	82 e0       	ldi	r24, 0x02	; 2
    2b1a:	90 e0       	ldi	r25, 0x00	; 0
    2b1c:	0e 94 96 10 	call	0x212c	; 0x212c <nrk_led_clr>
    2b20:	04 e6       	ldi	r16, 0x64	; 100
    2b22:	88 ee       	ldi	r24, 0xE8	; 232
    2b24:	93 e0       	ldi	r25, 0x03	; 3
    2b26:	0e 94 9c 22 	call	0x4538	; 0x4538 <nrk_spin_wait_us>
    2b2a:	01 50       	subi	r16, 0x01	; 1
    2b2c:	d1 f7       	brne	.-12     	; 0x2b22 <nrk_error_print+0x16a>
    2b2e:	1f 5f       	subi	r17, 0xFF	; 255
    2b30:	14 31       	cpi	r17, 0x14	; 20
    2b32:	fc f2       	brlt	.-66     	; 0x2af2 <nrk_error_print+0x13a>
    2b34:	83 e0       	ldi	r24, 0x03	; 3
    2b36:	90 e0       	ldi	r25, 0x00	; 0
    2b38:	0e 94 96 10 	call	0x212c	; 0x212c <nrk_led_clr>
    2b3c:	82 e0       	ldi	r24, 0x02	; 2
    2b3e:	90 e0       	ldi	r25, 0x00	; 0
    2b40:	0e 94 96 10 	call	0x212c	; 0x212c <nrk_led_clr>
    2b44:	80 91 d5 02 	lds	r24, 0x02D5
    2b48:	0e 94 2a 14 	call	0x2854	; 0x2854 <blink_morse_code_error>
    2b4c:	0e 94 f7 13 	call	0x27ee	; 0x27ee <pause>
    2b50:	82 e0       	ldi	r24, 0x02	; 2
    2b52:	90 e0       	ldi	r25, 0x00	; 0
    2b54:	0e 94 cd 10 	call	0x219a	; 0x219a <nrk_led_set>
    2b58:	0e 94 f7 13 	call	0x27ee	; 0x27ee <pause>
    2b5c:	82 e0       	ldi	r24, 0x02	; 2
    2b5e:	90 e0       	ldi	r25, 0x00	; 0
    2b60:	0e 94 96 10 	call	0x212c	; 0x212c <nrk_led_clr>
    2b64:	0e 94 f7 13 	call	0x27ee	; 0x27ee <pause>
    2b68:	80 91 82 03 	lds	r24, 0x0382
    2b6c:	0e 94 2a 14 	call	0x2854	; 0x2854 <blink_morse_code_error>
    2b70:	10 e0       	ldi	r17, 0x00	; 0
    2b72:	bf cf       	rjmp	.-130    	; 0x2af2 <nrk_error_print+0x13a>

00002b74 <nrk_kernel_error_add>:
    2b74:	ef 92       	push	r14
    2b76:	ff 92       	push	r15
    2b78:	0f 93       	push	r16
    2b7a:	1f 93       	push	r17
    2b7c:	18 2f       	mov	r17, r24
    2b7e:	e6 2e       	mov	r14, r22
    2b80:	80 93 82 03 	sts	0x0382, r24
    2b84:	60 93 d5 02 	sts	0x02D5, r22
    2b88:	0e 94 dc 14 	call	0x29b8	; 0x29b8 <nrk_error_print>
    2b8c:	00 e0       	ldi	r16, 0x00	; 0
    2b8e:	21 c0       	rjmp	.+66     	; 0x2bd2 <nrk_kernel_error_add+0x5e>
    2b90:	82 e0       	ldi	r24, 0x02	; 2
    2b92:	90 e0       	ldi	r25, 0x00	; 0
    2b94:	0e 94 cd 10 	call	0x219a	; 0x219a <nrk_led_set>
    2b98:	83 e0       	ldi	r24, 0x03	; 3
    2b9a:	90 e0       	ldi	r25, 0x00	; 0
    2b9c:	0e 94 96 10 	call	0x212c	; 0x212c <nrk_led_clr>
    2ba0:	94 e6       	ldi	r25, 0x64	; 100
    2ba2:	f9 2e       	mov	r15, r25
    2ba4:	88 ee       	ldi	r24, 0xE8	; 232
    2ba6:	93 e0       	ldi	r25, 0x03	; 3
    2ba8:	0e 94 9c 22 	call	0x4538	; 0x4538 <nrk_spin_wait_us>
    2bac:	fa 94       	dec	r15
    2bae:	d1 f7       	brne	.-12     	; 0x2ba4 <nrk_kernel_error_add+0x30>
    2bb0:	83 e0       	ldi	r24, 0x03	; 3
    2bb2:	90 e0       	ldi	r25, 0x00	; 0
    2bb4:	0e 94 cd 10 	call	0x219a	; 0x219a <nrk_led_set>
    2bb8:	82 e0       	ldi	r24, 0x02	; 2
    2bba:	90 e0       	ldi	r25, 0x00	; 0
    2bbc:	0e 94 96 10 	call	0x212c	; 0x212c <nrk_led_clr>
    2bc0:	84 e6       	ldi	r24, 0x64	; 100
    2bc2:	f8 2e       	mov	r15, r24
    2bc4:	88 ee       	ldi	r24, 0xE8	; 232
    2bc6:	93 e0       	ldi	r25, 0x03	; 3
    2bc8:	0e 94 9c 22 	call	0x4538	; 0x4538 <nrk_spin_wait_us>
    2bcc:	fa 94       	dec	r15
    2bce:	d1 f7       	brne	.-12     	; 0x2bc4 <nrk_kernel_error_add+0x50>
    2bd0:	0f 5f       	subi	r16, 0xFF	; 255
    2bd2:	04 31       	cpi	r16, 0x14	; 20
    2bd4:	e8 f2       	brcs	.-70     	; 0x2b90 <nrk_kernel_error_add+0x1c>
    2bd6:	83 e0       	ldi	r24, 0x03	; 3
    2bd8:	90 e0       	ldi	r25, 0x00	; 0
    2bda:	0e 94 96 10 	call	0x212c	; 0x212c <nrk_led_clr>
    2bde:	82 e0       	ldi	r24, 0x02	; 2
    2be0:	90 e0       	ldi	r25, 0x00	; 0
    2be2:	0e 94 96 10 	call	0x212c	; 0x212c <nrk_led_clr>
    2be6:	8e 2d       	mov	r24, r14
    2be8:	0e 94 2a 14 	call	0x2854	; 0x2854 <blink_morse_code_error>
    2bec:	81 2f       	mov	r24, r17
    2bee:	0e 94 2a 14 	call	0x2854	; 0x2854 <blink_morse_code_error>
    2bf2:	00 e0       	ldi	r16, 0x00	; 0
    2bf4:	cd cf       	rjmp	.-102    	; 0x2b90 <nrk_kernel_error_add+0x1c>

00002bf6 <nrk_error_add>:
    2bf6:	80 93 82 03 	sts	0x0382, r24
    2bfa:	e0 91 db 04 	lds	r30, 0x04DB
    2bfe:	f0 91 dc 04 	lds	r31, 0x04DC
    2c02:	80 85       	ldd	r24, Z+8	; 0x08
    2c04:	80 93 d5 02 	sts	0x02D5, r24
    2c08:	0e 94 dc 14 	call	0x29b8	; 0x29b8 <nrk_error_print>
    2c0c:	08 95       	ret

00002c0e <dump_stack_info>:
    2c0e:	6f 92       	push	r6
    2c10:	7f 92       	push	r7
    2c12:	8f 92       	push	r8
    2c14:	9f 92       	push	r9
    2c16:	af 92       	push	r10
    2c18:	bf 92       	push	r11
    2c1a:	cf 92       	push	r12
    2c1c:	df 92       	push	r13
    2c1e:	ef 92       	push	r14
    2c20:	ff 92       	push	r15
    2c22:	0f 93       	push	r16
    2c24:	1f 93       	push	r17
    2c26:	cf 93       	push	r28
    2c28:	df 93       	push	r29
    2c2a:	8c eb       	ldi	r24, 0xBC	; 188
    2c2c:	93 e0       	ldi	r25, 0x03	; 3
    2c2e:	0e 94 c8 0e 	call	0x1d90	; 0x1d90 <nrk_kprintf>
    2c32:	00 d0       	rcall	.+0      	; 0x2c34 <dump_stack_info+0x26>
    2c34:	00 d0       	rcall	.+0      	; 0x2c36 <dump_stack_info+0x28>
    2c36:	80 e6       	ldi	r24, 0x60	; 96
    2c38:	91 e0       	ldi	r25, 0x01	; 1
    2c3a:	ad b7       	in	r26, 0x3d	; 61
    2c3c:	be b7       	in	r27, 0x3e	; 62
    2c3e:	12 96       	adiw	r26, 0x02	; 2
    2c40:	9c 93       	st	X, r25
    2c42:	8e 93       	st	-X, r24
    2c44:	11 97       	sbiw	r26, 0x01	; 1
    2c46:	e0 91 db 04 	lds	r30, 0x04DB
    2c4a:	f0 91 dc 04 	lds	r31, 0x04DC
    2c4e:	80 85       	ldd	r24, Z+8	; 0x08
    2c50:	99 27       	eor	r25, r25
    2c52:	87 fd       	sbrc	r24, 7
    2c54:	90 95       	com	r25
    2c56:	14 96       	adiw	r26, 0x04	; 4
    2c58:	9c 93       	st	X, r25
    2c5a:	8e 93       	st	-X, r24
    2c5c:	13 97       	sbiw	r26, 0x03	; 3
    2c5e:	0e 94 31 40 	call	0x8062	; 0x8062 <printf>
    2c62:	e0 91 db 04 	lds	r30, 0x04DB
    2c66:	f0 91 dc 04 	lds	r31, 0x04DC
    2c6a:	c2 81       	ldd	r28, Z+2	; 0x02
    2c6c:	d3 81       	ldd	r29, Z+3	; 0x03
    2c6e:	89 e6       	ldi	r24, 0x69	; 105
    2c70:	91 e0       	ldi	r25, 0x01	; 1
    2c72:	ed b7       	in	r30, 0x3d	; 61
    2c74:	fe b7       	in	r31, 0x3e	; 62
    2c76:	92 83       	std	Z+2, r25	; 0x02
    2c78:	81 83       	std	Z+1, r24	; 0x01
    2c7a:	d4 83       	std	Z+4, r29	; 0x04
    2c7c:	c3 83       	std	Z+3, r28	; 0x03
    2c7e:	0e 94 31 40 	call	0x8062	; 0x8062 <printf>
    2c82:	ed b7       	in	r30, 0x3d	; 61
    2c84:	fe b7       	in	r31, 0x3e	; 62
    2c86:	31 96       	adiw	r30, 0x01	; 1
    2c88:	66 e7       	ldi	r22, 0x76	; 118
    2c8a:	e6 2e       	mov	r14, r22
    2c8c:	61 e0       	ldi	r22, 0x01	; 1
    2c8e:	f6 2e       	mov	r15, r22
    2c90:	ad b7       	in	r26, 0x3d	; 61
    2c92:	be b7       	in	r27, 0x3e	; 62
    2c94:	12 96       	adiw	r26, 0x02	; 2
    2c96:	fc 92       	st	X, r15
    2c98:	ee 92       	st	-X, r14
    2c9a:	11 97       	sbiw	r26, 0x01	; 1
    2c9c:	88 81       	ld	r24, Y
    2c9e:	82 83       	std	Z+2, r24	; 0x02
    2ca0:	13 82       	std	Z+3, r1	; 0x03
    2ca2:	0e 94 31 40 	call	0x8062	; 0x8062 <printf>
    2ca6:	53 e8       	ldi	r21, 0x83	; 131
    2ca8:	c5 2e       	mov	r12, r21
    2caa:	51 e0       	ldi	r21, 0x01	; 1
    2cac:	d5 2e       	mov	r13, r21
    2cae:	ed b7       	in	r30, 0x3d	; 61
    2cb0:	fe b7       	in	r31, 0x3e	; 62
    2cb2:	d2 82       	std	Z+2, r13	; 0x02
    2cb4:	c1 82       	std	Z+1, r12	; 0x01
    2cb6:	e0 91 db 04 	lds	r30, 0x04DB
    2cba:	f0 91 dc 04 	lds	r31, 0x04DC
    2cbe:	80 81       	ld	r24, Z
    2cc0:	91 81       	ldd	r25, Z+1	; 0x01
    2cc2:	ad b7       	in	r26, 0x3d	; 61
    2cc4:	be b7       	in	r27, 0x3e	; 62
    2cc6:	14 96       	adiw	r26, 0x04	; 4
    2cc8:	9c 93       	st	X, r25
    2cca:	8e 93       	st	-X, r24
    2ccc:	13 97       	sbiw	r26, 0x03	; 3
    2cce:	0e 94 31 40 	call	0x8062	; 0x8062 <printf>
    2cd2:	4d e8       	ldi	r20, 0x8D	; 141
    2cd4:	a4 2e       	mov	r10, r20
    2cd6:	41 e0       	ldi	r20, 0x01	; 1
    2cd8:	b4 2e       	mov	r11, r20
    2cda:	ed b7       	in	r30, 0x3d	; 61
    2cdc:	fe b7       	in	r31, 0x3e	; 62
    2cde:	b2 82       	std	Z+2, r11	; 0x02
    2ce0:	a1 82       	std	Z+1, r10	; 0x01
    2ce2:	80 91 db 04 	lds	r24, 0x04DB
    2ce6:	90 91 dc 04 	lds	r25, 0x04DC
    2cea:	94 83       	std	Z+4, r25	; 0x04
    2cec:	83 83       	std	Z+3, r24	; 0x03
    2cee:	0e 94 31 40 	call	0x8062	; 0x8062 <printf>
    2cf2:	00 e2       	ldi	r16, 0x20	; 32
    2cf4:	14 e0       	ldi	r17, 0x04	; 4
    2cf6:	0f 90       	pop	r0
    2cf8:	0f 90       	pop	r0
    2cfa:	0f 90       	pop	r0
    2cfc:	0f 90       	pop	r0
    2cfe:	c0 e0       	ldi	r28, 0x00	; 0
    2d00:	d0 e0       	ldi	r29, 0x00	; 0
    2d02:	3d e9       	ldi	r19, 0x9D	; 157
    2d04:	63 2e       	mov	r6, r19
    2d06:	31 e0       	ldi	r19, 0x01	; 1
    2d08:	73 2e       	mov	r7, r19
    2d0a:	47 01       	movw	r8, r14
    2d0c:	c6 01       	movw	r24, r12
    2d0e:	dc 2c       	mov	r13, r12
    2d10:	c9 2e       	mov	r12, r25
    2d12:	c5 01       	movw	r24, r10
    2d14:	ba 2c       	mov	r11, r10
    2d16:	a9 2e       	mov	r10, r25
    2d18:	d8 01       	movw	r26, r16
    2d1a:	12 96       	adiw	r26, 0x02	; 2
    2d1c:	ed 90       	ld	r14, X+
    2d1e:	fc 90       	ld	r15, X
    2d20:	13 97       	sbiw	r26, 0x03	; 3
    2d22:	00 d0       	rcall	.+0      	; 0x2d24 <dump_stack_info+0x116>
    2d24:	00 d0       	rcall	.+0      	; 0x2d26 <dump_stack_info+0x118>
    2d26:	00 d0       	rcall	.+0      	; 0x2d28 <dump_stack_info+0x11a>
    2d28:	ed b7       	in	r30, 0x3d	; 61
    2d2a:	fe b7       	in	r31, 0x3e	; 62
    2d2c:	31 96       	adiw	r30, 0x01	; 1
    2d2e:	ad b7       	in	r26, 0x3d	; 61
    2d30:	be b7       	in	r27, 0x3e	; 62
    2d32:	12 96       	adiw	r26, 0x02	; 2
    2d34:	7c 92       	st	X, r7
    2d36:	6e 92       	st	-X, r6
    2d38:	11 97       	sbiw	r26, 0x01	; 1
    2d3a:	d3 83       	std	Z+3, r29	; 0x03
    2d3c:	c2 83       	std	Z+2, r28	; 0x02
    2d3e:	f5 82       	std	Z+5, r15	; 0x05
    2d40:	e4 82       	std	Z+4, r14	; 0x04
    2d42:	0e 94 31 40 	call	0x8062	; 0x8062 <printf>
    2d46:	0f 90       	pop	r0
    2d48:	0f 90       	pop	r0
    2d4a:	ed b7       	in	r30, 0x3d	; 61
    2d4c:	fe b7       	in	r31, 0x3e	; 62
    2d4e:	31 96       	adiw	r30, 0x01	; 1
    2d50:	ad b7       	in	r26, 0x3d	; 61
    2d52:	be b7       	in	r27, 0x3e	; 62
    2d54:	11 96       	adiw	r26, 0x01	; 1
    2d56:	8c 92       	st	X, r8
    2d58:	11 97       	sbiw	r26, 0x01	; 1
    2d5a:	12 96       	adiw	r26, 0x02	; 2
    2d5c:	9c 92       	st	X, r9
    2d5e:	d7 01       	movw	r26, r14
    2d60:	8c 91       	ld	r24, X
    2d62:	82 83       	std	Z+2, r24	; 0x02
    2d64:	13 82       	std	Z+3, r1	; 0x03
    2d66:	0e 94 31 40 	call	0x8062	; 0x8062 <printf>
    2d6a:	ed b7       	in	r30, 0x3d	; 61
    2d6c:	fe b7       	in	r31, 0x3e	; 62
    2d6e:	d1 82       	std	Z+1, r13	; 0x01
    2d70:	c2 82       	std	Z+2, r12	; 0x02
    2d72:	d8 01       	movw	r26, r16
    2d74:	8d 91       	ld	r24, X+
    2d76:	9c 91       	ld	r25, X
    2d78:	94 83       	std	Z+4, r25	; 0x04
    2d7a:	83 83       	std	Z+3, r24	; 0x03
    2d7c:	0e 94 31 40 	call	0x8062	; 0x8062 <printf>
    2d80:	ed b7       	in	r30, 0x3d	; 61
    2d82:	fe b7       	in	r31, 0x3e	; 62
    2d84:	b1 82       	std	Z+1, r11	; 0x01
    2d86:	a2 82       	std	Z+2, r10	; 0x02
    2d88:	ce 01       	movw	r24, r28
    2d8a:	25 e0       	ldi	r18, 0x05	; 5
    2d8c:	88 0f       	add	r24, r24
    2d8e:	99 1f       	adc	r25, r25
    2d90:	2a 95       	dec	r18
    2d92:	e1 f7       	brne	.-8      	; 0x2d8c <dump_stack_info+0x17e>
    2d94:	8c 0f       	add	r24, r28
    2d96:	9d 1f       	adc	r25, r29
    2d98:	80 5e       	subi	r24, 0xE0	; 224
    2d9a:	9b 4f       	sbci	r25, 0xFB	; 251
    2d9c:	94 83       	std	Z+4, r25	; 0x04
    2d9e:	83 83       	std	Z+3, r24	; 0x03
    2da0:	0e 94 31 40 	call	0x8062	; 0x8062 <printf>
    2da4:	21 96       	adiw	r28, 0x01	; 1
    2da6:	0f 5d       	subi	r16, 0xDF	; 223
    2da8:	1f 4f       	sbci	r17, 0xFF	; 255
    2daa:	0f 90       	pop	r0
    2dac:	0f 90       	pop	r0
    2dae:	0f 90       	pop	r0
    2db0:	0f 90       	pop	r0
    2db2:	c5 30       	cpi	r28, 0x05	; 5
    2db4:	d1 05       	cpc	r29, r1
    2db6:	09 f0       	breq	.+2      	; 0x2dba <dump_stack_info+0x1ac>
    2db8:	af cf       	rjmp	.-162    	; 0x2d18 <dump_stack_info+0x10a>
    2dba:	df 91       	pop	r29
    2dbc:	cf 91       	pop	r28
    2dbe:	1f 91       	pop	r17
    2dc0:	0f 91       	pop	r16
    2dc2:	ff 90       	pop	r15
    2dc4:	ef 90       	pop	r14
    2dc6:	df 90       	pop	r13
    2dc8:	cf 90       	pop	r12
    2dca:	bf 90       	pop	r11
    2dcc:	af 90       	pop	r10
    2dce:	9f 90       	pop	r9
    2dd0:	8f 90       	pop	r8
    2dd2:	7f 90       	pop	r7
    2dd4:	6f 90       	pop	r6
    2dd6:	08 95       	ret

00002dd8 <nrk_stack_check>:
    2dd8:	cf 93       	push	r28
    2dda:	df 93       	push	r29
    2ddc:	e0 91 db 04 	lds	r30, 0x04DB
    2de0:	f0 91 dc 04 	lds	r31, 0x04DC
    2de4:	c2 81       	ldd	r28, Z+2	; 0x02
    2de6:	d3 81       	ldd	r29, Z+3	; 0x03
    2de8:	88 81       	ld	r24, Y
    2dea:	85 35       	cpi	r24, 0x55	; 85
    2dec:	39 f0       	breq	.+14     	; 0x2dfc <nrk_stack_check+0x24>
    2dee:	0e 94 07 16 	call	0x2c0e	; 0x2c0e <dump_stack_info>
    2df2:	81 e0       	ldi	r24, 0x01	; 1
    2df4:	0e 94 fb 15 	call	0x2bf6	; 0x2bf6 <nrk_error_add>
    2df8:	85 e5       	ldi	r24, 0x55	; 85
    2dfa:	88 83       	st	Y, r24
    2dfc:	e0 91 db 04 	lds	r30, 0x04DB
    2e00:	f0 91 dc 04 	lds	r31, 0x04DC
    2e04:	80 81       	ld	r24, Z
    2e06:	91 81       	ldd	r25, Z+1	; 0x01
    2e08:	21 e1       	ldi	r18, 0x11	; 17
    2e0a:	80 30       	cpi	r24, 0x00	; 0
    2e0c:	92 07       	cpc	r25, r18
    2e0e:	28 f0       	brcs	.+10     	; 0x2e1a <nrk_stack_check+0x42>
    2e10:	0e 94 07 16 	call	0x2c0e	; 0x2c0e <dump_stack_info>
    2e14:	82 e1       	ldi	r24, 0x12	; 18
    2e16:	0e 94 fb 15 	call	0x2bf6	; 0x2bf6 <nrk_error_add>
    2e1a:	df 91       	pop	r29
    2e1c:	cf 91       	pop	r28
    2e1e:	08 95       	ret

00002e20 <nrk_stack_check_pid>:
    2e20:	99 27       	eor	r25, r25
    2e22:	87 fd       	sbrc	r24, 7
    2e24:	90 95       	com	r25
    2e26:	fc 01       	movw	r30, r24
    2e28:	75 e0       	ldi	r23, 0x05	; 5
    2e2a:	ee 0f       	add	r30, r30
    2e2c:	ff 1f       	adc	r31, r31
    2e2e:	7a 95       	dec	r23
    2e30:	e1 f7       	brne	.-8      	; 0x2e2a <nrk_stack_check_pid+0xa>
    2e32:	e8 0f       	add	r30, r24
    2e34:	f9 1f       	adc	r31, r25
    2e36:	e0 5e       	subi	r30, 0xE0	; 224
    2e38:	fb 4f       	sbci	r31, 0xFB	; 251
    2e3a:	a2 81       	ldd	r26, Z+2	; 0x02
    2e3c:	b3 81       	ldd	r27, Z+3	; 0x03
    2e3e:	8c 91       	ld	r24, X
    2e40:	85 35       	cpi	r24, 0x55	; 85
    2e42:	19 f0       	breq	.+6      	; 0x2e4a <nrk_stack_check_pid+0x2a>
    2e44:	85 e5       	ldi	r24, 0x55	; 85
    2e46:	8c 93       	st	X, r24
    2e48:	09 c0       	rjmp	.+18     	; 0x2e5c <nrk_stack_check_pid+0x3c>
    2e4a:	80 81       	ld	r24, Z
    2e4c:	91 81       	ldd	r25, Z+1	; 0x01
    2e4e:	21 e1       	ldi	r18, 0x11	; 17
    2e50:	80 30       	cpi	r24, 0x00	; 0
    2e52:	92 07       	cpc	r25, r18
    2e54:	28 f0       	brcs	.+10     	; 0x2e60 <nrk_stack_check_pid+0x40>
    2e56:	82 e1       	ldi	r24, 0x12	; 18
    2e58:	0e 94 fb 15 	call	0x2bf6	; 0x2bf6 <nrk_error_add>
    2e5c:	8f ef       	ldi	r24, 0xFF	; 255
    2e5e:	08 95       	ret
    2e60:	81 e0       	ldi	r24, 0x01	; 1
    2e62:	08 95       	ret

00002e64 <nrk_signal_create>:
    2e64:	60 91 fa 02 	lds	r22, 0x02FA
    2e68:	70 91 fb 02 	lds	r23, 0x02FB
    2e6c:	80 91 fc 02 	lds	r24, 0x02FC
    2e70:	90 91 fd 02 	lds	r25, 0x02FD
    2e74:	e0 e0       	ldi	r30, 0x00	; 0
    2e76:	f0 e0       	ldi	r31, 0x00	; 0
    2e78:	9b 01       	movw	r18, r22
    2e7a:	ac 01       	movw	r20, r24
    2e7c:	0e 2e       	mov	r0, r30
    2e7e:	04 c0       	rjmp	.+8      	; 0x2e88 <nrk_signal_create+0x24>
    2e80:	56 95       	lsr	r21
    2e82:	47 95       	ror	r20
    2e84:	37 95       	ror	r19
    2e86:	27 95       	ror	r18
    2e88:	0a 94       	dec	r0
    2e8a:	d2 f7       	brpl	.-12     	; 0x2e80 <nrk_signal_create+0x1c>
    2e8c:	20 fd       	sbrc	r18, 0
    2e8e:	1a c0       	rjmp	.+52     	; 0x2ec4 <nrk_signal_create+0x60>
    2e90:	21 e0       	ldi	r18, 0x01	; 1
    2e92:	30 e0       	ldi	r19, 0x00	; 0
    2e94:	40 e0       	ldi	r20, 0x00	; 0
    2e96:	50 e0       	ldi	r21, 0x00	; 0
    2e98:	0e 2e       	mov	r0, r30
    2e9a:	04 c0       	rjmp	.+8      	; 0x2ea4 <nrk_signal_create+0x40>
    2e9c:	22 0f       	add	r18, r18
    2e9e:	33 1f       	adc	r19, r19
    2ea0:	44 1f       	adc	r20, r20
    2ea2:	55 1f       	adc	r21, r21
    2ea4:	0a 94       	dec	r0
    2ea6:	d2 f7       	brpl	.-12     	; 0x2e9c <nrk_signal_create+0x38>
    2ea8:	26 2b       	or	r18, r22
    2eaa:	37 2b       	or	r19, r23
    2eac:	48 2b       	or	r20, r24
    2eae:	59 2b       	or	r21, r25
    2eb0:	20 93 fa 02 	sts	0x02FA, r18
    2eb4:	30 93 fb 02 	sts	0x02FB, r19
    2eb8:	40 93 fc 02 	sts	0x02FC, r20
    2ebc:	50 93 fd 02 	sts	0x02FD, r21
    2ec0:	8e 2f       	mov	r24, r30
    2ec2:	08 95       	ret
    2ec4:	31 96       	adiw	r30, 0x01	; 1
    2ec6:	e0 32       	cpi	r30, 0x20	; 32
    2ec8:	f1 05       	cpc	r31, r1
    2eca:	b1 f6       	brne	.-84     	; 0x2e78 <nrk_signal_create+0x14>
    2ecc:	8f ef       	ldi	r24, 0xFF	; 255
    2ece:	08 95       	ret

00002ed0 <nrk_signal_get_registered_mask>:
    2ed0:	e0 91 db 04 	lds	r30, 0x04DB
    2ed4:	f0 91 dc 04 	lds	r31, 0x04DC
    2ed8:	65 85       	ldd	r22, Z+13	; 0x0d
    2eda:	76 85       	ldd	r23, Z+14	; 0x0e
    2edc:	87 85       	ldd	r24, Z+15	; 0x0f
    2ede:	90 89       	ldd	r25, Z+16	; 0x10
    2ee0:	08 95       	ret

00002ee2 <nrk_signal_delete>:
    2ee2:	df 92       	push	r13
    2ee4:	ef 92       	push	r14
    2ee6:	ff 92       	push	r15
    2ee8:	0f 93       	push	r16
    2eea:	1f 93       	push	r17
    2eec:	d8 2e       	mov	r13, r24
    2eee:	81 e0       	ldi	r24, 0x01	; 1
    2ef0:	e8 2e       	mov	r14, r24
    2ef2:	f1 2c       	mov	r15, r1
    2ef4:	01 2d       	mov	r16, r1
    2ef6:	11 2d       	mov	r17, r1
    2ef8:	0d 2c       	mov	r0, r13
    2efa:	04 c0       	rjmp	.+8      	; 0x2f04 <nrk_signal_delete+0x22>
    2efc:	ee 0c       	add	r14, r14
    2efe:	ff 1c       	adc	r15, r15
    2f00:	00 1f       	adc	r16, r16
    2f02:	11 1f       	adc	r17, r17
    2f04:	0a 94       	dec	r0
    2f06:	d2 f7       	brpl	.-12     	; 0x2efc <nrk_signal_delete+0x1a>
    2f08:	80 91 fa 02 	lds	r24, 0x02FA
    2f0c:	90 91 fb 02 	lds	r25, 0x02FB
    2f10:	a0 91 fc 02 	lds	r26, 0x02FC
    2f14:	b0 91 fd 02 	lds	r27, 0x02FD
    2f18:	8e 21       	and	r24, r14
    2f1a:	9f 21       	and	r25, r15
    2f1c:	a0 23       	and	r26, r16
    2f1e:	b1 23       	and	r27, r17
    2f20:	00 97       	sbiw	r24, 0x00	; 0
    2f22:	a1 05       	cpc	r26, r1
    2f24:	b1 05       	cpc	r27, r1
    2f26:	09 f4       	brne	.+2      	; 0x2f2a <nrk_signal_delete+0x48>
    2f28:	5d c0       	rjmp	.+186    	; 0x2fe4 <nrk_signal_delete+0x102>
    2f2a:	0e 94 e0 11 	call	0x23c0	; 0x23c0 <nrk_int_disable>
    2f2e:	e7 e2       	ldi	r30, 0x27	; 39
    2f30:	f4 e0       	ldi	r31, 0x04	; 4
    2f32:	a8 01       	movw	r20, r16
    2f34:	97 01       	movw	r18, r14
    2f36:	20 95       	com	r18
    2f38:	30 95       	com	r19
    2f3a:	40 95       	com	r20
    2f3c:	50 95       	com	r21
    2f3e:	63 e0       	ldi	r22, 0x03	; 3
    2f40:	81 81       	ldd	r24, Z+1	; 0x01
    2f42:	8f 3f       	cpi	r24, 0xFF	; 255
    2f44:	39 f1       	breq	.+78     	; 0x2f94 <nrk_signal_delete+0xb2>
    2f46:	86 81       	ldd	r24, Z+6	; 0x06
    2f48:	97 81       	ldd	r25, Z+7	; 0x07
    2f4a:	a0 85       	ldd	r26, Z+8	; 0x08
    2f4c:	b1 85       	ldd	r27, Z+9	; 0x09
    2f4e:	8e 15       	cp	r24, r14
    2f50:	9f 05       	cpc	r25, r15
    2f52:	a0 07       	cpc	r26, r16
    2f54:	b1 07       	cpc	r27, r17
    2f56:	31 f4       	brne	.+12     	; 0x2f64 <nrk_signal_delete+0x82>
    2f58:	12 86       	std	Z+10, r1	; 0x0a
    2f5a:	13 86       	std	Z+11, r1	; 0x0b
    2f5c:	14 86       	std	Z+12, r1	; 0x0c
    2f5e:	15 86       	std	Z+13, r1	; 0x0d
    2f60:	10 82       	st	Z, r1
    2f62:	62 83       	std	Z+2, r22	; 0x02
    2f64:	86 81       	ldd	r24, Z+6	; 0x06
    2f66:	97 81       	ldd	r25, Z+7	; 0x07
    2f68:	a0 85       	ldd	r26, Z+8	; 0x08
    2f6a:	b1 85       	ldd	r27, Z+9	; 0x09
    2f6c:	82 23       	and	r24, r18
    2f6e:	93 23       	and	r25, r19
    2f70:	a4 23       	and	r26, r20
    2f72:	b5 23       	and	r27, r21
    2f74:	86 83       	std	Z+6, r24	; 0x06
    2f76:	97 83       	std	Z+7, r25	; 0x07
    2f78:	a0 87       	std	Z+8, r26	; 0x08
    2f7a:	b1 87       	std	Z+9, r27	; 0x09
    2f7c:	82 85       	ldd	r24, Z+10	; 0x0a
    2f7e:	93 85       	ldd	r25, Z+11	; 0x0b
    2f80:	a4 85       	ldd	r26, Z+12	; 0x0c
    2f82:	b5 85       	ldd	r27, Z+13	; 0x0d
    2f84:	82 23       	and	r24, r18
    2f86:	93 23       	and	r25, r19
    2f88:	a4 23       	and	r26, r20
    2f8a:	b5 23       	and	r27, r21
    2f8c:	82 87       	std	Z+10, r24	; 0x0a
    2f8e:	93 87       	std	Z+11, r25	; 0x0b
    2f90:	a4 87       	std	Z+12, r26	; 0x0c
    2f92:	b5 87       	std	Z+13, r27	; 0x0d
    2f94:	b1 96       	adiw	r30, 0x21	; 33
    2f96:	84 e0       	ldi	r24, 0x04	; 4
    2f98:	ec 3c       	cpi	r30, 0xCC	; 204
    2f9a:	f8 07       	cpc	r31, r24
    2f9c:	89 f6       	brne	.-94     	; 0x2f40 <nrk_signal_delete+0x5e>
    2f9e:	2e ef       	ldi	r18, 0xFE	; 254
    2fa0:	3f ef       	ldi	r19, 0xFF	; 255
    2fa2:	4f ef       	ldi	r20, 0xFF	; 255
    2fa4:	5f ef       	ldi	r21, 0xFF	; 255
    2fa6:	04 c0       	rjmp	.+8      	; 0x2fb0 <nrk_signal_delete+0xce>
    2fa8:	22 0f       	add	r18, r18
    2faa:	33 1f       	adc	r19, r19
    2fac:	44 1f       	adc	r20, r20
    2fae:	55 1f       	adc	r21, r21
    2fb0:	da 94       	dec	r13
    2fb2:	d2 f7       	brpl	.-12     	; 0x2fa8 <nrk_signal_delete+0xc6>
    2fb4:	80 91 fa 02 	lds	r24, 0x02FA
    2fb8:	90 91 fb 02 	lds	r25, 0x02FB
    2fbc:	a0 91 fc 02 	lds	r26, 0x02FC
    2fc0:	b0 91 fd 02 	lds	r27, 0x02FD
    2fc4:	82 23       	and	r24, r18
    2fc6:	93 23       	and	r25, r19
    2fc8:	a4 23       	and	r26, r20
    2fca:	b5 23       	and	r27, r21
    2fcc:	80 93 fa 02 	sts	0x02FA, r24
    2fd0:	90 93 fb 02 	sts	0x02FB, r25
    2fd4:	a0 93 fc 02 	sts	0x02FC, r26
    2fd8:	b0 93 fd 02 	sts	0x02FD, r27
    2fdc:	0e 94 e2 11 	call	0x23c4	; 0x23c4 <nrk_int_enable>
    2fe0:	81 e0       	ldi	r24, 0x01	; 1
    2fe2:	01 c0       	rjmp	.+2      	; 0x2fe6 <nrk_signal_delete+0x104>
    2fe4:	8f ef       	ldi	r24, 0xFF	; 255
    2fe6:	1f 91       	pop	r17
    2fe8:	0f 91       	pop	r16
    2fea:	ff 90       	pop	r15
    2fec:	ef 90       	pop	r14
    2fee:	df 90       	pop	r13
    2ff0:	08 95       	ret

00002ff2 <nrk_signal_unregister>:
    2ff2:	ef 92       	push	r14
    2ff4:	ff 92       	push	r15
    2ff6:	0f 93       	push	r16
    2ff8:	1f 93       	push	r17
    2ffa:	21 e0       	ldi	r18, 0x01	; 1
    2ffc:	30 e0       	ldi	r19, 0x00	; 0
    2ffe:	40 e0       	ldi	r20, 0x00	; 0
    3000:	50 e0       	ldi	r21, 0x00	; 0
    3002:	04 c0       	rjmp	.+8      	; 0x300c <nrk_signal_unregister+0x1a>
    3004:	22 0f       	add	r18, r18
    3006:	33 1f       	adc	r19, r19
    3008:	44 1f       	adc	r20, r20
    300a:	55 1f       	adc	r21, r21
    300c:	8a 95       	dec	r24
    300e:	d2 f7       	brpl	.-12     	; 0x3004 <nrk_signal_unregister+0x12>
    3010:	e0 91 db 04 	lds	r30, 0x04DB
    3014:	f0 91 dc 04 	lds	r31, 0x04DC
    3018:	85 85       	ldd	r24, Z+13	; 0x0d
    301a:	96 85       	ldd	r25, Z+14	; 0x0e
    301c:	a7 85       	ldd	r26, Z+15	; 0x0f
    301e:	b0 89       	ldd	r27, Z+16	; 0x10
    3020:	79 01       	movw	r14, r18
    3022:	8a 01       	movw	r16, r20
    3024:	e8 22       	and	r14, r24
    3026:	f9 22       	and	r15, r25
    3028:	0a 23       	and	r16, r26
    302a:	1b 23       	and	r17, r27
    302c:	e1 14       	cp	r14, r1
    302e:	f1 04       	cpc	r15, r1
    3030:	01 05       	cpc	r16, r1
    3032:	11 05       	cpc	r17, r1
    3034:	d1 f0       	breq	.+52     	; 0x306a <nrk_signal_unregister+0x78>
    3036:	20 95       	com	r18
    3038:	30 95       	com	r19
    303a:	40 95       	com	r20
    303c:	50 95       	com	r21
    303e:	82 23       	and	r24, r18
    3040:	93 23       	and	r25, r19
    3042:	a4 23       	and	r26, r20
    3044:	b5 23       	and	r27, r21
    3046:	85 87       	std	Z+13, r24	; 0x0d
    3048:	96 87       	std	Z+14, r25	; 0x0e
    304a:	a7 87       	std	Z+15, r26	; 0x0f
    304c:	b0 8b       	std	Z+16, r27	; 0x10
    304e:	81 89       	ldd	r24, Z+17	; 0x11
    3050:	92 89       	ldd	r25, Z+18	; 0x12
    3052:	a3 89       	ldd	r26, Z+19	; 0x13
    3054:	b4 89       	ldd	r27, Z+20	; 0x14
    3056:	82 23       	and	r24, r18
    3058:	93 23       	and	r25, r19
    305a:	a4 23       	and	r26, r20
    305c:	b5 23       	and	r27, r21
    305e:	81 8b       	std	Z+17, r24	; 0x11
    3060:	92 8b       	std	Z+18, r25	; 0x12
    3062:	a3 8b       	std	Z+19, r26	; 0x13
    3064:	b4 8b       	std	Z+20, r27	; 0x14
    3066:	81 e0       	ldi	r24, 0x01	; 1
    3068:	01 c0       	rjmp	.+2      	; 0x306c <nrk_signal_unregister+0x7a>
    306a:	8f ef       	ldi	r24, 0xFF	; 255
    306c:	1f 91       	pop	r17
    306e:	0f 91       	pop	r16
    3070:	ff 90       	pop	r15
    3072:	ef 90       	pop	r14
    3074:	08 95       	ret

00003076 <nrk_signal_register>:
    3076:	20 91 fa 02 	lds	r18, 0x02FA
    307a:	30 91 fb 02 	lds	r19, 0x02FB
    307e:	40 91 fc 02 	lds	r20, 0x02FC
    3082:	50 91 fd 02 	lds	r21, 0x02FD
    3086:	08 2e       	mov	r0, r24
    3088:	04 c0       	rjmp	.+8      	; 0x3092 <nrk_signal_register+0x1c>
    308a:	56 95       	lsr	r21
    308c:	47 95       	ror	r20
    308e:	37 95       	ror	r19
    3090:	27 95       	ror	r18
    3092:	0a 94       	dec	r0
    3094:	d2 f7       	brpl	.-12     	; 0x308a <nrk_signal_register+0x14>
    3096:	21 70       	andi	r18, 0x01	; 1
    3098:	30 70       	andi	r19, 0x00	; 0
    309a:	21 15       	cp	r18, r1
    309c:	31 05       	cpc	r19, r1
    309e:	e9 f0       	breq	.+58     	; 0x30da <nrk_signal_register+0x64>
    30a0:	e0 91 db 04 	lds	r30, 0x04DB
    30a4:	f0 91 dc 04 	lds	r31, 0x04DC
    30a8:	21 e0       	ldi	r18, 0x01	; 1
    30aa:	30 e0       	ldi	r19, 0x00	; 0
    30ac:	40 e0       	ldi	r20, 0x00	; 0
    30ae:	50 e0       	ldi	r21, 0x00	; 0
    30b0:	04 c0       	rjmp	.+8      	; 0x30ba <nrk_signal_register+0x44>
    30b2:	22 0f       	add	r18, r18
    30b4:	33 1f       	adc	r19, r19
    30b6:	44 1f       	adc	r20, r20
    30b8:	55 1f       	adc	r21, r21
    30ba:	8a 95       	dec	r24
    30bc:	d2 f7       	brpl	.-12     	; 0x30b2 <nrk_signal_register+0x3c>
    30be:	85 85       	ldd	r24, Z+13	; 0x0d
    30c0:	96 85       	ldd	r25, Z+14	; 0x0e
