
main.elf:     file format elf32-avr

Sections:
Idx Name          Size      VMA       LMA       File off  Algn
  0 .data         000001bc  00800200  000063ca  0000645e  2**0
                  CONTENTS, ALLOC, LOAD, DATA
  1 .text         000063ca  00000000  00000000  00000094  2**1
                  CONTENTS, ALLOC, LOAD, READONLY, CODE
  2 .bss          000004b8  008003bc  008003bc  0000661a  2**0
                  ALLOC
  3 .stab         000108a8  00000000  00000000  0000661c  2**2
                  CONTENTS, READONLY, DEBUGGING
  4 .stabstr      0000994f  00000000  00000000  00016ec4  2**0
                  CONTENTS, READONLY, DEBUGGING

Disassembly of section .text:

00000000 <__vectors>:
       0:	0c 94 92 02 	jmp	0x524	; 0x524 <__ctors_end>
       4:	0c 94 79 25 	jmp	0x4af2	; 0x4af2 <__vector_1>
       8:	0c 94 b1 02 	jmp	0x562	; 0x562 <__bad_interrupt>
       c:	0c 94 b1 02 	jmp	0x562	; 0x562 <__bad_interrupt>
      10:	0c 94 b1 02 	jmp	0x562	; 0x562 <__bad_interrupt>
      14:	0c 94 b1 02 	jmp	0x562	; 0x562 <__bad_interrupt>
      18:	0c 94 b1 02 	jmp	0x562	; 0x562 <__bad_interrupt>
      1c:	0c 94 b1 02 	jmp	0x562	; 0x562 <__bad_interrupt>
      20:	0c 94 b1 02 	jmp	0x562	; 0x562 <__bad_interrupt>
      24:	0c 94 47 25 	jmp	0x4a8e	; 0x4a8e <__vector_9>
      28:	0c 94 b1 02 	jmp	0x562	; 0x562 <__bad_interrupt>
      2c:	0c 94 b1 02 	jmp	0x562	; 0x562 <__bad_interrupt>
      30:	0c 94 b1 02 	jmp	0x562	; 0x562 <__bad_interrupt>
      34:	0c 94 a5 23 	jmp	0x474a	; 0x474a <__vector_13>
      38:	0c 94 b1 02 	jmp	0x562	; 0x562 <__bad_interrupt>
      3c:	0c 94 a5 23 	jmp	0x474a	; 0x474a <__vector_13>
      40:	0c 94 b1 02 	jmp	0x562	; 0x562 <__bad_interrupt>
      44:	0c 94 b1 02 	jmp	0x562	; 0x562 <__bad_interrupt>
      48:	0c 94 b1 02 	jmp	0x562	; 0x562 <__bad_interrupt>
      4c:	0c 94 b1 02 	jmp	0x562	; 0x562 <__bad_interrupt>
      50:	0c 94 b1 02 	jmp	0x562	; 0x562 <__bad_interrupt>
      54:	0c 94 b1 02 	jmp	0x562	; 0x562 <__bad_interrupt>
      58:	0c 94 b1 02 	jmp	0x562	; 0x562 <__bad_interrupt>
      5c:	0c 94 b1 02 	jmp	0x562	; 0x562 <__bad_interrupt>
      60:	0c 94 b1 02 	jmp	0x562	; 0x562 <__bad_interrupt>
      64:	0c 94 b1 02 	jmp	0x562	; 0x562 <__bad_interrupt>
      68:	0c 94 b1 02 	jmp	0x562	; 0x562 <__bad_interrupt>
      6c:	0c 94 b1 02 	jmp	0x562	; 0x562 <__bad_interrupt>
      70:	0c 94 b1 02 	jmp	0x562	; 0x562 <__bad_interrupt>
      74:	0c 94 b1 02 	jmp	0x562	; 0x562 <__bad_interrupt>
      78:	0c 94 b1 02 	jmp	0x562	; 0x562 <__bad_interrupt>
      7c:	0c 94 b1 02 	jmp	0x562	; 0x562 <__bad_interrupt>
      80:	0c 94 d8 23 	jmp	0x47b0	; 0x47b0 <__vector_32>
      84:	0c 94 b1 02 	jmp	0x562	; 0x562 <__bad_interrupt>
      88:	0c 94 b1 02 	jmp	0x562	; 0x562 <__bad_interrupt>
      8c:	0c 94 b1 02 	jmp	0x562	; 0x562 <__bad_interrupt>
      90:	0c 94 b1 02 	jmp	0x562	; 0x562 <__bad_interrupt>
      94:	0c 94 b1 02 	jmp	0x562	; 0x562 <__bad_interrupt>
      98:	0c 94 b1 02 	jmp	0x562	; 0x562 <__bad_interrupt>
      9c:	0c 94 b1 02 	jmp	0x562	; 0x562 <__bad_interrupt>
      a0:	0c 94 b1 02 	jmp	0x562	; 0x562 <__bad_interrupt>
      a4:	0c 94 b1 02 	jmp	0x562	; 0x562 <__bad_interrupt>
      a8:	0c 94 b1 02 	jmp	0x562	; 0x562 <__bad_interrupt>
      ac:	0c 94 b1 02 	jmp	0x562	; 0x562 <__bad_interrupt>
      b0:	0c 94 b1 02 	jmp	0x562	; 0x562 <__bad_interrupt>
      b4:	0c 94 b1 02 	jmp	0x562	; 0x562 <__bad_interrupt>
      b8:	0c 94 b1 02 	jmp	0x562	; 0x562 <__bad_interrupt>
      bc:	0c 94 b1 02 	jmp	0x562	; 0x562 <__bad_interrupt>
      c0:	0c 94 b1 02 	jmp	0x562	; 0x562 <__bad_interrupt>
      c4:	0c 94 b1 02 	jmp	0x562	; 0x562 <__bad_interrupt>
      c8:	0c 94 b1 02 	jmp	0x562	; 0x562 <__bad_interrupt>
      cc:	0c 94 b1 02 	jmp	0x562	; 0x562 <__bad_interrupt>
      d0:	0c 94 b1 02 	jmp	0x562	; 0x562 <__bad_interrupt>
      d4:	0c 94 b1 02 	jmp	0x562	; 0x562 <__bad_interrupt>
      d8:	0c 94 b1 02 	jmp	0x562	; 0x562 <__bad_interrupt>
      dc:	0c 94 b1 02 	jmp	0x562	; 0x562 <__bad_interrupt>
      e0:	0c 94 b1 02 	jmp	0x562	; 0x562 <__bad_interrupt>
      e4:	0c 94 62 0c 	jmp	0x18c4	; 0x18c4 <__vector_57>
      e8:	0c 94 53 0c 	jmp	0x18a6	; 0x18a6 <__vector_58>
      ec:	0c 94 23 0c 	jmp	0x1846	; 0x1846 <__vector_59>
      f0:	0c 94 c5 0b 	jmp	0x178a	; 0x178a <__vector_60>
      f4:	0c 94 14 0c 	jmp	0x1828	; 0x1828 <__vector_61>
      f8:	0c 94 05 0c 	jmp	0x180a	; 0x180a <__vector_62>
      fc:	0c 94 f3 0b 	jmp	0x17e6	; 0x17e6 <__vector_63>
     100:	0c 94 e4 0b 	jmp	0x17c8	; 0x17c8 <__vector_64>
     104:	0c 94 b1 02 	jmp	0x562	; 0x562 <__bad_interrupt>
     108:	0c 94 b1 02 	jmp	0x562	; 0x562 <__bad_interrupt>
     10c:	0c 94 b1 02 	jmp	0x562	; 0x562 <__bad_interrupt>
     110:	0c 94 b1 02 	jmp	0x562	; 0x562 <__bad_interrupt>
     114:	0c 94 b1 02 	jmp	0x562	; 0x562 <__bad_interrupt>
     118:	0c 94 b1 02 	jmp	0x562	; 0x562 <__bad_interrupt>
     11c:	0c 94 b1 02 	jmp	0x562	; 0x562 <__bad_interrupt>
     120:	be 14       	cp	r11, r14
     122:	c4 14       	cp	r12, r4
     124:	c7 14       	cp	r12, r7
     126:	ca 14       	cp	r12, r10
     128:	cd 14       	cp	r12, r13
     12a:	d0 14       	cp	r13, r0
     12c:	d6 14       	cp	r13, r6
     12e:	d3 14       	cp	r13, r3
     130:	d9 14       	cp	r13, r9
     132:	dc 14       	cp	r13, r12
     134:	df 14       	cp	r13, r15
     136:	e8 14       	cp	r14, r8
     138:	eb 14       	cp	r14, r11
     13a:	ee 14       	cp	r14, r14
     13c:	f1 14       	cp	r15, r1
     13e:	e5 14       	cp	r14, r5
     140:	bb 14       	cp	r11, r11
     142:	c1 14       	cp	r12, r1
     144:	f4 14       	cp	r15, r4
     146:	f7 14       	cp	r15, r7
     148:	e2 14       	cp	r14, r2
     14a:	b8 14       	cp	r11, r8

0000014c <__c.2911>:
     14c:	4f 53       	subi	r20, 0x3F	; 63
     14e:	20 74       	andi	r18, 0x40	; 64
     150:	69 63       	ori	r22, 0x39	; 57
     152:	6b 20       	and	r6, r11
     154:	74 69       	ori	r23, 0x94	; 148
     156:	6d 65       	ori	r22, 0x5D	; 93
     158:	3a 20       	and	r3, r10
     15a:	00 4d       	sbci	r16, 0xD0	; 208

0000015b <__c.2901>:
     15b:	4d 61       	ori	r20, 0x1D	; 29
     15d:	78 20       	and	r7, r8
     15f:	77 61       	ori	r23, 0x17	; 23
     161:	6b 65       	ori	r22, 0x5B	; 91
     163:	75 70       	andi	r23, 0x05	; 5
     165:	20 74       	andi	r18, 0x40	; 64
     167:	69 6d       	ori	r22, 0xD9	; 217
     169:	65 3a       	cpi	r22, 0xA5	; 165
     16b:	20 00       	.word	0x0020	; ????

0000016d <__c.2899>:
     16d:	4e 4f       	sbci	r20, 0xFE	; 254
     16f:	20 50       	subi	r18, 0x00	; 0
     171:	4b 54       	subi	r20, 0x4B	; 75
     173:	0d 0a       	sbc	r0, r29
     175:	00 4f       	sbci	r16, 0xF0	; 240

00000176 <__c.2897>:
     176:	4f 4b       	sbci	r20, 0xBF	; 191
     178:	20 20       	and	r2, r0
     17a:	52 53       	subi	r21, 0x32	; 50
     17c:	53 49       	sbci	r21, 0x93	; 147
     17e:	3a 00       	.word	0x003a	; ????

00000180 <__c.2895>:
     180:	52 58       	subi	r21, 0x82	; 130
     182:	20 73       	andi	r18, 0x30	; 48
     184:	74 61       	ori	r23, 0x14	; 20
     186:	74 75       	andi	r23, 0x54	; 84
     188:	73 3a       	cpi	r23, 0xA3	; 163
     18a:	20 00       	.word	0x0020	; ????

0000018c <__c.2893>:
     18c:	4e 4f       	sbci	r20, 0xFE	; 254
     18e:	4e 45       	sbci	r20, 0x5E	; 94
     190:	0d 0a       	sbc	r0, r29
     192:	00 4f       	sbci	r16, 0xF0	; 240

00000193 <__c.2891>:
     193:	4f 4b       	sbci	r20, 0xBF	; 191
     195:	0d 0a       	sbc	r0, r29
     197:	00 54       	subi	r16, 0x40	; 64

00000198 <__c.2889>:
     198:	54 58       	subi	r21, 0x84	; 132
     19a:	20 73       	andi	r18, 0x30	; 48
     19c:	74 61       	ori	r23, 0x14	; 20
     19e:	74 75       	andi	r23, 0x54	; 84
     1a0:	73 3a       	cpi	r23, 0xA3	; 163
     1a2:	20 00       	.word	0x0020	; ????

000001a4 <__c.2887>:
     1a4:	53 65       	ori	r21, 0x53	; 83
     1a6:	6c 66       	ori	r22, 0x6C	; 108
     1a8:	20 54       	subi	r18, 0x40	; 64
     1aa:	65 73       	andi	r22, 0x35	; 53
     1ac:	74 20       	and	r7, r4
     1ae:	43 79       	andi	r20, 0x93	; 147
     1b0:	63 6c       	ori	r22, 0xC3	; 195
     1b2:	65 3a       	cpi	r22, 0xA5	; 165
     1b4:	20 00       	.word	0x0020	; ????

000001b6 <__c.2885>:
     1b6:	54 58       	subi	r21, 0x84	; 132
     1b8:	20 64       	ori	r18, 0x40	; 64
     1ba:	6f 6e       	ori	r22, 0xEF	; 239
     1bc:	65 20       	and	r6, r5
     1be:	73 69       	ori	r23, 0x93	; 147
     1c0:	67 6e       	ori	r22, 0xE7	; 231
     1c2:	61 6c       	ori	r22, 0xC1	; 193
     1c4:	20 65       	ori	r18, 0x50	; 80
     1c6:	72 72       	andi	r23, 0x22	; 34
     1c8:	6f 72       	andi	r22, 0x2F	; 47
     1ca:	0d 0a       	sbc	r0, r29
     1cc:	00 45       	sbci	r16, 0x50	; 80

000001cd <__c.2864>:
     1cd:	45 52       	subi	r20, 0x25	; 37
     1cf:	52 4f       	sbci	r21, 0xF2	; 242
     1d1:	52 20       	and	r5, r2
     1d3:	73 65       	ori	r23, 0x53	; 83
     1d5:	74 74       	andi	r23, 0x44	; 68
     1d7:	69 6e       	ori	r22, 0xE9	; 233
     1d9:	67 20       	and	r6, r7
     1db:	62 6d       	ori	r22, 0xD2	; 210
     1dd:	61 63       	ori	r22, 0x31	; 49
     1df:	20 72       	andi	r18, 0x20	; 32
     1e1:	61 74       	andi	r22, 0x41	; 65
     1e3:	65 0d       	add	r22, r5
     1e5:	0a 00       	.word	0x000a	; ????

000001e7 <__c.3154>:
     1e7:	46 61       	ori	r20, 0x16	; 22
     1e9:	69 6c       	ori	r22, 0xC9	; 201
     1eb:	65 64       	ori	r22, 0x45	; 69
     1ed:	20 74       	andi	r18, 0x40	; 64
     1ef:	6f 20       	and	r6, r15
     1f1:	72 65       	ori	r23, 0x52	; 82
     1f3:	67 69       	ori	r22, 0x97	; 151
     1f5:	73 74       	andi	r23, 0x43	; 67
     1f7:	65 72       	andi	r22, 0x25	; 37
     1f9:	20 73       	andi	r18, 0x30	; 48
     1fb:	69 67       	ori	r22, 0x79	; 121
     1fd:	6e 61       	ori	r22, 0x1E	; 30
     1ff:	6c 0d       	add	r22, r12
     201:	0a 00       	.word	0x000a	; ????

00000203 <__c.3128>:
     203:	42 4d       	sbci	r20, 0xD2	; 210
     205:	41 43       	sbci	r20, 0x31	; 49
     207:	20 54       	subi	r18, 0x40	; 64
     209:	58 3a       	cpi	r21, 0xA8	; 168
     20b:	20 57       	subi	r18, 0x70	; 112
     20d:	6f 6b       	ori	r22, 0xBF	; 191
     20f:	65 20       	and	r6, r5
     211:	75 70       	andi	r23, 0x05	; 5
     213:	20 6f       	ori	r18, 0xF0	; 240
     215:	6e 20       	and	r6, r14
     217:	77 72       	andi	r23, 0x27	; 39
     219:	6f 6e       	ori	r22, 0xEF	; 239
     21b:	67 20       	and	r6, r7
     21d:	73 69       	ori	r23, 0x93	; 147
     21f:	67 6e       	ori	r22, 0xE7	; 231
     221:	61 6c       	ori	r22, 0xC1	; 193
     223:	0d 0a       	sbc	r0, r29
     225:	00 42       	sbci	r16, 0x20	; 32

00000226 <__c.3126>:
     226:	42 4d       	sbci	r20, 0xD2	; 210
     228:	41 43       	sbci	r20, 0x31	; 49
     22a:	20 54       	subi	r18, 0x40	; 64
     22c:	58 3a       	cpi	r21, 0xA8	; 168
     22e:	20 45       	sbci	r18, 0x50	; 80
     230:	72 72       	andi	r23, 0x22	; 34
     232:	6f 72       	andi	r22, 0x2F	; 47
     234:	20 63       	ori	r18, 0x30	; 48
     236:	61 6c       	ori	r22, 0xC1	; 193
     238:	6c 69       	ori	r22, 0x9C	; 156
     23a:	6e 67       	ori	r22, 0x7E	; 126
     23c:	20 65       	ori	r18, 0x50	; 80
     23e:	76 65       	ori	r23, 0x56	; 86
     240:	6e 74       	andi	r22, 0x4E	; 78
     242:	20 77       	andi	r18, 0x70	; 112
     244:	61 69       	ori	r22, 0x91	; 145
     246:	74 0d       	add	r23, r4
     248:	0a 00       	.word	0x000a	; ????

0000024a <__c.3110>:
     24a:	42 4d       	sbci	r20, 0xD2	; 210
     24c:	41 43       	sbci	r20, 0x31	; 49
     24e:	20 45       	sbci	r18, 0x50	; 80
     250:	52 52       	subi	r21, 0x22	; 34
     252:	4f 52       	subi	r20, 0x2F	; 47
     254:	3a 20       	and	r3, r10
     256:	63 72       	andi	r22, 0x23	; 35
     258:	65 61       	ori	r22, 0x15	; 21
     25a:	74 69       	ori	r23, 0x94	; 148
     25c:	6e 67       	ori	r22, 0x7E	; 126
     25e:	20 65       	ori	r18, 0x50	; 80
     260:	6e 61       	ori	r22, 0x1E	; 30
     262:	62 6c       	ori	r22, 0xC2	; 194
     264:	65 20       	and	r6, r5
     266:	73 69       	ori	r23, 0x93	; 147
     268:	67 6e       	ori	r22, 0xE7	; 231
     26a:	61 6c       	ori	r22, 0xC1	; 193
     26c:	20 66       	ori	r18, 0x60	; 96
     26e:	61 69       	ori	r22, 0x91	; 145
     270:	6c 65       	ori	r22, 0x5C	; 92
     272:	64 0d       	add	r22, r4
     274:	0a 00       	.word	0x000a	; ????

00000276 <__c.3108>:
     276:	42 4d       	sbci	r20, 0xD2	; 210
     278:	41 43       	sbci	r20, 0x31	; 49
     27a:	20 45       	sbci	r18, 0x50	; 80
     27c:	52 52       	subi	r21, 0x22	; 34
     27e:	4f 52       	subi	r20, 0x2F	; 47
     280:	3a 20       	and	r3, r10
     282:	63 72       	andi	r22, 0x23	; 35
     284:	65 61       	ori	r22, 0x15	; 21
     286:	74 69       	ori	r23, 0x94	; 148
     288:	6e 67       	ori	r22, 0x7E	; 126
     28a:	20 74       	andi	r18, 0x40	; 64
     28c:	78 20       	and	r7, r8
     28e:	73 69       	ori	r23, 0x93	; 147
     290:	67 6e       	ori	r22, 0xE7	; 231
     292:	61 6c       	ori	r22, 0xC1	; 193
     294:	20 66       	ori	r18, 0x60	; 96
     296:	61 69       	ori	r22, 0x91	; 145
     298:	6c 65       	ori	r22, 0x5C	; 92
     29a:	64 0d       	add	r22, r4
     29c:	0a 00       	.word	0x000a	; ????

0000029e <__c.3106>:
     29e:	42 4d       	sbci	r20, 0xD2	; 210
     2a0:	41 43       	sbci	r20, 0x31	; 49
     2a2:	20 45       	sbci	r18, 0x50	; 80
     2a4:	52 52       	subi	r21, 0x22	; 34
     2a6:	4f 52       	subi	r20, 0x2F	; 47
     2a8:	3a 20       	and	r3, r10
     2aa:	63 72       	andi	r22, 0x23	; 35
     2ac:	65 61       	ori	r22, 0x15	; 21
     2ae:	74 69       	ori	r23, 0x94	; 148
     2b0:	6e 67       	ori	r22, 0x7E	; 126
     2b2:	20 72       	andi	r18, 0x20	; 32
     2b4:	78 20       	and	r7, r8
     2b6:	73 69       	ori	r23, 0x93	; 147
     2b8:	67 6e       	ori	r22, 0xE7	; 231
     2ba:	61 6c       	ori	r22, 0xC1	; 193
     2bc:	20 66       	ori	r18, 0x60	; 96
     2be:	61 69       	ori	r22, 0x91	; 145
     2c0:	6c 65       	ori	r22, 0x5C	; 92
     2c2:	64 0d       	add	r22, r4
     2c4:	0a 00       	.word	0x000a	; ????

000002c6 <__c.2852>:
     2c6:	55 4e       	sbci	r21, 0xE5	; 229
     2c8:	4b 4f       	sbci	r20, 0xFB	; 251
     2ca:	57 4e       	sbci	r21, 0xE7	; 231
     2cc:	00 45       	sbci	r16, 0x50	; 80

000002cd <__c.2849>:
     2cd:	45 78       	andi	r20, 0x85	; 133
     2cf:	74 65       	ori	r23, 0x54	; 84
     2d1:	72 6e       	ori	r23, 0xE2	; 226
     2d3:	61 6c       	ori	r22, 0xC1	; 193
     2d5:	20 52       	subi	r18, 0x20	; 32
     2d7:	65 73       	andi	r22, 0x35	; 53
     2d9:	65 74       	andi	r22, 0x45	; 69
     2db:	00 42       	sbci	r16, 0x20	; 32

000002dc <__c.2846>:
     2dc:	42 72       	andi	r20, 0x22	; 34
     2de:	6f 77       	andi	r22, 0x7F	; 127
     2e0:	6e 20       	and	r6, r14
     2e2:	4f 75       	andi	r20, 0x5F	; 95
     2e4:	74 20       	and	r7, r4
     2e6:	44 65       	ori	r20, 0x54	; 84
     2e8:	74 65       	ori	r23, 0x54	; 84
     2ea:	63 74       	andi	r22, 0x43	; 67
     2ec:	00 46       	sbci	r16, 0x60	; 96

000002ed <__c.2843>:
     2ed:	46 61       	ori	r20, 0x16	; 22
     2ef:	69 6c       	ori	r22, 0xC9	; 201
     2f1:	65 64       	ori	r22, 0x45	; 69
     2f3:	20 74       	andi	r18, 0x40	; 64
     2f5:	6f 20       	and	r6, r15
     2f7:	63 72       	andi	r22, 0x23	; 35
     2f9:	65 61       	ori	r22, 0x15	; 21
     2fb:	74 65       	ori	r23, 0x54	; 84
     2fd:	20 53       	subi	r18, 0x30	; 48
     2ff:	65 6d       	ori	r22, 0xD5	; 213
     301:	61 70       	andi	r22, 0x01	; 1
     303:	68 6f       	ori	r22, 0xF8	; 248
     305:	72 65       	ori	r23, 0x52	; 82
     307:	00 46       	sbci	r16, 0x60	; 96

00000308 <__c.2840>:
     308:	46 61       	ori	r20, 0x16	; 22
     30a:	69 6c       	ori	r22, 0xC9	; 201
     30c:	65 64       	ori	r22, 0x45	; 69
     30e:	20 74       	andi	r18, 0x40	; 64
     310:	6f 20       	and	r6, r15
     312:	63 72       	andi	r22, 0x23	; 35
     314:	65 61       	ori	r22, 0x15	; 21
     316:	74 65       	ori	r23, 0x54	; 84
     318:	20 53       	subi	r18, 0x30	; 48
     31a:	69 67       	ori	r22, 0x79	; 121
     31c:	6e 61       	ori	r22, 0x1E	; 30
     31e:	6c 00       	.word	0x006c	; ????

00000320 <__c.2837>:
     320:	4b 65       	ori	r20, 0x5B	; 91
     322:	72 6e       	ori	r23, 0xE2	; 226
     324:	65 6c       	ori	r22, 0xC5	; 197
     326:	20 66       	ori	r18, 0x60	; 96
     328:	75 6e       	ori	r23, 0xE5	; 229
     32a:	63 74       	andi	r22, 0x43	; 67
     32c:	69 6f       	ori	r22, 0xF9	; 249
     32e:	6e 20       	and	r6, r14
     330:	6e 6f       	ori	r22, 0xFE	; 254
     332:	74 20       	and	r7, r4
     334:	69 6d       	ori	r22, 0xD9	; 217
     336:	70 6c       	ori	r23, 0xC0	; 192
     338:	65 6d       	ori	r22, 0xD5	; 213
     33a:	65 6e       	ori	r22, 0xE5	; 229
     33c:	74 65       	ori	r23, 0x54	; 84
     33e:	64 00       	.word	0x0064	; ????

00000340 <__c.2834>:
     340:	44 65       	ori	r20, 0x54	; 84
     342:	76 69       	ori	r23, 0x96	; 150
     344:	63 65       	ori	r22, 0x53	; 83
     346:	20 44       	sbci	r18, 0x40	; 64
     348:	72 69       	ori	r23, 0x92	; 146
     34a:	76 65       	ori	r23, 0x56	; 86
     34c:	72 20       	and	r7, r2
     34e:	45 72       	andi	r20, 0x25	; 37
     350:	72 6f       	ori	r23, 0xF2	; 242
     352:	72 00       	.word	0x0072	; ????

00000354 <__c.2831>:
     354:	57 61       	ori	r21, 0x17	; 23
     356:	74 63       	ori	r23, 0x34	; 52
     358:	68 64       	ori	r22, 0x48	; 72
     35a:	6f 67       	ori	r22, 0x7F	; 127
     35c:	20 52       	subi	r18, 0x20	; 32
     35e:	65 73       	andi	r22, 0x35	; 53
     360:	74 61       	ori	r23, 0x14	; 20
     362:	72 74       	andi	r23, 0x42	; 66
     364:	00 53       	subi	r16, 0x30	; 48

00000365 <__c.2828>:
     365:	53 57       	subi	r21, 0x73	; 115
     367:	20 57       	subi	r18, 0x70	; 112
     369:	61 74       	andi	r22, 0x41	; 65
     36b:	63 68       	ori	r22, 0x83	; 131
     36d:	64 6f       	ori	r22, 0xF4	; 244
     36f:	67 20       	and	r6, r7
     371:	52 65       	ori	r21, 0x52	; 82
     373:	73 74       	andi	r23, 0x43	; 67
     375:	61 72       	andi	r22, 0x21	; 33
     377:	74 00       	.word	0x0074	; ????

00000379 <__c.2825>:
     379:	54 69       	ori	r21, 0x94	; 148
     37b:	6d 65       	ori	r22, 0x5D	; 93
     37d:	72 20       	and	r7, r2
     37f:	4f 76       	andi	r20, 0x6F	; 111
     381:	65 72       	andi	r22, 0x25	; 37
     383:	66 6c       	ori	r22, 0xC6	; 198
     385:	6f 77       	andi	r22, 0x7F	; 127
     387:	00 55       	subi	r16, 0x50	; 80

00000388 <__c.2822>:
     388:	55 6e       	ori	r21, 0xE5	; 229
     38a:	68 61       	ori	r22, 0x18	; 24
     38c:	6e 64       	ori	r22, 0x4E	; 78
     38e:	6c 65       	ori	r22, 0x5C	; 92
     390:	64 20       	and	r6, r4
     392:	49 6e       	ori	r20, 0xE9	; 233
     394:	74 65       	ori	r23, 0x54	; 84
     396:	72 72       	andi	r23, 0x22	; 34
     398:	75 70       	andi	r23, 0x05	; 5
     39a:	74 20       	and	r7, r4
     39c:	56 65       	ori	r21, 0x56	; 86
     39e:	63 74       	andi	r22, 0x43	; 67
     3a0:	6f 72       	andi	r22, 0x2F	; 47
     3a2:	00 4c       	sbci	r16, 0xC0	; 192

000003a3 <__c.2819>:
     3a3:	4c 6f       	ori	r20, 0xFC	; 252
     3a5:	77 20       	and	r7, r7
     3a7:	56 6f       	ori	r21, 0xF6	; 246
     3a9:	6c 74       	andi	r22, 0x4C	; 76
     3ab:	61 67       	ori	r22, 0x71	; 113
     3ad:	65 00       	.word	0x0065	; ????

000003af <__c.2816>:
     3af:	45 78       	andi	r20, 0x85	; 133
     3b1:	74 72       	andi	r23, 0x24	; 36
     3b3:	61 20       	and	r6, r1
     3b5:	54 61       	ori	r21, 0x14	; 20
     3b7:	73 6b       	ori	r23, 0xB3	; 179
     3b9:	20 73       	andi	r18, 0x30	; 48
     3bb:	74 61       	ori	r23, 0x14	; 20
     3bd:	72 74       	andi	r23, 0x42	; 66
     3bf:	65 64       	ori	r22, 0x45	; 69
     3c1:	2c 20       	and	r2, r12
     3c3:	69 73       	andi	r22, 0x39	; 57
     3c5:	20 6e       	ori	r18, 0xE0	; 224
     3c7:	72 6b       	ori	r23, 0xB2	; 178
     3c9:	5f 63       	ori	r21, 0x3F	; 63
     3cb:	66 67       	ori	r22, 0x76	; 118
     3cd:	2e 68       	ori	r18, 0x8E	; 142
     3cf:	20 6f       	ori	r18, 0xF0	; 240
     3d1:	6b 3f       	cpi	r22, 0xFB	; 251
     3d3:	00 49       	sbci	r16, 0x90	; 144

000003d4 <__c.2813>:
     3d4:	49 64       	ori	r20, 0x49	; 73
     3d6:	6c 65       	ori	r22, 0x5C	; 92
     3d8:	20 6f       	ori	r18, 0xF0	; 240
     3da:	72 20       	and	r7, r2
     3dc:	4b 65       	ori	r20, 0x5B	; 91
     3de:	72 6e       	ori	r23, 0xE2	; 226
     3e0:	65 6c       	ori	r22, 0xC5	; 197
     3e2:	20 53       	subi	r18, 0x30	; 48
     3e4:	74 61       	ori	r23, 0x14	; 20
     3e6:	63 6b       	ori	r22, 0xB3	; 179
     3e8:	20 4f       	sbci	r18, 0xF0	; 240
     3ea:	76 65       	ori	r23, 0x56	; 86
     3ec:	72 66       	ori	r23, 0x62	; 98
     3ee:	6c 6f       	ori	r22, 0xFC	; 252
     3f0:	77 00       	.word	0x0077	; ????

000003f2 <__c.2810>:
     3f2:	55 6e       	ori	r21, 0xE5	; 229
     3f4:	65 78       	andi	r22, 0x85	; 133
     3f6:	70 65       	ori	r23, 0x50	; 80
     3f8:	63 74       	andi	r22, 0x43	; 67
     3fa:	65 64       	ori	r22, 0x45	; 69
     3fc:	20 52       	subi	r18, 0x20	; 32
     3fe:	65 73       	andi	r22, 0x35	; 53
     400:	74 61       	ori	r23, 0x14	; 20
     402:	72 74       	andi	r23, 0x42	; 66
     404:	00 44       	sbci	r16, 0x40	; 64

00000405 <__c.2807>:
     405:	44 75       	andi	r20, 0x54	; 84
     407:	70 6c       	ori	r23, 0xC0	; 192
     409:	69 63       	ori	r22, 0x39	; 57
     40b:	61 74       	andi	r22, 0x41	; 65
     40d:	65 64       	ori	r22, 0x45	; 69
     40f:	20 54       	subi	r18, 0x40	; 64
     411:	61 73       	andi	r22, 0x31	; 49
     413:	6b 20       	and	r6, r11
     415:	49 44       	sbci	r20, 0x49	; 73
     417:	00 53       	subi	r16, 0x30	; 48

00000418 <__c.2804>:
     418:	53 63       	ori	r21, 0x33	; 51
     41a:	68 65       	ori	r22, 0x58	; 88
     41c:	64 75       	andi	r22, 0x54	; 84
     41e:	6c 65       	ori	r22, 0x5C	; 92
     420:	72 20       	and	r7, r2
     422:	4d 69       	ori	r20, 0x9D	; 157
     424:	73 73       	andi	r23, 0x33	; 51
     426:	65 64       	ori	r22, 0x45	; 69
     428:	20 57       	subi	r18, 0x70	; 112
     42a:	61 6b       	ori	r22, 0xB1	; 177
     42c:	65 75       	andi	r22, 0x55	; 85
     42e:	70 00       	.word	0x0070	; ????

00000430 <__c.2801>:
     430:	54 61       	ori	r21, 0x14	; 20
     432:	73 6b       	ori	r23, 0xB3	; 179
     434:	20 52       	subi	r18, 0x20	; 32
     436:	65 73       	andi	r22, 0x35	; 53
     438:	65 72       	andi	r22, 0x25	; 37
     43a:	76 65       	ori	r23, 0x56	; 86
     43c:	20 56       	subi	r18, 0x60	; 96
     43e:	69 6f       	ori	r22, 0xF9	; 249
     440:	6c 61       	ori	r22, 0x1C	; 28
     442:	74 65       	ori	r23, 0x54	; 84
     444:	64 00       	.word	0x0064	; ????

00000446 <__c.2798>:
     446:	52 65       	ori	r21, 0x52	; 82
     448:	73 65       	ori	r23, 0x53	; 83
     44a:	72 76       	andi	r23, 0x62	; 98
     44c:	65 20       	and	r6, r5
     44e:	45 72       	andi	r20, 0x25	; 37
     450:	72 6f       	ori	r23, 0xF2	; 242
     452:	72 20       	and	r7, r2
     454:	69 6e       	ori	r22, 0xE9	; 233
     456:	20 53       	subi	r18, 0x30	; 48
     458:	63 68       	ori	r22, 0x83	; 131
     45a:	65 64       	ori	r22, 0x45	; 69
     45c:	75 6c       	ori	r23, 0xC5	; 197
     45e:	65 72       	andi	r22, 0x25	; 37
     460:	00 49       	sbci	r16, 0x90	; 144

00000461 <__c.2795>:
     461:	49 6e       	ori	r20, 0xE9	; 233
     463:	76 61       	ori	r23, 0x16	; 22
     465:	6c 69       	ori	r22, 0x9C	; 156
     467:	64 20       	and	r6, r4
     469:	53 74       	andi	r21, 0x43	; 67
     46b:	61 63       	ori	r22, 0x31	; 49
     46d:	6b 20       	and	r6, r11
     46f:	50 6f       	ori	r21, 0xF0	; 240
     471:	69 6e       	ori	r22, 0xE9	; 233
     473:	74 65       	ori	r23, 0x54	; 84
     475:	72 00       	.word	0x0072	; ????

00000477 <__c.2792>:
     477:	54 61       	ori	r21, 0x14	; 20
     479:	73 6b       	ori	r23, 0xB3	; 179
     47b:	20 53       	subi	r18, 0x30	; 48
     47d:	74 61       	ori	r23, 0x14	; 20
     47f:	63 6b       	ori	r22, 0xB3	; 179
     481:	20 4f       	sbci	r18, 0xF0	; 240
     483:	76 65       	ori	r23, 0x56	; 86
     485:	72 66       	ori	r23, 0x62	; 98
     487:	6c 6f       	ori	r22, 0xFC	; 252
     489:	77 00       	.word	0x0077	; ????

0000048b <__c.2789>:
     48b:	53 74       	andi	r21, 0x43	; 67
     48d:	61 63       	ori	r22, 0x31	; 49
     48f:	6b 20       	and	r6, r11
     491:	77 61       	ori	r23, 0x17	; 23
     493:	73 20       	and	r7, r3
     495:	6e 6f       	ori	r22, 0xFE	; 254
     497:	74 20       	and	r7, r4
     499:	64 65       	ori	r22, 0x54	; 84
     49b:	66 69       	ori	r22, 0x96	; 150
     49d:	6e 65       	ori	r22, 0x5E	; 94
     49f:	64 20       	and	r6, r4
     4a1:	61 73       	andi	r22, 0x31	; 49
     4a3:	20 6c       	ori	r18, 0xC0	; 192
     4a5:	61 72       	andi	r22, 0x21	; 33
     4a7:	67 65       	ori	r22, 0x57	; 87
     4a9:	20 65       	ori	r18, 0x50	; 80
     4ab:	6e 6f       	ori	r22, 0xFE	; 254
     4ad:	75 67       	ori	r23, 0x75	; 117
     4af:	68 21       	and	r22, r8
     4b1:	00 54       	subi	r16, 0x40	; 64

000004b2 <__c.2785>:
     4b2:	54 61       	ori	r21, 0x14	; 20
     4b4:	73 6b       	ori	r23, 0xB3	; 179
     4b6:	20 70       	andi	r18, 0x00	; 0
     4b8:	65 72       	andi	r22, 0x25	; 37
     4ba:	69 6f       	ori	r22, 0xF9	; 249
     4bc:	64 20       	and	r6, r4
     4be:	74 6f       	ori	r23, 0xF4	; 244
     4c0:	6f 20       	and	r6, r15
     4c2:	6c 61       	ori	r22, 0x1C	; 28
     4c4:	72 67       	ori	r23, 0x72	; 114
     4c6:	65 2e       	mov	r6, r21
     4c8:	20 50       	subi	r18, 0x00	; 0
     4ca:	65 72       	andi	r22, 0x25	; 37
     4cc:	69 6f       	ori	r22, 0xF9	; 249
     4ce:	64 20       	and	r6, r4
     4d0:	6d 75       	andi	r22, 0x5D	; 93
     4d2:	73 74       	andi	r23, 0x43	; 67
     4d4:	20 62       	ori	r18, 0x20	; 32
     4d6:	65 20       	and	r6, r5
     4d8:	6c 65       	ori	r22, 0x5C	; 92
     4da:	73 73       	andi	r23, 0x33	; 51
     4dc:	20 74       	andi	r18, 0x40	; 64
     4de:	68 61       	ori	r22, 0x18	; 24
     4e0:	6e 20       	and	r6, r14
     4e2:	36 31       	cpi	r19, 0x16	; 22
     4e4:	20 73       	andi	r18, 0x30	; 48
     4e6:	65 63       	ori	r22, 0x35	; 53
     4e8:	6f 6e       	ori	r22, 0xEF	; 239
     4ea:	64 73       	andi	r22, 0x34	; 52
     4ec:	2e 00       	.word	0x002e	; ????

000004ee <__c.2782>:
     4ee:	29 3a       	cpi	r18, 0xA9	; 169
     4f0:	20 00       	.word	0x0020	; ????

000004f2 <__c.2780>:
     4f2:	2a 4e       	sbci	r18, 0xEA	; 234
     4f4:	52 4b       	sbci	r21, 0xB2	; 178
     4f6:	20 45       	sbci	r18, 0x50	; 80
     4f8:	52 52       	subi	r21, 0x22	; 34
     4fa:	4f 52       	subi	r20, 0x2F	; 47
     4fc:	28 00       	.word	0x0028	; ????

000004fe <__c.2705>:
     4fe:	0d 0a       	sbc	r0, r29
     500:	53 54       	subi	r21, 0x43	; 67
     502:	41 43       	sbci	r20, 0x31	; 49
     504:	4b 20       	and	r4, r11
     506:	44 55       	subi	r20, 0x54	; 84
     508:	4d 50       	subi	r20, 0x0D	; 13
     50a:	0d 0a       	sbc	r0, r29
     50c:	00 45       	sbci	r16, 0x50	; 80

0000050d <__c.1851>:
     50d:	45 46       	sbci	r20, 0x65	; 101
     50f:	47 65       	ori	r20, 0x57	; 87
     511:	66 67       	ori	r22, 0x76	; 118
     513:	00 20       	and	r0, r0

00000514 <__c.1845>:
     514:	20 2b       	or	r18, r16
     516:	2d 2e       	mov	r2, r29
     518:	30 31       	cpi	r19, 0x10	; 16
     51a:	32 33       	cpi	r19, 0x32	; 50
     51c:	34 35       	cpi	r19, 0x54	; 84
     51e:	36 37       	cpi	r19, 0x76	; 118
     520:	38 39       	cpi	r19, 0x98	; 152
     522:	68 00       	.word	0x0068	; ????

00000524 <__ctors_end>:
     524:	11 24       	eor	r1, r1
     526:	1f be       	out	0x3f, r1	; 63
     528:	cf ef       	ldi	r28, 0xFF	; 255
     52a:	d1 e4       	ldi	r29, 0x41	; 65
     52c:	de bf       	out	0x3e, r29	; 62
     52e:	cd bf       	out	0x3d, r28	; 61

00000530 <__do_copy_data>:
     530:	13 e0       	ldi	r17, 0x03	; 3
     532:	a0 e0       	ldi	r26, 0x00	; 0
     534:	b2 e0       	ldi	r27, 0x02	; 2
     536:	ea ec       	ldi	r30, 0xCA	; 202
     538:	f3 e6       	ldi	r31, 0x63	; 99
     53a:	00 e0       	ldi	r16, 0x00	; 0
     53c:	0b bf       	out	0x3b, r16	; 59
     53e:	02 c0       	rjmp	.+4      	; 0x544 <__do_copy_data+0x14>
     540:	07 90       	elpm	r0, Z+
     542:	0d 92       	st	X+, r0
     544:	ac 3b       	cpi	r26, 0xBC	; 188
     546:	b1 07       	cpc	r27, r17
     548:	d9 f7       	brne	.-10     	; 0x540 <__do_copy_data+0x10>

0000054a <__do_clear_bss>:
     54a:	18 e0       	ldi	r17, 0x08	; 8
     54c:	ac eb       	ldi	r26, 0xBC	; 188
     54e:	b3 e0       	ldi	r27, 0x03	; 3
     550:	01 c0       	rjmp	.+2      	; 0x554 <.do_clear_bss_start>

00000552 <.do_clear_bss_loop>:
     552:	1d 92       	st	X+, r1

00000554 <.do_clear_bss_start>:
     554:	a4 37       	cpi	r26, 0x74	; 116
     556:	b1 07       	cpc	r27, r17
     558:	e1 f7       	brne	.-8      	; 0x552 <.do_clear_bss_loop>
     55a:	0e 94 e2 04 	call	0x9c4	; 0x9c4 <main>
     55e:	0c 94 e3 31 	jmp	0x63c6	; 0x63c6 <_exit>

00000562 <__bad_interrupt>:
     562:	0c 94 8d 23 	jmp	0x471a	; 0x471a <__vector_default>

00000566 <tx_task>:
     566:	2f 92       	push	r2
     568:	3f 92       	push	r3
     56a:	4f 92       	push	r4
     56c:	5f 92       	push	r5
     56e:	6f 92       	push	r6
     570:	7f 92       	push	r7
     572:	8f 92       	push	r8
     574:	9f 92       	push	r9
     576:	af 92       	push	r10
     578:	bf 92       	push	r11
     57a:	cf 92       	push	r12
     57c:	df 92       	push	r13
     57e:	ef 92       	push	r14
     580:	ff 92       	push	r15
     582:	0f 93       	push	r16
     584:	1f 93       	push	r17
     586:	df 93       	push	r29
     588:	cf 93       	push	r28
     58a:	00 d0       	rcall	.+0      	; 0x58c <tx_task+0x26>
     58c:	00 d0       	rcall	.+0      	; 0x58e <tx_task+0x28>
     58e:	cd b7       	in	r28, 0x3d	; 61
     590:	de b7       	in	r29, 0x3e	; 62
     592:	10 92 01 05 	sts	0x0501, r1
     596:	0e 94 0a 1d 	call	0x3a14	; 0x3a14 <nrk_get_pid>
     59a:	00 d0       	rcall	.+0      	; 0x59c <tx_task+0x36>
     59c:	00 d0       	rcall	.+0      	; 0x59e <tx_task+0x38>
     59e:	ed b7       	in	r30, 0x3d	; 61
     5a0:	fe b7       	in	r31, 0x3e	; 62
     5a2:	31 96       	adiw	r30, 0x01	; 1
     5a4:	20 e0       	ldi	r18, 0x00	; 0
     5a6:	32 e0       	ldi	r19, 0x02	; 2
     5a8:	ad b7       	in	r26, 0x3d	; 61
     5aa:	be b7       	in	r27, 0x3e	; 62
     5ac:	12 96       	adiw	r26, 0x02	; 2
     5ae:	3c 93       	st	X, r19
     5b0:	2e 93       	st	-X, r18
     5b2:	11 97       	sbiw	r26, 0x01	; 1
     5b4:	82 83       	std	Z+2, r24	; 0x02
     5b6:	13 82       	std	Z+3, r1	; 0x03
     5b8:	0e 94 b3 2f 	call	0x5f66	; 0x5f66 <printf>
     5bc:	0f 90       	pop	r0
     5be:	0f 90       	pop	r0
     5c0:	0f 90       	pop	r0
     5c2:	0f 90       	pop	r0
     5c4:	02 c0       	rjmp	.+4      	; 0x5ca <tx_task+0x64>
     5c6:	0e 94 77 1c 	call	0x38ee	; 0x38ee <nrk_wait_until_next_period>
     5ca:	0e 94 fd 06 	call	0xdfa	; 0xdfa <bmac_started>
     5ce:	88 23       	and	r24, r24
     5d0:	d1 f3       	breq	.-12     	; 0x5c6 <tx_task+0x60>
     5d2:	0e 94 2e 06 	call	0xc5c	; 0xc5c <bmac_get_tx_done_signal>
     5d6:	c8 2e       	mov	r12, r24
     5d8:	0e 94 d2 17 	call	0x2fa4	; 0x2fa4 <nrk_signal_register>
     5dc:	41 e0       	ldi	r20, 0x01	; 1
     5de:	e4 2e       	mov	r14, r20
     5e0:	f1 2c       	mov	r15, r1
     5e2:	01 2d       	mov	r16, r1
     5e4:	11 2d       	mov	r17, r1
     5e6:	04 c0       	rjmp	.+8      	; 0x5f0 <tx_task+0x8a>
     5e8:	ee 0c       	add	r14, r14
     5ea:	ff 1c       	adc	r15, r15
     5ec:	00 1f       	adc	r16, r16
     5ee:	11 1f       	adc	r17, r17
     5f0:	ca 94       	dec	r12
     5f2:	d2 f7       	brpl	.-12     	; 0x5e8 <tx_task+0x82>
     5f4:	21 e0       	ldi	r18, 0x01	; 1
     5f6:	30 e0       	ldi	r19, 0x00	; 0
     5f8:	40 e0       	ldi	r20, 0x00	; 0
     5fa:	50 e0       	ldi	r21, 0x00	; 0
     5fc:	29 83       	std	Y+1, r18	; 0x01
     5fe:	3a 83       	std	Y+2, r19	; 0x02
     600:	4b 83       	std	Y+3, r20	; 0x03
     602:	5c 83       	std	Y+4, r21	; 0x04
     604:	e1 14       	cp	r14, r1
     606:	f1 04       	cpc	r15, r1
     608:	01 05       	cpc	r16, r1
     60a:	11 05       	cpc	r17, r1
     60c:	21 f0       	breq	.+8      	; 0x616 <tx_task+0xb0>
     60e:	19 82       	std	Y+1, r1	; 0x01
     610:	1a 82       	std	Y+2, r1	; 0x02
     612:	1b 82       	std	Y+3, r1	; 0x03
     614:	1c 82       	std	Y+4, r1	; 0x04
     616:	cc 24       	eor	r12, r12
     618:	dd 24       	eor	r13, r13
     61a:	aa 24       	eor	r10, r10
     61c:	bb 24       	eor	r11, r11
     61e:	88 24       	eor	r8, r8
     620:	8a 94       	dec	r8
     622:	98 2c       	mov	r9, r8
     624:	3d e1       	ldi	r19, 0x1D	; 29
     626:	63 2e       	mov	r6, r19
     628:	36 e0       	ldi	r19, 0x06	; 6
     62a:	73 2e       	mov	r7, r19
     62c:	23 e2       	ldi	r18, 0x23	; 35
     62e:	42 2e       	mov	r4, r18
     630:	22 e0       	ldi	r18, 0x02	; 2
     632:	52 2e       	mov	r5, r18
     634:	00 d0       	rcall	.+0      	; 0x636 <tx_task+0xd0>
     636:	00 d0       	rcall	.+0      	; 0x638 <tx_task+0xd2>
     638:	00 d0       	rcall	.+0      	; 0x63a <tx_task+0xd4>
     63a:	ed b7       	in	r30, 0x3d	; 61
     63c:	fe b7       	in	r31, 0x3e	; 62
     63e:	31 96       	adiw	r30, 0x01	; 1
     640:	ad b7       	in	r26, 0x3d	; 61
     642:	be b7       	in	r27, 0x3e	; 62
     644:	12 96       	adiw	r26, 0x02	; 2
     646:	7c 92       	st	X, r7
     648:	6e 92       	st	-X, r6
     64a:	11 97       	sbiw	r26, 0x01	; 1
     64c:	91 e1       	ldi	r25, 0x11	; 17
     64e:	29 2e       	mov	r2, r25
     650:	92 e0       	ldi	r25, 0x02	; 2
     652:	39 2e       	mov	r3, r25
     654:	33 82       	std	Z+3, r3	; 0x03
     656:	22 82       	std	Z+2, r2	; 0x02
     658:	c4 82       	std	Z+4, r12	; 0x04
     65a:	15 82       	std	Z+5, r1	; 0x05
     65c:	0e 94 c5 2f 	call	0x5f8a	; 0x5f8a <sprintf>
     660:	2d b7       	in	r18, 0x3d	; 61
     662:	3e b7       	in	r19, 0x3e	; 62
     664:	2a 5f       	subi	r18, 0xFA	; 250
     666:	3f 4f       	sbci	r19, 0xFF	; 255
     668:	0f b6       	in	r0, 0x3f	; 63
     66a:	f8 94       	cli
     66c:	3e bf       	out	0x3e, r19	; 62
     66e:	0f be       	out	0x3f, r0	; 63
     670:	2d bf       	out	0x3d, r18	; 61
     672:	81 e0       	ldi	r24, 0x01	; 1
     674:	90 e0       	ldi	r25, 0x00	; 0
     676:	0e 94 52 10 	call	0x20a4	; 0x20a4 <nrk_led_set>
     67a:	d3 01       	movw	r26, r6
     67c:	0d 90       	ld	r0, X+
     67e:	00 20       	and	r0, r0
     680:	e9 f7       	brne	.-6      	; 0x67c <tx_task+0x116>
     682:	bd 01       	movw	r22, r26
     684:	61 50       	subi	r22, 0x01	; 1
     686:	70 40       	sbci	r23, 0x00	; 0
     688:	6d 51       	subi	r22, 0x1D	; 29
     68a:	76 40       	sbci	r23, 0x06	; 6
     68c:	c3 01       	movw	r24, r6
     68e:	0e 94 16 06 	call	0xc2c	; 0xc2c <bmac_tx_pkt_nonblocking>
     692:	c8 01       	movw	r24, r16
     694:	b7 01       	movw	r22, r14
     696:	0e 94 79 18 	call	0x30f2	; 0x30f2 <nrk_event_wait>
     69a:	29 81       	ldd	r18, Y+1	; 0x01
     69c:	3a 81       	ldd	r19, Y+2	; 0x02
     69e:	4b 81       	ldd	r20, Y+3	; 0x03
     6a0:	5c 81       	ldd	r21, Y+4	; 0x04
     6a2:	62 23       	and	r22, r18
     6a4:	73 23       	and	r23, r19
     6a6:	84 23       	and	r24, r20
     6a8:	95 23       	and	r25, r21
     6aa:	61 15       	cp	r22, r1
     6ac:	71 05       	cpc	r23, r1
     6ae:	81 05       	cpc	r24, r1
     6b0:	91 05       	cpc	r25, r1
     6b2:	29 f0       	breq	.+10     	; 0x6be <tx_task+0x158>
     6b4:	86 eb       	ldi	r24, 0xB6	; 182
     6b6:	91 e0       	ldi	r25, 0x01	; 1
     6b8:	0e 94 c1 0c 	call	0x1982	; 0x1982 <nrk_kprintf>
     6bc:	03 c0       	rjmp	.+6      	; 0x6c4 <tx_task+0x15e>
     6be:	31 e0       	ldi	r19, 0x01	; 1
     6c0:	30 93 01 05 	sts	0x0501, r19
     6c4:	81 e0       	ldi	r24, 0x01	; 1
     6c6:	90 e0       	ldi	r25, 0x00	; 0
     6c8:	0e 94 3a 10 	call	0x2074	; 0x2074 <nrk_led_clr>
     6cc:	0e 94 77 1c 	call	0x38ee	; 0x38ee <nrk_wait_until_next_period>
     6d0:	84 ea       	ldi	r24, 0xA4	; 164
     6d2:	91 e0       	ldi	r25, 0x01	; 1
     6d4:	0e 94 c1 0c 	call	0x1982	; 0x1982 <nrk_kprintf>
     6d8:	00 d0       	rcall	.+0      	; 0x6da <tx_task+0x174>
     6da:	00 d0       	rcall	.+0      	; 0x6dc <tx_task+0x176>
     6dc:	ad b7       	in	r26, 0x3d	; 61
     6de:	be b7       	in	r27, 0x3e	; 62
     6e0:	12 96       	adiw	r26, 0x02	; 2
     6e2:	5c 92       	st	X, r5
     6e4:	4e 92       	st	-X, r4
     6e6:	11 97       	sbiw	r26, 0x01	; 1
     6e8:	14 96       	adiw	r26, 0x04	; 4
     6ea:	dc 92       	st	X, r13
     6ec:	ce 92       	st	-X, r12
     6ee:	13 97       	sbiw	r26, 0x03	; 3
     6f0:	0e 94 b3 2f 	call	0x5f66	; 0x5f66 <printf>
     6f4:	08 94       	sec
     6f6:	c1 1c       	adc	r12, r1
     6f8:	d1 1c       	adc	r13, r1
     6fa:	0f 90       	pop	r0
     6fc:	0f 90       	pop	r0
     6fe:	0f 90       	pop	r0
     700:	0f 90       	pop	r0
     702:	88 e9       	ldi	r24, 0x98	; 152
     704:	91 e0       	ldi	r25, 0x01	; 1
     706:	0e 94 c1 0c 	call	0x1982	; 0x1982 <nrk_kprintf>
     70a:	80 91 01 05 	lds	r24, 0x0501
     70e:	81 30       	cpi	r24, 0x01	; 1
     710:	19 f4       	brne	.+6      	; 0x718 <tx_task+0x1b2>
     712:	83 e9       	ldi	r24, 0x93	; 147
     714:	91 e0       	ldi	r25, 0x01	; 1
     716:	02 c0       	rjmp	.+4      	; 0x71c <tx_task+0x1b6>
     718:	8c e8       	ldi	r24, 0x8C	; 140
     71a:	91 e0       	ldi	r25, 0x01	; 1
     71c:	0e 94 c1 0c 	call	0x1982	; 0x1982 <nrk_kprintf>
     720:	80 e8       	ldi	r24, 0x80	; 128
     722:	91 e0       	ldi	r25, 0x01	; 1
     724:	0e 94 c1 0c 	call	0x1982	; 0x1982 <nrk_kprintf>
     728:	80 91 7f 04 	lds	r24, 0x047F
     72c:	81 30       	cpi	r24, 0x01	; 1
     72e:	e1 f4       	brne	.+56     	; 0x768 <tx_task+0x202>
     730:	80 e0       	ldi	r24, 0x00	; 0
     732:	90 e0       	ldi	r25, 0x00	; 0
     734:	0e 94 3a 10 	call	0x2074	; 0x2074 <nrk_led_clr>
     738:	86 e7       	ldi	r24, 0x76	; 118
     73a:	91 e0       	ldi	r25, 0x01	; 1
     73c:	0e 94 c1 0c 	call	0x1982	; 0x1982 <nrk_kprintf>
     740:	00 d0       	rcall	.+0      	; 0x742 <tx_task+0x1dc>
     742:	00 d0       	rcall	.+0      	; 0x744 <tx_task+0x1de>
     744:	ed b7       	in	r30, 0x3d	; 61
     746:	fe b7       	in	r31, 0x3e	; 62
     748:	52 82       	std	Z+2, r5	; 0x02
     74a:	41 82       	std	Z+1, r4	; 0x01
     74c:	80 91 00 05 	lds	r24, 0x0500
     750:	99 27       	eor	r25, r25
     752:	87 fd       	sbrc	r24, 7
     754:	90 95       	com	r25
     756:	94 83       	std	Z+4, r25	; 0x04
     758:	83 83       	std	Z+3, r24	; 0x03
     75a:	0e 94 b3 2f 	call	0x5f66	; 0x5f66 <printf>
     75e:	0f 90       	pop	r0
     760:	0f 90       	pop	r0
     762:	0f 90       	pop	r0
     764:	0f 90       	pop	r0
     766:	08 c0       	rjmp	.+16     	; 0x778 <tx_task+0x212>
     768:	80 e0       	ldi	r24, 0x00	; 0
     76a:	90 e0       	ldi	r25, 0x00	; 0
     76c:	0e 94 52 10 	call	0x20a4	; 0x20a4 <nrk_led_set>
     770:	8d e6       	ldi	r24, 0x6D	; 109
     772:	91 e0       	ldi	r25, 0x01	; 1
     774:	0e 94 c1 0c 	call	0x1982	; 0x1982 <nrk_kprintf>
     778:	10 92 7f 04 	sts	0x047F, r1
     77c:	8b e5       	ldi	r24, 0x5B	; 91
     77e:	91 e0       	ldi	r25, 0x01	; 1
     780:	0e 94 c1 0c 	call	0x1982	; 0x1982 <nrk_kprintf>
     784:	00 d0       	rcall	.+0      	; 0x786 <tx_task+0x220>
     786:	00 d0       	rcall	.+0      	; 0x788 <tx_task+0x222>
     788:	ad b7       	in	r26, 0x3d	; 61
     78a:	be b7       	in	r27, 0x3e	; 62
     78c:	12 96       	adiw	r26, 0x02	; 2
     78e:	5c 92       	st	X, r5
     790:	4e 92       	st	-X, r4
     792:	11 97       	sbiw	r26, 0x01	; 1
     794:	14 96       	adiw	r26, 0x04	; 4
     796:	1c 92       	st	X, r1
     798:	1e 92       	st	-X, r1
     79a:	13 97       	sbiw	r26, 0x03	; 3
     79c:	0e 94 b3 2f 	call	0x5f66	; 0x5f66 <printf>
     7a0:	0f 90       	pop	r0
     7a2:	0f 90       	pop	r0
     7a4:	0f 90       	pop	r0
     7a6:	0f 90       	pop	r0
     7a8:	0e 94 77 1c 	call	0x38ee	; 0x38ee <nrk_wait_until_next_period>
     7ac:	89 e1       	ldi	r24, 0x19	; 25
     7ae:	90 e0       	ldi	r25, 0x00	; 0
     7b0:	0e 94 25 23 	call	0x464a	; 0x464a <_nrk_set_next_wakeup>
     7b4:	0e 94 77 11 	call	0x22ee	; 0x22ee <nrk_int_disable>
     7b8:	0e 94 da 22 	call	0x45b4	; 0x45b4 <_nrk_os_timer_reset>
     7bc:	0e 94 6e 22 	call	0x44dc	; 0x44dc <_nrk_high_speed_timer_reset>
     7c0:	0e 94 8a 23 	call	0x4714	; 0x4714 <_nrk_os_timer_get>
     7c4:	80 31       	cpi	r24, 0x10	; 16
     7c6:	91 05       	cpc	r25, r1
     7c8:	dc f3       	brlt	.-10     	; 0x7c0 <tx_task+0x25a>
     7ca:	0e 94 76 22 	call	0x44ec	; 0x44ec <_nrk_high_speed_timer_get>
     7ce:	1c 01       	movw	r2, r24
     7d0:	84 e0       	ldi	r24, 0x04	; 4
     7d2:	36 94       	lsr	r3
     7d4:	27 94       	ror	r2
     7d6:	8a 95       	dec	r24
     7d8:	e1 f7       	brne	.-8      	; 0x7d2 <tx_task+0x26c>
     7da:	28 14       	cp	r2, r8
     7dc:	39 04       	cpc	r3, r9
     7de:	08 f4       	brcc	.+2      	; 0x7e2 <tx_task+0x27c>
     7e0:	41 01       	movw	r8, r2
     7e2:	a2 14       	cp	r10, r2
     7e4:	b3 04       	cpc	r11, r3
     7e6:	08 f4       	brcc	.+2      	; 0x7ea <tx_task+0x284>
     7e8:	51 01       	movw	r10, r2
     7ea:	8c e4       	ldi	r24, 0x4C	; 76
     7ec:	91 e0       	ldi	r25, 0x01	; 1
     7ee:	0e 94 c1 0c 	call	0x1982	; 0x1982 <nrk_kprintf>
     7f2:	ed b7       	in	r30, 0x3d	; 61
     7f4:	fe b7       	in	r31, 0x3e	; 62
     7f6:	38 97       	sbiw	r30, 0x08	; 8
     7f8:	0f b6       	in	r0, 0x3f	; 63
     7fa:	f8 94       	cli
     7fc:	fe bf       	out	0x3e, r31	; 62
     7fe:	0f be       	out	0x3f, r0	; 63
     800:	ed bf       	out	0x3d, r30	; 61
     802:	31 96       	adiw	r30, 0x01	; 1
     804:	28 e2       	ldi	r18, 0x28	; 40
     806:	32 e0       	ldi	r19, 0x02	; 2
     808:	ad b7       	in	r26, 0x3d	; 61
     80a:	be b7       	in	r27, 0x3e	; 62
     80c:	12 96       	adiw	r26, 0x02	; 2
     80e:	3c 93       	st	X, r19
     810:	2e 93       	st	-X, r18
     812:	11 97       	sbiw	r26, 0x01	; 1
     814:	93 82       	std	Z+3, r9	; 0x03
     816:	82 82       	std	Z+2, r8	; 0x02
     818:	35 82       	std	Z+5, r3	; 0x05
     81a:	24 82       	std	Z+4, r2	; 0x04
     81c:	b7 82       	std	Z+7, r11	; 0x07
     81e:	a6 82       	std	Z+6, r10	; 0x06
     820:	0e 94 b3 2f 	call	0x5f66	; 0x5f66 <printf>
     824:	4d b7       	in	r20, 0x3d	; 61
     826:	5e b7       	in	r21, 0x3e	; 62
     828:	48 5f       	subi	r20, 0xF8	; 248
     82a:	5f 4f       	sbci	r21, 0xFF	; 255
     82c:	0f b6       	in	r0, 0x3f	; 63
     82e:	f8 94       	cli
     830:	5e bf       	out	0x3e, r21	; 62
     832:	0f be       	out	0x3f, r0	; 63
     834:	4d bf       	out	0x3d, r20	; 61
     836:	0e 94 79 11 	call	0x22f2	; 0x22f2 <nrk_int_enable>
     83a:	0e 94 77 1c 	call	0x38ee	; 0x38ee <nrk_wait_until_next_period>
     83e:	fa ce       	rjmp	.-524    	; 0x634 <tx_task+0xce>

00000840 <rx_task>:
     840:	df 92       	push	r13
     842:	ef 92       	push	r14
     844:	ff 92       	push	r15
     846:	0f 93       	push	r16
     848:	1f 93       	push	r17
     84a:	df 93       	push	r29
     84c:	cf 93       	push	r28
     84e:	00 d0       	rcall	.+0      	; 0x850 <rx_task+0x10>
     850:	cd b7       	in	r28, 0x3d	; 61
     852:	de b7       	in	r29, 0x3e	; 62
     854:	0e 94 0a 1d 	call	0x3a14	; 0x3a14 <nrk_get_pid>
     858:	00 d0       	rcall	.+0      	; 0x85a <rx_task+0x1a>
     85a:	00 d0       	rcall	.+0      	; 0x85c <rx_task+0x1c>
     85c:	ed b7       	in	r30, 0x3d	; 61
     85e:	fe b7       	in	r31, 0x3e	; 62
     860:	31 96       	adiw	r30, 0x01	; 1
     862:	25 e3       	ldi	r18, 0x35	; 53
     864:	32 e0       	ldi	r19, 0x02	; 2
     866:	ad b7       	in	r26, 0x3d	; 61
     868:	be b7       	in	r27, 0x3e	; 62
     86a:	12 96       	adiw	r26, 0x02	; 2
     86c:	3c 93       	st	X, r19
     86e:	2e 93       	st	-X, r18
     870:	11 97       	sbiw	r26, 0x01	; 1
     872:	82 83       	std	Z+2, r24	; 0x02
     874:	13 82       	std	Z+3, r1	; 0x03
     876:	0e 94 b3 2f 	call	0x5f66	; 0x5f66 <printf>
     87a:	0f 90       	pop	r0
     87c:	0f 90       	pop	r0
     87e:	0f 90       	pop	r0
     880:	0f 90       	pop	r0
     882:	89 e1       	ldi	r24, 0x19	; 25
     884:	0e 94 a6 05 	call	0xb4c	; 0xb4c <bmac_init>
     888:	10 92 7f 04 	sts	0x047F, r1
     88c:	85 ea       	ldi	r24, 0xA5	; 165
     88e:	95 e0       	ldi	r25, 0x05	; 5
     890:	64 e7       	ldi	r22, 0x74	; 116
     892:	0e 94 98 05 	call	0xb30	; 0xb30 <bmac_rx_pkt_set_buffer>
     896:	52 e0       	ldi	r21, 0x02	; 2
     898:	e5 2e       	mov	r14, r21
     89a:	f1 2c       	mov	r15, r1
     89c:	ec 0e       	add	r14, r28
     89e:	fd 1e       	adc	r15, r29
     8a0:	8e 01       	movw	r16, r28
     8a2:	0f 5f       	subi	r16, 0xFF	; 255
     8a4:	1f 4f       	sbci	r17, 0xFF	; 255
     8a6:	dd 24       	eor	r13, r13
     8a8:	d3 94       	inc	r13
     8aa:	0e 94 70 05 	call	0xae0	; 0xae0 <bmac_wait_until_rx_pkt>
     8ae:	82 e0       	ldi	r24, 0x02	; 2
     8b0:	90 e0       	ldi	r25, 0x00	; 0
     8b2:	0e 94 52 10 	call	0x20a4	; 0x20a4 <nrk_led_set>
     8b6:	c8 01       	movw	r24, r16
     8b8:	b7 01       	movw	r22, r14
     8ba:	0e 94 8a 06 	call	0xd14	; 0xd14 <bmac_rx_pkt_get>
     8be:	d0 92 7f 04 	sts	0x047F, r13
     8c2:	8a 81       	ldd	r24, Y+2	; 0x02
     8c4:	80 93 00 05 	sts	0x0500, r24
     8c8:	82 e0       	ldi	r24, 0x02	; 2
     8ca:	90 e0       	ldi	r25, 0x00	; 0
     8cc:	0e 94 3a 10 	call	0x2074	; 0x2074 <nrk_led_clr>
     8d0:	0e 94 a7 06 	call	0xd4e	; 0xd4e <bmac_rx_pkt_release>
     8d4:	ea cf       	rjmp	.-44     	; 0x8aa <rx_task+0x6a>

000008d6 <nrk_create_taskset>:
     8d6:	cf 92       	push	r12
     8d8:	df 92       	push	r13
     8da:	ef 92       	push	r14
     8dc:	ff 92       	push	r15
     8de:	1f 93       	push	r17
     8e0:	cf 93       	push	r28
     8e2:	df 93       	push	r29
     8e4:	80 e2       	ldi	r24, 0x20	; 32
     8e6:	94 e0       	ldi	r25, 0x04	; 4
     8e8:	90 93 97 06 	sts	0x0697, r25
     8ec:	80 93 96 06 	sts	0x0696, r24
     8f0:	c1 e9       	ldi	r28, 0x91	; 145
     8f2:	d6 e0       	ldi	r29, 0x06	; 6
     8f4:	ce 01       	movw	r24, r28
     8f6:	6e e0       	ldi	r22, 0x0E	; 14
     8f8:	75 e0       	ldi	r23, 0x05	; 5
     8fa:	40 e8       	ldi	r20, 0x80	; 128
     8fc:	50 e0       	ldi	r21, 0x00	; 0
     8fe:	0e 94 ef 25 	call	0x4bde	; 0x4bde <nrk_task_set_stk>
     902:	82 e0       	ldi	r24, 0x02	; 2
     904:	88 87       	std	Y+8, r24	; 0x08
     906:	11 e0       	ldi	r17, 0x01	; 1
     908:	1f 83       	std	Y+7, r17	; 0x07
     90a:	19 87       	std	Y+9, r17	; 0x09
     90c:	1a 87       	std	Y+10, r17	; 0x0a
     90e:	61 e0       	ldi	r22, 0x01	; 1
     910:	c6 2e       	mov	r12, r22
     912:	d1 2c       	mov	r13, r1
     914:	e1 2c       	mov	r14, r1
     916:	f1 2c       	mov	r15, r1
     918:	cb 86       	std	Y+11, r12	; 0x0b
     91a:	dc 86       	std	Y+12, r13	; 0x0c
     91c:	ed 86       	std	Y+13, r14	; 0x0d
     91e:	fe 86       	std	Y+14, r15	; 0x0e
     920:	1f 86       	std	Y+15, r1	; 0x0f
     922:	18 8a       	std	Y+16, r1	; 0x10
     924:	19 8a       	std	Y+17, r1	; 0x11
     926:	1a 8a       	std	Y+18, r1	; 0x12
     928:	cb 8a       	std	Y+19, r12	; 0x13
     92a:	dc 8a       	std	Y+20, r13	; 0x14
     92c:	ed 8a       	std	Y+21, r14	; 0x15
     92e:	fe 8a       	std	Y+22, r15	; 0x16
     930:	80 e0       	ldi	r24, 0x00	; 0
     932:	95 e6       	ldi	r25, 0x65	; 101
     934:	ad ec       	ldi	r26, 0xCD	; 205
     936:	bd e1       	ldi	r27, 0x1D	; 29
     938:	8f 8b       	std	Y+23, r24	; 0x17
     93a:	98 8f       	std	Y+24, r25	; 0x18
     93c:	a9 8f       	std	Y+25, r26	; 0x19
     93e:	ba 8f       	std	Y+26, r27	; 0x1a
     940:	1b 8e       	std	Y+27, r1	; 0x1b
     942:	1c 8e       	std	Y+28, r1	; 0x1c
     944:	1d 8e       	std	Y+29, r1	; 0x1d
     946:	1e 8e       	std	Y+30, r1	; 0x1e
     948:	1f 8e       	std	Y+31, r1	; 0x1f
     94a:	18 a2       	std	Y+32, r1	; 0x20
     94c:	19 a2       	std	Y+33, r1	; 0x21
     94e:	1a a2       	std	Y+34, r1	; 0x22
     950:	ce 01       	movw	r24, r28
     952:	0e 94 c3 1a 	call	0x3586	; 0x3586 <nrk_activate_task>
     956:	83 eb       	ldi	r24, 0xB3	; 179
     958:	92 e0       	ldi	r25, 0x02	; 2
     95a:	90 93 ba 06 	sts	0x06BA, r25
     95e:	80 93 b9 06 	sts	0x06B9, r24
     962:	c4 eb       	ldi	r28, 0xB4	; 180
     964:	d6 e0       	ldi	r29, 0x06	; 6
     966:	ce 01       	movw	r24, r28
     968:	60 e8       	ldi	r22, 0x80	; 128
     96a:	74 e0       	ldi	r23, 0x04	; 4
     96c:	40 e8       	ldi	r20, 0x80	; 128
     96e:	50 e0       	ldi	r21, 0x00	; 0
     970:	0e 94 ef 25 	call	0x4bde	; 0x4bde <nrk_task_set_stk>
     974:	89 e1       	ldi	r24, 0x19	; 25
     976:	88 87       	std	Y+8, r24	; 0x08
     978:	1f 83       	std	Y+7, r17	; 0x07
     97a:	19 87       	std	Y+9, r17	; 0x09
     97c:	1a 87       	std	Y+10, r17	; 0x0a
     97e:	cb 86       	std	Y+11, r12	; 0x0b
     980:	dc 86       	std	Y+12, r13	; 0x0c
     982:	ed 86       	std	Y+13, r14	; 0x0d
     984:	fe 86       	std	Y+14, r15	; 0x0e
     986:	1f 86       	std	Y+15, r1	; 0x0f
     988:	18 8a       	std	Y+16, r1	; 0x10
     98a:	19 8a       	std	Y+17, r1	; 0x11
     98c:	1a 8a       	std	Y+18, r1	; 0x12
     98e:	1b 8a       	std	Y+19, r1	; 0x13
     990:	1c 8a       	std	Y+20, r1	; 0x14
     992:	1d 8a       	std	Y+21, r1	; 0x15
     994:	1e 8a       	std	Y+22, r1	; 0x16
     996:	1f 8a       	std	Y+23, r1	; 0x17
     998:	18 8e       	std	Y+24, r1	; 0x18
     99a:	19 8e       	std	Y+25, r1	; 0x19
     99c:	1a 8e       	std	Y+26, r1	; 0x1a
     99e:	1b 8e       	std	Y+27, r1	; 0x1b
     9a0:	1c 8e       	std	Y+28, r1	; 0x1c
     9a2:	1d 8e       	std	Y+29, r1	; 0x1d
     9a4:	1e 8e       	std	Y+30, r1	; 0x1e
     9a6:	1f 8e       	std	Y+31, r1	; 0x1f
     9a8:	18 a2       	std	Y+32, r1	; 0x20
     9aa:	19 a2       	std	Y+33, r1	; 0x21
     9ac:	1a a2       	std	Y+34, r1	; 0x22
     9ae:	ce 01       	movw	r24, r28
     9b0:	0e 94 c3 1a 	call	0x3586	; 0x3586 <nrk_activate_task>
     9b4:	df 91       	pop	r29
     9b6:	cf 91       	pop	r28
     9b8:	1f 91       	pop	r17
     9ba:	ff 90       	pop	r15
     9bc:	ef 90       	pop	r14
     9be:	df 90       	pop	r13
     9c0:	cf 90       	pop	r12
     9c2:	08 95       	ret

000009c4 <main>:
     9c4:	0e 94 e1 0c 	call	0x19c2	; 0x19c2 <nrk_setup_ports>
     9c8:	80 e1       	ldi	r24, 0x10	; 16
     9ca:	90 e0       	ldi	r25, 0x00	; 0
     9cc:	0e 94 a5 10 	call	0x214a	; 0x214a <nrk_setup_uart>
     9d0:	0e 94 7e 11 	call	0x22fc	; 0x22fc <nrk_init>
     9d4:	80 e0       	ldi	r24, 0x00	; 0
     9d6:	90 e0       	ldi	r25, 0x00	; 0
     9d8:	0e 94 3a 10 	call	0x2074	; 0x2074 <nrk_led_clr>
     9dc:	81 e0       	ldi	r24, 0x01	; 1
     9de:	90 e0       	ldi	r25, 0x00	; 0
     9e0:	0e 94 3a 10 	call	0x2074	; 0x2074 <nrk_led_clr>
     9e4:	82 e0       	ldi	r24, 0x02	; 2
     9e6:	90 e0       	ldi	r25, 0x00	; 0
     9e8:	0e 94 3a 10 	call	0x2074	; 0x2074 <nrk_led_clr>
     9ec:	83 e0       	ldi	r24, 0x03	; 3
     9ee:	90 e0       	ldi	r25, 0x00	; 0
     9f0:	0e 94 3a 10 	call	0x2074	; 0x2074 <nrk_led_clr>
     9f4:	60 e0       	ldi	r22, 0x00	; 0
     9f6:	70 e0       	ldi	r23, 0x00	; 0
     9f8:	cb 01       	movw	r24, r22
     9fa:	20 e0       	ldi	r18, 0x00	; 0
     9fc:	30 e0       	ldi	r19, 0x00	; 0
     9fe:	a9 01       	movw	r20, r18
     a00:	0e 94 7b 1e 	call	0x3cf6	; 0x3cf6 <nrk_time_set>
     a04:	0e 94 7a 08 	call	0x10f4	; 0x10f4 <bmac_task_config>
     a08:	0e 94 6b 04 	call	0x8d6	; 0x8d6 <nrk_create_taskset>
     a0c:	0e 94 45 12 	call	0x248a	; 0x248a <nrk_start>
     a10:	80 e0       	ldi	r24, 0x00	; 0
     a12:	90 e0       	ldi	r25, 0x00	; 0
     a14:	08 95       	ret

00000a16 <rf_rx_callback>:
     a16:	08 95       	ret

00000a18 <bmac_encryption_set_ctr_counter>:
     a18:	64 30       	cpi	r22, 0x04	; 4
     a1a:	21 f4       	brne	.+8      	; 0xa24 <bmac_encryption_set_ctr_counter+0xc>
     a1c:	0e 94 7d 0c 	call	0x18fa	; 0x18fa <rf_security_set_ctr_counter>
     a20:	81 e0       	ldi	r24, 0x01	; 1
     a22:	08 95       	ret
     a24:	8f ef       	ldi	r24, 0xFF	; 255
     a26:	08 95       	ret

00000a28 <bmac_tx_reserve_set>:
     a28:	8f ef       	ldi	r24, 0xFF	; 255
     a2a:	08 95       	ret

00000a2c <bmac_tx_reserve_get>:
     a2c:	80 e0       	ldi	r24, 0x00	; 0
     a2e:	90 e0       	ldi	r25, 0x00	; 0
     a30:	08 95       	ret

00000a32 <bmac_auto_ack_disable>:
     a32:	0e 94 2c 09 	call	0x1258	; 0x1258 <rf_auto_ack_disable>
     a36:	81 e0       	ldi	r24, 0x01	; 1
     a38:	08 95       	ret

00000a3a <bmac_auto_ack_enable>:
     a3a:	0e 94 26 09 	call	0x124c	; 0x124c <rf_auto_ack_enable>
     a3e:	81 e0       	ldi	r24, 0x01	; 1
     a40:	08 95       	ret

00000a42 <bmac_addr_decode_disable>:
     a42:	0e 94 20 09 	call	0x1240	; 0x1240 <rf_addr_decode_disable>
     a46:	81 e0       	ldi	r24, 0x01	; 1
     a48:	08 95       	ret

00000a4a <bmac_addr_decode_enable>:
     a4a:	0e 94 1a 09 	call	0x1234	; 0x1234 <rf_addr_decode_enable>
     a4e:	81 e0       	ldi	r24, 0x01	; 1
     a50:	08 95       	ret

00000a52 <bmac_addr_decode_set_my_mac>:
     a52:	0e 94 32 09 	call	0x1264	; 0x1264 <rf_addr_decode_set_my_mac>
     a56:	81 e0       	ldi	r24, 0x01	; 1
     a58:	08 95       	ret

00000a5a <bmac_addr_decode_dest_mac>:
     a5a:	90 93 8f 05 	sts	0x058F, r25
     a5e:	80 93 8e 05 	sts	0x058E, r24
     a62:	81 e0       	ldi	r24, 0x01	; 1
     a64:	08 95       	ret

00000a66 <bmac_rx_pkt_is_encrypted>:
     a66:	0e 94 7b 0c 	call	0x18f6	; 0x18f6 <rf_security_last_pkt_status>
     a6a:	08 95       	ret

00000a6c <bmac_encryption_set_key>:
     a6c:	60 31       	cpi	r22, 0x10	; 16
     a6e:	21 f4       	brne	.+8      	; 0xa78 <bmac_encryption_set_key+0xc>
     a70:	0e 94 7e 0c 	call	0x18fc	; 0x18fc <rf_security_set_key>
     a74:	81 e0       	ldi	r24, 0x01	; 1
     a76:	08 95       	ret
     a78:	8f ef       	ldi	r24, 0xFF	; 255
     a7a:	08 95       	ret

00000a7c <bmac_encryption_enable>:
     a7c:	81 e0       	ldi	r24, 0x01	; 1
     a7e:	08 95       	ret

00000a80 <bmac_encryption_disable>:
     a80:	81 e0       	ldi	r24, 0x01	; 1
     a82:	08 95       	ret

00000a84 <bmac_set_rf_power>:
     a84:	80 32       	cpi	r24, 0x20	; 32
     a86:	20 f4       	brcc	.+8      	; 0xa90 <bmac_set_rf_power+0xc>
     a88:	0e 94 10 09 	call	0x1220	; 0x1220 <rf_tx_power>
     a8c:	81 e0       	ldi	r24, 0x01	; 1
     a8e:	08 95       	ret
     a90:	8f ef       	ldi	r24, 0xFF	; 255
     a92:	08 95       	ret

00000a94 <bmac_set_cca_active>:
     a94:	80 93 5f 04 	sts	0x045F, r24
     a98:	08 95       	ret

00000a9a <bmac_set_cca_thresh>:
     a9a:	99 27       	eor	r25, r25
     a9c:	87 fd       	sbrc	r24, 7
     a9e:	90 95       	com	r25
     aa0:	0e 94 71 0c 	call	0x18e2	; 0x18e2 <rf_set_cca_thresh>
     aa4:	81 e0       	ldi	r24, 0x01	; 1
     aa6:	08 95       	ret

00000aa8 <bmac_set_channel>:
     aa8:	df 93       	push	r29
     aaa:	cf 93       	push	r28
     aac:	0f 92       	push	r0
     aae:	cd b7       	in	r28, 0x3d	; 61
     ab0:	de b7       	in	r29, 0x3e	; 62
     ab2:	8b 31       	cpi	r24, 0x1B	; 27
     ab4:	80 f4       	brcc	.+32     	; 0xad6 <bmac_set_channel+0x2e>
     ab6:	80 93 7a 04 	sts	0x047A, r24
     aba:	89 83       	std	Y+1, r24	; 0x01
     abc:	0e 94 fa 08 	call	0x11f4	; 0x11f4 <rf_power_up>
     ac0:	88 ed       	ldi	r24, 0xD8	; 216
     ac2:	96 e0       	ldi	r25, 0x06	; 6
     ac4:	69 81       	ldd	r22, Y+1	; 0x01
     ac6:	4f ef       	ldi	r20, 0xFF	; 255
     ac8:	5f ef       	ldi	r21, 0xFF	; 255
     aca:	20 e0       	ldi	r18, 0x00	; 0
     acc:	30 e0       	ldi	r19, 0x00	; 0
     ace:	0e 94 4d 09 	call	0x129a	; 0x129a <rf_init>
     ad2:	81 e0       	ldi	r24, 0x01	; 1
     ad4:	01 c0       	rjmp	.+2      	; 0xad8 <bmac_set_channel+0x30>
     ad6:	8f ef       	ldi	r24, 0xFF	; 255
     ad8:	0f 90       	pop	r0
     ada:	cf 91       	pop	r28
     adc:	df 91       	pop	r29
     ade:	08 95       	ret

00000ae0 <bmac_wait_until_rx_pkt>:
     ae0:	80 91 76 04 	lds	r24, 0x0476
     ae4:	88 23       	and	r24, r24
     ae6:	01 f1       	breq	.+64     	; 0xb28 <bmac_wait_until_rx_pkt+0x48>
     ae8:	80 91 a4 05 	lds	r24, 0x05A4
     aec:	0e 94 d2 17 	call	0x2fa4	; 0x2fa4 <nrk_signal_register>
     af0:	61 e0       	ldi	r22, 0x01	; 1
     af2:	70 e0       	ldi	r23, 0x00	; 0
     af4:	80 e0       	ldi	r24, 0x00	; 0
     af6:	90 e0       	ldi	r25, 0x00	; 0
     af8:	00 90 a4 05 	lds	r0, 0x05A4
     afc:	04 c0       	rjmp	.+8      	; 0xb06 <bmac_wait_until_rx_pkt+0x26>
     afe:	66 0f       	add	r22, r22
     b00:	77 1f       	adc	r23, r23
     b02:	88 1f       	adc	r24, r24
     b04:	99 1f       	adc	r25, r25
     b06:	0a 94       	dec	r0
     b08:	d2 f7       	brpl	.-12     	; 0xafe <bmac_wait_until_rx_pkt+0x1e>
     b0a:	0e 94 79 18 	call	0x30f2	; 0x30f2 <nrk_event_wait>
     b0e:	00 90 a4 05 	lds	r0, 0x05A4
     b12:	04 c0       	rjmp	.+8      	; 0xb1c <bmac_wait_until_rx_pkt+0x3c>
     b14:	96 95       	lsr	r25
     b16:	87 95       	ror	r24
     b18:	77 95       	ror	r23
     b1a:	67 95       	ror	r22
     b1c:	0a 94       	dec	r0
     b1e:	d2 f7       	brpl	.-12     	; 0xb14 <bmac_wait_until_rx_pkt+0x34>
     b20:	60 fd       	sbrc	r22, 0
     b22:	04 c0       	rjmp	.+8      	; 0xb2c <bmac_wait_until_rx_pkt+0x4c>
     b24:	8f ef       	ldi	r24, 0xFF	; 255
     b26:	08 95       	ret
     b28:	81 e0       	ldi	r24, 0x01	; 1
     b2a:	08 95       	ret
     b2c:	81 e0       	ldi	r24, 0x01	; 1
     b2e:	08 95       	ret

00000b30 <bmac_rx_pkt_set_buffer>:
     b30:	00 97       	sbiw	r24, 0x00	; 0
     b32:	51 f0       	breq	.+20     	; 0xb48 <bmac_rx_pkt_set_buffer+0x18>
     b34:	90 93 de 06 	sts	0x06DE, r25
     b38:	80 93 dd 06 	sts	0x06DD, r24
     b3c:	60 93 dc 06 	sts	0x06DC, r22
     b40:	81 e0       	ldi	r24, 0x01	; 1
     b42:	80 93 76 04 	sts	0x0476, r24
     b46:	08 95       	ret
     b48:	8f ef       	ldi	r24, 0xFF	; 255
     b4a:	08 95       	ret

00000b4c <bmac_init>:
     b4c:	0f 93       	push	r16
     b4e:	1f 93       	push	r17
     b50:	08 2f       	mov	r16, r24
     b52:	10 92 77 04 	sts	0x0477, r1
     b56:	8f ef       	ldi	r24, 0xFF	; 255
     b58:	80 93 79 04 	sts	0x0479, r24
     b5c:	11 e0       	ldi	r17, 0x01	; 1
     b5e:	10 93 5f 04 	sts	0x045F, r17
     b62:	10 92 6a 04 	sts	0x046A, r1
     b66:	10 92 6b 04 	sts	0x046B, r1
     b6a:	10 92 6c 04 	sts	0x046C, r1
     b6e:	10 92 6d 04 	sts	0x046D, r1
     b72:	10 92 60 04 	sts	0x0460, r1
     b76:	10 92 61 04 	sts	0x0461, r1
     b7a:	10 92 62 04 	sts	0x0462, r1
     b7e:	10 92 63 04 	sts	0x0463, r1
     b82:	20 e0       	ldi	r18, 0x00	; 0
     b84:	31 ee       	ldi	r19, 0xE1	; 225
     b86:	45 ef       	ldi	r20, 0xF5	; 245
     b88:	55 e0       	ldi	r21, 0x05	; 5
     b8a:	20 93 64 04 	sts	0x0464, r18
     b8e:	30 93 65 04 	sts	0x0465, r19
     b92:	40 93 66 04 	sts	0x0466, r20
     b96:	50 93 67 04 	sts	0x0467, r21
     b9a:	0e 94 c9 16 	call	0x2d92	; 0x2d92 <nrk_signal_create>
     b9e:	80 93 a4 05 	sts	0x05A4, r24
     ba2:	8f 3f       	cpi	r24, 0xFF	; 255
     ba4:	19 f4       	brne	.+6      	; 0xbac <bmac_init+0x60>
     ba6:	8e e9       	ldi	r24, 0x9E	; 158
     ba8:	92 e0       	ldi	r25, 0x02	; 2
     baa:	08 c0       	rjmp	.+16     	; 0xbbc <bmac_init+0x70>
     bac:	0e 94 c9 16 	call	0x2d92	; 0x2d92 <nrk_signal_create>
     bb0:	80 93 62 07 	sts	0x0762, r24
     bb4:	8f 3f       	cpi	r24, 0xFF	; 255
     bb6:	71 f4       	brne	.+28     	; 0xbd4 <bmac_init+0x88>
     bb8:	86 e7       	ldi	r24, 0x76	; 118
     bba:	92 e0       	ldi	r25, 0x02	; 2
     bbc:	0e 94 c1 0c 	call	0x1982	; 0x1982 <nrk_kprintf>
     bc0:	e0 91 19 06 	lds	r30, 0x0619
     bc4:	f0 91 1a 06 	lds	r31, 0x061A
     bc8:	8e e0       	ldi	r24, 0x0E	; 14
     bca:	60 85       	ldd	r22, Z+8	; 0x08
     bcc:	0e 94 51 15 	call	0x2aa2	; 0x2aa2 <nrk_kernel_error_add>
     bd0:	8f ef       	ldi	r24, 0xFF	; 255
     bd2:	29 c0       	rjmp	.+82     	; 0xc26 <bmac_init+0xda>
     bd4:	0e 94 c9 16 	call	0x2d92	; 0x2d92 <nrk_signal_create>
     bd8:	80 93 0d 05 	sts	0x050D, r24
     bdc:	8f 3f       	cpi	r24, 0xFF	; 255
     bde:	19 f4       	brne	.+6      	; 0xbe6 <bmac_init+0x9a>
     be0:	8a e4       	ldi	r24, 0x4A	; 74
     be2:	92 e0       	ldi	r25, 0x02	; 2
     be4:	eb cf       	rjmp	.-42     	; 0xbbc <bmac_init+0x70>
     be6:	10 92 69 04 	sts	0x0469, r1
     bea:	10 92 76 04 	sts	0x0476, r1
     bee:	10 92 de 06 	sts	0x06DE, r1
     bf2:	10 92 dd 06 	sts	0x06DD, r1
     bf6:	10 92 dc 06 	sts	0x06DC, r1
     bfa:	0e 94 fa 08 	call	0x11f4	; 0x11f4 <rf_power_up>
     bfe:	88 ed       	ldi	r24, 0xD8	; 216
     c00:	96 e0       	ldi	r25, 0x06	; 6
     c02:	60 2f       	mov	r22, r16
     c04:	4f ef       	ldi	r20, 0xFF	; 255
     c06:	5f ef       	ldi	r21, 0xFF	; 255
     c08:	20 e0       	ldi	r18, 0x00	; 0
     c0a:	30 e0       	ldi	r19, 0x00	; 0
     c0c:	0e 94 4d 09 	call	0x129a	; 0x129a <rf_init>
     c10:	00 93 7a 04 	sts	0x047A, r16
     c14:	80 e0       	ldi	r24, 0x00	; 0
     c16:	90 e0       	ldi	r25, 0x00	; 0
     c18:	0e 94 71 0c 	call	0x18e2	; 0x18e2 <rf_set_cca_thresh>
     c1c:	10 93 77 04 	sts	0x0477, r17
     c20:	10 93 78 04 	sts	0x0478, r17
     c24:	81 e0       	ldi	r24, 0x01	; 1
     c26:	1f 91       	pop	r17
     c28:	0f 91       	pop	r16
     c2a:	08 95       	ret

00000c2c <bmac_tx_pkt_nonblocking>:
     c2c:	20 91 69 04 	lds	r18, 0x0469
     c30:	21 30       	cpi	r18, 0x01	; 1
     c32:	59 f0       	breq	.+22     	; 0xc4a <bmac_tx_pkt_nonblocking+0x1e>
     c34:	21 e0       	ldi	r18, 0x01	; 1
     c36:	20 93 69 04 	sts	0x0469, r18
     c3a:	90 93 92 05 	sts	0x0592, r25
     c3e:	80 93 91 05 	sts	0x0591, r24
     c42:	60 93 90 05 	sts	0x0590, r22
     c46:	81 e0       	ldi	r24, 0x01	; 1
     c48:	08 95       	ret
     c4a:	8f ef       	ldi	r24, 0xFF	; 255
     c4c:	08 95       	ret

00000c4e <bmac_get_rx_pkt_signal>:
     c4e:	80 91 a4 05 	lds	r24, 0x05A4
     c52:	0e 94 d2 17 	call	0x2fa4	; 0x2fa4 <nrk_signal_register>
     c56:	80 91 a4 05 	lds	r24, 0x05A4
     c5a:	08 95       	ret

00000c5c <bmac_get_tx_done_signal>:
     c5c:	80 91 62 07 	lds	r24, 0x0762
     c60:	0e 94 d2 17 	call	0x2fa4	; 0x2fa4 <nrk_signal_register>
     c64:	80 91 62 07 	lds	r24, 0x0762
     c68:	08 95       	ret

00000c6a <bmac_tx_pkt>:
     c6a:	ef 92       	push	r14
     c6c:	ff 92       	push	r15
     c6e:	0f 93       	push	r16
     c70:	1f 93       	push	r17
     c72:	df 93       	push	r29
     c74:	cf 93       	push	r28
     c76:	0f 92       	push	r0
     c78:	cd b7       	in	r28, 0x3d	; 61
     c7a:	de b7       	in	r29, 0x3e	; 62
     c7c:	7c 01       	movw	r14, r24
     c7e:	80 91 69 04 	lds	r24, 0x0469
     c82:	81 30       	cpi	r24, 0x01	; 1
     c84:	f1 f1       	breq	.+124    	; 0xd02 <bmac_tx_pkt+0x98>
     c86:	80 91 62 07 	lds	r24, 0x0762
     c8a:	69 83       	std	Y+1, r22	; 0x01
     c8c:	0e 94 d2 17 	call	0x2fa4	; 0x2fa4 <nrk_signal_register>
     c90:	81 e0       	ldi	r24, 0x01	; 1
     c92:	80 93 69 04 	sts	0x0469, r24
     c96:	f0 92 92 05 	sts	0x0592, r15
     c9a:	e0 92 91 05 	sts	0x0591, r14
     c9e:	69 81       	ldd	r22, Y+1	; 0x01
     ca0:	60 93 90 05 	sts	0x0590, r22
     ca4:	61 e0       	ldi	r22, 0x01	; 1
     ca6:	70 e0       	ldi	r23, 0x00	; 0
     ca8:	80 e0       	ldi	r24, 0x00	; 0
     caa:	90 e0       	ldi	r25, 0x00	; 0
     cac:	00 90 62 07 	lds	r0, 0x0762
     cb0:	04 c0       	rjmp	.+8      	; 0xcba <bmac_tx_pkt+0x50>
     cb2:	66 0f       	add	r22, r22
     cb4:	77 1f       	adc	r23, r23
     cb6:	88 1f       	adc	r24, r24
     cb8:	99 1f       	adc	r25, r25
     cba:	0a 94       	dec	r0
     cbc:	d2 f7       	brpl	.-12     	; 0xcb2 <bmac_tx_pkt+0x48>
     cbe:	0e 94 79 18 	call	0x30f2	; 0x30f2 <nrk_event_wait>
     cc2:	7b 01       	movw	r14, r22
     cc4:	8c 01       	movw	r16, r24
     cc6:	61 15       	cp	r22, r1
     cc8:	71 05       	cpc	r23, r1
     cca:	81 05       	cpc	r24, r1
     ccc:	91 05       	cpc	r25, r1
     cce:	21 f4       	brne	.+8      	; 0xcd8 <bmac_tx_pkt+0x6e>
     cd0:	86 e2       	ldi	r24, 0x26	; 38
     cd2:	92 e0       	ldi	r25, 0x02	; 2
     cd4:	0e 94 c1 0c 	call	0x1982	; 0x1982 <nrk_kprintf>
     cd8:	00 90 62 07 	lds	r0, 0x0762
     cdc:	04 c0       	rjmp	.+8      	; 0xce6 <bmac_tx_pkt+0x7c>
     cde:	16 95       	lsr	r17
     ce0:	07 95       	ror	r16
     ce2:	f7 94       	ror	r15
     ce4:	e7 94       	ror	r14
     ce6:	0a 94       	dec	r0
     ce8:	d2 f7       	brpl	.-12     	; 0xcde <bmac_tx_pkt+0x74>
     cea:	e0 fc       	sbrc	r14, 0
     cec:	04 c0       	rjmp	.+8      	; 0xcf6 <bmac_tx_pkt+0x8c>
     cee:	83 e0       	ldi	r24, 0x03	; 3
     cf0:	92 e0       	ldi	r25, 0x02	; 2
     cf2:	0e 94 c1 0c 	call	0x1982	; 0x1982 <nrk_kprintf>
     cf6:	80 91 68 04 	lds	r24, 0x0468
     cfa:	88 23       	and	r24, r24
     cfc:	11 f0       	breq	.+4      	; 0xd02 <bmac_tx_pkt+0x98>
     cfe:	81 e0       	ldi	r24, 0x01	; 1
     d00:	01 c0       	rjmp	.+2      	; 0xd04 <bmac_tx_pkt+0x9a>
     d02:	8f ef       	ldi	r24, 0xFF	; 255
     d04:	0f 90       	pop	r0
     d06:	cf 91       	pop	r28
     d08:	df 91       	pop	r29
     d0a:	1f 91       	pop	r17
     d0c:	0f 91       	pop	r16
     d0e:	ff 90       	pop	r15
     d10:	ef 90       	pop	r14
     d12:	08 95       	ret

00000d14 <bmac_rx_pkt_get>:
     d14:	fc 01       	movw	r30, r24
     d16:	db 01       	movw	r26, r22
     d18:	80 91 76 04 	lds	r24, 0x0476
     d1c:	88 23       	and	r24, r24
     d1e:	29 f0       	breq	.+10     	; 0xd2a <bmac_rx_pkt_get+0x16>
     d20:	10 82       	st	Z, r1
     d22:	1c 92       	st	X, r1
     d24:	20 e0       	ldi	r18, 0x00	; 0
     d26:	30 e0       	ldi	r19, 0x00	; 0
     d28:	0a c0       	rjmp	.+20     	; 0xd3e <bmac_rx_pkt_get+0x2a>
     d2a:	80 91 db 06 	lds	r24, 0x06DB
     d2e:	80 83       	st	Z, r24
     d30:	80 91 e0 06 	lds	r24, 0x06E0
     d34:	8c 93       	st	X, r24
     d36:	20 91 dd 06 	lds	r18, 0x06DD
     d3a:	30 91 de 06 	lds	r19, 0x06DE
     d3e:	c9 01       	movw	r24, r18
     d40:	08 95       	ret

00000d42 <bmac_rx_pkt_ready>:
     d42:	81 e0       	ldi	r24, 0x01	; 1
     d44:	90 91 76 04 	lds	r25, 0x0476
     d48:	91 11       	cpse	r25, r1
     d4a:	80 e0       	ldi	r24, 0x00	; 0
     d4c:	08 95       	ret

00000d4e <bmac_rx_pkt_release>:
     d4e:	81 e0       	ldi	r24, 0x01	; 1
     d50:	80 93 76 04 	sts	0x0476, r24
     d54:	08 95       	ret

00000d56 <bmac_disable>:
     d56:	10 92 78 04 	sts	0x0478, r1
     d5a:	0e 94 d6 08 	call	0x11ac	; 0x11ac <rf_power_down>
     d5e:	08 95       	ret

00000d60 <bmac_enable>:
     d60:	81 e0       	ldi	r24, 0x01	; 1
     d62:	80 93 78 04 	sts	0x0478, r24
     d66:	0e 94 fa 08 	call	0x11f4	; 0x11f4 <rf_power_up>
     d6a:	80 91 0d 05 	lds	r24, 0x050D
     d6e:	0e 94 06 18 	call	0x300c	; 0x300c <nrk_event_signal>
     d72:	08 95       	ret

00000d74 <bmac_set_rx_check_rate>:
     d74:	df 93       	push	r29
     d76:	cf 93       	push	r28
     d78:	cd b7       	in	r28, 0x3d	; 61
     d7a:	de b7       	in	r29, 0x3e	; 62
     d7c:	28 97       	sbiw	r28, 0x08	; 8
     d7e:	0f b6       	in	r0, 0x3f	; 63
     d80:	f8 94       	cli
     d82:	de bf       	out	0x3e, r29	; 62
     d84:	0f be       	out	0x3f, r0	; 63
     d86:	cd bf       	out	0x3d, r28	; 61
     d88:	29 83       	std	Y+1, r18	; 0x01
     d8a:	3a 83       	std	Y+2, r19	; 0x02
     d8c:	4b 83       	std	Y+3, r20	; 0x03
     d8e:	5c 83       	std	Y+4, r21	; 0x04
     d90:	6d 83       	std	Y+5, r22	; 0x05
     d92:	7e 83       	std	Y+6, r23	; 0x06
     d94:	8f 83       	std	Y+7, r24	; 0x07
     d96:	98 87       	std	Y+8, r25	; 0x08
     d98:	29 81       	ldd	r18, Y+1	; 0x01
     d9a:	3a 81       	ldd	r19, Y+2	; 0x02
     d9c:	4b 81       	ldd	r20, Y+3	; 0x03
     d9e:	5c 81       	ldd	r21, Y+4	; 0x04
     da0:	8d 81       	ldd	r24, Y+5	; 0x05
     da2:	9e 81       	ldd	r25, Y+6	; 0x06
     da4:	af 81       	ldd	r26, Y+7	; 0x07
     da6:	b8 85       	ldd	r27, Y+8	; 0x08
     da8:	21 15       	cp	r18, r1
     daa:	31 05       	cpc	r19, r1
     dac:	41 05       	cpc	r20, r1
     dae:	51 05       	cpc	r21, r1
     db0:	41 f4       	brne	.+16     	; 0xdc2 <bmac_set_rx_check_rate+0x4e>
     db2:	80 30       	cpi	r24, 0x00	; 0
     db4:	6d e2       	ldi	r22, 0x2D	; 45
     db6:	96 07       	cpc	r25, r22
     db8:	61 e3       	ldi	r22, 0x31	; 49
     dba:	a6 07       	cpc	r26, r22
     dbc:	61 e0       	ldi	r22, 0x01	; 1
     dbe:	b6 07       	cpc	r27, r22
     dc0:	90 f0       	brcs	.+36     	; 0xde6 <bmac_set_rx_check_rate+0x72>
     dc2:	20 93 60 04 	sts	0x0460, r18
     dc6:	30 93 61 04 	sts	0x0461, r19
     dca:	40 93 62 04 	sts	0x0462, r20
     dce:	50 93 63 04 	sts	0x0463, r21
     dd2:	80 93 64 04 	sts	0x0464, r24
     dd6:	90 93 65 04 	sts	0x0465, r25
     dda:	a0 93 66 04 	sts	0x0466, r26
     dde:	b0 93 67 04 	sts	0x0467, r27
     de2:	81 e0       	ldi	r24, 0x01	; 1
     de4:	01 c0       	rjmp	.+2      	; 0xde8 <bmac_set_rx_check_rate+0x74>
     de6:	8f ef       	ldi	r24, 0xFF	; 255
     de8:	28 96       	adiw	r28, 0x08	; 8
     dea:	0f b6       	in	r0, 0x3f	; 63
     dec:	f8 94       	cli
     dee:	de bf       	out	0x3e, r29	; 62
     df0:	0f be       	out	0x3f, r0	; 63
     df2:	cd bf       	out	0x3d, r28	; 61
     df4:	cf 91       	pop	r28
     df6:	df 91       	pop	r29
     df8:	08 95       	ret

00000dfa <bmac_started>:
     dfa:	80 91 77 04 	lds	r24, 0x0477
     dfe:	08 95       	ret

00000e00 <_bmac_channel_check>:
     e00:	0f 93       	push	r16
     e02:	1f 93       	push	r17
     e04:	0e 94 c3 09 	call	0x1386	; 0x1386 <rf_rx_on>
     e08:	0e 94 03 0b 	call	0x1606	; 0x1606 <rf_cca_check>
     e0c:	08 2f       	mov	r16, r24
     e0e:	0e 94 03 0b 	call	0x1606	; 0x1606 <rf_cca_check>
     e12:	18 2f       	mov	r17, r24
     e14:	0e 94 03 0b 	call	0x1606	; 0x1606 <rf_cca_check>
     e18:	10 0f       	add	r17, r16
     e1a:	18 0f       	add	r17, r24
     e1c:	0e 94 cb 09 	call	0x1396	; 0x1396 <rf_rx_off>
     e20:	81 2f       	mov	r24, r17
     e22:	11 16       	cp	r1, r17
     e24:	0c f4       	brge	.+2      	; 0xe28 <_bmac_channel_check+0x28>
     e26:	81 e0       	ldi	r24, 0x01	; 1
     e28:	1f 91       	pop	r17
     e2a:	0f 91       	pop	r16
     e2c:	08 95       	ret

00000e2e <_bmac_rx>:
     e2e:	0e 94 c3 09 	call	0x1386	; 0x1386 <rf_rx_on>
     e32:	10 92 6e 04 	sts	0x046E, r1
     e36:	10 92 6f 04 	sts	0x046F, r1
     e3a:	10 92 70 04 	sts	0x0470, r1
     e3e:	10 92 71 04 	sts	0x0471, r1
     e42:	80 e4       	ldi	r24, 0x40	; 64
     e44:	9b e4       	ldi	r25, 0x4B	; 75
     e46:	ac e4       	ldi	r26, 0x4C	; 76
     e48:	b0 e0       	ldi	r27, 0x00	; 0
     e4a:	68 2f       	mov	r22, r24
     e4c:	80 93 72 04 	sts	0x0472, r24
     e50:	90 93 73 04 	sts	0x0473, r25
     e54:	a0 93 74 04 	sts	0x0474, r26
     e58:	b0 93 75 04 	sts	0x0475, r27
     e5c:	20 e0       	ldi	r18, 0x00	; 0
     e5e:	30 91 6f 04 	lds	r19, 0x046F
     e62:	40 91 70 04 	lds	r20, 0x0470
     e66:	50 91 71 04 	lds	r21, 0x0471
     e6a:	70 91 73 04 	lds	r23, 0x0473
     e6e:	80 91 74 04 	lds	r24, 0x0474
     e72:	90 91 75 04 	lds	r25, 0x0475
     e76:	0e 94 59 1b 	call	0x36b2	; 0x36b2 <nrk_wait>
     e7a:	0e 94 36 0b 	call	0x166c	; 0x166c <rf_rx_packet_nonblock>
     e7e:	81 30       	cpi	r24, 0x01	; 1
     e80:	f9 f0       	breq	.+62     	; 0xec0 <_bmac_rx+0x92>
     e82:	80 91 6a 04 	lds	r24, 0x046A
     e86:	90 91 6b 04 	lds	r25, 0x046B
     e8a:	a0 91 6c 04 	lds	r26, 0x046C
     e8e:	b0 91 6d 04 	lds	r27, 0x046D
     e92:	8f 3f       	cpi	r24, 0xFF	; 255
     e94:	2f ef       	ldi	r18, 0xFF	; 255
     e96:	92 07       	cpc	r25, r18
     e98:	20 e0       	ldi	r18, 0x00	; 0
     e9a:	a2 07       	cpc	r26, r18
     e9c:	20 e0       	ldi	r18, 0x00	; 0
     e9e:	b2 07       	cpc	r27, r18
     ea0:	58 f4       	brcc	.+22     	; 0xeb8 <_bmac_rx+0x8a>
     ea2:	01 96       	adiw	r24, 0x01	; 1
     ea4:	a1 1d       	adc	r26, r1
     ea6:	b1 1d       	adc	r27, r1
     ea8:	80 93 6a 04 	sts	0x046A, r24
     eac:	90 93 6b 04 	sts	0x046B, r25
     eb0:	a0 93 6c 04 	sts	0x046C, r26
     eb4:	b0 93 6d 04 	sts	0x046D, r27
     eb8:	0e 94 cb 09 	call	0x1396	; 0x1396 <rf_rx_off>
     ebc:	80 e0       	ldi	r24, 0x00	; 0
     ebe:	08 95       	ret
     ec0:	10 92 76 04 	sts	0x0476, r1
     ec4:	0e 94 cb 09 	call	0x1396	; 0x1396 <rf_rx_off>
     ec8:	81 e0       	ldi	r24, 0x01	; 1
     eca:	08 95       	ret

00000ecc <bmac_rx_failure_count_get>:
     ecc:	80 91 6a 04 	lds	r24, 0x046A
     ed0:	90 91 6b 04 	lds	r25, 0x046B
     ed4:	08 95       	ret

00000ed6 <bmac_rx_failure_count_reset>:
     ed6:	10 92 6a 04 	sts	0x046A, r1
     eda:	10 92 6b 04 	sts	0x046B, r1
     ede:	10 92 6c 04 	sts	0x046C, r1
     ee2:	10 92 6d 04 	sts	0x046D, r1
     ee6:	81 e0       	ldi	r24, 0x01	; 1
     ee8:	08 95       	ret

00000eea <_b_pow>:
     eea:	98 2f       	mov	r25, r24
     eec:	82 30       	cpi	r24, 0x02	; 2
     eee:	50 f0       	brcs	.+20     	; 0xf04 <_b_pow+0x1a>
     ef0:	88 30       	cpi	r24, 0x08	; 8
     ef2:	08 f0       	brcs	.+2      	; 0xef6 <_b_pow+0xc>
     ef4:	96 e0       	ldi	r25, 0x06	; 6
     ef6:	81 e0       	ldi	r24, 0x01	; 1
     ef8:	20 e0       	ldi	r18, 0x00	; 0
     efa:	88 0f       	add	r24, r24
     efc:	2f 5f       	subi	r18, 0xFF	; 255
     efe:	29 17       	cp	r18, r25
     f00:	e0 f3       	brcs	.-8      	; 0xefa <_b_pow+0x10>
     f02:	08 95       	ret
     f04:	81 e0       	ldi	r24, 0x01	; 1
     f06:	08 95       	ret

00000f08 <_bmac_tx>:
     f08:	ef 92       	push	r14
     f0a:	ff 92       	push	r15
     f0c:	0f 93       	push	r16
     f0e:	1f 93       	push	r17
     f10:	cf 93       	push	r28
     f12:	df 93       	push	r29
     f14:	80 91 5f 04 	lds	r24, 0x045F
     f18:	88 23       	and	r24, r24
     f1a:	09 f4       	brne	.+2      	; 0xf1e <_bmac_tx+0x16>
     f1c:	47 c0       	rjmp	.+142    	; 0xfac <_bmac_tx+0xa4>
     f1e:	80 e6       	ldi	r24, 0x60	; 96
     f20:	94 e0       	ldi	r25, 0x04	; 4
     f22:	0e 94 8c 1e 	call	0x3d18	; 0x3d18 <_nrk_time_to_ticks>
     f26:	ec 01       	movw	r28, r24
     f28:	0e 94 18 2f 	call	0x5e30	; 0x5e30 <rand>
     f2c:	6a e0       	ldi	r22, 0x0A	; 10
     f2e:	70 e0       	ldi	r23, 0x00	; 0
     f30:	0e 94 5e 2e 	call	0x5cbc	; 0x5cbc <__divmodhi4>
     f34:	bc 01       	movw	r22, r24
     f36:	6f 5f       	subi	r22, 0xFF	; 255
     f38:	7f 4f       	sbci	r23, 0xFF	; 255
     f3a:	ce 01       	movw	r24, r28
     f3c:	0e 94 4a 2e 	call	0x5c94	; 0x5c94 <__udivmodhi4>
     f40:	cb 01       	movw	r24, r22
     f42:	0e 94 d8 1b 	call	0x37b0	; 0x37b0 <nrk_wait_until_ticks>
     f46:	ff 24       	eor	r15, r15
     f48:	f3 94       	inc	r15
     f4a:	0a e0       	ldi	r16, 0x0A	; 10
     f4c:	10 e0       	ldi	r17, 0x00	; 0
     f4e:	0e 94 00 07 	call	0xe00	; 0xe00 <_bmac_channel_check>
     f52:	e8 2e       	mov	r14, r24
     f54:	81 30       	cpi	r24, 0x01	; 1
     f56:	51 f1       	breq	.+84     	; 0xfac <_bmac_tx+0xa4>
     f58:	0e 94 18 2f 	call	0x5e30	; 0x5e30 <rand>
     f5c:	ec 01       	movw	r28, r24
     f5e:	8f 2d       	mov	r24, r15
     f60:	0e 94 75 07 	call	0xeea	; 0xeea <_b_pow>
     f64:	68 2f       	mov	r22, r24
     f66:	70 e0       	ldi	r23, 0x00	; 0
     f68:	ce 01       	movw	r24, r28
     f6a:	0e 94 5e 2e 	call	0x5cbc	; 0x5cbc <__divmodhi4>
     f6e:	90 e0       	ldi	r25, 0x00	; 0
     f70:	0e 94 44 1c 	call	0x3888	; 0x3888 <nrk_wait_until_next_n_periods>
     f74:	80 e6       	ldi	r24, 0x60	; 96
     f76:	94 e0       	ldi	r25, 0x04	; 4
     f78:	0e 94 8c 1e 	call	0x3d18	; 0x3d18 <_nrk_time_to_ticks>
     f7c:	ec 01       	movw	r28, r24
     f7e:	0e 94 18 2f 	call	0x5e30	; 0x5e30 <rand>
     f82:	b8 01       	movw	r22, r16
     f84:	0e 94 5e 2e 	call	0x5cbc	; 0x5cbc <__divmodhi4>
     f88:	bc 01       	movw	r22, r24
     f8a:	6f 5f       	subi	r22, 0xFF	; 255
     f8c:	7f 4f       	sbci	r23, 0xFF	; 255
     f8e:	ce 01       	movw	r24, r28
     f90:	0e 94 4a 2e 	call	0x5c94	; 0x5c94 <__udivmodhi4>
     f94:	cb 01       	movw	r24, r22
     f96:	0e 94 d8 1b 	call	0x37b0	; 0x37b0 <nrk_wait_until_ticks>
     f9a:	ee 20       	and	r14, r14
     f9c:	39 f4       	brne	.+14     	; 0xfac <_bmac_tx+0xa4>
     f9e:	f3 94       	inc	r15
     fa0:	8f 2d       	mov	r24, r15
     fa2:	87 30       	cpi	r24, 0x07	; 7
     fa4:	a0 f2       	brcs	.-88     	; 0xf4e <_bmac_tx+0x46>
     fa6:	86 e0       	ldi	r24, 0x06	; 6
     fa8:	f8 2e       	mov	r15, r24
     faa:	d1 cf       	rjmp	.-94     	; 0xf4e <_bmac_tx+0x46>
     fac:	10 92 93 05 	sts	0x0593, r1
     fb0:	10 92 94 05 	sts	0x0594, r1
     fb4:	20 91 60 04 	lds	r18, 0x0460
     fb8:	30 91 61 04 	lds	r19, 0x0461
     fbc:	88 ee       	ldi	r24, 0xE8	; 232
     fbe:	93 e0       	ldi	r25, 0x03	; 3
     fc0:	28 9f       	mul	r18, r24
     fc2:	e0 01       	movw	r28, r0
     fc4:	29 9f       	mul	r18, r25
     fc6:	d0 0d       	add	r29, r0
     fc8:	38 9f       	mul	r19, r24
     fca:	d0 0d       	add	r29, r0
     fcc:	11 24       	eor	r1, r1
     fce:	60 91 64 04 	lds	r22, 0x0464
     fd2:	70 91 65 04 	lds	r23, 0x0465
     fd6:	80 91 66 04 	lds	r24, 0x0466
     fda:	90 91 67 04 	lds	r25, 0x0467
     fde:	20 e4       	ldi	r18, 0x40	; 64
     fe0:	32 e4       	ldi	r19, 0x42	; 66
     fe2:	4f e0       	ldi	r20, 0x0F	; 15
     fe4:	50 e0       	ldi	r21, 0x00	; 0
     fe6:	0e 94 71 2e 	call	0x5ce2	; 0x5ce2 <__udivmodsi4>
     fea:	c2 0f       	add	r28, r18
     fec:	d3 1f       	adc	r29, r19
     fee:	0e 94 c3 09 	call	0x1386	; 0x1386 <rf_rx_on>
     ff2:	8e e8       	ldi	r24, 0x8E	; 142
     ff4:	95 e0       	ldi	r25, 0x05	; 5
     ff6:	be 01       	movw	r22, r28
     ff8:	0e 94 d1 09 	call	0x13a2	; 0x13a2 <rf_tx_packet_repeat>
     ffc:	80 93 68 04 	sts	0x0468, r24
    1000:	0e 94 cb 09 	call	0x1396	; 0x1396 <rf_rx_off>
    1004:	10 92 69 04 	sts	0x0469, r1
    1008:	80 91 62 07 	lds	r24, 0x0762
    100c:	0e 94 06 18 	call	0x300c	; 0x300c <nrk_event_signal>
    1010:	81 e0       	ldi	r24, 0x01	; 1
    1012:	df 91       	pop	r29
    1014:	cf 91       	pop	r28
    1016:	1f 91       	pop	r17
    1018:	0f 91       	pop	r16
    101a:	ff 90       	pop	r15
    101c:	ef 90       	pop	r14
    101e:	08 95       	ret

00001020 <bmac_nw_task>:
    1020:	ef 92       	push	r14
    1022:	ff 92       	push	r15
    1024:	0f 93       	push	r16
    1026:	1f 93       	push	r17
    1028:	02 c0       	rjmp	.+4      	; 0x102e <bmac_nw_task+0xe>
    102a:	0e 94 77 1c 	call	0x38ee	; 0x38ee <nrk_wait_until_next_period>
    102e:	80 91 77 04 	lds	r24, 0x0477
    1032:	88 23       	and	r24, r24
    1034:	d1 f3       	breq	.-12     	; 0x102a <bmac_nw_task+0xa>
    1036:	80 91 0d 05 	lds	r24, 0x050D
    103a:	0e 94 d2 17 	call	0x2fa4	; 0x2fa4 <nrk_signal_register>
    103e:	8f 3f       	cpi	r24, 0xFF	; 255
    1040:	21 f4       	brne	.+8      	; 0x104a <bmac_nw_task+0x2a>
    1042:	87 ee       	ldi	r24, 0xE7	; 231
    1044:	91 e0       	ldi	r25, 0x01	; 1
    1046:	0e 94 c1 0c 	call	0x1982	; 0x1982 <nrk_kprintf>
    104a:	91 e0       	ldi	r25, 0x01	; 1
    104c:	e9 2e       	mov	r14, r25
    104e:	f1 2c       	mov	r15, r1
    1050:	01 2d       	mov	r16, r1
    1052:	11 2d       	mov	r17, r1
    1054:	0e 94 fa 08 	call	0x11f4	; 0x11f4 <rf_power_up>
    1058:	80 91 78 04 	lds	r24, 0x0478
    105c:	88 23       	and	r24, r24
    105e:	69 f1       	breq	.+90     	; 0x10ba <bmac_nw_task+0x9a>
    1060:	80 91 76 04 	lds	r24, 0x0476
    1064:	81 30       	cpi	r24, 0x01	; 1
    1066:	41 f4       	brne	.+16     	; 0x1078 <bmac_nw_task+0x58>
    1068:	0e 94 00 07 	call	0xe00	; 0xe00 <_bmac_channel_check>
    106c:	88 23       	and	r24, r24
    106e:	41 f4       	brne	.+16     	; 0x1080 <bmac_nw_task+0x60>
    1070:	0e 94 17 07 	call	0xe2e	; 0xe2e <_bmac_rx>
    1074:	81 30       	cpi	r24, 0x01	; 1
    1076:	21 f4       	brne	.+8      	; 0x1080 <bmac_nw_task+0x60>
    1078:	80 91 a4 05 	lds	r24, 0x05A4
    107c:	0e 94 06 18 	call	0x300c	; 0x300c <nrk_event_signal>
    1080:	80 91 69 04 	lds	r24, 0x0469
    1084:	81 30       	cpi	r24, 0x01	; 1
    1086:	11 f4       	brne	.+4      	; 0x108c <bmac_nw_task+0x6c>
    1088:	0e 94 84 07 	call	0xf08	; 0xf08 <_bmac_tx>
    108c:	0e 94 cb 09 	call	0x1396	; 0x1396 <rf_rx_off>
    1090:	0e 94 d6 08 	call	0x11ac	; 0x11ac <rf_power_down>
    1094:	20 91 60 04 	lds	r18, 0x0460
    1098:	30 91 61 04 	lds	r19, 0x0461
    109c:	40 91 62 04 	lds	r20, 0x0462
    10a0:	50 91 63 04 	lds	r21, 0x0463
    10a4:	60 91 64 04 	lds	r22, 0x0464
    10a8:	70 91 65 04 	lds	r23, 0x0465
    10ac:	80 91 66 04 	lds	r24, 0x0466
    10b0:	90 91 67 04 	lds	r25, 0x0467
    10b4:	0e 94 59 1b 	call	0x36b2	; 0x36b2 <nrk_wait>
    10b8:	cd cf       	rjmp	.-102    	; 0x1054 <bmac_nw_task+0x34>
    10ba:	80 91 0d 05 	lds	r24, 0x050D
    10be:	0e 94 d2 17 	call	0x2fa4	; 0x2fa4 <nrk_signal_register>
    10c2:	c8 01       	movw	r24, r16
    10c4:	b7 01       	movw	r22, r14
    10c6:	00 90 0d 05 	lds	r0, 0x050D
    10ca:	04 c0       	rjmp	.+8      	; 0x10d4 <bmac_nw_task+0xb4>
    10cc:	66 0f       	add	r22, r22
    10ce:	77 1f       	adc	r23, r23
    10d0:	88 1f       	adc	r24, r24
    10d2:	99 1f       	adc	r25, r25
    10d4:	0a 94       	dec	r0
    10d6:	d2 f7       	brpl	.-12     	; 0x10cc <bmac_nw_task+0xac>
    10d8:	0e 94 79 18 	call	0x30f2	; 0x30f2 <nrk_event_wait>
    10dc:	00 90 0d 05 	lds	r0, 0x050D
    10e0:	04 c0       	rjmp	.+8      	; 0x10ea <bmac_nw_task+0xca>
    10e2:	96 95       	lsr	r25
    10e4:	87 95       	ror	r24
    10e6:	77 95       	ror	r23
    10e8:	67 95       	ror	r22
    10ea:	0a 94       	dec	r0
    10ec:	d2 f7       	brpl	.-12     	; 0x10e2 <bmac_nw_task+0xc2>
    10ee:	60 ff       	sbrs	r22, 0
    10f0:	e4 cf       	rjmp	.-56     	; 0x10ba <bmac_nw_task+0x9a>
    10f2:	b0 cf       	rjmp	.-160    	; 0x1054 <bmac_nw_task+0x34>

000010f4 <bmac_task_config>:
    10f4:	cf 93       	push	r28
    10f6:	df 93       	push	r29
    10f8:	cc eb       	ldi	r28, 0xBC	; 188
    10fa:	d3 e0       	ldi	r29, 0x03	; 3
    10fc:	ce 01       	movw	r24, r28
    10fe:	60 e1       	ldi	r22, 0x10	; 16
    1100:	78 e0       	ldi	r23, 0x08	; 8
    1102:	0e 94 eb 25 	call	0x4bd6	; 0x4bd6 <nrk_task_set_entry_function>
    1106:	ce 01       	movw	r24, r28
    1108:	6f ed       	ldi	r22, 0xDF	; 223
    110a:	73 e0       	ldi	r23, 0x03	; 3
    110c:	40 e8       	ldi	r20, 0x80	; 128
    110e:	50 e0       	ldi	r21, 0x00	; 0
    1110:	0e 94 ef 25 	call	0x4bde	; 0x4bde <nrk_task_set_stk>
    1114:	84 e1       	ldi	r24, 0x14	; 20
    1116:	80 93 c4 03 	sts	0x03C4, r24
    111a:	81 e0       	ldi	r24, 0x01	; 1
    111c:	80 93 c3 03 	sts	0x03C3, r24
    1120:	80 93 c5 03 	sts	0x03C5, r24
    1124:	80 93 c6 03 	sts	0x03C6, r24
    1128:	10 92 c7 03 	sts	0x03C7, r1
    112c:	10 92 c8 03 	sts	0x03C8, r1
    1130:	10 92 c9 03 	sts	0x03C9, r1
    1134:	10 92 ca 03 	sts	0x03CA, r1
    1138:	80 e0       	ldi	r24, 0x00	; 0
    113a:	9d e2       	ldi	r25, 0x2D	; 45
    113c:	a1 e3       	ldi	r26, 0x31	; 49
    113e:	b1 e0       	ldi	r27, 0x01	; 1
    1140:	80 93 cb 03 	sts	0x03CB, r24
    1144:	90 93 cc 03 	sts	0x03CC, r25
    1148:	a0 93 cd 03 	sts	0x03CD, r26
    114c:	b0 93 ce 03 	sts	0x03CE, r27
    1150:	10 92 cf 03 	sts	0x03CF, r1
    1154:	10 92 d0 03 	sts	0x03D0, r1
    1158:	10 92 d1 03 	sts	0x03D1, r1
    115c:	10 92 d2 03 	sts	0x03D2, r1
    1160:	10 92 d3 03 	sts	0x03D3, r1
    1164:	10 92 d4 03 	sts	0x03D4, r1
    1168:	10 92 d5 03 	sts	0x03D5, r1
    116c:	10 92 d6 03 	sts	0x03D6, r1
    1170:	10 92 d7 03 	sts	0x03D7, r1
    1174:	10 92 d8 03 	sts	0x03D8, r1
    1178:	10 92 d9 03 	sts	0x03D9, r1
    117c:	10 92 da 03 	sts	0x03DA, r1
    1180:	10 92 db 03 	sts	0x03DB, r1
    1184:	10 92 dc 03 	sts	0x03DC, r1
    1188:	10 92 dd 03 	sts	0x03DD, r1
    118c:	10 92 de 03 	sts	0x03DE, r1
    1190:	ce 01       	movw	r24, r28
    1192:	0e 94 c3 1a 	call	0x3586	; 0x3586 <nrk_activate_task>
    1196:	df 91       	pop	r29
    1198:	cf 91       	pop	r28
    119a:	08 95       	ret

0000119c <rf_cmd>:
    119c:	90 91 41 01 	lds	r25, 0x0141
    11a0:	9f 71       	andi	r25, 0x1F	; 31
    11a2:	9f 31       	cpi	r25, 0x1F	; 31
    11a4:	d9 f3       	breq	.-10     	; 0x119c <rf_cmd>
    11a6:	80 93 42 01 	sts	0x0142, r24
    11aa:	08 95       	ret

000011ac <rf_power_down>:
    11ac:	80 91 41 01 	lds	r24, 0x0141
    11b0:	8f 71       	andi	r24, 0x1F	; 31
    11b2:	8f 31       	cpi	r24, 0x1F	; 31
    11b4:	d9 f3       	breq	.-10     	; 0x11ac <rf_power_down>
    11b6:	80 91 41 01 	lds	r24, 0x0141
    11ba:	8f 71       	andi	r24, 0x1F	; 31
    11bc:	d1 f0       	breq	.+52     	; 0x11f2 <rf_power_down+0x46>
    11be:	8f 30       	cpi	r24, 0x0F	; 15
    11c0:	c1 f0       	breq	.+48     	; 0x11f2 <rf_power_down+0x46>
    11c2:	80 91 41 01 	lds	r24, 0x0141
    11c6:	8f 71       	andi	r24, 0x1F	; 31
    11c8:	88 30       	cpi	r24, 0x08	; 8
    11ca:	41 f0       	breq	.+16     	; 0x11dc <rf_power_down+0x30>
    11cc:	88 e0       	ldi	r24, 0x08	; 8
    11ce:	0e 94 ce 08 	call	0x119c	; 0x119c <rf_cmd>
    11d2:	80 91 41 01 	lds	r24, 0x0141
    11d6:	8f 71       	andi	r24, 0x1F	; 31
    11d8:	88 30       	cpi	r24, 0x08	; 8
    11da:	d9 f7       	brne	.-10     	; 0x11d2 <rf_power_down+0x26>
    11dc:	80 91 39 01 	lds	r24, 0x0139
    11e0:	82 60       	ori	r24, 0x02	; 2
    11e2:	80 93 39 01 	sts	0x0139, r24
    11e6:	80 91 41 01 	lds	r24, 0x0141
    11ea:	8f 71       	andi	r24, 0x1F	; 31
    11ec:	11 f0       	breq	.+4      	; 0x11f2 <rf_power_down+0x46>
    11ee:	8f 30       	cpi	r24, 0x0F	; 15
    11f0:	d1 f7       	brne	.-12     	; 0x11e6 <rf_power_down+0x3a>
    11f2:	08 95       	ret

000011f4 <rf_power_up>:
    11f4:	80 91 41 01 	lds	r24, 0x0141
    11f8:	8f 71       	andi	r24, 0x1F	; 31
    11fa:	8f 31       	cpi	r24, 0x1F	; 31
    11fc:	d9 f3       	breq	.-10     	; 0x11f4 <rf_power_up>
    11fe:	80 91 41 01 	lds	r24, 0x0141
    1202:	8f 71       	andi	r24, 0x1F	; 31
    1204:	11 f0       	breq	.+4      	; 0x120a <rf_power_up+0x16>
    1206:	8f 30       	cpi	r24, 0x0F	; 15
    1208:	51 f4       	brne	.+20     	; 0x121e <rf_power_up+0x2a>
    120a:	80 91 39 01 	lds	r24, 0x0139
    120e:	8d 7f       	andi	r24, 0xFD	; 253
    1210:	80 93 39 01 	sts	0x0139, r24
    1214:	80 91 41 01 	lds	r24, 0x0141
    1218:	8f 71       	andi	r24, 0x1F	; 31
    121a:	88 30       	cpi	r24, 0x08	; 8
    121c:	d9 f7       	brne	.-10     	; 0x1214 <rf_power_up+0x20>
    121e:	08 95       	ret

00001220 <rf_tx_power>:
    1220:	e5 e4       	ldi	r30, 0x45	; 69
    1222:	f1 e0       	ldi	r31, 0x01	; 1
    1224:	90 81       	ld	r25, Z
    1226:	90 7f       	andi	r25, 0xF0	; 240
    1228:	90 83       	st	Z, r25
    122a:	90 81       	ld	r25, Z
    122c:	8f 70       	andi	r24, 0x0F	; 15
    122e:	89 2b       	or	r24, r25
    1230:	80 83       	st	Z, r24
    1232:	08 95       	ret

00001234 <rf_addr_decode_enable>:
    1234:	e7 e5       	ldi	r30, 0x57	; 87
    1236:	f1 e0       	ldi	r31, 0x01	; 1
    1238:	80 81       	ld	r24, Z
    123a:	8d 7f       	andi	r24, 0xFD	; 253
    123c:	80 83       	st	Z, r24
    123e:	08 95       	ret

00001240 <rf_addr_decode_disable>:
    1240:	e7 e5       	ldi	r30, 0x57	; 87
    1242:	f1 e0       	ldi	r31, 0x01	; 1
    1244:	80 81       	ld	r24, Z
    1246:	82 60       	ori	r24, 0x02	; 2
    1248:	80 83       	st	Z, r24
    124a:	08 95       	ret

0000124c <rf_auto_ack_enable>:
    124c:	ee e6       	ldi	r30, 0x6E	; 110
    124e:	f1 e0       	ldi	r31, 0x01	; 1
    1250:	80 81       	ld	r24, Z
    1252:	8f 7e       	andi	r24, 0xEF	; 239
    1254:	80 83       	st	Z, r24
    1256:	08 95       	ret

00001258 <rf_auto_ack_disable>:
    1258:	ee e6       	ldi	r30, 0x6E	; 110
    125a:	f1 e0       	ldi	r31, 0x01	; 1
    125c:	80 81       	ld	r24, Z
    125e:	80 61       	ori	r24, 0x10	; 16
    1260:	80 83       	st	Z, r24
    1262:	08 95       	ret

00001264 <rf_addr_decode_set_my_mac>:
    1264:	80 93 60 01 	sts	0x0160, r24
    1268:	90 93 61 01 	sts	0x0161, r25
    126c:	90 93 77 07 	sts	0x0777, r25
    1270:	80 93 76 07 	sts	0x0776, r24
    1274:	08 95       	ret

00001276 <rf_set_rx>:
    1276:	90 93 71 07 	sts	0x0771, r25
    127a:	80 93 70 07 	sts	0x0770, r24
    127e:	e8 e4       	ldi	r30, 0x48	; 72
    1280:	f1 e0       	ldi	r31, 0x01	; 1
    1282:	80 81       	ld	r24, Z
    1284:	80 7e       	andi	r24, 0xE0	; 224
    1286:	80 83       	st	Z, r24
    1288:	80 81       	ld	r24, Z
    128a:	68 2b       	or	r22, r24
    128c:	60 83       	st	Z, r22
    128e:	08 95       	ret

00001290 <rx_start_callback>:
    1290:	90 93 7c 04 	sts	0x047C, r25
    1294:	80 93 7b 04 	sts	0x047B, r24
    1298:	08 95       	ret

0000129a <rf_init>:
    129a:	1f 93       	push	r17
    129c:	70 e2       	ldi	r23, 0x20	; 32
    129e:	70 93 44 01 	sts	0x0144, r23
    12a2:	70 ec       	ldi	r23, 0xC0	; 192
    12a4:	70 93 45 01 	sts	0x0145, r23
    12a8:	60 62       	ori	r22, 0x20	; 32
    12aa:	60 93 48 01 	sts	0x0148, r22
    12ae:	65 ec       	ldi	r22, 0xC5	; 197
    12b0:	60 93 49 01 	sts	0x0149, r22
    12b4:	67 ea       	ldi	r22, 0xA7	; 167
    12b6:	60 93 4b 01 	sts	0x014B, r22
    12ba:	60 e8       	ldi	r22, 0x80	; 128
    12bc:	60 93 4c 01 	sts	0x014C, r22
    12c0:	20 93 60 01 	sts	0x0160, r18
    12c4:	30 93 61 01 	sts	0x0161, r19
    12c8:	40 93 62 01 	sts	0x0162, r20
    12cc:	50 93 63 01 	sts	0x0163, r21
    12d0:	e6 e4       	ldi	r30, 0x46	; 70
    12d2:	f1 e0       	ldi	r31, 0x01	; 1
    12d4:	10 81       	ld	r17, Z
    12d6:	a0 81       	ld	r26, Z
    12d8:	60 81       	ld	r22, Z
    12da:	70 81       	ld	r23, Z
    12dc:	12 95       	swap	r17
    12de:	16 95       	lsr	r17
    12e0:	17 70       	andi	r17, 0x07	; 7
    12e2:	12 95       	swap	r17
    12e4:	11 0f       	add	r17, r17
    12e6:	11 0f       	add	r17, r17
    12e8:	10 7c       	andi	r17, 0xC0	; 192
    12ea:	72 95       	swap	r23
    12ec:	76 95       	lsr	r23
    12ee:	73 70       	andi	r23, 0x03	; 3
    12f0:	17 2b       	or	r17, r23
    12f2:	a2 95       	swap	r26
    12f4:	a6 95       	lsr	r26
    12f6:	a7 70       	andi	r26, 0x07	; 7
    12f8:	b0 e0       	ldi	r27, 0x00	; 0
    12fa:	a3 70       	andi	r26, 0x03	; 3
    12fc:	b0 70       	andi	r27, 0x00	; 0
    12fe:	74 e0       	ldi	r23, 0x04	; 4
    1300:	aa 0f       	add	r26, r26
    1302:	bb 1f       	adc	r27, r27
    1304:	7a 95       	dec	r23
    1306:	e1 f7       	brne	.-8      	; 0x1300 <rf_init+0x66>
    1308:	1a 2b       	or	r17, r26
    130a:	62 95       	swap	r22
    130c:	66 95       	lsr	r22
    130e:	67 70       	andi	r22, 0x07	; 7
    1310:	70 e0       	ldi	r23, 0x00	; 0
    1312:	63 70       	andi	r22, 0x03	; 3
    1314:	70 70       	andi	r23, 0x00	; 0
    1316:	66 0f       	add	r22, r22
    1318:	77 1f       	adc	r23, r23
    131a:	66 0f       	add	r22, r22
    131c:	77 1f       	adc	r23, r23
    131e:	16 2b       	or	r17, r22
    1320:	10 93 6d 01 	sts	0x016D, r17
    1324:	60 81       	ld	r22, Z
    1326:	e0 81       	ld	r30, Z
    1328:	e2 95       	swap	r30
    132a:	e6 95       	lsr	r30
    132c:	e3 70       	andi	r30, 0x03	; 3
    132e:	e0 64       	ori	r30, 0x40	; 64
    1330:	62 95       	swap	r22
    1332:	66 95       	lsr	r22
    1334:	67 70       	andi	r22, 0x07	; 7
    1336:	70 e0       	ldi	r23, 0x00	; 0
    1338:	63 70       	andi	r22, 0x03	; 3
    133a:	70 70       	andi	r23, 0x00	; 0
    133c:	66 0f       	add	r22, r22
    133e:	77 1f       	adc	r23, r23
    1340:	e6 2b       	or	r30, r22
    1342:	e0 93 6e 01 	sts	0x016E, r30
    1346:	10 92 6c 01 	sts	0x016C, r1
    134a:	6f ef       	ldi	r22, 0xFF	; 255
    134c:	60 93 4e 01 	sts	0x014E, r22
    1350:	90 93 71 07 	sts	0x0771, r25
    1354:	80 93 70 07 	sts	0x0770, r24
    1358:	10 92 72 07 	sts	0x0772, r1
    135c:	10 92 73 07 	sts	0x0773, r1
    1360:	50 93 75 07 	sts	0x0775, r21
    1364:	40 93 74 07 	sts	0x0774, r20
    1368:	30 93 77 07 	sts	0x0777, r19
    136c:	20 93 76 07 	sts	0x0776, r18
    1370:	10 92 78 07 	sts	0x0778, r1
    1374:	81 e0       	ldi	r24, 0x01	; 1
    1376:	80 93 82 07 	sts	0x0782, r24
    137a:	10 92 91 07 	sts	0x0791, r1
    137e:	10 92 81 07 	sts	0x0781, r1
    1382:	1f 91       	pop	r17
    1384:	08 95       	ret

00001386 <rf_rx_on>:
    1386:	86 e1       	ldi	r24, 0x16	; 22
    1388:	0e 94 ce 08 	call	0x119c	; 0x119c <rf_cmd>
    138c:	08 95       	ret

0000138e <rf_polling_rx_on>:
    138e:	86 e1       	ldi	r24, 0x16	; 22
    1390:	0e 94 ce 08 	call	0x119c	; 0x119c <rf_cmd>
    1394:	08 95       	ret

00001396 <rf_rx_off>:
    1396:	88 e0       	ldi	r24, 0x08	; 8
    1398:	0e 94 ce 08 	call	0x119c	; 0x119c <rf_cmd>
    139c:	10 92 91 07 	sts	0x0791, r1
    13a0:	08 95       	ret

000013a2 <rf_tx_packet_repeat>:
    13a2:	2f 92       	push	r2
    13a4:	3f 92       	push	r3
    13a6:	4f 92       	push	r4
    13a8:	5f 92       	push	r5
    13aa:	7f 92       	push	r7
    13ac:	8f 92       	push	r8
    13ae:	9f 92       	push	r9
    13b0:	af 92       	push	r10
    13b2:	bf 92       	push	r11
    13b4:	cf 92       	push	r12
    13b6:	df 92       	push	r13
    13b8:	ef 92       	push	r14
    13ba:	ff 92       	push	r15
    13bc:	0f 93       	push	r16
    13be:	1f 93       	push	r17
    13c0:	cf 93       	push	r28
    13c2:	df 93       	push	r29
    13c4:	ec 01       	movw	r28, r24
    13c6:	1b 01       	movw	r2, r22
    13c8:	80 91 82 07 	lds	r24, 0x0782
    13cc:	88 23       	and	r24, r24
    13ce:	09 f4       	brne	.+2      	; 0x13d2 <rf_tx_packet_repeat+0x30>
    13d0:	01 c1       	rjmp	.+514    	; 0x15d4 <rf_tx_packet_repeat+0x232>
    13d2:	8e 81       	ldd	r24, Y+6	; 0x06
    13d4:	90 91 72 07 	lds	r25, 0x0772
    13d8:	9f 5f       	subi	r25, 0xFF	; 255
    13da:	90 93 72 07 	sts	0x0772, r25
    13de:	e1 e8       	ldi	r30, 0x81	; 129
    13e0:	f1 e0       	ldi	r31, 0x01	; 1
    13e2:	81 70       	andi	r24, 0x01	; 1
    13e4:	82 95       	swap	r24
    13e6:	88 0f       	add	r24, r24
    13e8:	80 72       	andi	r24, 0x20	; 32
    13ea:	81 64       	ori	r24, 0x41	; 65
    13ec:	80 93 81 01 	sts	0x0181, r24
    13f0:	88 e8       	ldi	r24, 0x88	; 136
    13f2:	81 83       	std	Z+1, r24	; 0x01
    13f4:	80 91 72 07 	lds	r24, 0x0772
    13f8:	82 83       	std	Z+2, r24	; 0x02
    13fa:	90 91 63 01 	lds	r25, 0x0163
    13fe:	80 91 62 01 	lds	r24, 0x0162
    1402:	39 2f       	mov	r19, r25
    1404:	20 e0       	ldi	r18, 0x00	; 0
    1406:	90 e0       	ldi	r25, 0x00	; 0
    1408:	82 2b       	or	r24, r18
    140a:	93 2b       	or	r25, r19
    140c:	94 83       	std	Z+4, r25	; 0x04
    140e:	83 83       	std	Z+3, r24	; 0x03
    1410:	88 81       	ld	r24, Y
    1412:	99 81       	ldd	r25, Y+1	; 0x01
    1414:	96 83       	std	Z+6, r25	; 0x06
    1416:	85 83       	std	Z+5, r24	; 0x05
    1418:	90 91 61 01 	lds	r25, 0x0161
    141c:	80 91 60 01 	lds	r24, 0x0160
    1420:	39 2f       	mov	r19, r25
    1422:	20 e0       	ldi	r18, 0x00	; 0
    1424:	90 e0       	ldi	r25, 0x00	; 0
    1426:	82 2b       	or	r24, r18
    1428:	93 2b       	or	r25, r19
    142a:	90 87       	std	Z+8, r25	; 0x08
    142c:	87 83       	std	Z+7, r24	; 0x07
    142e:	4a 81       	ldd	r20, Y+2	; 0x02
    1430:	24 2f       	mov	r18, r20
    1432:	33 27       	eor	r19, r19
    1434:	27 fd       	sbrc	r18, 7
    1436:	30 95       	com	r19
    1438:	6b 81       	ldd	r22, Y+3	; 0x03
    143a:	7c 81       	ldd	r23, Y+4	; 0x04
    143c:	8a e8       	ldi	r24, 0x8A	; 138
    143e:	91 e0       	ldi	r25, 0x01	; 1
    1440:	53 2f       	mov	r21, r19
    1442:	0e 94 33 2f 	call	0x5e66	; 0x5e66 <memcpy>
    1446:	8a 81       	ldd	r24, Y+2	; 0x02
    1448:	85 5f       	subi	r24, 0xF5	; 245
    144a:	80 93 80 01 	sts	0x0180, r24
    144e:	70 90 41 01 	lds	r7, 0x0141
    1452:	8f e1       	ldi	r24, 0x1F	; 31
    1454:	78 22       	and	r7, r24
    1456:	87 2d       	mov	r24, r7
    1458:	81 50       	subi	r24, 0x01	; 1
    145a:	82 30       	cpi	r24, 0x02	; 2
    145c:	c0 f3       	brcs	.-16     	; 0x144e <rf_tx_packet_repeat+0xac>
    145e:	87 2d       	mov	r24, r7
    1460:	81 31       	cpi	r24, 0x11	; 17
    1462:	a9 f3       	breq	.-22     	; 0x144e <rf_tx_packet_repeat+0xac>
    1464:	82 31       	cpi	r24, 0x12	; 18
    1466:	99 f3       	breq	.-26     	; 0x144e <rf_tx_packet_repeat+0xac>
    1468:	8f 31       	cpi	r24, 0x1F	; 31
    146a:	89 f3       	breq	.-30     	; 0x144e <rf_tx_packet_repeat+0xac>
    146c:	88 30       	cpi	r24, 0x08	; 8
    146e:	39 f0       	breq	.+14     	; 0x147e <rf_tx_packet_repeat+0xdc>
    1470:	86 30       	cpi	r24, 0x06	; 6
    1472:	29 f0       	breq	.+10     	; 0x147e <rf_tx_packet_repeat+0xdc>
    1474:	86 31       	cpi	r24, 0x16	; 22
    1476:	19 f0       	breq	.+6      	; 0x147e <rf_tx_packet_repeat+0xdc>
    1478:	89 30       	cpi	r24, 0x09	; 9
    147a:	09 f0       	breq	.+2      	; 0x147e <rf_tx_packet_repeat+0xdc>
    147c:	ab c0       	rjmp	.+342    	; 0x15d4 <rf_tx_packet_repeat+0x232>
    147e:	86 e1       	ldi	r24, 0x16	; 22
    1480:	0e 94 ce 08 	call	0x119c	; 0x119c <rf_cmd>
    1484:	8d 81       	ldd	r24, Y+5	; 0x05
    1486:	88 23       	and	r24, r24
    1488:	69 f0       	breq	.+26     	; 0x14a4 <rf_tx_packet_repeat+0x102>
    148a:	80 91 48 01 	lds	r24, 0x0148
    148e:	80 68       	ori	r24, 0x80	; 128
    1490:	80 93 48 01 	sts	0x0148, r24
    1494:	80 91 41 01 	lds	r24, 0x0141
    1498:	87 ff       	sbrs	r24, 7
    149a:	fc cf       	rjmp	.-8      	; 0x1494 <rf_tx_packet_repeat+0xf2>
    149c:	80 91 41 01 	lds	r24, 0x0141
    14a0:	86 ff       	sbrs	r24, 6
    14a2:	98 c0       	rjmp	.+304    	; 0x15d4 <rf_tx_packet_repeat+0x232>
    14a4:	89 e0       	ldi	r24, 0x09	; 9
    14a6:	0e 94 ce 08 	call	0x119c	; 0x119c <rf_cmd>
    14aa:	8e 81       	ldd	r24, Y+6	; 0x06
    14ac:	88 23       	and	r24, r24
    14ae:	19 f0       	breq	.+6      	; 0x14b6 <rf_tx_packet_repeat+0x114>
    14b0:	89 e1       	ldi	r24, 0x19	; 25
    14b2:	0e 94 ce 08 	call	0x119c	; 0x119c <rf_cmd>
    14b6:	21 14       	cp	r2, r1
    14b8:	31 04       	cpc	r3, r1
    14ba:	a9 f1       	breq	.+106    	; 0x1526 <rf_tx_packet_repeat+0x184>
    14bc:	89 e7       	ldi	r24, 0x79	; 121
    14be:	97 e0       	ldi	r25, 0x07	; 7
    14c0:	0e 94 10 1d 	call	0x3a20	; 0x3a20 <nrk_time_get>
    14c4:	80 91 79 07 	lds	r24, 0x0779
    14c8:	90 91 7a 07 	lds	r25, 0x077A
    14cc:	a0 91 7b 07 	lds	r26, 0x077B
    14d0:	b0 91 7c 07 	lds	r27, 0x077C
    14d4:	80 93 83 07 	sts	0x0783, r24
    14d8:	90 93 84 07 	sts	0x0784, r25
    14dc:	a0 93 85 07 	sts	0x0785, r26
    14e0:	b0 93 86 07 	sts	0x0786, r27
    14e4:	b1 01       	movw	r22, r2
    14e6:	80 e0       	ldi	r24, 0x00	; 0
    14e8:	90 e0       	ldi	r25, 0x00	; 0
    14ea:	20 e4       	ldi	r18, 0x40	; 64
    14ec:	32 e4       	ldi	r19, 0x42	; 66
    14ee:	4f e0       	ldi	r20, 0x0F	; 15
    14f0:	50 e0       	ldi	r21, 0x00	; 0
    14f2:	0e 94 2b 2e 	call	0x5c56	; 0x5c56 <__mulsi3>
    14f6:	20 91 7d 07 	lds	r18, 0x077D
    14fa:	30 91 7e 07 	lds	r19, 0x077E
    14fe:	40 91 7f 07 	lds	r20, 0x077F
    1502:	50 91 80 07 	lds	r21, 0x0780
    1506:	62 0f       	add	r22, r18
    1508:	73 1f       	adc	r23, r19
    150a:	84 1f       	adc	r24, r20
    150c:	95 1f       	adc	r25, r21
    150e:	60 93 87 07 	sts	0x0787, r22
    1512:	70 93 88 07 	sts	0x0788, r23
    1516:	80 93 89 07 	sts	0x0789, r24
    151a:	90 93 8a 07 	sts	0x078A, r25
    151e:	83 e8       	ldi	r24, 0x83	; 131
    1520:	97 e0       	ldi	r25, 0x07	; 7
    1522:	0e 94 fd 1d 	call	0x3bfa	; 0x3bfa <nrk_time_compact_nanos>
    1526:	10 92 81 07 	sts	0x0781, r1
    152a:	82 e0       	ldi	r24, 0x02	; 2
    152c:	0e 94 ce 08 	call	0x119c	; 0x119c <rf_cmd>
    1530:	44 24       	eor	r4, r4
    1532:	55 24       	eor	r5, r5
    1534:	08 c0       	rjmp	.+16     	; 0x1546 <rf_tx_packet_repeat+0x1a4>
    1536:	08 94       	sec
    1538:	41 1c       	adc	r4, r1
    153a:	51 1c       	adc	r5, r1
    153c:	88 ee       	ldi	r24, 0xE8	; 232
    153e:	48 16       	cp	r4, r24
    1540:	8d ef       	ldi	r24, 0xFD	; 253
    1542:	58 06       	cpc	r5, r24
    1544:	21 f0       	breq	.+8      	; 0x154e <rf_tx_packet_repeat+0x1ac>
    1546:	80 91 81 07 	lds	r24, 0x0781
    154a:	88 23       	and	r24, r24
    154c:	a1 f3       	breq	.-24     	; 0x1536 <rf_tx_packet_repeat+0x194>
    154e:	21 14       	cp	r2, r1
    1550:	31 04       	cpc	r3, r1
    1552:	59 f1       	breq	.+86     	; 0x15aa <rf_tx_packet_repeat+0x208>
    1554:	89 e7       	ldi	r24, 0x79	; 121
    1556:	97 e0       	ldi	r25, 0x07	; 7
    1558:	0e 94 10 1d 	call	0x3a20	; 0x3a20 <nrk_time_get>
    155c:	82 e9       	ldi	r24, 0x92	; 146
    155e:	97 e0       	ldi	r25, 0x07	; 7
    1560:	00 91 83 07 	lds	r16, 0x0783
    1564:	10 91 84 07 	lds	r17, 0x0784
    1568:	20 91 85 07 	lds	r18, 0x0785
    156c:	30 91 86 07 	lds	r19, 0x0786
    1570:	40 91 87 07 	lds	r20, 0x0787
    1574:	50 91 88 07 	lds	r21, 0x0788
    1578:	60 91 89 07 	lds	r22, 0x0789
    157c:	70 91 8a 07 	lds	r23, 0x078A
    1580:	80 90 79 07 	lds	r8, 0x0779
    1584:	90 90 7a 07 	lds	r9, 0x077A
    1588:	a0 90 7b 07 	lds	r10, 0x077B
    158c:	b0 90 7c 07 	lds	r11, 0x077C
    1590:	c0 90 7d 07 	lds	r12, 0x077D
    1594:	d0 90 7e 07 	lds	r13, 0x077E
    1598:	e0 90 7f 07 	lds	r14, 0x077F
    159c:	f0 90 80 07 	lds	r15, 0x0780
    15a0:	0e 94 6e 1d 	call	0x3adc	; 0x3adc <nrk_time_sub>
    15a4:	8f 3f       	cpi	r24, 0xFF	; 255
    15a6:	09 f0       	breq	.+2      	; 0x15aa <rf_tx_packet_repeat+0x208>
    15a8:	be cf       	rjmp	.-132    	; 0x1526 <rf_tx_packet_repeat+0x184>
    15aa:	8e 81       	ldd	r24, Y+6	; 0x06
    15ac:	88 23       	and	r24, r24
    15ae:	31 f0       	breq	.+12     	; 0x15bc <rf_tx_packet_repeat+0x21a>
    15b0:	80 91 42 01 	lds	r24, 0x0142
    15b4:	82 95       	swap	r24
    15b6:	86 95       	lsr	r24
    15b8:	87 70       	andi	r24, 0x07	; 7
    15ba:	29 f4       	brne	.+10     	; 0x15c6 <rf_tx_packet_repeat+0x224>
    15bc:	88 ee       	ldi	r24, 0xE8	; 232
    15be:	48 16       	cp	r4, r24
    15c0:	8d ef       	ldi	r24, 0xFD	; 253
    15c2:	58 06       	cpc	r5, r24
    15c4:	11 f4       	brne	.+4      	; 0x15ca <rf_tx_packet_repeat+0x228>
    15c6:	1f ef       	ldi	r17, 0xFF	; 255
    15c8:	01 c0       	rjmp	.+2      	; 0x15cc <rf_tx_packet_repeat+0x22a>
    15ca:	11 e0       	ldi	r17, 0x01	; 1
    15cc:	87 2d       	mov	r24, r7
    15ce:	0e 94 ce 08 	call	0x119c	; 0x119c <rf_cmd>
    15d2:	01 c0       	rjmp	.+2      	; 0x15d6 <rf_tx_packet_repeat+0x234>
    15d4:	1f ef       	ldi	r17, 0xFF	; 255
    15d6:	81 2f       	mov	r24, r17
    15d8:	df 91       	pop	r29
    15da:	cf 91       	pop	r28
    15dc:	1f 91       	pop	r17
    15de:	0f 91       	pop	r16
    15e0:	ff 90       	pop	r15
    15e2:	ef 90       	pop	r14
    15e4:	df 90       	pop	r13
    15e6:	cf 90       	pop	r12
    15e8:	bf 90       	pop	r11
    15ea:	af 90       	pop	r10
    15ec:	9f 90       	pop	r9
    15ee:	8f 90       	pop	r8
    15f0:	7f 90       	pop	r7
    15f2:	5f 90       	pop	r5
    15f4:	4f 90       	pop	r4
    15f6:	3f 90       	pop	r3
    15f8:	2f 90       	pop	r2
    15fa:	08 95       	ret

000015fc <rf_tx_packet>:
    15fc:	60 e0       	ldi	r22, 0x00	; 0
    15fe:	70 e0       	ldi	r23, 0x00	; 0
    1600:	0e 94 d1 09 	call	0x13a2	; 0x13a2 <rf_tx_packet_repeat>
    1604:	08 95       	ret

00001606 <rf_cca_check>:
    1606:	0f 93       	push	r16
    1608:	1f 93       	push	r17
    160a:	80 91 82 07 	lds	r24, 0x0782
    160e:	88 23       	and	r24, r24
    1610:	49 f1       	breq	.+82     	; 0x1664 <rf_cca_check+0x5e>
    1612:	10 91 41 01 	lds	r17, 0x0141
    1616:	1f 71       	andi	r17, 0x1F	; 31
    1618:	81 2f       	mov	r24, r17
    161a:	81 50       	subi	r24, 0x01	; 1
    161c:	82 30       	cpi	r24, 0x02	; 2
    161e:	c8 f3       	brcs	.-14     	; 0x1612 <rf_cca_check+0xc>
    1620:	11 31       	cpi	r17, 0x11	; 17
    1622:	b9 f3       	breq	.-18     	; 0x1612 <rf_cca_check+0xc>
    1624:	12 31       	cpi	r17, 0x12	; 18
    1626:	a9 f3       	breq	.-22     	; 0x1612 <rf_cca_check+0xc>
    1628:	1f 31       	cpi	r17, 0x1F	; 31
    162a:	99 f3       	breq	.-26     	; 0x1612 <rf_cca_check+0xc>
    162c:	18 30       	cpi	r17, 0x08	; 8
    162e:	21 f0       	breq	.+8      	; 0x1638 <rf_cca_check+0x32>
    1630:	16 30       	cpi	r17, 0x06	; 6
    1632:	11 f0       	breq	.+4      	; 0x1638 <rf_cca_check+0x32>
    1634:	16 31       	cpi	r17, 0x16	; 22
    1636:	b1 f4       	brne	.+44     	; 0x1664 <rf_cca_check+0x5e>
    1638:	86 e1       	ldi	r24, 0x16	; 22
    163a:	0e 94 ce 08 	call	0x119c	; 0x119c <rf_cmd>
    163e:	80 91 48 01 	lds	r24, 0x0148
    1642:	80 68       	ori	r24, 0x80	; 128
    1644:	80 93 48 01 	sts	0x0148, r24
    1648:	80 91 41 01 	lds	r24, 0x0141
    164c:	87 ff       	sbrs	r24, 7
    164e:	fc cf       	rjmp	.-8      	; 0x1648 <rf_cca_check+0x42>
    1650:	00 91 41 01 	lds	r16, 0x0141
    1654:	81 2f       	mov	r24, r17
    1656:	0e 94 ce 08 	call	0x119c	; 0x119c <rf_cmd>
    165a:	81 e0       	ldi	r24, 0x01	; 1
    165c:	06 fd       	sbrc	r16, 6
    165e:	03 c0       	rjmp	.+6      	; 0x1666 <rf_cca_check+0x60>
    1660:	80 e0       	ldi	r24, 0x00	; 0
    1662:	01 c0       	rjmp	.+2      	; 0x1666 <rf_cca_check+0x60>
    1664:	8f ef       	ldi	r24, 0xFF	; 255
    1666:	1f 91       	pop	r17
    1668:	0f 91       	pop	r16
    166a:	08 95       	ret

0000166c <rf_rx_packet_nonblock>:
    166c:	80 91 82 07 	lds	r24, 0x0782
    1670:	88 23       	and	r24, r24
    1672:	09 f4       	brne	.+2      	; 0x1676 <rf_rx_packet_nonblock+0xa>
    1674:	84 c0       	rjmp	.+264    	; 0x177e <rf_rx_packet_nonblock+0x112>
    1676:	80 91 91 07 	lds	r24, 0x0791
    167a:	88 23       	and	r24, r24
    167c:	09 f4       	brne	.+2      	; 0x1680 <rf_rx_packet_nonblock+0x14>
    167e:	81 c0       	rjmp	.+258    	; 0x1782 <rf_rx_packet_nonblock+0x116>
    1680:	80 91 7b 01 	lds	r24, 0x017B
    1684:	e0 91 70 07 	lds	r30, 0x0770
    1688:	f0 91 71 07 	lds	r31, 0x0771
    168c:	90 e0       	ldi	r25, 0x00	; 0
    168e:	02 97       	sbiw	r24, 0x02	; 2
    1690:	24 81       	ldd	r18, Z+4	; 0x04
    1692:	33 27       	eor	r19, r19
    1694:	27 fd       	sbrc	r18, 7
    1696:	30 95       	com	r19
    1698:	28 17       	cp	r18, r24
    169a:	39 07       	cpc	r19, r25
    169c:	0c f4       	brge	.+2      	; 0x16a0 <rf_rx_packet_nonblock+0x34>
    169e:	73 c0       	rjmp	.+230    	; 0x1786 <rf_rx_packet_nonblock+0x11a>
    16a0:	e0 91 70 07 	lds	r30, 0x0770
    16a4:	f0 91 71 07 	lds	r31, 0x0771
    16a8:	80 91 82 01 	lds	r24, 0x0182
    16ac:	80 83       	st	Z, r24
    16ae:	e0 91 70 07 	lds	r30, 0x0770
    16b2:	f0 91 71 07 	lds	r31, 0x0771
    16b6:	80 91 87 01 	lds	r24, 0x0187
    16ba:	90 91 88 01 	lds	r25, 0x0188
    16be:	92 83       	std	Z+2, r25	; 0x02
    16c0:	81 83       	std	Z+1, r24	; 0x01
    16c2:	e0 91 70 07 	lds	r30, 0x0770
    16c6:	f0 91 71 07 	lds	r31, 0x0771
    16ca:	80 91 7b 01 	lds	r24, 0x017B
    16ce:	8b 50       	subi	r24, 0x0B	; 11
    16d0:	83 83       	std	Z+3, r24	; 0x03
    16d2:	a0 91 70 07 	lds	r26, 0x0770
    16d6:	b0 91 71 07 	lds	r27, 0x0771
    16da:	e0 91 70 07 	lds	r30, 0x0770
    16de:	f0 91 71 07 	lds	r31, 0x0771
    16e2:	13 96       	adiw	r26, 0x03	; 3
    16e4:	9c 91       	ld	r25, X
    16e6:	13 97       	sbiw	r26, 0x03	; 3
    16e8:	84 81       	ldd	r24, Z+4	; 0x04
    16ea:	89 17       	cp	r24, r25
    16ec:	3c f0       	brlt	.+14     	; 0x16fc <rf_rx_packet_nonblock+0x90>
    16ee:	e0 91 70 07 	lds	r30, 0x0770
    16f2:	f0 91 71 07 	lds	r31, 0x0771
    16f6:	83 81       	ldd	r24, Z+3	; 0x03
    16f8:	87 ff       	sbrs	r24, 7
    16fa:	0d c0       	rjmp	.+26     	; 0x1716 <rf_rx_packet_nonblock+0xaa>
    16fc:	10 92 91 07 	sts	0x0791, r1
    1700:	80 91 4c 01 	lds	r24, 0x014C
    1704:	8f 77       	andi	r24, 0x7F	; 127
    1706:	80 93 4c 01 	sts	0x014C, r24
    170a:	80 91 4c 01 	lds	r24, 0x014C
    170e:	80 68       	ori	r24, 0x80	; 128
    1710:	80 93 4c 01 	sts	0x014C, r24
    1714:	34 c0       	rjmp	.+104    	; 0x177e <rf_rx_packet_nonblock+0x112>
    1716:	e0 91 70 07 	lds	r30, 0x0770
    171a:	f0 91 71 07 	lds	r31, 0x0771
    171e:	a0 91 70 07 	lds	r26, 0x0770
    1722:	b0 91 71 07 	lds	r27, 0x0771
    1726:	13 96       	adiw	r26, 0x03	; 3
    1728:	4c 91       	ld	r20, X
    172a:	24 2f       	mov	r18, r20
    172c:	33 27       	eor	r19, r19
    172e:	27 fd       	sbrc	r18, 7
    1730:	30 95       	com	r19
    1732:	85 81       	ldd	r24, Z+5	; 0x05
    1734:	96 81       	ldd	r25, Z+6	; 0x06
    1736:	69 e8       	ldi	r22, 0x89	; 137
    1738:	71 e0       	ldi	r23, 0x01	; 1
    173a:	53 2f       	mov	r21, r19
    173c:	0e 94 33 2f 	call	0x5e66	; 0x5e66 <memcpy>
    1740:	e0 91 70 07 	lds	r30, 0x0770
    1744:	f0 91 71 07 	lds	r31, 0x0771
    1748:	80 91 80 01 	lds	r24, 0x0180
    174c:	82 95       	swap	r24
    174e:	86 95       	lsr	r24
    1750:	81 70       	andi	r24, 0x01	; 1
    1752:	87 83       	std	Z+7, r24	; 0x07
    1754:	e0 91 70 07 	lds	r30, 0x0770
    1758:	f0 91 71 07 	lds	r31, 0x0771
    175c:	80 91 47 01 	lds	r24, 0x0147
    1760:	80 87       	std	Z+8, r24	; 0x08
    1762:	10 92 91 07 	sts	0x0791, r1
    1766:	80 91 4c 01 	lds	r24, 0x014C
    176a:	8f 77       	andi	r24, 0x7F	; 127
    176c:	80 93 4c 01 	sts	0x014C, r24
    1770:	80 91 4c 01 	lds	r24, 0x014C
    1774:	80 68       	ori	r24, 0x80	; 128
    1776:	80 93 4c 01 	sts	0x014C, r24
    177a:	81 e0       	ldi	r24, 0x01	; 1
    177c:	08 95       	ret
    177e:	8f ef       	ldi	r24, 0xFF	; 255
    1780:	08 95       	ret
    1782:	80 e0       	ldi	r24, 0x00	; 0
    1784:	08 95       	ret
    1786:	8f ef       	ldi	r24, 0xFF	; 255
    1788:	08 95       	ret

0000178a <__vector_60>:
    178a:	1f 92       	push	r1
    178c:	0f 92       	push	r0
    178e:	0f b6       	in	r0, 0x3f	; 63
    1790:	0f 92       	push	r0
    1792:	11 24       	eor	r1, r1
    1794:	8f 93       	push	r24
    1796:	9f 93       	push	r25
    1798:	80 e0       	ldi	r24, 0x00	; 0
    179a:	01 c0       	rjmp	.+2      	; 0x179e <__vector_60+0x14>
    179c:	8f 5f       	subi	r24, 0xFF	; 255
    179e:	90 91 7b 01 	lds	r25, 0x017B
    17a2:	89 17       	cp	r24, r25
    17a4:	d8 f3       	brcs	.-10     	; 0x179c <__vector_60+0x12>
    17a6:	80 91 46 01 	lds	r24, 0x0146
    17aa:	87 ff       	sbrs	r24, 7
    17ac:	03 c0       	rjmp	.+6      	; 0x17b4 <__vector_60+0x2a>
    17ae:	81 e0       	ldi	r24, 0x01	; 1
    17b0:	80 93 91 07 	sts	0x0791, r24
    17b4:	88 e0       	ldi	r24, 0x08	; 8
    17b6:	80 93 4f 01 	sts	0x014F, r24
    17ba:	9f 91       	pop	r25
    17bc:	8f 91       	pop	r24
    17be:	0f 90       	pop	r0
    17c0:	0f be       	out	0x3f, r0	; 63
    17c2:	0f 90       	pop	r0
    17c4:	1f 90       	pop	r1
    17c6:	18 95       	reti

000017c8 <__vector_64>:
    17c8:	1f 92       	push	r1
    17ca:	0f 92       	push	r0
    17cc:	0f b6       	in	r0, 0x3f	; 63
    17ce:	0f 92       	push	r0
    17d0:	11 24       	eor	r1, r1
    17d2:	8f 93       	push	r24
    17d4:	80 e8       	ldi	r24, 0x80	; 128
    17d6:	80 93 4f 01 	sts	0x014F, r24
    17da:	8f 91       	pop	r24
    17dc:	0f 90       	pop	r0
    17de:	0f be       	out	0x3f, r0	; 63
    17e0:	0f 90       	pop	r0
    17e2:	1f 90       	pop	r1
    17e4:	18 95       	reti

000017e6 <__vector_63>:
    17e6:	1f 92       	push	r1
    17e8:	0f 92       	push	r0
    17ea:	0f b6       	in	r0, 0x3f	; 63
    17ec:	0f 92       	push	r0
    17ee:	11 24       	eor	r1, r1
    17f0:	8f 93       	push	r24
    17f2:	81 e0       	ldi	r24, 0x01	; 1
    17f4:	80 93 81 07 	sts	0x0781, r24
    17f8:	80 e4       	ldi	r24, 0x40	; 64
    17fa:	80 93 4f 01 	sts	0x014F, r24
    17fe:	8f 91       	pop	r24
    1800:	0f 90       	pop	r0
    1802:	0f be       	out	0x3f, r0	; 63
    1804:	0f 90       	pop	r0
    1806:	1f 90       	pop	r1
    1808:	18 95       	reti

0000180a <__vector_62>:
    180a:	1f 92       	push	r1
    180c:	0f 92       	push	r0
    180e:	0f b6       	in	r0, 0x3f	; 63
    1810:	0f 92       	push	r0
    1812:	11 24       	eor	r1, r1
    1814:	8f 93       	push	r24
    1816:	80 e2       	ldi	r24, 0x20	; 32
    1818:	80 93 4f 01 	sts	0x014F, r24
    181c:	8f 91       	pop	r24
    181e:	0f 90       	pop	r0
    1820:	0f be       	out	0x3f, r0	; 63
    1822:	0f 90       	pop	r0
    1824:	1f 90       	pop	r1
    1826:	18 95       	reti

00001828 <__vector_61>:
    1828:	1f 92       	push	r1
    182a:	0f 92       	push	r0
    182c:	0f b6       	in	r0, 0x3f	; 63
    182e:	0f 92       	push	r0
    1830:	11 24       	eor	r1, r1
    1832:	8f 93       	push	r24
    1834:	80 e1       	ldi	r24, 0x10	; 16
    1836:	80 93 4f 01 	sts	0x014F, r24
    183a:	8f 91       	pop	r24
    183c:	0f 90       	pop	r0
    183e:	0f be       	out	0x3f, r0	; 63
    1840:	0f 90       	pop	r0
    1842:	1f 90       	pop	r1
    1844:	18 95       	reti

00001846 <__vector_59>:
    1846:	1f 92       	push	r1
    1848:	0f 92       	push	r0
    184a:	0f b6       	in	r0, 0x3f	; 63
    184c:	0f 92       	push	r0
    184e:	0b b6       	in	r0, 0x3b	; 59
    1850:	0f 92       	push	r0
    1852:	11 24       	eor	r1, r1
    1854:	2f 93       	push	r18
    1856:	3f 93       	push	r19
    1858:	4f 93       	push	r20
    185a:	5f 93       	push	r21
    185c:	6f 93       	push	r22
    185e:	7f 93       	push	r23
    1860:	8f 93       	push	r24
    1862:	9f 93       	push	r25
    1864:	af 93       	push	r26
    1866:	bf 93       	push	r27
    1868:	ef 93       	push	r30
    186a:	ff 93       	push	r31
    186c:	84 e0       	ldi	r24, 0x04	; 4
    186e:	80 93 4f 01 	sts	0x014F, r24
    1872:	e0 91 7b 04 	lds	r30, 0x047B
    1876:	f0 91 7c 04 	lds	r31, 0x047C
    187a:	30 97       	sbiw	r30, 0x00	; 0
    187c:	09 f0       	breq	.+2      	; 0x1880 <__vector_59+0x3a>
    187e:	09 95       	icall
    1880:	ff 91       	pop	r31
    1882:	ef 91       	pop	r30
    1884:	bf 91       	pop	r27
    1886:	af 91       	pop	r26
    1888:	9f 91       	pop	r25
    188a:	8f 91       	pop	r24
    188c:	7f 91       	pop	r23
    188e:	6f 91       	pop	r22
    1890:	5f 91       	pop	r21
    1892:	4f 91       	pop	r20
    1894:	3f 91       	pop	r19
    1896:	2f 91       	pop	r18
    1898:	0f 90       	pop	r0
    189a:	0b be       	out	0x3b, r0	; 59
    189c:	0f 90       	pop	r0
    189e:	0f be       	out	0x3f, r0	; 63
    18a0:	0f 90       	pop	r0
    18a2:	1f 90       	pop	r1
    18a4:	18 95       	reti

000018a6 <__vector_58>:
    18a6:	1f 92       	push	r1
    18a8:	0f 92       	push	r0
    18aa:	0f b6       	in	r0, 0x3f	; 63
    18ac:	0f 92       	push	r0
    18ae:	11 24       	eor	r1, r1
    18b0:	8f 93       	push	r24
    18b2:	82 e0       	ldi	r24, 0x02	; 2
    18b4:	80 93 4f 01 	sts	0x014F, r24
    18b8:	8f 91       	pop	r24
    18ba:	0f 90       	pop	r0
    18bc:	0f be       	out	0x3f, r0	; 63
    18be:	0f 90       	pop	r0
    18c0:	1f 90       	pop	r1
    18c2:	18 95       	reti

000018c4 <__vector_57>:
    18c4:	1f 92       	push	r1
    18c6:	0f 92       	push	r0
    18c8:	0f b6       	in	r0, 0x3f	; 63
    18ca:	0f 92       	push	r0
    18cc:	11 24       	eor	r1, r1
    18ce:	8f 93       	push	r24
    18d0:	81 e0       	ldi	r24, 0x01	; 1
    18d2:	80 93 4f 01 	sts	0x014F, r24
    18d6:	8f 91       	pop	r24
    18d8:	0f 90       	pop	r0
    18da:	0f be       	out	0x3f, r0	; 63
    18dc:	0f 90       	pop	r0
    18de:	1f 90       	pop	r1
    18e0:	18 95       	reti

000018e2 <rf_set_cca_thresh>:
    18e2:	e9 e4       	ldi	r30, 0x49	; 73
    18e4:	f1 e0       	ldi	r31, 0x01	; 1
    18e6:	90 81       	ld	r25, Z
    18e8:	90 7f       	andi	r25, 0xF0	; 240
    18ea:	90 83       	st	Z, r25
    18ec:	90 81       	ld	r25, Z
    18ee:	8f 70       	andi	r24, 0x0F	; 15
    18f0:	89 2b       	or	r24, r25
    18f2:	80 83       	st	Z, r24
    18f4:	08 95       	ret

000018f6 <rf_security_last_pkt_status>:
    18f6:	8f ef       	ldi	r24, 0xFF	; 255
    18f8:	08 95       	ret

000018fa <rf_security_set_ctr_counter>:
    18fa:	08 95       	ret

000018fc <rf_security_set_key>:
    18fc:	08 95       	ret

000018fe <rf_security_disable>:
    18fe:	08 95       	ret

00001900 <rf_tx_tdma_packet>:
    1900:	8f ef       	ldi	r24, 0xFF	; 255
    1902:	08 95       	ret

00001904 <rf_get_sem>:
    1904:	80 91 6c 07 	lds	r24, 0x076C
    1908:	90 91 6d 07 	lds	r25, 0x076D
    190c:	08 95       	ret

0000190e <rf_rx_packet>:
    190e:	80 e0       	ldi	r24, 0x00	; 0
    1910:	08 95       	ret

00001912 <rf_flush_rx_fifo>:
    1912:	08 95       	ret

00001914 <rf_busy>:
    1914:	81 e0       	ldi	r24, 0x01	; 1
    1916:	08 95       	ret

00001918 <rf_rx_check_fifop>:
    1918:	81 e0       	ldi	r24, 0x01	; 1
    191a:	08 95       	ret

0000191c <rf_rx_check_sfd>:
    191c:	81 e0       	ldi	r24, 0x01	; 1
    191e:	08 95       	ret

00001920 <rf_carrier_on>:
    1920:	08 95       	ret

00001922 <rf_carrier_off>:
    1922:	08 95       	ret

00001924 <rf_test_mode>:
    1924:	08 95       	ret

00001926 <rf_data_mode>:
    1926:	08 95       	ret

00001928 <rf_rx_set_serial>:
    1928:	08 95       	ret

0000192a <rf_tx_set_serial>:
    192a:	08 95       	ret

0000192c <rf_set_preamble_length>:
    192c:	08 95       	ret

0000192e <rf_set_cca_mode>:
    192e:	08 95       	ret

00001930 <getc0>:
    1930:	80 91 c0 00 	lds	r24, 0x00C0
    1934:	87 ff       	sbrs	r24, 7
    1936:	fc cf       	rjmp	.-8      	; 0x1930 <getc0>
    1938:	80 91 c0 00 	lds	r24, 0x00C0
    193c:	8f 77       	andi	r24, 0x7F	; 127
    193e:	80 93 c0 00 	sts	0x00C0, r24
    1942:	80 91 c6 00 	lds	r24, 0x00C6
    1946:	08 95       	ret

00001948 <putc0>:
    1948:	90 91 c0 00 	lds	r25, 0x00C0
    194c:	95 ff       	sbrs	r25, 5
    194e:	fc cf       	rjmp	.-8      	; 0x1948 <putc0>
    1950:	90 91 c0 00 	lds	r25, 0x00C0
    1954:	9f 7d       	andi	r25, 0xDF	; 223
    1956:	90 93 c0 00 	sts	0x00C0, r25
    195a:	80 93 c6 00 	sts	0x00C6, r24
    195e:	08 95       	ret

00001960 <nrk_uart_rx_signal_get>:
    1960:	8f ef       	ldi	r24, 0xFF	; 255
    1962:	08 95       	ret

00001964 <nrk_uart_data_ready>:
    1964:	81 30       	cpi	r24, 0x01	; 1
    1966:	19 f4       	brne	.+6      	; 0x196e <nrk_uart_data_ready+0xa>
    1968:	80 91 c8 00 	lds	r24, 0x00C8
    196c:	04 c0       	rjmp	.+8      	; 0x1976 <nrk_uart_data_ready+0x12>
    196e:	88 23       	and	r24, r24
    1970:	31 f4       	brne	.+12     	; 0x197e <nrk_uart_data_ready+0x1a>
    1972:	80 91 c0 00 	lds	r24, 0x00C0
    1976:	88 1f       	adc	r24, r24
    1978:	88 27       	eor	r24, r24
    197a:	88 1f       	adc	r24, r24
    197c:	08 95       	ret
    197e:	80 e0       	ldi	r24, 0x00	; 0
    1980:	08 95       	ret

00001982 <nrk_kprintf>:
    1982:	cf 93       	push	r28
    1984:	df 93       	push	r29
    1986:	ec 01       	movw	r28, r24
    1988:	07 c0       	rjmp	.+14     	; 0x1998 <nrk_kprintf+0x16>
    198a:	60 91 6c 08 	lds	r22, 0x086C
    198e:	70 91 6d 08 	lds	r23, 0x086D
    1992:	90 e0       	ldi	r25, 0x00	; 0
    1994:	0e 94 87 2f 	call	0x5f0e	; 0x5f0e <fputc>
    1998:	fe 01       	movw	r30, r28
    199a:	21 96       	adiw	r28, 0x01	; 1
    199c:	84 91       	lpm	r24, Z+
    199e:	88 23       	and	r24, r24
    19a0:	a1 f7       	brne	.-24     	; 0x198a <nrk_kprintf+0x8>
    19a2:	df 91       	pop	r29
    19a4:	cf 91       	pop	r28
    19a6:	08 95       	ret

000019a8 <PORT_INIT>:
    19a8:	86 e0       	ldi	r24, 0x06	; 6
    19aa:	84 b9       	out	0x04, r24	; 4
    19ac:	85 b9       	out	0x05, r24	; 5
    19ae:	88 ef       	ldi	r24, 0xF8	; 248
    19b0:	8a b9       	out	0x0a, r24	; 10
    19b2:	80 ef       	ldi	r24, 0xF0	; 240
    19b4:	8b b9       	out	0x0b, r24	; 11
    19b6:	82 e0       	ldi	r24, 0x02	; 2
    19b8:	8e b9       	out	0x0e, r24	; 14
    19ba:	80 e6       	ldi	r24, 0x60	; 96
    19bc:	81 b9       	out	0x01, r24	; 1
    19be:	16 9a       	sbi	0x02, 6	; 2
    19c0:	08 95       	ret

000019c2 <nrk_setup_ports>:
    19c2:	0e 94 d4 0c 	call	0x19a8	; 0x19a8 <PORT_INIT>
    19c6:	08 95       	ret

000019c8 <nrk_gpio_set>:
    19c8:	8f 3f       	cpi	r24, 0xFF	; 255
    19ca:	09 f4       	brne	.+2      	; 0x19ce <nrk_gpio_set+0x6>
    19cc:	71 c0       	rjmp	.+226    	; 0x1ab0 <nrk_gpio_set+0xe8>
    19ce:	28 2f       	mov	r18, r24
    19d0:	30 e0       	ldi	r19, 0x00	; 0
    19d2:	27 70       	andi	r18, 0x07	; 7
    19d4:	30 70       	andi	r19, 0x00	; 0
    19d6:	22 30       	cpi	r18, 0x02	; 2
    19d8:	31 05       	cpc	r19, r1
    19da:	89 f1       	breq	.+98     	; 0x1a3e <nrk_gpio_set+0x76>
    19dc:	23 30       	cpi	r18, 0x03	; 3
    19de:	31 05       	cpc	r19, r1
    19e0:	44 f4       	brge	.+16     	; 0x19f2 <nrk_gpio_set+0x2a>
    19e2:	21 15       	cp	r18, r1
    19e4:	31 05       	cpc	r19, r1
    19e6:	89 f0       	breq	.+34     	; 0x1a0a <nrk_gpio_set+0x42>
    19e8:	21 30       	cpi	r18, 0x01	; 1
    19ea:	31 05       	cpc	r19, r1
    19ec:	09 f0       	breq	.+2      	; 0x19f0 <nrk_gpio_set+0x28>
    19ee:	62 c0       	rjmp	.+196    	; 0x1ab4 <nrk_gpio_set+0xec>
    19f0:	1a c0       	rjmp	.+52     	; 0x1a26 <nrk_gpio_set+0x5e>
    19f2:	24 30       	cpi	r18, 0x04	; 4
    19f4:	31 05       	cpc	r19, r1
    19f6:	09 f4       	brne	.+2      	; 0x19fa <nrk_gpio_set+0x32>
    19f8:	3f c0       	rjmp	.+126    	; 0x1a78 <nrk_gpio_set+0xb0>
    19fa:	24 30       	cpi	r18, 0x04	; 4
    19fc:	31 05       	cpc	r19, r1
    19fe:	74 f1       	brlt	.+92     	; 0x1a5c <nrk_gpio_set+0x94>
    1a00:	25 30       	cpi	r18, 0x05	; 5
    1a02:	31 05       	cpc	r19, r1
    1a04:	09 f0       	breq	.+2      	; 0x1a08 <nrk_gpio_set+0x40>
    1a06:	56 c0       	rjmp	.+172    	; 0x1ab4 <nrk_gpio_set+0xec>
    1a08:	45 c0       	rjmp	.+138    	; 0x1a94 <nrk_gpio_set+0xcc>
    1a0a:	92 b1       	in	r25, 0x02	; 2
    1a0c:	86 95       	lsr	r24
    1a0e:	86 95       	lsr	r24
    1a10:	86 95       	lsr	r24
    1a12:	41 e0       	ldi	r20, 0x01	; 1
    1a14:	50 e0       	ldi	r21, 0x00	; 0
    1a16:	02 c0       	rjmp	.+4      	; 0x1a1c <nrk_gpio_set+0x54>
    1a18:	44 0f       	add	r20, r20
    1a1a:	55 1f       	adc	r21, r21
    1a1c:	8a 95       	dec	r24
    1a1e:	e2 f7       	brpl	.-8      	; 0x1a18 <nrk_gpio_set+0x50>
    1a20:	94 2b       	or	r25, r20
    1a22:	92 b9       	out	0x02, r25	; 2
    1a24:	19 c0       	rjmp	.+50     	; 0x1a58 <nrk_gpio_set+0x90>
    1a26:	95 b1       	in	r25, 0x05	; 5
    1a28:	86 95       	lsr	r24
    1a2a:	86 95       	lsr	r24
    1a2c:	86 95       	lsr	r24
    1a2e:	02 c0       	rjmp	.+4      	; 0x1a34 <nrk_gpio_set+0x6c>
    1a30:	22 0f       	add	r18, r18
    1a32:	33 1f       	adc	r19, r19
    1a34:	8a 95       	dec	r24
    1a36:	e2 f7       	brpl	.-8      	; 0x1a30 <nrk_gpio_set+0x68>
    1a38:	92 2b       	or	r25, r18
    1a3a:	95 b9       	out	0x05, r25	; 5
    1a3c:	0d c0       	rjmp	.+26     	; 0x1a58 <nrk_gpio_set+0x90>
    1a3e:	98 b1       	in	r25, 0x08	; 8
    1a40:	86 95       	lsr	r24
    1a42:	86 95       	lsr	r24
    1a44:	86 95       	lsr	r24
    1a46:	41 e0       	ldi	r20, 0x01	; 1
    1a48:	50 e0       	ldi	r21, 0x00	; 0
    1a4a:	02 c0       	rjmp	.+4      	; 0x1a50 <nrk_gpio_set+0x88>
    1a4c:	44 0f       	add	r20, r20
    1a4e:	55 1f       	adc	r21, r21
    1a50:	8a 95       	dec	r24
    1a52:	e2 f7       	brpl	.-8      	; 0x1a4c <nrk_gpio_set+0x84>
    1a54:	94 2b       	or	r25, r20
    1a56:	98 b9       	out	0x08, r25	; 8
    1a58:	81 e0       	ldi	r24, 0x01	; 1
    1a5a:	08 95       	ret
    1a5c:	9b b1       	in	r25, 0x0b	; 11
    1a5e:	86 95       	lsr	r24
    1a60:	86 95       	lsr	r24
    1a62:	86 95       	lsr	r24
    1a64:	41 e0       	ldi	r20, 0x01	; 1
    1a66:	50 e0       	ldi	r21, 0x00	; 0
    1a68:	02 c0       	rjmp	.+4      	; 0x1a6e <nrk_gpio_set+0xa6>
    1a6a:	44 0f       	add	r20, r20
    1a6c:	55 1f       	adc	r21, r21
    1a6e:	8a 95       	dec	r24
    1a70:	e2 f7       	brpl	.-8      	; 0x1a6a <nrk_gpio_set+0xa2>
    1a72:	94 2b       	or	r25, r20
    1a74:	9b b9       	out	0x0b, r25	; 11
    1a76:	f0 cf       	rjmp	.-32     	; 0x1a58 <nrk_gpio_set+0x90>
    1a78:	9e b1       	in	r25, 0x0e	; 14
    1a7a:	86 95       	lsr	r24
    1a7c:	86 95       	lsr	r24
    1a7e:	86 95       	lsr	r24
    1a80:	41 e0       	ldi	r20, 0x01	; 1
    1a82:	50 e0       	ldi	r21, 0x00	; 0
    1a84:	02 c0       	rjmp	.+4      	; 0x1a8a <nrk_gpio_set+0xc2>
    1a86:	44 0f       	add	r20, r20
    1a88:	55 1f       	adc	r21, r21
    1a8a:	8a 95       	dec	r24
    1a8c:	e2 f7       	brpl	.-8      	; 0x1a86 <nrk_gpio_set+0xbe>
    1a8e:	94 2b       	or	r25, r20
    1a90:	9e b9       	out	0x0e, r25	; 14
    1a92:	e2 cf       	rjmp	.-60     	; 0x1a58 <nrk_gpio_set+0x90>
    1a94:	91 b3       	in	r25, 0x11	; 17
    1a96:	86 95       	lsr	r24
    1a98:	86 95       	lsr	r24
    1a9a:	86 95       	lsr	r24
    1a9c:	41 e0       	ldi	r20, 0x01	; 1
    1a9e:	50 e0       	ldi	r21, 0x00	; 0
    1aa0:	02 c0       	rjmp	.+4      	; 0x1aa6 <nrk_gpio_set+0xde>
    1aa2:	44 0f       	add	r20, r20
    1aa4:	55 1f       	adc	r21, r21
    1aa6:	8a 95       	dec	r24
    1aa8:	e2 f7       	brpl	.-8      	; 0x1aa2 <nrk_gpio_set+0xda>
    1aaa:	94 2b       	or	r25, r20
    1aac:	91 bb       	out	0x11, r25	; 17
    1aae:	d4 cf       	rjmp	.-88     	; 0x1a58 <nrk_gpio_set+0x90>
    1ab0:	8f ef       	ldi	r24, 0xFF	; 255
    1ab2:	08 95       	ret
    1ab4:	8f ef       	ldi	r24, 0xFF	; 255
    1ab6:	08 95       	ret

00001ab8 <nrk_gpio_clr>:
    1ab8:	8f 3f       	cpi	r24, 0xFF	; 255
    1aba:	09 f4       	brne	.+2      	; 0x1abe <nrk_gpio_clr+0x6>
    1abc:	77 c0       	rjmp	.+238    	; 0x1bac <nrk_gpio_clr+0xf4>
    1abe:	28 2f       	mov	r18, r24
    1ac0:	30 e0       	ldi	r19, 0x00	; 0
    1ac2:	27 70       	andi	r18, 0x07	; 7
    1ac4:	30 70       	andi	r19, 0x00	; 0
    1ac6:	22 30       	cpi	r18, 0x02	; 2
    1ac8:	31 05       	cpc	r19, r1
    1aca:	99 f1       	breq	.+102    	; 0x1b32 <nrk_gpio_clr+0x7a>
    1acc:	23 30       	cpi	r18, 0x03	; 3
    1ace:	31 05       	cpc	r19, r1
    1ad0:	44 f4       	brge	.+16     	; 0x1ae2 <nrk_gpio_clr+0x2a>
    1ad2:	21 15       	cp	r18, r1
    1ad4:	31 05       	cpc	r19, r1
    1ad6:	89 f0       	breq	.+34     	; 0x1afa <nrk_gpio_clr+0x42>
    1ad8:	21 30       	cpi	r18, 0x01	; 1
    1ada:	31 05       	cpc	r19, r1
    1adc:	09 f0       	breq	.+2      	; 0x1ae0 <nrk_gpio_clr+0x28>
    1ade:	68 c0       	rjmp	.+208    	; 0x1bb0 <nrk_gpio_clr+0xf8>
    1ae0:	1b c0       	rjmp	.+54     	; 0x1b18 <nrk_gpio_clr+0x60>
    1ae2:	24 30       	cpi	r18, 0x04	; 4
    1ae4:	31 05       	cpc	r19, r1
    1ae6:	09 f4       	brne	.+2      	; 0x1aea <nrk_gpio_clr+0x32>
    1ae8:	43 c0       	rjmp	.+134    	; 0x1b70 <nrk_gpio_clr+0xb8>
    1aea:	24 30       	cpi	r18, 0x04	; 4
    1aec:	31 05       	cpc	r19, r1
    1aee:	8c f1       	brlt	.+98     	; 0x1b52 <nrk_gpio_clr+0x9a>
    1af0:	25 30       	cpi	r18, 0x05	; 5
    1af2:	31 05       	cpc	r19, r1
    1af4:	09 f0       	breq	.+2      	; 0x1af8 <nrk_gpio_clr+0x40>
    1af6:	5c c0       	rjmp	.+184    	; 0x1bb0 <nrk_gpio_clr+0xf8>
    1af8:	4a c0       	rjmp	.+148    	; 0x1b8e <nrk_gpio_clr+0xd6>
    1afa:	92 b1       	in	r25, 0x02	; 2
    1afc:	86 95       	lsr	r24
    1afe:	86 95       	lsr	r24
    1b00:	86 95       	lsr	r24
    1b02:	41 e0       	ldi	r20, 0x01	; 1
    1b04:	50 e0       	ldi	r21, 0x00	; 0
    1b06:	02 c0       	rjmp	.+4      	; 0x1b0c <nrk_gpio_clr+0x54>
    1b08:	44 0f       	add	r20, r20
    1b0a:	55 1f       	adc	r21, r21
    1b0c:	8a 95       	dec	r24
    1b0e:	e2 f7       	brpl	.-8      	; 0x1b08 <nrk_gpio_clr+0x50>
    1b10:	40 95       	com	r20
    1b12:	49 23       	and	r20, r25
    1b14:	42 b9       	out	0x02, r20	; 2
    1b16:	1b c0       	rjmp	.+54     	; 0x1b4e <nrk_gpio_clr+0x96>
    1b18:	95 b1       	in	r25, 0x05	; 5
    1b1a:	86 95       	lsr	r24
    1b1c:	86 95       	lsr	r24
    1b1e:	86 95       	lsr	r24
    1b20:	02 c0       	rjmp	.+4      	; 0x1b26 <nrk_gpio_clr+0x6e>
    1b22:	22 0f       	add	r18, r18
    1b24:	33 1f       	adc	r19, r19
    1b26:	8a 95       	dec	r24
    1b28:	e2 f7       	brpl	.-8      	; 0x1b22 <nrk_gpio_clr+0x6a>
    1b2a:	20 95       	com	r18
    1b2c:	29 23       	and	r18, r25
    1b2e:	25 b9       	out	0x05, r18	; 5
    1b30:	0e c0       	rjmp	.+28     	; 0x1b4e <nrk_gpio_clr+0x96>
    1b32:	98 b1       	in	r25, 0x08	; 8
    1b34:	86 95       	lsr	r24
    1b36:	86 95       	lsr	r24
    1b38:	86 95       	lsr	r24
    1b3a:	41 e0       	ldi	r20, 0x01	; 1
    1b3c:	50 e0       	ldi	r21, 0x00	; 0
    1b3e:	02 c0       	rjmp	.+4      	; 0x1b44 <nrk_gpio_clr+0x8c>
    1b40:	44 0f       	add	r20, r20
    1b42:	55 1f       	adc	r21, r21
    1b44:	8a 95       	dec	r24
    1b46:	e2 f7       	brpl	.-8      	; 0x1b40 <nrk_gpio_clr+0x88>
    1b48:	40 95       	com	r20
    1b4a:	49 23       	and	r20, r25
    1b4c:	48 b9       	out	0x08, r20	; 8
    1b4e:	81 e0       	ldi	r24, 0x01	; 1
    1b50:	08 95       	ret
    1b52:	9b b1       	in	r25, 0x0b	; 11
    1b54:	86 95       	lsr	r24
    1b56:	86 95       	lsr	r24
    1b58:	86 95       	lsr	r24
    1b5a:	41 e0       	ldi	r20, 0x01	; 1
    1b5c:	50 e0       	ldi	r21, 0x00	; 0
    1b5e:	02 c0       	rjmp	.+4      	; 0x1b64 <nrk_gpio_clr+0xac>
    1b60:	44 0f       	add	r20, r20
    1b62:	55 1f       	adc	r21, r21
    1b64:	8a 95       	dec	r24
    1b66:	e2 f7       	brpl	.-8      	; 0x1b60 <nrk_gpio_clr+0xa8>
    1b68:	40 95       	com	r20
    1b6a:	49 23       	and	r20, r25
    1b6c:	4b b9       	out	0x0b, r20	; 11
    1b6e:	ef cf       	rjmp	.-34     	; 0x1b4e <nrk_gpio_clr+0x96>
    1b70:	9e b1       	in	r25, 0x0e	; 14
    1b72:	86 95       	lsr	r24
    1b74:	86 95       	lsr	r24
    1b76:	86 95       	lsr	r24
    1b78:	41 e0       	ldi	r20, 0x01	; 1
    1b7a:	50 e0       	ldi	r21, 0x00	; 0
    1b7c:	02 c0       	rjmp	.+4      	; 0x1b82 <nrk_gpio_clr+0xca>
    1b7e:	44 0f       	add	r20, r20
    1b80:	55 1f       	adc	r21, r21
    1b82:	8a 95       	dec	r24
    1b84:	e2 f7       	brpl	.-8      	; 0x1b7e <nrk_gpio_clr+0xc6>
    1b86:	40 95       	com	r20
    1b88:	49 23       	and	r20, r25
    1b8a:	4e b9       	out	0x0e, r20	; 14
    1b8c:	e0 cf       	rjmp	.-64     	; 0x1b4e <nrk_gpio_clr+0x96>
    1b8e:	91 b3       	in	r25, 0x11	; 17
    1b90:	86 95       	lsr	r24
    1b92:	86 95       	lsr	r24
    1b94:	86 95       	lsr	r24
    1b96:	41 e0       	ldi	r20, 0x01	; 1
    1b98:	50 e0       	ldi	r21, 0x00	; 0
    1b9a:	02 c0       	rjmp	.+4      	; 0x1ba0 <nrk_gpio_clr+0xe8>
    1b9c:	44 0f       	add	r20, r20
    1b9e:	55 1f       	adc	r21, r21
    1ba0:	8a 95       	dec	r24
    1ba2:	e2 f7       	brpl	.-8      	; 0x1b9c <nrk_gpio_clr+0xe4>
    1ba4:	40 95       	com	r20
    1ba6:	49 23       	and	r20, r25
    1ba8:	41 bb       	out	0x11, r20	; 17
    1baa:	d1 cf       	rjmp	.-94     	; 0x1b4e <nrk_gpio_clr+0x96>
    1bac:	8f ef       	ldi	r24, 0xFF	; 255
    1bae:	08 95       	ret
    1bb0:	8f ef       	ldi	r24, 0xFF	; 255
    1bb2:	08 95       	ret

00001bb4 <nrk_gpio_get>:
    1bb4:	8f 3f       	cpi	r24, 0xFF	; 255
    1bb6:	89 f1       	breq	.+98     	; 0x1c1a <nrk_gpio_get+0x66>
    1bb8:	28 2f       	mov	r18, r24
    1bba:	30 e0       	ldi	r19, 0x00	; 0
    1bbc:	27 70       	andi	r18, 0x07	; 7
    1bbe:	30 70       	andi	r19, 0x00	; 0
    1bc0:	22 30       	cpi	r18, 0x02	; 2
    1bc2:	31 05       	cpc	r19, r1
    1bc4:	c1 f0       	breq	.+48     	; 0x1bf6 <nrk_gpio_get+0x42>
    1bc6:	23 30       	cpi	r18, 0x03	; 3
    1bc8:	31 05       	cpc	r19, r1
    1bca:	3c f4       	brge	.+14     	; 0x1bda <nrk_gpio_get+0x26>
    1bcc:	21 15       	cp	r18, r1
    1bce:	31 05       	cpc	r19, r1
    1bd0:	71 f0       	breq	.+28     	; 0x1bee <nrk_gpio_get+0x3a>
    1bd2:	21 30       	cpi	r18, 0x01	; 1
    1bd4:	31 05       	cpc	r19, r1
    1bd6:	09 f5       	brne	.+66     	; 0x1c1a <nrk_gpio_get+0x66>
    1bd8:	0c c0       	rjmp	.+24     	; 0x1bf2 <nrk_gpio_get+0x3e>
    1bda:	24 30       	cpi	r18, 0x04	; 4
    1bdc:	31 05       	cpc	r19, r1
    1bde:	79 f0       	breq	.+30     	; 0x1bfe <nrk_gpio_get+0x4a>
    1be0:	24 30       	cpi	r18, 0x04	; 4
    1be2:	31 05       	cpc	r19, r1
    1be4:	54 f0       	brlt	.+20     	; 0x1bfa <nrk_gpio_get+0x46>
    1be6:	25 30       	cpi	r18, 0x05	; 5
    1be8:	31 05       	cpc	r19, r1
    1bea:	b9 f4       	brne	.+46     	; 0x1c1a <nrk_gpio_get+0x66>
    1bec:	0a c0       	rjmp	.+20     	; 0x1c02 <nrk_gpio_get+0x4e>
    1bee:	20 b1       	in	r18, 0x00	; 0
    1bf0:	09 c0       	rjmp	.+18     	; 0x1c04 <nrk_gpio_get+0x50>
    1bf2:	23 b1       	in	r18, 0x03	; 3
    1bf4:	07 c0       	rjmp	.+14     	; 0x1c04 <nrk_gpio_get+0x50>
    1bf6:	26 b1       	in	r18, 0x06	; 6
    1bf8:	05 c0       	rjmp	.+10     	; 0x1c04 <nrk_gpio_get+0x50>
    1bfa:	29 b1       	in	r18, 0x09	; 9
    1bfc:	03 c0       	rjmp	.+6      	; 0x1c04 <nrk_gpio_get+0x50>
    1bfe:	2c b1       	in	r18, 0x0c	; 12
    1c00:	01 c0       	rjmp	.+2      	; 0x1c04 <nrk_gpio_get+0x50>
    1c02:	2f b1       	in	r18, 0x0f	; 15
    1c04:	30 e0       	ldi	r19, 0x00	; 0
    1c06:	86 95       	lsr	r24
    1c08:	86 95       	lsr	r24
    1c0a:	86 95       	lsr	r24
    1c0c:	02 c0       	rjmp	.+4      	; 0x1c12 <nrk_gpio_get+0x5e>
    1c0e:	35 95       	asr	r19
    1c10:	27 95       	ror	r18
    1c12:	8a 95       	dec	r24
    1c14:	e2 f7       	brpl	.-8      	; 0x1c0e <nrk_gpio_get+0x5a>
    1c16:	21 70       	andi	r18, 0x01	; 1
    1c18:	01 c0       	rjmp	.+2      	; 0x1c1c <nrk_gpio_get+0x68>
    1c1a:	2f ef       	ldi	r18, 0xFF	; 255
    1c1c:	82 2f       	mov	r24, r18
    1c1e:	08 95       	ret

00001c20 <nrk_gpio_toggle>:
    1c20:	8f 3f       	cpi	r24, 0xFF	; 255
    1c22:	09 f4       	brne	.+2      	; 0x1c26 <nrk_gpio_toggle+0x6>
    1c24:	fa c0       	rjmp	.+500    	; 0x1e1a <nrk_gpio_toggle+0x1fa>
    1c26:	28 2f       	mov	r18, r24
    1c28:	30 e0       	ldi	r19, 0x00	; 0
    1c2a:	27 70       	andi	r18, 0x07	; 7
    1c2c:	30 70       	andi	r19, 0x00	; 0
    1c2e:	22 30       	cpi	r18, 0x02	; 2
    1c30:	31 05       	cpc	r19, r1
    1c32:	09 f4       	brne	.+2      	; 0x1c36 <nrk_gpio_toggle+0x16>
    1c34:	59 c0       	rjmp	.+178    	; 0x1ce8 <nrk_gpio_toggle+0xc8>
    1c36:	23 30       	cpi	r18, 0x03	; 3
    1c38:	31 05       	cpc	r19, r1
    1c3a:	44 f4       	brge	.+16     	; 0x1c4c <nrk_gpio_toggle+0x2c>
    1c3c:	21 15       	cp	r18, r1
    1c3e:	31 05       	cpc	r19, r1
    1c40:	91 f0       	breq	.+36     	; 0x1c66 <nrk_gpio_toggle+0x46>
    1c42:	21 30       	cpi	r18, 0x01	; 1
    1c44:	31 05       	cpc	r19, r1
    1c46:	09 f0       	breq	.+2      	; 0x1c4a <nrk_gpio_toggle+0x2a>
    1c48:	ea c0       	rjmp	.+468    	; 0x1e1e <nrk_gpio_toggle+0x1fe>
    1c4a:	33 c0       	rjmp	.+102    	; 0x1cb2 <nrk_gpio_toggle+0x92>
    1c4c:	24 30       	cpi	r18, 0x04	; 4
    1c4e:	31 05       	cpc	r19, r1
    1c50:	09 f4       	brne	.+2      	; 0x1c54 <nrk_gpio_toggle+0x34>
    1c52:	97 c0       	rjmp	.+302    	; 0x1d82 <nrk_gpio_toggle+0x162>
    1c54:	24 30       	cpi	r18, 0x04	; 4
    1c56:	31 05       	cpc	r19, r1
    1c58:	0c f4       	brge	.+2      	; 0x1c5c <nrk_gpio_toggle+0x3c>
    1c5a:	6c c0       	rjmp	.+216    	; 0x1d34 <nrk_gpio_toggle+0x114>
    1c5c:	25 30       	cpi	r18, 0x05	; 5
    1c5e:	31 05       	cpc	r19, r1
    1c60:	09 f0       	breq	.+2      	; 0x1c64 <nrk_gpio_toggle+0x44>
    1c62:	dd c0       	rjmp	.+442    	; 0x1e1e <nrk_gpio_toggle+0x1fe>
    1c64:	b4 c0       	rjmp	.+360    	; 0x1dce <nrk_gpio_toggle+0x1ae>
    1c66:	90 b1       	in	r25, 0x00	; 0
    1c68:	86 95       	lsr	r24
    1c6a:	86 95       	lsr	r24
    1c6c:	86 95       	lsr	r24
    1c6e:	28 2f       	mov	r18, r24
    1c70:	89 2f       	mov	r24, r25
    1c72:	90 e0       	ldi	r25, 0x00	; 0
    1c74:	02 2e       	mov	r0, r18
    1c76:	02 c0       	rjmp	.+4      	; 0x1c7c <nrk_gpio_toggle+0x5c>
    1c78:	95 95       	asr	r25
    1c7a:	87 95       	ror	r24
    1c7c:	0a 94       	dec	r0
    1c7e:	e2 f7       	brpl	.-8      	; 0x1c78 <nrk_gpio_toggle+0x58>
    1c80:	80 fd       	sbrc	r24, 0
    1c82:	0b c0       	rjmp	.+22     	; 0x1c9a <nrk_gpio_toggle+0x7a>
    1c84:	32 b1       	in	r19, 0x02	; 2
    1c86:	81 e0       	ldi	r24, 0x01	; 1
    1c88:	90 e0       	ldi	r25, 0x00	; 0
    1c8a:	02 c0       	rjmp	.+4      	; 0x1c90 <nrk_gpio_toggle+0x70>
    1c8c:	88 0f       	add	r24, r24
    1c8e:	99 1f       	adc	r25, r25
    1c90:	2a 95       	dec	r18
    1c92:	e2 f7       	brpl	.-8      	; 0x1c8c <nrk_gpio_toggle+0x6c>
    1c94:	38 2b       	or	r19, r24
    1c96:	32 b9       	out	0x02, r19	; 2
    1c98:	66 c0       	rjmp	.+204    	; 0x1d66 <nrk_gpio_toggle+0x146>
    1c9a:	32 b1       	in	r19, 0x02	; 2
    1c9c:	81 e0       	ldi	r24, 0x01	; 1
    1c9e:	90 e0       	ldi	r25, 0x00	; 0
    1ca0:	02 c0       	rjmp	.+4      	; 0x1ca6 <nrk_gpio_toggle+0x86>
    1ca2:	88 0f       	add	r24, r24
    1ca4:	99 1f       	adc	r25, r25
    1ca6:	2a 95       	dec	r18
    1ca8:	e2 f7       	brpl	.-8      	; 0x1ca2 <nrk_gpio_toggle+0x82>
    1caa:	80 95       	com	r24
    1cac:	83 23       	and	r24, r19
    1cae:	82 b9       	out	0x02, r24	; 2
    1cb0:	5a c0       	rjmp	.+180    	; 0x1d66 <nrk_gpio_toggle+0x146>
    1cb2:	43 b1       	in	r20, 0x03	; 3
    1cb4:	86 95       	lsr	r24
    1cb6:	86 95       	lsr	r24
    1cb8:	86 95       	lsr	r24
    1cba:	50 e0       	ldi	r21, 0x00	; 0
    1cbc:	08 2e       	mov	r0, r24
    1cbe:	02 c0       	rjmp	.+4      	; 0x1cc4 <nrk_gpio_toggle+0xa4>
    1cc0:	55 95       	asr	r21
    1cc2:	47 95       	ror	r20
    1cc4:	0a 94       	dec	r0
    1cc6:	e2 f7       	brpl	.-8      	; 0x1cc0 <nrk_gpio_toggle+0xa0>
    1cc8:	02 c0       	rjmp	.+4      	; 0x1cce <nrk_gpio_toggle+0xae>
    1cca:	22 0f       	add	r18, r18
    1ccc:	33 1f       	adc	r19, r19
    1cce:	8a 95       	dec	r24
    1cd0:	e2 f7       	brpl	.-8      	; 0x1cca <nrk_gpio_toggle+0xaa>
    1cd2:	40 fd       	sbrc	r20, 0
    1cd4:	04 c0       	rjmp	.+8      	; 0x1cde <nrk_gpio_toggle+0xbe>
    1cd6:	85 b1       	in	r24, 0x05	; 5
    1cd8:	82 2b       	or	r24, r18
    1cda:	85 b9       	out	0x05, r24	; 5
    1cdc:	44 c0       	rjmp	.+136    	; 0x1d66 <nrk_gpio_toggle+0x146>
    1cde:	85 b1       	in	r24, 0x05	; 5
    1ce0:	20 95       	com	r18
    1ce2:	28 23       	and	r18, r24
    1ce4:	25 b9       	out	0x05, r18	; 5
    1ce6:	3f c0       	rjmp	.+126    	; 0x1d66 <nrk_gpio_toggle+0x146>
    1ce8:	96 b1       	in	r25, 0x06	; 6
    1cea:	86 95       	lsr	r24
    1cec:	86 95       	lsr	r24
    1cee:	86 95       	lsr	r24
    1cf0:	28 2f       	mov	r18, r24
    1cf2:	89 2f       	mov	r24, r25
    1cf4:	90 e0       	ldi	r25, 0x00	; 0
    1cf6:	02 2e       	mov	r0, r18
    1cf8:	02 c0       	rjmp	.+4      	; 0x1cfe <nrk_gpio_toggle+0xde>
    1cfa:	95 95       	asr	r25
    1cfc:	87 95       	ror	r24
    1cfe:	0a 94       	dec	r0
    1d00:	e2 f7       	brpl	.-8      	; 0x1cfa <nrk_gpio_toggle+0xda>
    1d02:	80 fd       	sbrc	r24, 0
    1d04:	0b c0       	rjmp	.+22     	; 0x1d1c <nrk_gpio_toggle+0xfc>
    1d06:	38 b1       	in	r19, 0x08	; 8
    1d08:	81 e0       	ldi	r24, 0x01	; 1
    1d0a:	90 e0       	ldi	r25, 0x00	; 0
    1d0c:	02 c0       	rjmp	.+4      	; 0x1d12 <nrk_gpio_toggle+0xf2>
    1d0e:	88 0f       	add	r24, r24
    1d10:	99 1f       	adc	r25, r25
    1d12:	2a 95       	dec	r18
    1d14:	e2 f7       	brpl	.-8      	; 0x1d0e <nrk_gpio_toggle+0xee>
    1d16:	38 2b       	or	r19, r24
    1d18:	38 b9       	out	0x08, r19	; 8
    1d1a:	25 c0       	rjmp	.+74     	; 0x1d66 <nrk_gpio_toggle+0x146>
    1d1c:	38 b1       	in	r19, 0x08	; 8
    1d1e:	81 e0       	ldi	r24, 0x01	; 1
    1d20:	90 e0       	ldi	r25, 0x00	; 0
    1d22:	02 c0       	rjmp	.+4      	; 0x1d28 <nrk_gpio_toggle+0x108>
    1d24:	88 0f       	add	r24, r24
    1d26:	99 1f       	adc	r25, r25
    1d28:	2a 95       	dec	r18
    1d2a:	e2 f7       	brpl	.-8      	; 0x1d24 <nrk_gpio_toggle+0x104>
    1d2c:	80 95       	com	r24
    1d2e:	83 23       	and	r24, r19
    1d30:	88 b9       	out	0x08, r24	; 8
    1d32:	19 c0       	rjmp	.+50     	; 0x1d66 <nrk_gpio_toggle+0x146>
    1d34:	99 b1       	in	r25, 0x09	; 9
    1d36:	86 95       	lsr	r24
    1d38:	86 95       	lsr	r24
    1d3a:	86 95       	lsr	r24
    1d3c:	28 2f       	mov	r18, r24
    1d3e:	89 2f       	mov	r24, r25
    1d40:	90 e0       	ldi	r25, 0x00	; 0
    1d42:	02 2e       	mov	r0, r18
    1d44:	02 c0       	rjmp	.+4      	; 0x1d4a <nrk_gpio_toggle+0x12a>
    1d46:	95 95       	asr	r25
    1d48:	87 95       	ror	r24
    1d4a:	0a 94       	dec	r0
    1d4c:	e2 f7       	brpl	.-8      	; 0x1d46 <nrk_gpio_toggle+0x126>
    1d4e:	80 fd       	sbrc	r24, 0
    1d50:	0c c0       	rjmp	.+24     	; 0x1d6a <nrk_gpio_toggle+0x14a>
    1d52:	3b b1       	in	r19, 0x0b	; 11
    1d54:	81 e0       	ldi	r24, 0x01	; 1
    1d56:	90 e0       	ldi	r25, 0x00	; 0
    1d58:	02 c0       	rjmp	.+4      	; 0x1d5e <nrk_gpio_toggle+0x13e>
    1d5a:	88 0f       	add	r24, r24
    1d5c:	99 1f       	adc	r25, r25
    1d5e:	2a 95       	dec	r18
    1d60:	e2 f7       	brpl	.-8      	; 0x1d5a <nrk_gpio_toggle+0x13a>
    1d62:	38 2b       	or	r19, r24
    1d64:	3b b9       	out	0x0b, r19	; 11
    1d66:	81 e0       	ldi	r24, 0x01	; 1
    1d68:	08 95       	ret
    1d6a:	3b b1       	in	r19, 0x0b	; 11
    1d6c:	81 e0       	ldi	r24, 0x01	; 1
    1d6e:	90 e0       	ldi	r25, 0x00	; 0
    1d70:	02 c0       	rjmp	.+4      	; 0x1d76 <nrk_gpio_toggle+0x156>
    1d72:	88 0f       	add	r24, r24
    1d74:	99 1f       	adc	r25, r25
    1d76:	2a 95       	dec	r18
    1d78:	e2 f7       	brpl	.-8      	; 0x1d72 <nrk_gpio_toggle+0x152>
    1d7a:	80 95       	com	r24
    1d7c:	83 23       	and	r24, r19
    1d7e:	8b b9       	out	0x0b, r24	; 11
    1d80:	f2 cf       	rjmp	.-28     	; 0x1d66 <nrk_gpio_toggle+0x146>
    1d82:	9c b1       	in	r25, 0x0c	; 12
    1d84:	86 95       	lsr	r24
    1d86:	86 95       	lsr	r24
    1d88:	86 95       	lsr	r24
    1d8a:	28 2f       	mov	r18, r24
    1d8c:	89 2f       	mov	r24, r25
    1d8e:	90 e0       	ldi	r25, 0x00	; 0
    1d90:	02 2e       	mov	r0, r18
    1d92:	02 c0       	rjmp	.+4      	; 0x1d98 <nrk_gpio_toggle+0x178>
    1d94:	95 95       	asr	r25
    1d96:	87 95       	ror	r24
    1d98:	0a 94       	dec	r0
    1d9a:	e2 f7       	brpl	.-8      	; 0x1d94 <nrk_gpio_toggle+0x174>
    1d9c:	80 fd       	sbrc	r24, 0
    1d9e:	0b c0       	rjmp	.+22     	; 0x1db6 <nrk_gpio_toggle+0x196>
    1da0:	3e b1       	in	r19, 0x0e	; 14
    1da2:	81 e0       	ldi	r24, 0x01	; 1
    1da4:	90 e0       	ldi	r25, 0x00	; 0
    1da6:	02 c0       	rjmp	.+4      	; 0x1dac <nrk_gpio_toggle+0x18c>
    1da8:	88 0f       	add	r24, r24
    1daa:	99 1f       	adc	r25, r25
    1dac:	2a 95       	dec	r18
    1dae:	e2 f7       	brpl	.-8      	; 0x1da8 <nrk_gpio_toggle+0x188>
    1db0:	38 2b       	or	r19, r24
    1db2:	3e b9       	out	0x0e, r19	; 14
    1db4:	d8 cf       	rjmp	.-80     	; 0x1d66 <nrk_gpio_toggle+0x146>
    1db6:	3e b1       	in	r19, 0x0e	; 14
    1db8:	81 e0       	ldi	r24, 0x01	; 1
    1dba:	90 e0       	ldi	r25, 0x00	; 0
    1dbc:	02 c0       	rjmp	.+4      	; 0x1dc2 <nrk_gpio_toggle+0x1a2>
    1dbe:	88 0f       	add	r24, r24
    1dc0:	99 1f       	adc	r25, r25
    1dc2:	2a 95       	dec	r18
    1dc4:	e2 f7       	brpl	.-8      	; 0x1dbe <nrk_gpio_toggle+0x19e>
    1dc6:	80 95       	com	r24
    1dc8:	83 23       	and	r24, r19
    1dca:	8e b9       	out	0x0e, r24	; 14
    1dcc:	cc cf       	rjmp	.-104    	; 0x1d66 <nrk_gpio_toggle+0x146>
    1dce:	9f b1       	in	r25, 0x0f	; 15
    1dd0:	86 95       	lsr	r24
    1dd2:	86 95       	lsr	r24
    1dd4:	86 95       	lsr	r24
    1dd6:	28 2f       	mov	r18, r24
    1dd8:	89 2f       	mov	r24, r25
    1dda:	90 e0       	ldi	r25, 0x00	; 0
    1ddc:	02 2e       	mov	r0, r18
    1dde:	02 c0       	rjmp	.+4      	; 0x1de4 <nrk_gpio_toggle+0x1c4>
    1de0:	95 95       	asr	r25
    1de2:	87 95       	ror	r24
    1de4:	0a 94       	dec	r0
    1de6:	e2 f7       	brpl	.-8      	; 0x1de0 <nrk_gpio_toggle+0x1c0>
    1de8:	80 fd       	sbrc	r24, 0
    1dea:	0b c0       	rjmp	.+22     	; 0x1e02 <nrk_gpio_toggle+0x1e2>
    1dec:	31 b3       	in	r19, 0x11	; 17
    1dee:	81 e0       	ldi	r24, 0x01	; 1
    1df0:	90 e0       	ldi	r25, 0x00	; 0
    1df2:	02 c0       	rjmp	.+4      	; 0x1df8 <nrk_gpio_toggle+0x1d8>
    1df4:	88 0f       	add	r24, r24
    1df6:	99 1f       	adc	r25, r25
    1df8:	2a 95       	dec	r18
    1dfa:	e2 f7       	brpl	.-8      	; 0x1df4 <nrk_gpio_toggle+0x1d4>
    1dfc:	38 2b       	or	r19, r24
    1dfe:	31 bb       	out	0x11, r19	; 17
    1e00:	b2 cf       	rjmp	.-156    	; 0x1d66 <nrk_gpio_toggle+0x146>
    1e02:	31 b3       	in	r19, 0x11	; 17
    1e04:	81 e0       	ldi	r24, 0x01	; 1
    1e06:	90 e0       	ldi	r25, 0x00	; 0
    1e08:	02 c0       	rjmp	.+4      	; 0x1e0e <nrk_gpio_toggle+0x1ee>
    1e0a:	88 0f       	add	r24, r24
    1e0c:	99 1f       	adc	r25, r25
    1e0e:	2a 95       	dec	r18
    1e10:	e2 f7       	brpl	.-8      	; 0x1e0a <nrk_gpio_toggle+0x1ea>
    1e12:	80 95       	com	r24
    1e14:	83 23       	and	r24, r19
    1e16:	81 bb       	out	0x11, r24	; 17
    1e18:	a6 cf       	rjmp	.-180    	; 0x1d66 <nrk_gpio_toggle+0x146>
    1e1a:	8f ef       	ldi	r24, 0xFF	; 255
    1e1c:	08 95       	ret
    1e1e:	8f ef       	ldi	r24, 0xFF	; 255
    1e20:	08 95       	ret

00001e22 <nrk_gpio_direction>:
    1e22:	8f 3f       	cpi	r24, 0xFF	; 255
    1e24:	09 f4       	brne	.+2      	; 0x1e28 <nrk_gpio_direction+0x6>
    1e26:	01 c1       	rjmp	.+514    	; 0x202a <nrk_gpio_direction+0x208>
    1e28:	28 2f       	mov	r18, r24
    1e2a:	30 e0       	ldi	r19, 0x00	; 0
    1e2c:	66 23       	and	r22, r22
    1e2e:	09 f0       	breq	.+2      	; 0x1e32 <nrk_gpio_direction+0x10>
    1e30:	8d c0       	rjmp	.+282    	; 0x1f4c <nrk_gpio_direction+0x12a>
    1e32:	27 70       	andi	r18, 0x07	; 7
    1e34:	30 70       	andi	r19, 0x00	; 0
    1e36:	22 30       	cpi	r18, 0x02	; 2
    1e38:	31 05       	cpc	r19, r1
    1e3a:	e1 f1       	breq	.+120    	; 0x1eb4 <nrk_gpio_direction+0x92>
    1e3c:	23 30       	cpi	r18, 0x03	; 3
    1e3e:	31 05       	cpc	r19, r1
    1e40:	44 f4       	brge	.+16     	; 0x1e52 <nrk_gpio_direction+0x30>
    1e42:	21 15       	cp	r18, r1
    1e44:	31 05       	cpc	r19, r1
    1e46:	91 f0       	breq	.+36     	; 0x1e6c <nrk_gpio_direction+0x4a>
    1e48:	21 30       	cpi	r18, 0x01	; 1
    1e4a:	31 05       	cpc	r19, r1
    1e4c:	09 f0       	breq	.+2      	; 0x1e50 <nrk_gpio_direction+0x2e>
    1e4e:	ed c0       	rjmp	.+474    	; 0x202a <nrk_gpio_direction+0x208>
    1e50:	20 c0       	rjmp	.+64     	; 0x1e92 <nrk_gpio_direction+0x70>
    1e52:	24 30       	cpi	r18, 0x04	; 4
    1e54:	31 05       	cpc	r19, r1
    1e56:	09 f4       	brne	.+2      	; 0x1e5a <nrk_gpio_direction+0x38>
    1e58:	53 c0       	rjmp	.+166    	; 0x1f00 <nrk_gpio_direction+0xde>
    1e5a:	24 30       	cpi	r18, 0x04	; 4
    1e5c:	31 05       	cpc	r19, r1
    1e5e:	0c f4       	brge	.+2      	; 0x1e62 <nrk_gpio_direction+0x40>
    1e60:	3c c0       	rjmp	.+120    	; 0x1eda <nrk_gpio_direction+0xb8>
    1e62:	25 30       	cpi	r18, 0x05	; 5
    1e64:	31 05       	cpc	r19, r1
    1e66:	09 f0       	breq	.+2      	; 0x1e6a <nrk_gpio_direction+0x48>
    1e68:	e0 c0       	rjmp	.+448    	; 0x202a <nrk_gpio_direction+0x208>
    1e6a:	5d c0       	rjmp	.+186    	; 0x1f26 <nrk_gpio_direction+0x104>
    1e6c:	91 b1       	in	r25, 0x01	; 1
    1e6e:	86 95       	lsr	r24
    1e70:	86 95       	lsr	r24
    1e72:	86 95       	lsr	r24
    1e74:	41 e0       	ldi	r20, 0x01	; 1
    1e76:	50 e0       	ldi	r21, 0x00	; 0
    1e78:	02 c0       	rjmp	.+4      	; 0x1e7e <nrk_gpio_direction+0x5c>
    1e7a:	44 0f       	add	r20, r20
    1e7c:	55 1f       	adc	r21, r21
    1e7e:	8a 95       	dec	r24
    1e80:	e2 f7       	brpl	.-8      	; 0x1e7a <nrk_gpio_direction+0x58>
    1e82:	84 2f       	mov	r24, r20
    1e84:	80 95       	com	r24
    1e86:	89 23       	and	r24, r25
    1e88:	81 b9       	out	0x01, r24	; 1
    1e8a:	82 b1       	in	r24, 0x02	; 2
    1e8c:	84 2b       	or	r24, r20
    1e8e:	82 b9       	out	0x02, r24	; 2
    1e90:	ca c0       	rjmp	.+404    	; 0x2026 <nrk_gpio_direction+0x204>
    1e92:	94 b1       	in	r25, 0x04	; 4
    1e94:	86 95       	lsr	r24
    1e96:	86 95       	lsr	r24
    1e98:	86 95       	lsr	r24
    1e9a:	02 c0       	rjmp	.+4      	; 0x1ea0 <nrk_gpio_direction+0x7e>
    1e9c:	22 0f       	add	r18, r18
    1e9e:	33 1f       	adc	r19, r19
    1ea0:	8a 95       	dec	r24
    1ea2:	e2 f7       	brpl	.-8      	; 0x1e9c <nrk_gpio_direction+0x7a>
    1ea4:	82 2f       	mov	r24, r18
    1ea6:	80 95       	com	r24
    1ea8:	89 23       	and	r24, r25
    1eaa:	84 b9       	out	0x04, r24	; 4
    1eac:	85 b1       	in	r24, 0x05	; 5
    1eae:	82 2b       	or	r24, r18
    1eb0:	85 b9       	out	0x05, r24	; 5
    1eb2:	b9 c0       	rjmp	.+370    	; 0x2026 <nrk_gpio_direction+0x204>
    1eb4:	97 b1       	in	r25, 0x07	; 7
    1eb6:	86 95       	lsr	r24
    1eb8:	86 95       	lsr	r24
    1eba:	86 95       	lsr	r24
    1ebc:	41 e0       	ldi	r20, 0x01	; 1
    1ebe:	50 e0       	ldi	r21, 0x00	; 0
    1ec0:	02 c0       	rjmp	.+4      	; 0x1ec6 <nrk_gpio_direction+0xa4>
    1ec2:	44 0f       	add	r20, r20
    1ec4:	55 1f       	adc	r21, r21
    1ec6:	8a 95       	dec	r24
    1ec8:	e2 f7       	brpl	.-8      	; 0x1ec2 <nrk_gpio_direction+0xa0>
    1eca:	84 2f       	mov	r24, r20
    1ecc:	80 95       	com	r24
    1ece:	89 23       	and	r24, r25
    1ed0:	87 b9       	out	0x07, r24	; 7
    1ed2:	88 b1       	in	r24, 0x08	; 8
    1ed4:	84 2b       	or	r24, r20
    1ed6:	88 b9       	out	0x08, r24	; 8
    1ed8:	a6 c0       	rjmp	.+332    	; 0x2026 <nrk_gpio_direction+0x204>
    1eda:	9a b1       	in	r25, 0x0a	; 10
    1edc:	86 95       	lsr	r24
    1ede:	86 95       	lsr	r24
    1ee0:	86 95       	lsr	r24
    1ee2:	41 e0       	ldi	r20, 0x01	; 1
    1ee4:	50 e0       	ldi	r21, 0x00	; 0
    1ee6:	02 c0       	rjmp	.+4      	; 0x1eec <nrk_gpio_direction+0xca>
    1ee8:	44 0f       	add	r20, r20
    1eea:	55 1f       	adc	r21, r21
    1eec:	8a 95       	dec	r24
    1eee:	e2 f7       	brpl	.-8      	; 0x1ee8 <nrk_gpio_direction+0xc6>
    1ef0:	84 2f       	mov	r24, r20
    1ef2:	80 95       	com	r24
    1ef4:	89 23       	and	r24, r25
    1ef6:	8a b9       	out	0x0a, r24	; 10
    1ef8:	8b b1       	in	r24, 0x0b	; 11
    1efa:	84 2b       	or	r24, r20
    1efc:	8b b9       	out	0x0b, r24	; 11
    1efe:	93 c0       	rjmp	.+294    	; 0x2026 <nrk_gpio_direction+0x204>
    1f00:	9d b1       	in	r25, 0x0d	; 13
    1f02:	86 95       	lsr	r24
    1f04:	86 95       	lsr	r24
    1f06:	86 95       	lsr	r24
    1f08:	41 e0       	ldi	r20, 0x01	; 1
    1f0a:	50 e0       	ldi	r21, 0x00	; 0
    1f0c:	02 c0       	rjmp	.+4      	; 0x1f12 <nrk_gpio_direction+0xf0>
    1f0e:	44 0f       	add	r20, r20
    1f10:	55 1f       	adc	r21, r21
    1f12:	8a 95       	dec	r24
    1f14:	e2 f7       	brpl	.-8      	; 0x1f0e <nrk_gpio_direction+0xec>
    1f16:	84 2f       	mov	r24, r20
    1f18:	80 95       	com	r24
    1f1a:	89 23       	and	r24, r25
    1f1c:	8d b9       	out	0x0d, r24	; 13
    1f1e:	8e b1       	in	r24, 0x0e	; 14
    1f20:	84 2b       	or	r24, r20
    1f22:	8e b9       	out	0x0e, r24	; 14
    1f24:	80 c0       	rjmp	.+256    	; 0x2026 <nrk_gpio_direction+0x204>
    1f26:	90 b3       	in	r25, 0x10	; 16
    1f28:	86 95       	lsr	r24
    1f2a:	86 95       	lsr	r24
    1f2c:	86 95       	lsr	r24
    1f2e:	41 e0       	ldi	r20, 0x01	; 1
    1f30:	50 e0       	ldi	r21, 0x00	; 0
    1f32:	02 c0       	rjmp	.+4      	; 0x1f38 <nrk_gpio_direction+0x116>
    1f34:	44 0f       	add	r20, r20
    1f36:	55 1f       	adc	r21, r21
    1f38:	8a 95       	dec	r24
    1f3a:	e2 f7       	brpl	.-8      	; 0x1f34 <nrk_gpio_direction+0x112>
    1f3c:	84 2f       	mov	r24, r20
    1f3e:	80 95       	com	r24
    1f40:	89 23       	and	r24, r25
    1f42:	80 bb       	out	0x10, r24	; 16
    1f44:	81 b3       	in	r24, 0x11	; 17
    1f46:	84 2b       	or	r24, r20
    1f48:	81 bb       	out	0x11, r24	; 17
    1f4a:	6d c0       	rjmp	.+218    	; 0x2026 <nrk_gpio_direction+0x204>
    1f4c:	27 70       	andi	r18, 0x07	; 7
    1f4e:	30 70       	andi	r19, 0x00	; 0
    1f50:	22 30       	cpi	r18, 0x02	; 2
    1f52:	31 05       	cpc	r19, r1
    1f54:	89 f1       	breq	.+98     	; 0x1fb8 <nrk_gpio_direction+0x196>
    1f56:	23 30       	cpi	r18, 0x03	; 3
    1f58:	31 05       	cpc	r19, r1
    1f5a:	44 f4       	brge	.+16     	; 0x1f6c <nrk_gpio_direction+0x14a>
    1f5c:	21 15       	cp	r18, r1
    1f5e:	31 05       	cpc	r19, r1
    1f60:	89 f0       	breq	.+34     	; 0x1f84 <nrk_gpio_direction+0x162>
    1f62:	21 30       	cpi	r18, 0x01	; 1
    1f64:	31 05       	cpc	r19, r1
    1f66:	09 f0       	breq	.+2      	; 0x1f6a <nrk_gpio_direction+0x148>
    1f68:	62 c0       	rjmp	.+196    	; 0x202e <nrk_gpio_direction+0x20c>
    1f6a:	1a c0       	rjmp	.+52     	; 0x1fa0 <nrk_gpio_direction+0x17e>
    1f6c:	24 30       	cpi	r18, 0x04	; 4
    1f6e:	31 05       	cpc	r19, r1
    1f70:	09 f4       	brne	.+2      	; 0x1f74 <nrk_gpio_direction+0x152>
    1f72:	3e c0       	rjmp	.+124    	; 0x1ff0 <nrk_gpio_direction+0x1ce>
    1f74:	24 30       	cpi	r18, 0x04	; 4
    1f76:	31 05       	cpc	r19, r1
    1f78:	6c f1       	brlt	.+90     	; 0x1fd4 <nrk_gpio_direction+0x1b2>
    1f7a:	25 30       	cpi	r18, 0x05	; 5
    1f7c:	31 05       	cpc	r19, r1
    1f7e:	09 f0       	breq	.+2      	; 0x1f82 <nrk_gpio_direction+0x160>
    1f80:	56 c0       	rjmp	.+172    	; 0x202e <nrk_gpio_direction+0x20c>
    1f82:	44 c0       	rjmp	.+136    	; 0x200c <nrk_gpio_direction+0x1ea>
    1f84:	91 b1       	in	r25, 0x01	; 1
    1f86:	86 95       	lsr	r24
    1f88:	86 95       	lsr	r24
    1f8a:	86 95       	lsr	r24
    1f8c:	41 e0       	ldi	r20, 0x01	; 1
    1f8e:	50 e0       	ldi	r21, 0x00	; 0
    1f90:	02 c0       	rjmp	.+4      	; 0x1f96 <nrk_gpio_direction+0x174>
    1f92:	44 0f       	add	r20, r20
    1f94:	55 1f       	adc	r21, r21
    1f96:	8a 95       	dec	r24
    1f98:	e2 f7       	brpl	.-8      	; 0x1f92 <nrk_gpio_direction+0x170>
    1f9a:	94 2b       	or	r25, r20
    1f9c:	91 b9       	out	0x01, r25	; 1
    1f9e:	43 c0       	rjmp	.+134    	; 0x2026 <nrk_gpio_direction+0x204>
    1fa0:	94 b1       	in	r25, 0x04	; 4
    1fa2:	86 95       	lsr	r24
    1fa4:	86 95       	lsr	r24
    1fa6:	86 95       	lsr	r24
    1fa8:	02 c0       	rjmp	.+4      	; 0x1fae <nrk_gpio_direction+0x18c>
    1faa:	22 0f       	add	r18, r18
    1fac:	33 1f       	adc	r19, r19
    1fae:	8a 95       	dec	r24
    1fb0:	e2 f7       	brpl	.-8      	; 0x1faa <nrk_gpio_direction+0x188>
    1fb2:	92 2b       	or	r25, r18
    1fb4:	94 b9       	out	0x04, r25	; 4
    1fb6:	37 c0       	rjmp	.+110    	; 0x2026 <nrk_gpio_direction+0x204>
    1fb8:	97 b1       	in	r25, 0x07	; 7
    1fba:	86 95       	lsr	r24
    1fbc:	86 95       	lsr	r24
    1fbe:	86 95       	lsr	r24
    1fc0:	41 e0       	ldi	r20, 0x01	; 1
    1fc2:	50 e0       	ldi	r21, 0x00	; 0
    1fc4:	02 c0       	rjmp	.+4      	; 0x1fca <nrk_gpio_direction+0x1a8>
    1fc6:	44 0f       	add	r20, r20
    1fc8:	55 1f       	adc	r21, r21
    1fca:	8a 95       	dec	r24
    1fcc:	e2 f7       	brpl	.-8      	; 0x1fc6 <nrk_gpio_direction+0x1a4>
    1fce:	94 2b       	or	r25, r20
    1fd0:	97 b9       	out	0x07, r25	; 7
    1fd2:	29 c0       	rjmp	.+82     	; 0x2026 <nrk_gpio_direction+0x204>
    1fd4:	9a b1       	in	r25, 0x0a	; 10
    1fd6:	86 95       	lsr	r24
    1fd8:	86 95       	lsr	r24
    1fda:	86 95       	lsr	r24
    1fdc:	41 e0       	ldi	r20, 0x01	; 1
    1fde:	50 e0       	ldi	r21, 0x00	; 0
    1fe0:	02 c0       	rjmp	.+4      	; 0x1fe6 <nrk_gpio_direction+0x1c4>
    1fe2:	44 0f       	add	r20, r20
    1fe4:	55 1f       	adc	r21, r21
    1fe6:	8a 95       	dec	r24
    1fe8:	e2 f7       	brpl	.-8      	; 0x1fe2 <nrk_gpio_direction+0x1c0>
    1fea:	94 2b       	or	r25, r20
    1fec:	9a b9       	out	0x0a, r25	; 10
    1fee:	1b c0       	rjmp	.+54     	; 0x2026 <nrk_gpio_direction+0x204>
    1ff0:	9d b1       	in	r25, 0x0d	; 13
    1ff2:	86 95       	lsr	r24
    1ff4:	86 95       	lsr	r24
    1ff6:	86 95       	lsr	r24
    1ff8:	41 e0       	ldi	r20, 0x01	; 1
    1ffa:	50 e0       	ldi	r21, 0x00	; 0
    1ffc:	02 c0       	rjmp	.+4      	; 0x2002 <nrk_gpio_direction+0x1e0>
    1ffe:	44 0f       	add	r20, r20
    2000:	55 1f       	adc	r21, r21
    2002:	8a 95       	dec	r24
    2004:	e2 f7       	brpl	.-8      	; 0x1ffe <nrk_gpio_direction+0x1dc>
    2006:	94 2b       	or	r25, r20
    2008:	9d b9       	out	0x0d, r25	; 13
    200a:	0d c0       	rjmp	.+26     	; 0x2026 <nrk_gpio_direction+0x204>
    200c:	90 b3       	in	r25, 0x10	; 16
    200e:	86 95       	lsr	r24
    2010:	86 95       	lsr	r24
    2012:	86 95       	lsr	r24
    2014:	41 e0       	ldi	r20, 0x01	; 1
    2016:	50 e0       	ldi	r21, 0x00	; 0
    2018:	02 c0       	rjmp	.+4      	; 0x201e <nrk_gpio_direction+0x1fc>
    201a:	44 0f       	add	r20, r20
    201c:	55 1f       	adc	r21, r21
    201e:	8a 95       	dec	r24
    2020:	e2 f7       	brpl	.-8      	; 0x201a <nrk_gpio_direction+0x1f8>
    2022:	94 2b       	or	r25, r20
    2024:	90 bb       	out	0x10, r25	; 16
    2026:	81 e0       	ldi	r24, 0x01	; 1
    2028:	08 95       	ret
    202a:	8f ef       	ldi	r24, 0xFF	; 255
    202c:	08 95       	ret
    202e:	8f ef       	ldi	r24, 0xFF	; 255
    2030:	08 95       	ret

00002032 <nrk_get_button>:
    2032:	88 23       	and	r24, r24
    2034:	29 f4       	brne	.+10     	; 0x2040 <nrk_get_button+0xe>
    2036:	81 e0       	ldi	r24, 0x01	; 1
    2038:	01 9b       	sbis	0x00, 1	; 0
    203a:	03 c0       	rjmp	.+6      	; 0x2042 <nrk_get_button+0x10>
    203c:	80 e0       	ldi	r24, 0x00	; 0
    203e:	08 95       	ret
    2040:	8f ef       	ldi	r24, 0xFF	; 255
    2042:	08 95       	ret

00002044 <nrk_led_toggle>:
    2044:	00 97       	sbiw	r24, 0x00	; 0
    2046:	11 f4       	brne	.+4      	; 0x204c <nrk_led_toggle+0x8>
    2048:	83 e2       	ldi	r24, 0x23	; 35
    204a:	0e c0       	rjmp	.+28     	; 0x2068 <nrk_led_toggle+0x24>
    204c:	81 30       	cpi	r24, 0x01	; 1
    204e:	91 05       	cpc	r25, r1
    2050:	11 f4       	brne	.+4      	; 0x2056 <nrk_led_toggle+0x12>
    2052:	8b e2       	ldi	r24, 0x2B	; 43
    2054:	09 c0       	rjmp	.+18     	; 0x2068 <nrk_led_toggle+0x24>
    2056:	82 30       	cpi	r24, 0x02	; 2
    2058:	91 05       	cpc	r25, r1
    205a:	11 f4       	brne	.+4      	; 0x2060 <nrk_led_toggle+0x1c>
    205c:	83 e3       	ldi	r24, 0x33	; 51
    205e:	04 c0       	rjmp	.+8      	; 0x2068 <nrk_led_toggle+0x24>
    2060:	83 30       	cpi	r24, 0x03	; 3
    2062:	91 05       	cpc	r25, r1
    2064:	29 f4       	brne	.+10     	; 0x2070 <nrk_led_toggle+0x2c>
    2066:	8b e3       	ldi	r24, 0x3B	; 59
    2068:	0e 94 10 0e 	call	0x1c20	; 0x1c20 <nrk_gpio_toggle>
    206c:	81 e0       	ldi	r24, 0x01	; 1
    206e:	08 95       	ret
    2070:	8f ef       	ldi	r24, 0xFF	; 255
    2072:	08 95       	ret

00002074 <nrk_led_clr>:
    2074:	00 97       	sbiw	r24, 0x00	; 0
    2076:	11 f4       	brne	.+4      	; 0x207c <nrk_led_clr+0x8>
    2078:	83 e2       	ldi	r24, 0x23	; 35
    207a:	0e c0       	rjmp	.+28     	; 0x2098 <nrk_led_clr+0x24>
    207c:	81 30       	cpi	r24, 0x01	; 1
    207e:	91 05       	cpc	r25, r1
    2080:	11 f4       	brne	.+4      	; 0x2086 <nrk_led_clr+0x12>
    2082:	8b e2       	ldi	r24, 0x2B	; 43
    2084:	09 c0       	rjmp	.+18     	; 0x2098 <nrk_led_clr+0x24>
    2086:	82 30       	cpi	r24, 0x02	; 2
    2088:	91 05       	cpc	r25, r1
    208a:	11 f4       	brne	.+4      	; 0x2090 <nrk_led_clr+0x1c>
    208c:	83 e3       	ldi	r24, 0x33	; 51
    208e:	04 c0       	rjmp	.+8      	; 0x2098 <nrk_led_clr+0x24>
    2090:	83 30       	cpi	r24, 0x03	; 3
    2092:	91 05       	cpc	r25, r1
    2094:	29 f4       	brne	.+10     	; 0x20a0 <nrk_led_clr+0x2c>
    2096:	8b e3       	ldi	r24, 0x3B	; 59
    2098:	0e 94 e4 0c 	call	0x19c8	; 0x19c8 <nrk_gpio_set>
    209c:	81 e0       	ldi	r24, 0x01	; 1
    209e:	08 95       	ret
    20a0:	8f ef       	ldi	r24, 0xFF	; 255
    20a2:	08 95       	ret

000020a4 <nrk_led_set>:
    20a4:	00 97       	sbiw	r24, 0x00	; 0
    20a6:	11 f4       	brne	.+4      	; 0x20ac <nrk_led_set+0x8>
    20a8:	83 e2       	ldi	r24, 0x23	; 35
    20aa:	0e c0       	rjmp	.+28     	; 0x20c8 <nrk_led_set+0x24>
    20ac:	81 30       	cpi	r24, 0x01	; 1
    20ae:	91 05       	cpc	r25, r1
    20b0:	11 f4       	brne	.+4      	; 0x20b6 <nrk_led_set+0x12>
    20b2:	8b e2       	ldi	r24, 0x2B	; 43
    20b4:	09 c0       	rjmp	.+18     	; 0x20c8 <nrk_led_set+0x24>
    20b6:	82 30       	cpi	r24, 0x02	; 2
    20b8:	91 05       	cpc	r25, r1
    20ba:	11 f4       	brne	.+4      	; 0x20c0 <nrk_led_set+0x1c>
    20bc:	83 e3       	ldi	r24, 0x33	; 51
    20be:	04 c0       	rjmp	.+8      	; 0x20c8 <nrk_led_set+0x24>
    20c0:	83 30       	cpi	r24, 0x03	; 3
    20c2:	91 05       	cpc	r25, r1
    20c4:	29 f4       	brne	.+10     	; 0x20d0 <nrk_led_set+0x2c>
    20c6:	8b e3       	ldi	r24, 0x3B	; 59
    20c8:	0e 94 5c 0d 	call	0x1ab8	; 0x1ab8 <nrk_gpio_clr>
    20cc:	81 e0       	ldi	r24, 0x01	; 1
    20ce:	08 95       	ret
    20d0:	8f ef       	ldi	r24, 0xFF	; 255
    20d2:	08 95       	ret

000020d4 <nrk_gpio_pullups>:
    20d4:	88 23       	and	r24, r24
    20d6:	19 f0       	breq	.+6      	; 0x20de <nrk_gpio_pullups+0xa>
    20d8:	85 b7       	in	r24, 0x35	; 53
    20da:	8f 7e       	andi	r24, 0xEF	; 239
    20dc:	02 c0       	rjmp	.+4      	; 0x20e2 <nrk_gpio_pullups+0xe>
    20de:	85 b7       	in	r24, 0x35	; 53
    20e0:	80 61       	ori	r24, 0x10	; 16
    20e2:	85 bf       	out	0x35, r24	; 53
    20e4:	81 e0       	ldi	r24, 0x01	; 1
    20e6:	08 95       	ret

000020e8 <putc1>:
    20e8:	90 91 c8 00 	lds	r25, 0x00C8
    20ec:	95 ff       	sbrs	r25, 5
    20ee:	fc cf       	rjmp	.-8      	; 0x20e8 <putc1>
    20f0:	80 93 ce 00 	sts	0x00CE, r24
    20f4:	08 95       	ret

000020f6 <setup_uart0>:
    20f6:	90 93 c5 00 	sts	0x00C5, r25
    20fa:	80 93 c4 00 	sts	0x00C4, r24
    20fe:	86 e0       	ldi	r24, 0x06	; 6
    2100:	80 93 c2 00 	sts	0x00C2, r24
    2104:	e1 ec       	ldi	r30, 0xC1	; 193
    2106:	f0 e0       	ldi	r31, 0x00	; 0
    2108:	80 81       	ld	r24, Z
    210a:	8b 7f       	andi	r24, 0xFB	; 251
    210c:	80 83       	st	Z, r24
    210e:	a0 ec       	ldi	r26, 0xC0	; 192
    2110:	b0 e0       	ldi	r27, 0x00	; 0
    2112:	8c 91       	ld	r24, X
    2114:	82 60       	ori	r24, 0x02	; 2
    2116:	8c 93       	st	X, r24
    2118:	80 81       	ld	r24, Z
    211a:	88 61       	ori	r24, 0x18	; 24
    211c:	80 83       	st	Z, r24
    211e:	08 95       	ret

00002120 <setup_uart1>:
    2120:	90 93 cd 00 	sts	0x00CD, r25
    2124:	80 93 cc 00 	sts	0x00CC, r24
    2128:	86 e0       	ldi	r24, 0x06	; 6
    212a:	80 93 ca 00 	sts	0x00CA, r24
    212e:	e9 ec       	ldi	r30, 0xC9	; 201
    2130:	f0 e0       	ldi	r31, 0x00	; 0
    2132:	80 81       	ld	r24, Z
    2134:	8b 7f       	andi	r24, 0xFB	; 251
    2136:	80 83       	st	Z, r24
    2138:	a8 ec       	ldi	r26, 0xC8	; 200
    213a:	b0 e0       	ldi	r27, 0x00	; 0
    213c:	8c 91       	ld	r24, X
    213e:	82 60       	ori	r24, 0x02	; 2
    2140:	8c 93       	st	X, r24
    2142:	80 81       	ld	r24, Z
    2144:	88 61       	ori	r24, 0x18	; 24
    2146:	80 83       	st	Z, r24
    2148:	08 95       	ret

0000214a <nrk_setup_uart>:
    214a:	0f 93       	push	r16
    214c:	1f 93       	push	r17
    214e:	cf 93       	push	r28
    2150:	df 93       	push	r29
    2152:	0e 94 7b 10 	call	0x20f6	; 0x20f6 <setup_uart0>
    2156:	c4 ea       	ldi	r28, 0xA4	; 164
    2158:	dc e0       	ldi	r29, 0x0C	; 12
    215a:	08 e9       	ldi	r16, 0x98	; 152
    215c:	1c e0       	ldi	r17, 0x0C	; 12
    215e:	ce 01       	movw	r24, r28
    2160:	b8 01       	movw	r22, r16
    2162:	0e 94 3c 2f 	call	0x5e78	; 0x5e78 <fdevopen>
    2166:	90 93 6d 08 	sts	0x086D, r25
    216a:	80 93 6c 08 	sts	0x086C, r24
    216e:	ce 01       	movw	r24, r28
    2170:	b8 01       	movw	r22, r16
    2172:	0e 94 3c 2f 	call	0x5e78	; 0x5e78 <fdevopen>
    2176:	90 93 6b 08 	sts	0x086B, r25
    217a:	80 93 6a 08 	sts	0x086A, r24
    217e:	df 91       	pop	r29
    2180:	cf 91       	pop	r28
    2182:	1f 91       	pop	r17
    2184:	0f 91       	pop	r16
    2186:	08 95       	ret

00002188 <getc1>:
    2188:	80 91 c8 00 	lds	r24, 0x00C8
    218c:	87 ff       	sbrs	r24, 7
    218e:	fc cf       	rjmp	.-8      	; 0x2188 <getc1>
    2190:	80 91 c8 00 	lds	r24, 0x00C8
    2194:	8f 77       	andi	r24, 0x7F	; 127
    2196:	80 93 c8 00 	sts	0x00C8, r24
    219a:	80 91 ce 00 	lds	r24, 0x00CE
    219e:	08 95       	ret

000021a0 <halWait>:
    21a0:	00 00       	nop
    21a2:	00 00       	nop
    21a4:	00 00       	nop
    21a6:	00 00       	nop
    21a8:	01 97       	sbiw	r24, 0x01	; 1
    21aa:	d1 f7       	brne	.-12     	; 0x21a0 <halWait>
    21ac:	08 95       	ret

000021ae <nrk_eeprom_read_byte>:
    21ae:	0e 94 53 30 	call	0x60a6	; 0x60a6 <__eerd_byte_m128rfa1>
    21b2:	08 95       	ret

000021b4 <nrk_eeprom_write_byte>:
    21b4:	0e 94 5b 30 	call	0x60b6	; 0x60b6 <__eewr_byte_m128rfa1>
    21b8:	08 95       	ret

000021ba <read_eeprom_mac_address>:
    21ba:	ef 92       	push	r14
    21bc:	ff 92       	push	r15
    21be:	0f 93       	push	r16
    21c0:	1f 93       	push	r17
    21c2:	cf 93       	push	r28
    21c4:	df 93       	push	r29
    21c6:	e8 2e       	mov	r14, r24
    21c8:	e7 01       	movw	r28, r14
    21ca:	7e 01       	movw	r14, r28
    21cc:	f9 2e       	mov	r15, r25
    21ce:	e7 01       	movw	r28, r14
    21d0:	80 e0       	ldi	r24, 0x00	; 0
    21d2:	90 e0       	ldi	r25, 0x00	; 0
    21d4:	0e 94 53 30 	call	0x60a6	; 0x60a6 <__eerd_byte_m128rfa1>
    21d8:	08 2f       	mov	r16, r24
    21da:	8b 83       	std	Y+3, r24	; 0x03
    21dc:	81 e0       	ldi	r24, 0x01	; 1
    21de:	90 e0       	ldi	r25, 0x00	; 0
    21e0:	0e 94 53 30 	call	0x60a6	; 0x60a6 <__eerd_byte_m128rfa1>
    21e4:	e8 2e       	mov	r14, r24
    21e6:	8a 83       	std	Y+2, r24	; 0x02
    21e8:	82 e0       	ldi	r24, 0x02	; 2
    21ea:	90 e0       	ldi	r25, 0x00	; 0
    21ec:	0e 94 53 30 	call	0x60a6	; 0x60a6 <__eerd_byte_m128rfa1>
    21f0:	f8 2e       	mov	r15, r24
    21f2:	89 83       	std	Y+1, r24	; 0x01
    21f4:	83 e0       	ldi	r24, 0x03	; 3
    21f6:	90 e0       	ldi	r25, 0x00	; 0
    21f8:	0e 94 53 30 	call	0x60a6	; 0x60a6 <__eerd_byte_m128rfa1>
    21fc:	18 2f       	mov	r17, r24
    21fe:	88 83       	st	Y, r24
    2200:	84 e0       	ldi	r24, 0x04	; 4
    2202:	90 e0       	ldi	r25, 0x00	; 0
    2204:	0e 94 53 30 	call	0x60a6	; 0x60a6 <__eerd_byte_m128rfa1>
    2208:	fe 0c       	add	r15, r14
    220a:	f0 0e       	add	r15, r16
    220c:	f1 0e       	add	r15, r17
    220e:	8f 15       	cp	r24, r15
    2210:	11 f4       	brne	.+4      	; 0x2216 <read_eeprom_mac_address+0x5c>
    2212:	81 e0       	ldi	r24, 0x01	; 1
    2214:	01 c0       	rjmp	.+2      	; 0x2218 <read_eeprom_mac_address+0x5e>
    2216:	8f ef       	ldi	r24, 0xFF	; 255
    2218:	df 91       	pop	r29
    221a:	cf 91       	pop	r28
    221c:	1f 91       	pop	r17
    221e:	0f 91       	pop	r16
    2220:	ff 90       	pop	r15
    2222:	ef 90       	pop	r14
    2224:	08 95       	ret

00002226 <read_eeprom_channel>:
    2226:	cf 93       	push	r28
    2228:	df 93       	push	r29
    222a:	ec 01       	movw	r28, r24
    222c:	85 e0       	ldi	r24, 0x05	; 5
    222e:	90 e0       	ldi	r25, 0x00	; 0
    2230:	0e 94 53 30 	call	0x60a6	; 0x60a6 <__eerd_byte_m128rfa1>
    2234:	88 83       	st	Y, r24
    2236:	81 e0       	ldi	r24, 0x01	; 1
    2238:	df 91       	pop	r29
    223a:	cf 91       	pop	r28
    223c:	08 95       	ret

0000223e <write_eeprom_load_img_pages>:
    223e:	fc 01       	movw	r30, r24
    2240:	86 e0       	ldi	r24, 0x06	; 6
    2242:	90 e0       	ldi	r25, 0x00	; 0
    2244:	60 81       	ld	r22, Z
    2246:	0e 94 5b 30 	call	0x60b6	; 0x60b6 <__eewr_byte_m128rfa1>
    224a:	81 e0       	ldi	r24, 0x01	; 1
    224c:	08 95       	ret

0000224e <read_eeprom_load_img_pages>:
    224e:	cf 93       	push	r28
    2250:	df 93       	push	r29
    2252:	ec 01       	movw	r28, r24
    2254:	86 e0       	ldi	r24, 0x06	; 6
    2256:	90 e0       	ldi	r25, 0x00	; 0
    2258:	0e 94 53 30 	call	0x60a6	; 0x60a6 <__eerd_byte_m128rfa1>
    225c:	88 83       	st	Y, r24
    225e:	81 e0       	ldi	r24, 0x01	; 1
    2260:	df 91       	pop	r29
    2262:	cf 91       	pop	r28
    2264:	08 95       	ret

00002266 <read_eeprom_aes_key>:
    2266:	0f 93       	push	r16
    2268:	1f 93       	push	r17
    226a:	cf 93       	push	r28
    226c:	df 93       	push	r29
    226e:	08 2f       	mov	r16, r24
    2270:	19 2f       	mov	r17, r25
    2272:	c8 e0       	ldi	r28, 0x08	; 8
    2274:	d0 e0       	ldi	r29, 0x00	; 0
    2276:	ce 01       	movw	r24, r28
    2278:	0e 94 53 30 	call	0x60a6	; 0x60a6 <__eerd_byte_m128rfa1>
    227c:	f8 01       	movw	r30, r16
    227e:	81 93       	st	Z+, r24
    2280:	8f 01       	movw	r16, r30
    2282:	21 96       	adiw	r28, 0x01	; 1
    2284:	c8 31       	cpi	r28, 0x18	; 24
    2286:	d1 05       	cpc	r29, r1
    2288:	b1 f7       	brne	.-20     	; 0x2276 <read_eeprom_aes_key+0x10>
    228a:	81 e0       	ldi	r24, 0x01	; 1
    228c:	df 91       	pop	r29
    228e:	cf 91       	pop	r28
    2290:	1f 91       	pop	r17
    2292:	0f 91       	pop	r16
    2294:	08 95       	ret

00002296 <write_eeprom_aes_key>:
    2296:	0f 93       	push	r16
    2298:	1f 93       	push	r17
    229a:	cf 93       	push	r28
    229c:	df 93       	push	r29
    229e:	08 2f       	mov	r16, r24
    22a0:	19 2f       	mov	r17, r25
    22a2:	c8 e0       	ldi	r28, 0x08	; 8
    22a4:	d0 e0       	ldi	r29, 0x00	; 0
    22a6:	f8 01       	movw	r30, r16
    22a8:	61 91       	ld	r22, Z+
    22aa:	8f 01       	movw	r16, r30
    22ac:	ce 01       	movw	r24, r28
    22ae:	0e 94 5b 30 	call	0x60b6	; 0x60b6 <__eewr_byte_m128rfa1>
    22b2:	21 96       	adiw	r28, 0x01	; 1
    22b4:	c8 31       	cpi	r28, 0x18	; 24
    22b6:	d1 05       	cpc	r29, r1
    22b8:	b1 f7       	brne	.-20     	; 0x22a6 <write_eeprom_aes_key+0x10>
    22ba:	81 e0       	ldi	r24, 0x01	; 1
    22bc:	df 91       	pop	r29
    22be:	cf 91       	pop	r28
    22c0:	1f 91       	pop	r17
    22c2:	0f 91       	pop	r16
    22c4:	08 95       	ret

000022c6 <read_eeprom_current_image_checksum>:
    22c6:	cf 93       	push	r28
    22c8:	df 93       	push	r29
    22ca:	ec 01       	movw	r28, r24
    22cc:	87 e0       	ldi	r24, 0x07	; 7
    22ce:	90 e0       	ldi	r25, 0x00	; 0
    22d0:	0e 94 53 30 	call	0x60a6	; 0x60a6 <__eerd_byte_m128rfa1>
    22d4:	88 83       	st	Y, r24
    22d6:	81 e0       	ldi	r24, 0x01	; 1
    22d8:	df 91       	pop	r29
    22da:	cf 91       	pop	r28
    22dc:	08 95       	ret

000022de <write_eeprom_current_image_checksum>:
    22de:	fc 01       	movw	r30, r24
    22e0:	87 e0       	ldi	r24, 0x07	; 7
    22e2:	90 e0       	ldi	r25, 0x00	; 0
    22e4:	60 81       	ld	r22, Z
    22e6:	0e 94 5b 30 	call	0x60b6	; 0x60b6 <__eewr_byte_m128rfa1>
    22ea:	81 e0       	ldi	r24, 0x01	; 1
    22ec:	08 95       	ret

000022ee <nrk_int_disable>:
    22ee:	f8 94       	cli
    22f0:	08 95       	ret

000022f2 <nrk_int_enable>:
    22f2:	78 94       	sei
    22f4:	08 95       	ret

000022f6 <nrk_halt>:
    22f6:	0e 94 77 11 	call	0x22ee	; 0x22ee <nrk_int_disable>
    22fa:	ff cf       	rjmp	.-2      	; 0x22fa <nrk_halt+0x4>

000022fc <nrk_init>:
    22fc:	0f 93       	push	r16
    22fe:	1f 93       	push	r17
    2300:	df 93       	push	r29
    2302:	cf 93       	push	r28
    2304:	cd b7       	in	r28, 0x3d	; 61
    2306:	de b7       	in	r29, 0x3e	; 62
    2308:	a3 97       	sbiw	r28, 0x23	; 35
    230a:	0f b6       	in	r0, 0x3f	; 63
    230c:	f8 94       	cli
    230e:	de bf       	out	0x3e, r29	; 62
    2310:	0f be       	out	0x3f, r0	; 63
    2312:	cd bf       	out	0x3d, r28	; 61
    2314:	0e 94 c9 16 	call	0x2d92	; 0x2d92 <nrk_signal_create>
    2318:	80 93 09 05 	sts	0x0509, r24
    231c:	8f 3f       	cpi	r24, 0xFF	; 255
    231e:	21 f4       	brne	.+8      	; 0x2328 <nrk_init+0x2c>
    2320:	8e e0       	ldi	r24, 0x0E	; 14
    2322:	60 e0       	ldi	r22, 0x00	; 0
    2324:	0e 94 51 15 	call	0x2aa2	; 0x2aa2 <nrk_kernel_error_add>
    2328:	0e 94 14 24 	call	0x4828	; 0x4828 <_nrk_startup_error>
    232c:	80 ff       	sbrs	r24, 0
    232e:	04 c0       	rjmp	.+8      	; 0x2338 <nrk_init+0x3c>
    2330:	86 e0       	ldi	r24, 0x06	; 6
    2332:	60 e0       	ldi	r22, 0x00	; 0
    2334:	0e 94 51 15 	call	0x2aa2	; 0x2aa2 <nrk_kernel_error_add>
    2338:	0e 94 ca 25 	call	0x4b94	; 0x4b94 <nrk_watchdog_check>
    233c:	8f 3f       	cpi	r24, 0xFF	; 255
    233e:	31 f4       	brne	.+12     	; 0x234c <nrk_init+0x50>
    2340:	0e 94 ab 25 	call	0x4b56	; 0x4b56 <nrk_watchdog_disable>
    2344:	80 e1       	ldi	r24, 0x10	; 16
    2346:	60 e0       	ldi	r22, 0x00	; 0
    2348:	0e 94 51 15 	call	0x2aa2	; 0x2aa2 <nrk_kernel_error_add>
    234c:	0e 94 ba 25 	call	0x4b74	; 0x4b74 <nrk_watchdog_enable>
    2350:	10 92 0c 05 	sts	0x050C, r1
    2354:	10 92 1a 06 	sts	0x061A, r1
    2358:	10 92 19 06 	sts	0x0619, r1
    235c:	10 92 0b 05 	sts	0x050B, r1
    2360:	10 92 0a 05 	sts	0x050A, r1
    2364:	10 92 d7 06 	sts	0x06D7, r1
    2368:	10 92 a3 05 	sts	0x05A3, r1
    236c:	8f ef       	ldi	r24, 0xFF	; 255
    236e:	80 93 02 05 	sts	0x0502, r24
    2372:	80 93 04 05 	sts	0x0504, r24
    2376:	80 93 03 05 	sts	0x0503, r24
    237a:	93 e6       	ldi	r25, 0x63	; 99
    237c:	90 93 a4 07 	sts	0x07A4, r25
    2380:	80 93 a2 07 	sts	0x07A2, r24
    2384:	90 93 c5 07 	sts	0x07C5, r25
    2388:	80 93 c3 07 	sts	0x07C3, r24
    238c:	90 93 e6 07 	sts	0x07E6, r25
    2390:	80 93 e4 07 	sts	0x07E4, r24
    2394:	90 93 07 08 	sts	0x0807, r25
    2398:	80 93 05 08 	sts	0x0805, r24
    239c:	90 93 28 08 	sts	0x0828, r25
    23a0:	80 93 26 08 	sts	0x0826, r24
    23a4:	e6 e4       	ldi	r30, 0x46	; 70
    23a6:	f8 e0       	ldi	r31, 0x08	; 8
    23a8:	20 e0       	ldi	r18, 0x00	; 0
    23aa:	30 e0       	ldi	r19, 0x00	; 0
    23ac:	01 c0       	rjmp	.+2      	; 0x23b0 <nrk_init+0xb4>
    23ae:	9a 01       	movw	r18, r20
    23b0:	a9 01       	movw	r20, r18
    23b2:	4f 5f       	subi	r20, 0xFF	; 255
    23b4:	5f 4f       	sbci	r21, 0xFF	; 255
    23b6:	ca 01       	movw	r24, r20
    23b8:	88 0f       	add	r24, r24
    23ba:	99 1f       	adc	r25, r25
    23bc:	88 0f       	add	r24, r24
    23be:	99 1f       	adc	r25, r25
    23c0:	84 0f       	add	r24, r20
    23c2:	95 1f       	adc	r25, r21
    23c4:	8d 5b       	subi	r24, 0xBD	; 189
    23c6:	97 4f       	sbci	r25, 0xF7	; 247
    23c8:	91 83       	std	Z+1, r25	; 0x01
    23ca:	80 83       	st	Z, r24
    23cc:	c9 01       	movw	r24, r18
    23ce:	88 0f       	add	r24, r24
    23d0:	99 1f       	adc	r25, r25
    23d2:	88 0f       	add	r24, r24
    23d4:	99 1f       	adc	r25, r25
    23d6:	82 0f       	add	r24, r18
    23d8:	93 1f       	adc	r25, r19
    23da:	8d 5b       	subi	r24, 0xBD	; 189
    23dc:	97 4f       	sbci	r25, 0xF7	; 247
    23de:	94 83       	std	Z+4, r25	; 0x04
    23e0:	83 83       	std	Z+3, r24	; 0x03
    23e2:	35 96       	adiw	r30, 0x05	; 5
    23e4:	45 30       	cpi	r20, 0x05	; 5
    23e6:	51 05       	cpc	r21, r1
    23e8:	11 f7       	brne	.-60     	; 0x23ae <nrk_init+0xb2>
    23ea:	10 92 45 08 	sts	0x0845, r1
    23ee:	10 92 44 08 	sts	0x0844, r1
    23f2:	10 92 60 08 	sts	0x0860, r1
    23f6:	10 92 5f 08 	sts	0x085F, r1
    23fa:	10 92 96 05 	sts	0x0596, r1
    23fe:	10 92 95 05 	sts	0x0595, r1
    2402:	83 e4       	ldi	r24, 0x43	; 67
    2404:	98 e0       	ldi	r25, 0x08	; 8
    2406:	90 93 7e 04 	sts	0x047E, r25
    240a:	80 93 7d 04 	sts	0x047D, r24
    240e:	8e 01       	movw	r16, r28
    2410:	0f 5f       	subi	r16, 0xFF	; 255
    2412:	1f 4f       	sbci	r17, 0xFF	; 255
    2414:	c8 01       	movw	r24, r16
    2416:	6b ed       	ldi	r22, 0xDB	; 219
    2418:	7f e1       	ldi	r23, 0x1F	; 31
    241a:	0e 94 eb 25 	call	0x4bd6	; 0x4bd6 <nrk_task_set_entry_function>
    241e:	c8 01       	movw	r24, r16
    2420:	62 ee       	ldi	r22, 0xE2	; 226
    2422:	76 e0       	ldi	r23, 0x06	; 6
    2424:	40 e8       	ldi	r20, 0x80	; 128
    2426:	50 e0       	ldi	r21, 0x00	; 0
    2428:	0e 94 ef 25 	call	0x4bde	; 0x4bde <nrk_task_set_stk>
    242c:	85 e5       	ldi	r24, 0x55	; 85
    242e:	80 93 e2 06 	sts	0x06E2, r24
    2432:	19 86       	std	Y+9, r1	; 0x09
    2434:	1c 86       	std	Y+12, r1	; 0x0c
    2436:	1d 86       	std	Y+13, r1	; 0x0d
    2438:	1e 86       	std	Y+14, r1	; 0x0e
    243a:	1f 86       	std	Y+15, r1	; 0x0f
    243c:	18 8a       	std	Y+16, r1	; 0x10
    243e:	19 8a       	std	Y+17, r1	; 0x11
    2440:	1a 8a       	std	Y+18, r1	; 0x12
    2442:	1b 8a       	std	Y+19, r1	; 0x13
    2444:	1c 8a       	std	Y+20, r1	; 0x14
    2446:	1d 8a       	std	Y+21, r1	; 0x15
    2448:	1e 8a       	std	Y+22, r1	; 0x16
    244a:	1f 8a       	std	Y+23, r1	; 0x17
    244c:	18 8e       	std	Y+24, r1	; 0x18
    244e:	19 8e       	std	Y+25, r1	; 0x19
    2450:	1a 8e       	std	Y+26, r1	; 0x1a
    2452:	1b 8e       	std	Y+27, r1	; 0x1b
    2454:	1c 8e       	std	Y+28, r1	; 0x1c
    2456:	1d 8e       	std	Y+29, r1	; 0x1d
    2458:	1e 8e       	std	Y+30, r1	; 0x1e
    245a:	1f 8e       	std	Y+31, r1	; 0x1f
    245c:	18 a2       	std	Y+32, r1	; 0x20
    245e:	19 a2       	std	Y+33, r1	; 0x21
    2460:	1a a2       	std	Y+34, r1	; 0x22
    2462:	1b a2       	std	Y+35, r1	; 0x23
    2464:	81 e0       	ldi	r24, 0x01	; 1
    2466:	88 87       	std	Y+8, r24	; 0x08
    2468:	92 e0       	ldi	r25, 0x02	; 2
    246a:	9a 87       	std	Y+10, r25	; 0x0a
    246c:	8b 87       	std	Y+11, r24	; 0x0b
    246e:	c8 01       	movw	r24, r16
    2470:	0e 94 c3 1a 	call	0x3586	; 0x3586 <nrk_activate_task>
    2474:	a3 96       	adiw	r28, 0x23	; 35
    2476:	0f b6       	in	r0, 0x3f	; 63
    2478:	f8 94       	cli
    247a:	de bf       	out	0x3e, r29	; 62
    247c:	0f be       	out	0x3f, r0	; 63
    247e:	cd bf       	out	0x3d, r28	; 61
    2480:	cf 91       	pop	r28
    2482:	df 91       	pop	r29
    2484:	1f 91       	pop	r17
    2486:	0f 91       	pop	r16
    2488:	08 95       	ret

0000248a <nrk_start>:
    248a:	cf 92       	push	r12
    248c:	df 92       	push	r13
    248e:	ff 92       	push	r15
    2490:	0f 93       	push	r16
    2492:	1f 93       	push	r17
    2494:	df 93       	push	r29
    2496:	cf 93       	push	r28
    2498:	00 d0       	rcall	.+0      	; 0x249a <nrk_start+0x10>
    249a:	cd b7       	in	r28, 0x3d	; 61
    249c:	de b7       	in	r29, 0x3e	; 62
    249e:	b2 ea       	ldi	r27, 0xA2	; 162
    24a0:	cb 2e       	mov	r12, r27
    24a2:	b7 e0       	ldi	r27, 0x07	; 7
    24a4:	db 2e       	mov	r13, r27
    24a6:	90 e0       	ldi	r25, 0x00	; 0
    24a8:	f6 01       	movw	r30, r12
    24aa:	f0 80       	ld	r15, Z
    24ac:	ff 2d       	mov	r31, r15
    24ae:	ff 3f       	cpi	r31, 0xFF	; 255
    24b0:	b1 f0       	breq	.+44     	; 0x24de <nrk_start+0x54>
    24b2:	02 ea       	ldi	r16, 0xA2	; 162
    24b4:	17 e0       	ldi	r17, 0x07	; 7
    24b6:	20 e0       	ldi	r18, 0x00	; 0
    24b8:	92 17       	cp	r25, r18
    24ba:	61 f0       	breq	.+24     	; 0x24d4 <nrk_start+0x4a>
    24bc:	f8 01       	movw	r30, r16
    24be:	80 81       	ld	r24, Z
    24c0:	f8 16       	cp	r15, r24
    24c2:	41 f4       	brne	.+16     	; 0x24d4 <nrk_start+0x4a>
    24c4:	85 e0       	ldi	r24, 0x05	; 5
    24c6:	6f 2d       	mov	r22, r15
    24c8:	29 83       	std	Y+1, r18	; 0x01
    24ca:	9a 83       	std	Y+2, r25	; 0x02
    24cc:	0e 94 51 15 	call	0x2aa2	; 0x2aa2 <nrk_kernel_error_add>
    24d0:	9a 81       	ldd	r25, Y+2	; 0x02
    24d2:	29 81       	ldd	r18, Y+1	; 0x01
    24d4:	2f 5f       	subi	r18, 0xFF	; 255
    24d6:	0f 5d       	subi	r16, 0xDF	; 223
    24d8:	1f 4f       	sbci	r17, 0xFF	; 255
    24da:	25 30       	cpi	r18, 0x05	; 5
    24dc:	69 f7       	brne	.-38     	; 0x24b8 <nrk_start+0x2e>
    24de:	9f 5f       	subi	r25, 0xFF	; 255
    24e0:	21 e2       	ldi	r18, 0x21	; 33
    24e2:	30 e0       	ldi	r19, 0x00	; 0
    24e4:	c2 0e       	add	r12, r18
    24e6:	d3 1e       	adc	r13, r19
    24e8:	95 30       	cpi	r25, 0x05	; 5
    24ea:	f1 f6       	brne	.-68     	; 0x24a8 <nrk_start+0x1e>
    24ec:	0e 94 b1 19 	call	0x3362	; 0x3362 <nrk_get_high_ready_task_ID>
    24f0:	99 27       	eor	r25, r25
    24f2:	87 fd       	sbrc	r24, 7
    24f4:	90 95       	com	r25
    24f6:	fc 01       	movw	r30, r24
    24f8:	a5 e0       	ldi	r26, 0x05	; 5
    24fa:	ee 0f       	add	r30, r30
    24fc:	ff 1f       	adc	r31, r31
    24fe:	aa 95       	dec	r26
    2500:	e1 f7       	brne	.-8      	; 0x24fa <nrk_start+0x70>
    2502:	e8 0f       	add	r30, r24
    2504:	f9 1f       	adc	r31, r25
    2506:	e6 56       	subi	r30, 0x66	; 102
    2508:	f8 4f       	sbci	r31, 0xF8	; 248
    250a:	82 85       	ldd	r24, Z+10	; 0x0a
    250c:	80 93 d7 06 	sts	0x06D7, r24
    2510:	f0 93 1a 06 	sts	0x061A, r31
    2514:	e0 93 19 06 	sts	0x0619, r30
    2518:	f0 93 0b 05 	sts	0x050B, r31
    251c:	e0 93 0a 05 	sts	0x050A, r30
    2520:	80 93 0c 05 	sts	0x050C, r24
    2524:	0e 94 4f 26 	call	0x4c9e	; 0x4c9e <nrk_target_start>
    2528:	0e 94 39 26 	call	0x4c72	; 0x4c72 <nrk_stack_pointer_init>
    252c:	0e 94 54 26 	call	0x4ca8	; 0x4ca8 <nrk_start_high_ready_task>
    2530:	ff cf       	rjmp	.-2      	; 0x2530 <nrk_start+0xa6>

00002532 <nrk_TCB_init>:
    2532:	ef 92       	push	r14
    2534:	ff 92       	push	r15
    2536:	0f 93       	push	r16
    2538:	1f 93       	push	r17
    253a:	cf 93       	push	r28
    253c:	df 93       	push	r29
    253e:	ec 01       	movw	r28, r24
    2540:	7b 01       	movw	r14, r22
    2542:	8a 01       	movw	r16, r20
    2544:	89 85       	ldd	r24, Y+9	; 0x09
    2546:	82 30       	cpi	r24, 0x02	; 2
    2548:	21 f0       	breq	.+8      	; 0x2552 <nrk_TCB_init+0x20>
    254a:	80 91 41 08 	lds	r24, 0x0841
    254e:	88 83       	st	Y, r24
    2550:	01 c0       	rjmp	.+2      	; 0x2554 <nrk_TCB_init+0x22>
    2552:	18 82       	st	Y, r1
    2554:	80 91 41 08 	lds	r24, 0x0841
    2558:	85 30       	cpi	r24, 0x05	; 5
    255a:	20 f0       	brcs	.+8      	; 0x2564 <nrk_TCB_init+0x32>
    255c:	87 e0       	ldi	r24, 0x07	; 7
    255e:	60 e0       	ldi	r22, 0x00	; 0
    2560:	0e 94 51 15 	call	0x2aa2	; 0x2aa2 <nrk_kernel_error_add>
    2564:	89 85       	ldd	r24, Y+9	; 0x09
    2566:	82 30       	cpi	r24, 0x02	; 2
    2568:	29 f0       	breq	.+10     	; 0x2574 <nrk_TCB_init+0x42>
    256a:	80 91 41 08 	lds	r24, 0x0841
    256e:	8f 5f       	subi	r24, 0xFF	; 255
    2570:	80 93 41 08 	sts	0x0841, r24
    2574:	80 91 41 08 	lds	r24, 0x0841
    2578:	88 23       	and	r24, r24
    257a:	19 f4       	brne	.+6      	; 0x2582 <nrk_TCB_init+0x50>
    257c:	81 e0       	ldi	r24, 0x01	; 1
    257e:	80 93 41 08 	sts	0x0841, r24
    2582:	88 81       	ld	r24, Y
    2584:	99 27       	eor	r25, r25
    2586:	87 fd       	sbrc	r24, 7
    2588:	90 95       	com	r25
    258a:	fc 01       	movw	r30, r24
    258c:	a5 e0       	ldi	r26, 0x05	; 5
    258e:	ee 0f       	add	r30, r30
    2590:	ff 1f       	adc	r31, r31
    2592:	aa 95       	dec	r26
    2594:	e1 f7       	brne	.-8      	; 0x258e <nrk_TCB_init+0x5c>
    2596:	e8 0f       	add	r30, r24
    2598:	f9 1f       	adc	r31, r25
    259a:	e6 56       	subi	r30, 0x66	; 102
    259c:	f8 4f       	sbci	r31, 0xF8	; 248
    259e:	f1 82       	std	Z+1, r15	; 0x01
    25a0:	e0 82       	st	Z, r14
    25a2:	88 85       	ldd	r24, Y+8	; 0x08
    25a4:	82 87       	std	Z+10, r24	; 0x0a
    25a6:	88 81       	ld	r24, Y
    25a8:	99 27       	eor	r25, r25
    25aa:	87 fd       	sbrc	r24, 7
    25ac:	90 95       	com	r25
    25ae:	fc 01       	movw	r30, r24
    25b0:	75 e0       	ldi	r23, 0x05	; 5
    25b2:	ee 0f       	add	r30, r30
    25b4:	ff 1f       	adc	r31, r31
    25b6:	7a 95       	dec	r23
    25b8:	e1 f7       	brne	.-8      	; 0x25b2 <nrk_TCB_init+0x80>
    25ba:	e8 0f       	add	r30, r24
    25bc:	f9 1f       	adc	r31, r25
    25be:	e6 56       	subi	r30, 0x66	; 102
    25c0:	f8 4f       	sbci	r31, 0xF8	; 248
    25c2:	83 e0       	ldi	r24, 0x03	; 3
    25c4:	81 87       	std	Z+9, r24	; 0x09
    25c6:	28 81       	ld	r18, Y
    25c8:	82 2f       	mov	r24, r18
    25ca:	99 27       	eor	r25, r25
    25cc:	87 fd       	sbrc	r24, 7
    25ce:	90 95       	com	r25
    25d0:	fc 01       	movw	r30, r24
    25d2:	65 e0       	ldi	r22, 0x05	; 5
    25d4:	ee 0f       	add	r30, r30
    25d6:	ff 1f       	adc	r31, r31
    25d8:	6a 95       	dec	r22
    25da:	e1 f7       	brne	.-8      	; 0x25d4 <nrk_TCB_init+0xa2>
    25dc:	e8 0f       	add	r30, r24
    25de:	f9 1f       	adc	r31, r25
    25e0:	e6 56       	subi	r30, 0x66	; 102
    25e2:	f8 4f       	sbci	r31, 0xF8	; 248
    25e4:	20 87       	std	Z+8, r18	; 0x08
    25e6:	88 81       	ld	r24, Y
    25e8:	99 27       	eor	r25, r25
    25ea:	87 fd       	sbrc	r24, 7
    25ec:	90 95       	com	r25
    25ee:	7c 01       	movw	r14, r24
    25f0:	55 e0       	ldi	r21, 0x05	; 5
    25f2:	ee 0c       	add	r14, r14
    25f4:	ff 1c       	adc	r15, r15
    25f6:	5a 95       	dec	r21
    25f8:	e1 f7       	brne	.-8      	; 0x25f2 <nrk_TCB_init+0xc0>
    25fa:	e8 0e       	add	r14, r24
    25fc:	f9 1e       	adc	r15, r25
    25fe:	8a e9       	ldi	r24, 0x9A	; 154
    2600:	97 e0       	ldi	r25, 0x07	; 7
    2602:	e8 0e       	add	r14, r24
    2604:	f9 1e       	adc	r15, r25
    2606:	f7 01       	movw	r30, r14
    2608:	15 82       	std	Z+5, r1	; 0x05
    260a:	ce 01       	movw	r24, r28
    260c:	0b 96       	adiw	r24, 0x0b	; 11
    260e:	0e 94 8c 1e 	call	0x3d18	; 0x3d18 <_nrk_time_to_ticks>
    2612:	f7 01       	movw	r30, r14
    2614:	94 8f       	std	Z+28, r25	; 0x1c
    2616:	83 8f       	std	Z+27, r24	; 0x1b
    2618:	8b 85       	ldd	r24, Y+11	; 0x0b
    261a:	9c 85       	ldd	r25, Y+12	; 0x0c
    261c:	ad 85       	ldd	r26, Y+13	; 0x0d
    261e:	be 85       	ldd	r27, Y+14	; 0x0e
    2620:	8e 33       	cpi	r24, 0x3E	; 62
    2622:	91 05       	cpc	r25, r1
    2624:	a1 05       	cpc	r26, r1
    2626:	b1 05       	cpc	r27, r1
    2628:	20 f0       	brcs	.+8      	; 0x2632 <nrk_TCB_init+0x100>
    262a:	86 e1       	ldi	r24, 0x16	; 22
    262c:	68 81       	ld	r22, Y
    262e:	0e 94 51 15 	call	0x2aa2	; 0x2aa2 <nrk_kernel_error_add>
    2632:	e8 80       	ld	r14, Y
    2634:	ff 24       	eor	r15, r15
    2636:	e7 fc       	sbrc	r14, 7
    2638:	f0 94       	com	r15
    263a:	ce 01       	movw	r24, r28
    263c:	4b 96       	adiw	r24, 0x1b	; 27
    263e:	0e 94 8c 1e 	call	0x3d18	; 0x3d18 <_nrk_time_to_ticks>
    2642:	f7 01       	movw	r30, r14
    2644:	45 e0       	ldi	r20, 0x05	; 5
    2646:	ee 0f       	add	r30, r30
    2648:	ff 1f       	adc	r31, r31
    264a:	4a 95       	dec	r20
    264c:	e1 f7       	brne	.-8      	; 0x2646 <nrk_TCB_init+0x114>
    264e:	ee 0d       	add	r30, r14
    2650:	ff 1d       	adc	r31, r15
    2652:	e6 56       	subi	r30, 0x66	; 102
    2654:	f8 4f       	sbci	r31, 0xF8	; 248
    2656:	96 8b       	std	Z+22, r25	; 0x16
    2658:	85 8b       	std	Z+21, r24	; 0x15
    265a:	88 81       	ld	r24, Y
    265c:	99 27       	eor	r25, r25
    265e:	87 fd       	sbrc	r24, 7
    2660:	90 95       	com	r25
    2662:	7c 01       	movw	r14, r24
    2664:	35 e0       	ldi	r19, 0x05	; 5
    2666:	ee 0c       	add	r14, r14
    2668:	ff 1c       	adc	r15, r15
    266a:	3a 95       	dec	r19
    266c:	e1 f7       	brne	.-8      	; 0x2666 <nrk_TCB_init+0x134>
    266e:	e8 0e       	add	r14, r24
    2670:	f9 1e       	adc	r15, r25
    2672:	8a e9       	ldi	r24, 0x9A	; 154
    2674:	97 e0       	ldi	r25, 0x07	; 7
    2676:	e8 0e       	add	r14, r24
    2678:	f9 1e       	adc	r15, r25
    267a:	f7 01       	movw	r30, r14
    267c:	85 89       	ldd	r24, Z+21	; 0x15
    267e:	96 89       	ldd	r25, Z+22	; 0x16
    2680:	23 8d       	ldd	r18, Z+27	; 0x1b
    2682:	34 8d       	ldd	r19, Z+28	; 0x1c
    2684:	82 0f       	add	r24, r18
    2686:	93 1f       	adc	r25, r19
    2688:	90 8f       	std	Z+24, r25	; 0x18
    268a:	87 8b       	std	Z+23, r24	; 0x17
    268c:	ce 01       	movw	r24, r28
    268e:	43 96       	adiw	r24, 0x13	; 19
    2690:	0e 94 8c 1e 	call	0x3d18	; 0x3d18 <_nrk_time_to_ticks>
    2694:	f7 01       	movw	r30, r14
    2696:	96 8f       	std	Z+30, r25	; 0x1e
    2698:	85 8f       	std	Z+29, r24	; 0x1d
    269a:	88 81       	ld	r24, Y
    269c:	99 27       	eor	r25, r25
    269e:	87 fd       	sbrc	r24, 7
    26a0:	90 95       	com	r25
    26a2:	fc 01       	movw	r30, r24
    26a4:	25 e0       	ldi	r18, 0x05	; 5
    26a6:	ee 0f       	add	r30, r30
    26a8:	ff 1f       	adc	r31, r31
    26aa:	2a 95       	dec	r18
    26ac:	e1 f7       	brne	.-8      	; 0x26a6 <nrk_TCB_init+0x174>
    26ae:	e8 0f       	add	r30, r24
    26b0:	f9 1f       	adc	r31, r25
    26b2:	e6 56       	subi	r30, 0x66	; 102
    26b4:	f8 4f       	sbci	r31, 0xF8	; 248
    26b6:	85 8d       	ldd	r24, Z+29	; 0x1d
    26b8:	96 8d       	ldd	r25, Z+30	; 0x1e
    26ba:	92 8f       	std	Z+26, r25	; 0x1a
    26bc:	81 8f       	std	Z+25, r24	; 0x19
    26be:	81 e0       	ldi	r24, 0x01	; 1
    26c0:	90 e0       	ldi	r25, 0x00	; 0
    26c2:	90 a3       	std	Z+32, r25	; 0x20
    26c4:	87 8f       	std	Z+31, r24	; 0x1f
    26c6:	13 83       	std	Z+3, r17	; 0x03
    26c8:	02 83       	std	Z+2, r16	; 0x02
    26ca:	81 e0       	ldi	r24, 0x01	; 1
    26cc:	84 87       	std	Z+12, r24	; 0x0c
    26ce:	df 91       	pop	r29
    26d0:	cf 91       	pop	r28
    26d2:	1f 91       	pop	r17
    26d4:	0f 91       	pop	r16
    26d6:	ff 90       	pop	r15
    26d8:	ef 90       	pop	r14
    26da:	08 95       	ret

000026dc <_nrk_timer_tick>:
    26dc:	0e 94 f6 1f 	call	0x3fec	; 0x3fec <_nrk_scheduler>
    26e0:	08 95       	ret

000026e2 <nrk_version>:
    26e2:	85 e6       	ldi	r24, 0x65	; 101
    26e4:	90 e0       	ldi	r25, 0x00	; 0
    26e6:	08 95       	ret

000026e8 <_nrk_errno_set>:
    26e8:	e0 91 19 06 	lds	r30, 0x0619
    26ec:	f0 91 1a 06 	lds	r31, 0x061A
    26f0:	84 87       	std	Z+12, r24	; 0x0c
    26f2:	08 95       	ret

000026f4 <nrk_errno_get>:
    26f4:	e0 91 19 06 	lds	r30, 0x0619
    26f8:	f0 91 1a 06 	lds	r31, 0x061A
    26fc:	84 85       	ldd	r24, Z+12	; 0x0c
    26fe:	08 95       	ret

00002700 <nrk_error_get>:
    2700:	20 91 e1 06 	lds	r18, 0x06E1
    2704:	22 23       	and	r18, r18
    2706:	41 f0       	breq	.+16     	; 0x2718 <nrk_error_get+0x18>
    2708:	fb 01       	movw	r30, r22
    270a:	20 83       	st	Z, r18
    270c:	20 91 08 05 	lds	r18, 0x0508
    2710:	fc 01       	movw	r30, r24
    2712:	20 83       	st	Z, r18
    2714:	81 e0       	ldi	r24, 0x01	; 1
    2716:	08 95       	ret
    2718:	80 e0       	ldi	r24, 0x00	; 0
    271a:	08 95       	ret

0000271c <pause>:
    271c:	df 93       	push	r29
    271e:	cf 93       	push	r28
    2720:	0f 92       	push	r0
    2722:	cd b7       	in	r28, 0x3d	; 61
    2724:	de b7       	in	r29, 0x3e	; 62
    2726:	19 82       	std	Y+1, r1	; 0x01
    2728:	07 c0       	rjmp	.+14     	; 0x2738 <pause+0x1c>
    272a:	80 ed       	ldi	r24, 0xD0	; 208
    272c:	97 e0       	ldi	r25, 0x07	; 7
    272e:	0e 94 42 22 	call	0x4484	; 0x4484 <nrk_spin_wait_us>
    2732:	89 81       	ldd	r24, Y+1	; 0x01
    2734:	8f 5f       	subi	r24, 0xFF	; 255
    2736:	89 83       	std	Y+1, r24	; 0x01
    2738:	89 81       	ldd	r24, Y+1	; 0x01
    273a:	84 36       	cpi	r24, 0x64	; 100
    273c:	b0 f3       	brcs	.-20     	; 0x272a <pause+0xe>
    273e:	0f 90       	pop	r0
    2740:	cf 91       	pop	r28
    2742:	df 91       	pop	r29
    2744:	08 95       	ret

00002746 <blink_dot>:
    2746:	81 e0       	ldi	r24, 0x01	; 1
    2748:	90 e0       	ldi	r25, 0x00	; 0
    274a:	0e 94 52 10 	call	0x20a4	; 0x20a4 <nrk_led_set>
    274e:	0e 94 8e 13 	call	0x271c	; 0x271c <pause>
    2752:	81 e0       	ldi	r24, 0x01	; 1
    2754:	90 e0       	ldi	r25, 0x00	; 0
    2756:	0e 94 3a 10 	call	0x2074	; 0x2074 <nrk_led_clr>
    275a:	0e 94 8e 13 	call	0x271c	; 0x271c <pause>
    275e:	08 95       	ret

00002760 <blink_dash>:
    2760:	81 e0       	ldi	r24, 0x01	; 1
    2762:	90 e0       	ldi	r25, 0x00	; 0
    2764:	0e 94 52 10 	call	0x20a4	; 0x20a4 <nrk_led_set>
    2768:	0e 94 8e 13 	call	0x271c	; 0x271c <pause>
    276c:	0e 94 8e 13 	call	0x271c	; 0x271c <pause>
    2770:	0e 94 8e 13 	call	0x271c	; 0x271c <pause>
    2774:	81 e0       	ldi	r24, 0x01	; 1
    2776:	90 e0       	ldi	r25, 0x00	; 0
    2778:	0e 94 3a 10 	call	0x2074	; 0x2074 <nrk_led_clr>
    277c:	0e 94 8e 13 	call	0x271c	; 0x271c <pause>
    2780:	08 95       	ret

00002782 <blink_morse_code_error>:
    2782:	ff 92       	push	r15
    2784:	0f 93       	push	r16
    2786:	1f 93       	push	r17
    2788:	df 93       	push	r29
    278a:	cf 93       	push	r28
    278c:	00 d0       	rcall	.+0      	; 0x278e <blink_morse_code_error+0xc>
    278e:	0f 92       	push	r0
    2790:	cd b7       	in	r28, 0x3d	; 61
    2792:	de b7       	in	r29, 0x3e	; 62
    2794:	00 d0       	rcall	.+0      	; 0x2796 <blink_morse_code_error+0x14>
    2796:	00 d0       	rcall	.+0      	; 0x2798 <blink_morse_code_error+0x16>
    2798:	00 d0       	rcall	.+0      	; 0x279a <blink_morse_code_error+0x18>
    279a:	ed b7       	in	r30, 0x3d	; 61
    279c:	fe b7       	in	r31, 0x3e	; 62
    279e:	31 96       	adiw	r30, 0x01	; 1
    27a0:	8e 01       	movw	r16, r28
    27a2:	0f 5f       	subi	r16, 0xFF	; 255
    27a4:	1f 4f       	sbci	r17, 0xFF	; 255
    27a6:	ad b7       	in	r26, 0x3d	; 61
    27a8:	be b7       	in	r27, 0x3e	; 62
    27aa:	12 96       	adiw	r26, 0x02	; 2
    27ac:	1c 93       	st	X, r17
    27ae:	0e 93       	st	-X, r16
    27b0:	11 97       	sbiw	r26, 0x01	; 1
    27b2:	20 e6       	ldi	r18, 0x60	; 96
    27b4:	32 e0       	ldi	r19, 0x02	; 2
    27b6:	33 83       	std	Z+3, r19	; 0x03
    27b8:	22 83       	std	Z+2, r18	; 0x02
    27ba:	84 83       	std	Z+4, r24	; 0x04
    27bc:	15 82       	std	Z+5, r1	; 0x05
    27be:	0e 94 c5 2f 	call	0x5f8a	; 0x5f8a <sprintf>
    27c2:	ed b7       	in	r30, 0x3d	; 61
    27c4:	fe b7       	in	r31, 0x3e	; 62
    27c6:	36 96       	adiw	r30, 0x06	; 6
    27c8:	0f b6       	in	r0, 0x3f	; 63
    27ca:	f8 94       	cli
    27cc:	fe bf       	out	0x3e, r31	; 62
    27ce:	0f be       	out	0x3f, r0	; 63
    27d0:	ed bf       	out	0x3d, r30	; 61
    27d2:	ff 24       	eor	r15, r15
    27d4:	72 c0       	rjmp	.+228    	; 0x28ba <blink_morse_code_error+0x138>
    27d6:	80 0f       	add	r24, r16
    27d8:	91 1f       	adc	r25, r17
    27da:	dc 01       	movw	r26, r24
    27dc:	8c 91       	ld	r24, X
    27de:	84 33       	cpi	r24, 0x34	; 52
    27e0:	d1 f1       	breq	.+116    	; 0x2856 <blink_morse_code_error+0xd4>
    27e2:	85 33       	cpi	r24, 0x35	; 53
    27e4:	70 f4       	brcc	.+28     	; 0x2802 <blink_morse_code_error+0x80>
    27e6:	81 33       	cpi	r24, 0x31	; 49
    27e8:	f9 f0       	breq	.+62     	; 0x2828 <blink_morse_code_error+0xa6>
    27ea:	82 33       	cpi	r24, 0x32	; 50
    27ec:	20 f4       	brcc	.+8      	; 0x27f6 <blink_morse_code_error+0x74>
    27ee:	80 33       	cpi	r24, 0x30	; 48
    27f0:	09 f0       	breq	.+2      	; 0x27f4 <blink_morse_code_error+0x72>
    27f2:	5c c0       	rjmp	.+184    	; 0x28ac <blink_morse_code_error+0x12a>
    27f4:	16 c0       	rjmp	.+44     	; 0x2822 <blink_morse_code_error+0xa0>
    27f6:	82 33       	cpi	r24, 0x32	; 50
    27f8:	11 f1       	breq	.+68     	; 0x283e <blink_morse_code_error+0xbc>
    27fa:	83 33       	cpi	r24, 0x33	; 51
    27fc:	09 f0       	breq	.+2      	; 0x2800 <blink_morse_code_error+0x7e>
    27fe:	56 c0       	rjmp	.+172    	; 0x28ac <blink_morse_code_error+0x12a>
    2800:	23 c0       	rjmp	.+70     	; 0x2848 <blink_morse_code_error+0xc6>
    2802:	87 33       	cpi	r24, 0x37	; 55
    2804:	c9 f1       	breq	.+114    	; 0x2878 <blink_morse_code_error+0xf6>
    2806:	88 33       	cpi	r24, 0x38	; 56
    2808:	30 f4       	brcc	.+12     	; 0x2816 <blink_morse_code_error+0x94>
    280a:	85 33       	cpi	r24, 0x35	; 53
    280c:	69 f1       	breq	.+90     	; 0x2868 <blink_morse_code_error+0xe6>
    280e:	86 33       	cpi	r24, 0x36	; 54
    2810:	09 f0       	breq	.+2      	; 0x2814 <blink_morse_code_error+0x92>
    2812:	4c c0       	rjmp	.+152    	; 0x28ac <blink_morse_code_error+0x12a>
    2814:	2c c0       	rjmp	.+88     	; 0x286e <blink_morse_code_error+0xec>
    2816:	88 33       	cpi	r24, 0x38	; 56
    2818:	b1 f1       	breq	.+108    	; 0x2886 <blink_morse_code_error+0x104>
    281a:	89 33       	cpi	r24, 0x39	; 57
    281c:	09 f0       	breq	.+2      	; 0x2820 <blink_morse_code_error+0x9e>
    281e:	46 c0       	rjmp	.+140    	; 0x28ac <blink_morse_code_error+0x12a>
    2820:	3b c0       	rjmp	.+118    	; 0x2898 <blink_morse_code_error+0x116>
    2822:	0e 94 b0 13 	call	0x2760	; 0x2760 <blink_dash>
    2826:	02 c0       	rjmp	.+4      	; 0x282c <blink_morse_code_error+0xaa>
    2828:	0e 94 a3 13 	call	0x2746	; 0x2746 <blink_dot>
    282c:	0e 94 b0 13 	call	0x2760	; 0x2760 <blink_dash>
    2830:	0e 94 b0 13 	call	0x2760	; 0x2760 <blink_dash>
    2834:	0e 94 b0 13 	call	0x2760	; 0x2760 <blink_dash>
    2838:	0e 94 b0 13 	call	0x2760	; 0x2760 <blink_dash>
    283c:	37 c0       	rjmp	.+110    	; 0x28ac <blink_morse_code_error+0x12a>
    283e:	0e 94 a3 13 	call	0x2746	; 0x2746 <blink_dot>
    2842:	0e 94 a3 13 	call	0x2746	; 0x2746 <blink_dot>
    2846:	f4 cf       	rjmp	.-24     	; 0x2830 <blink_morse_code_error+0xae>
    2848:	0e 94 a3 13 	call	0x2746	; 0x2746 <blink_dot>
    284c:	0e 94 a3 13 	call	0x2746	; 0x2746 <blink_dot>
    2850:	0e 94 a3 13 	call	0x2746	; 0x2746 <blink_dot>
    2854:	ef cf       	rjmp	.-34     	; 0x2834 <blink_morse_code_error+0xb2>
    2856:	0e 94 a3 13 	call	0x2746	; 0x2746 <blink_dot>
    285a:	0e 94 a3 13 	call	0x2746	; 0x2746 <blink_dot>
    285e:	0e 94 a3 13 	call	0x2746	; 0x2746 <blink_dot>
    2862:	0e 94 a3 13 	call	0x2746	; 0x2746 <blink_dot>
    2866:	e8 cf       	rjmp	.-48     	; 0x2838 <blink_morse_code_error+0xb6>
    2868:	0e 94 a3 13 	call	0x2746	; 0x2746 <blink_dot>
    286c:	02 c0       	rjmp	.+4      	; 0x2872 <blink_morse_code_error+0xf0>
    286e:	0e 94 b0 13 	call	0x2760	; 0x2760 <blink_dash>
    2872:	0e 94 a3 13 	call	0x2746	; 0x2746 <blink_dot>
    2876:	04 c0       	rjmp	.+8      	; 0x2880 <blink_morse_code_error+0xfe>
    2878:	0e 94 b0 13 	call	0x2760	; 0x2760 <blink_dash>
    287c:	0e 94 b0 13 	call	0x2760	; 0x2760 <blink_dash>
    2880:	0e 94 a3 13 	call	0x2746	; 0x2746 <blink_dot>
    2884:	06 c0       	rjmp	.+12     	; 0x2892 <blink_morse_code_error+0x110>
    2886:	0e 94 b0 13 	call	0x2760	; 0x2760 <blink_dash>
    288a:	0e 94 b0 13 	call	0x2760	; 0x2760 <blink_dash>
    288e:	0e 94 b0 13 	call	0x2760	; 0x2760 <blink_dash>
    2892:	0e 94 a3 13 	call	0x2746	; 0x2746 <blink_dot>
    2896:	08 c0       	rjmp	.+16     	; 0x28a8 <blink_morse_code_error+0x126>
    2898:	0e 94 b0 13 	call	0x2760	; 0x2760 <blink_dash>
    289c:	0e 94 b0 13 	call	0x2760	; 0x2760 <blink_dash>
    28a0:	0e 94 b0 13 	call	0x2760	; 0x2760 <blink_dash>
    28a4:	0e 94 b0 13 	call	0x2760	; 0x2760 <blink_dash>
    28a8:	0e 94 a3 13 	call	0x2746	; 0x2746 <blink_dot>
    28ac:	0e 94 8e 13 	call	0x271c	; 0x271c <pause>
    28b0:	0e 94 8e 13 	call	0x271c	; 0x271c <pause>
    28b4:	0e 94 8e 13 	call	0x271c	; 0x271c <pause>
    28b8:	f3 94       	inc	r15
    28ba:	f8 01       	movw	r30, r16
    28bc:	01 90       	ld	r0, Z+
    28be:	00 20       	and	r0, r0
    28c0:	e9 f7       	brne	.-6      	; 0x28bc <blink_morse_code_error+0x13a>
    28c2:	31 97       	sbiw	r30, 0x01	; 1
    28c4:	e0 1b       	sub	r30, r16
    28c6:	f1 0b       	sbc	r31, r17
    28c8:	8f 2d       	mov	r24, r15
    28ca:	90 e0       	ldi	r25, 0x00	; 0
    28cc:	8e 17       	cp	r24, r30
    28ce:	9f 07       	cpc	r25, r31
    28d0:	08 f4       	brcc	.+2      	; 0x28d4 <blink_morse_code_error+0x152>
    28d2:	81 cf       	rjmp	.-254    	; 0x27d6 <blink_morse_code_error+0x54>
    28d4:	0f 90       	pop	r0
    28d6:	0f 90       	pop	r0
    28d8:	0f 90       	pop	r0
    28da:	cf 91       	pop	r28
    28dc:	df 91       	pop	r29
    28de:	1f 91       	pop	r17
    28e0:	0f 91       	pop	r16
    28e2:	ff 90       	pop	r15
    28e4:	08 95       	ret

000028e6 <nrk_error_print>:
    28e6:	0f 93       	push	r16
    28e8:	1f 93       	push	r17
    28ea:	80 91 e1 06 	lds	r24, 0x06E1
    28ee:	88 23       	and	r24, r24
    28f0:	19 f4       	brne	.+6      	; 0x28f8 <nrk_error_print+0x12>
    28f2:	1f 91       	pop	r17
    28f4:	0f 91       	pop	r16
    28f6:	08 95       	ret
    28f8:	0e 94 77 11 	call	0x22ee	; 0x22ee <nrk_int_disable>
    28fc:	0e 94 ab 25 	call	0x4b56	; 0x4b56 <nrk_watchdog_disable>
    2900:	0e 94 77 11 	call	0x22ee	; 0x22ee <nrk_int_disable>
    2904:	82 ef       	ldi	r24, 0xF2	; 242
    2906:	94 e0       	ldi	r25, 0x04	; 4
    2908:	0e 94 c1 0c 	call	0x1982	; 0x1982 <nrk_kprintf>
    290c:	00 d0       	rcall	.+0      	; 0x290e <nrk_error_print+0x28>
    290e:	00 d0       	rcall	.+0      	; 0x2910 <nrk_error_print+0x2a>
    2910:	ed b7       	in	r30, 0x3d	; 61
    2912:	fe b7       	in	r31, 0x3e	; 62
    2914:	31 96       	adiw	r30, 0x01	; 1
    2916:	80 e6       	ldi	r24, 0x60	; 96
    2918:	92 e0       	ldi	r25, 0x02	; 2
    291a:	ad b7       	in	r26, 0x3d	; 61
    291c:	be b7       	in	r27, 0x3e	; 62
    291e:	12 96       	adiw	r26, 0x02	; 2
    2920:	9c 93       	st	X, r25
    2922:	8e 93       	st	-X, r24
    2924:	11 97       	sbiw	r26, 0x01	; 1
    2926:	80 91 08 05 	lds	r24, 0x0508
    292a:	82 83       	std	Z+2, r24	; 0x02
    292c:	13 82       	std	Z+3, r1	; 0x03
    292e:	0e 94 b3 2f 	call	0x5f66	; 0x5f66 <printf>
    2932:	0f 90       	pop	r0
    2934:	0f 90       	pop	r0
    2936:	0f 90       	pop	r0
    2938:	0f 90       	pop	r0
    293a:	8e ee       	ldi	r24, 0xEE	; 238
    293c:	94 e0       	ldi	r25, 0x04	; 4
    293e:	0e 94 c1 0c 	call	0x1982	; 0x1982 <nrk_kprintf>
    2942:	80 91 e1 06 	lds	r24, 0x06E1
    2946:	88 31       	cpi	r24, 0x18	; 24
    2948:	10 f0       	brcs	.+4      	; 0x294e <nrk_error_print+0x68>
    294a:	10 92 e1 06 	sts	0x06E1, r1
    294e:	80 91 e1 06 	lds	r24, 0x06E1
    2952:	90 e0       	ldi	r25, 0x00	; 0
    2954:	01 97       	sbiw	r24, 0x01	; 1
    2956:	86 31       	cpi	r24, 0x16	; 22
    2958:	91 05       	cpc	r25, r1
    295a:	08 f0       	brcs	.+2      	; 0x295e <nrk_error_print+0x78>
    295c:	4b c0       	rjmp	.+150    	; 0x29f4 <nrk_error_print+0x10e>
    295e:	80 57       	subi	r24, 0x70	; 112
    2960:	9f 4f       	sbci	r25, 0xFF	; 255
    2962:	fc 01       	movw	r30, r24
    2964:	ee 0f       	add	r30, r30
    2966:	ff 1f       	adc	r31, r31
    2968:	05 90       	lpm	r0, Z+
    296a:	f4 91       	lpm	r31, Z+
    296c:	e0 2d       	mov	r30, r0
    296e:	09 94       	ijmp
    2970:	82 eb       	ldi	r24, 0xB2	; 178
    2972:	94 e0       	ldi	r25, 0x04	; 4
    2974:	41 c0       	rjmp	.+130    	; 0x29f8 <nrk_error_print+0x112>
    2976:	8b e8       	ldi	r24, 0x8B	; 139
    2978:	94 e0       	ldi	r25, 0x04	; 4
    297a:	3e c0       	rjmp	.+124    	; 0x29f8 <nrk_error_print+0x112>
    297c:	87 e7       	ldi	r24, 0x77	; 119
    297e:	94 e0       	ldi	r25, 0x04	; 4
    2980:	3b c0       	rjmp	.+118    	; 0x29f8 <nrk_error_print+0x112>
    2982:	81 e6       	ldi	r24, 0x61	; 97
    2984:	94 e0       	ldi	r25, 0x04	; 4
    2986:	38 c0       	rjmp	.+112    	; 0x29f8 <nrk_error_print+0x112>
    2988:	86 e4       	ldi	r24, 0x46	; 70
    298a:	94 e0       	ldi	r25, 0x04	; 4
    298c:	35 c0       	rjmp	.+106    	; 0x29f8 <nrk_error_print+0x112>
    298e:	80 e3       	ldi	r24, 0x30	; 48
    2990:	94 e0       	ldi	r25, 0x04	; 4
    2992:	32 c0       	rjmp	.+100    	; 0x29f8 <nrk_error_print+0x112>
    2994:	88 e1       	ldi	r24, 0x18	; 24
    2996:	94 e0       	ldi	r25, 0x04	; 4
    2998:	2f c0       	rjmp	.+94     	; 0x29f8 <nrk_error_print+0x112>
    299a:	85 e0       	ldi	r24, 0x05	; 5
    299c:	94 e0       	ldi	r25, 0x04	; 4
    299e:	2c c0       	rjmp	.+88     	; 0x29f8 <nrk_error_print+0x112>
    29a0:	82 ef       	ldi	r24, 0xF2	; 242
    29a2:	93 e0       	ldi	r25, 0x03	; 3
    29a4:	29 c0       	rjmp	.+82     	; 0x29f8 <nrk_error_print+0x112>
    29a6:	84 ed       	ldi	r24, 0xD4	; 212
    29a8:	93 e0       	ldi	r25, 0x03	; 3
    29aa:	26 c0       	rjmp	.+76     	; 0x29f8 <nrk_error_print+0x112>
    29ac:	8f ea       	ldi	r24, 0xAF	; 175
    29ae:	93 e0       	ldi	r25, 0x03	; 3
    29b0:	23 c0       	rjmp	.+70     	; 0x29f8 <nrk_error_print+0x112>
    29b2:	83 ea       	ldi	r24, 0xA3	; 163
    29b4:	93 e0       	ldi	r25, 0x03	; 3
    29b6:	20 c0       	rjmp	.+64     	; 0x29f8 <nrk_error_print+0x112>
    29b8:	88 e8       	ldi	r24, 0x88	; 136
    29ba:	93 e0       	ldi	r25, 0x03	; 3
    29bc:	1d c0       	rjmp	.+58     	; 0x29f8 <nrk_error_print+0x112>
    29be:	89 e7       	ldi	r24, 0x79	; 121
    29c0:	93 e0       	ldi	r25, 0x03	; 3
    29c2:	1a c0       	rjmp	.+52     	; 0x29f8 <nrk_error_print+0x112>
    29c4:	85 e6       	ldi	r24, 0x65	; 101
    29c6:	93 e0       	ldi	r25, 0x03	; 3
    29c8:	17 c0       	rjmp	.+46     	; 0x29f8 <nrk_error_print+0x112>
    29ca:	84 e5       	ldi	r24, 0x54	; 84
    29cc:	93 e0       	ldi	r25, 0x03	; 3
    29ce:	14 c0       	rjmp	.+40     	; 0x29f8 <nrk_error_print+0x112>
    29d0:	80 e4       	ldi	r24, 0x40	; 64
    29d2:	93 e0       	ldi	r25, 0x03	; 3
    29d4:	11 c0       	rjmp	.+34     	; 0x29f8 <nrk_error_print+0x112>
    29d6:	80 e2       	ldi	r24, 0x20	; 32
    29d8:	93 e0       	ldi	r25, 0x03	; 3
    29da:	0e c0       	rjmp	.+28     	; 0x29f8 <nrk_error_print+0x112>
    29dc:	88 e0       	ldi	r24, 0x08	; 8
    29de:	93 e0       	ldi	r25, 0x03	; 3
    29e0:	0b c0       	rjmp	.+22     	; 0x29f8 <nrk_error_print+0x112>
    29e2:	8d ee       	ldi	r24, 0xED	; 237
    29e4:	92 e0       	ldi	r25, 0x02	; 2
    29e6:	08 c0       	rjmp	.+16     	; 0x29f8 <nrk_error_print+0x112>
    29e8:	8c ed       	ldi	r24, 0xDC	; 220
    29ea:	92 e0       	ldi	r25, 0x02	; 2
    29ec:	05 c0       	rjmp	.+10     	; 0x29f8 <nrk_error_print+0x112>
    29ee:	8d ec       	ldi	r24, 0xCD	; 205
    29f0:	92 e0       	ldi	r25, 0x02	; 2
    29f2:	02 c0       	rjmp	.+4      	; 0x29f8 <nrk_error_print+0x112>
    29f4:	86 ec       	ldi	r24, 0xC6	; 198
    29f6:	92 e0       	ldi	r25, 0x02	; 2
    29f8:	0e 94 c1 0c 	call	0x1982	; 0x1982 <nrk_kprintf>
    29fc:	60 91 6c 08 	lds	r22, 0x086C
    2a00:	70 91 6d 08 	lds	r23, 0x086D
    2a04:	8d e0       	ldi	r24, 0x0D	; 13
    2a06:	90 e0       	ldi	r25, 0x00	; 0
    2a08:	0e 94 87 2f 	call	0x5f0e	; 0x5f0e <fputc>
    2a0c:	60 91 6c 08 	lds	r22, 0x086C
    2a10:	70 91 6d 08 	lds	r23, 0x086D
    2a14:	8a e0       	ldi	r24, 0x0A	; 10
    2a16:	90 e0       	ldi	r25, 0x00	; 0
    2a18:	0e 94 87 2f 	call	0x5f0e	; 0x5f0e <fputc>
    2a1c:	10 e0       	ldi	r17, 0x00	; 0
    2a1e:	1f c0       	rjmp	.+62     	; 0x2a5e <nrk_error_print+0x178>
    2a20:	82 e0       	ldi	r24, 0x02	; 2
    2a22:	90 e0       	ldi	r25, 0x00	; 0
    2a24:	0e 94 52 10 	call	0x20a4	; 0x20a4 <nrk_led_set>
    2a28:	83 e0       	ldi	r24, 0x03	; 3
    2a2a:	90 e0       	ldi	r25, 0x00	; 0
    2a2c:	0e 94 3a 10 	call	0x2074	; 0x2074 <nrk_led_clr>
    2a30:	04 e6       	ldi	r16, 0x64	; 100
    2a32:	88 ee       	ldi	r24, 0xE8	; 232
    2a34:	93 e0       	ldi	r25, 0x03	; 3
    2a36:	0e 94 42 22 	call	0x4484	; 0x4484 <nrk_spin_wait_us>
    2a3a:	01 50       	subi	r16, 0x01	; 1
    2a3c:	d1 f7       	brne	.-12     	; 0x2a32 <nrk_error_print+0x14c>
    2a3e:	83 e0       	ldi	r24, 0x03	; 3
    2a40:	90 e0       	ldi	r25, 0x00	; 0
    2a42:	0e 94 52 10 	call	0x20a4	; 0x20a4 <nrk_led_set>
    2a46:	82 e0       	ldi	r24, 0x02	; 2
    2a48:	90 e0       	ldi	r25, 0x00	; 0
    2a4a:	0e 94 3a 10 	call	0x2074	; 0x2074 <nrk_led_clr>
    2a4e:	04 e6       	ldi	r16, 0x64	; 100
    2a50:	88 ee       	ldi	r24, 0xE8	; 232
    2a52:	93 e0       	ldi	r25, 0x03	; 3
    2a54:	0e 94 42 22 	call	0x4484	; 0x4484 <nrk_spin_wait_us>
    2a58:	01 50       	subi	r16, 0x01	; 1
    2a5a:	d1 f7       	brne	.-12     	; 0x2a50 <nrk_error_print+0x16a>
    2a5c:	1f 5f       	subi	r17, 0xFF	; 255
    2a5e:	14 31       	cpi	r17, 0x14	; 20
    2a60:	fc f2       	brlt	.-66     	; 0x2a20 <nrk_error_print+0x13a>
    2a62:	83 e0       	ldi	r24, 0x03	; 3
    2a64:	90 e0       	ldi	r25, 0x00	; 0
    2a66:	0e 94 3a 10 	call	0x2074	; 0x2074 <nrk_led_clr>
    2a6a:	82 e0       	ldi	r24, 0x02	; 2
    2a6c:	90 e0       	ldi	r25, 0x00	; 0
    2a6e:	0e 94 3a 10 	call	0x2074	; 0x2074 <nrk_led_clr>
    2a72:	80 91 08 05 	lds	r24, 0x0508
    2a76:	0e 94 c1 13 	call	0x2782	; 0x2782 <blink_morse_code_error>
    2a7a:	0e 94 8e 13 	call	0x271c	; 0x271c <pause>
    2a7e:	82 e0       	ldi	r24, 0x02	; 2
    2a80:	90 e0       	ldi	r25, 0x00	; 0
    2a82:	0e 94 52 10 	call	0x20a4	; 0x20a4 <nrk_led_set>
    2a86:	0e 94 8e 13 	call	0x271c	; 0x271c <pause>
    2a8a:	82 e0       	ldi	r24, 0x02	; 2
    2a8c:	90 e0       	ldi	r25, 0x00	; 0
    2a8e:	0e 94 3a 10 	call	0x2074	; 0x2074 <nrk_led_clr>
    2a92:	0e 94 8e 13 	call	0x271c	; 0x271c <pause>
    2a96:	80 91 e1 06 	lds	r24, 0x06E1
    2a9a:	0e 94 c1 13 	call	0x2782	; 0x2782 <blink_morse_code_error>
    2a9e:	10 e0       	ldi	r17, 0x00	; 0
    2aa0:	bf cf       	rjmp	.-130    	; 0x2a20 <nrk_error_print+0x13a>

00002aa2 <nrk_kernel_error_add>:
    2aa2:	ef 92       	push	r14
    2aa4:	ff 92       	push	r15
    2aa6:	0f 93       	push	r16
    2aa8:	1f 93       	push	r17
    2aaa:	18 2f       	mov	r17, r24
    2aac:	e6 2e       	mov	r14, r22
    2aae:	80 93 e1 06 	sts	0x06E1, r24
    2ab2:	60 93 08 05 	sts	0x0508, r22
    2ab6:	0e 94 73 14 	call	0x28e6	; 0x28e6 <nrk_error_print>
    2aba:	00 e0       	ldi	r16, 0x00	; 0
    2abc:	21 c0       	rjmp	.+66     	; 0x2b00 <nrk_kernel_error_add+0x5e>
    2abe:	82 e0       	ldi	r24, 0x02	; 2
    2ac0:	90 e0       	ldi	r25, 0x00	; 0
    2ac2:	0e 94 52 10 	call	0x20a4	; 0x20a4 <nrk_led_set>
    2ac6:	83 e0       	ldi	r24, 0x03	; 3
    2ac8:	90 e0       	ldi	r25, 0x00	; 0
    2aca:	0e 94 3a 10 	call	0x2074	; 0x2074 <nrk_led_clr>
    2ace:	94 e6       	ldi	r25, 0x64	; 100
    2ad0:	f9 2e       	mov	r15, r25
    2ad2:	88 ee       	ldi	r24, 0xE8	; 232
    2ad4:	93 e0       	ldi	r25, 0x03	; 3
    2ad6:	0e 94 42 22 	call	0x4484	; 0x4484 <nrk_spin_wait_us>
    2ada:	fa 94       	dec	r15
    2adc:	d1 f7       	brne	.-12     	; 0x2ad2 <nrk_kernel_error_add+0x30>
    2ade:	83 e0       	ldi	r24, 0x03	; 3
    2ae0:	90 e0       	ldi	r25, 0x00	; 0
    2ae2:	0e 94 52 10 	call	0x20a4	; 0x20a4 <nrk_led_set>
    2ae6:	82 e0       	ldi	r24, 0x02	; 2
    2ae8:	90 e0       	ldi	r25, 0x00	; 0
    2aea:	0e 94 3a 10 	call	0x2074	; 0x2074 <nrk_led_clr>
    2aee:	84 e6       	ldi	r24, 0x64	; 100
    2af0:	f8 2e       	mov	r15, r24
    2af2:	88 ee       	ldi	r24, 0xE8	; 232
    2af4:	93 e0       	ldi	r25, 0x03	; 3
    2af6:	0e 94 42 22 	call	0x4484	; 0x4484 <nrk_spin_wait_us>
    2afa:	fa 94       	dec	r15
    2afc:	d1 f7       	brne	.-12     	; 0x2af2 <nrk_kernel_error_add+0x50>
    2afe:	0f 5f       	subi	r16, 0xFF	; 255
    2b00:	04 31       	cpi	r16, 0x14	; 20
    2b02:	e8 f2       	brcs	.-70     	; 0x2abe <nrk_kernel_error_add+0x1c>
    2b04:	83 e0       	ldi	r24, 0x03	; 3
    2b06:	90 e0       	ldi	r25, 0x00	; 0
    2b08:	0e 94 3a 10 	call	0x2074	; 0x2074 <nrk_led_clr>
    2b0c:	82 e0       	ldi	r24, 0x02	; 2
    2b0e:	90 e0       	ldi	r25, 0x00	; 0
    2b10:	0e 94 3a 10 	call	0x2074	; 0x2074 <nrk_led_clr>
    2b14:	8e 2d       	mov	r24, r14
    2b16:	0e 94 c1 13 	call	0x2782	; 0x2782 <blink_morse_code_error>
    2b1a:	81 2f       	mov	r24, r17
    2b1c:	0e 94 c1 13 	call	0x2782	; 0x2782 <blink_morse_code_error>
    2b20:	00 e0       	ldi	r16, 0x00	; 0
    2b22:	cd cf       	rjmp	.-102    	; 0x2abe <nrk_kernel_error_add+0x1c>

00002b24 <nrk_error_add>:
    2b24:	80 93 e1 06 	sts	0x06E1, r24
    2b28:	e0 91 19 06 	lds	r30, 0x0619
    2b2c:	f0 91 1a 06 	lds	r31, 0x061A
    2b30:	80 85       	ldd	r24, Z+8	; 0x08
    2b32:	80 93 08 05 	sts	0x0508, r24
    2b36:	0e 94 73 14 	call	0x28e6	; 0x28e6 <nrk_error_print>
    2b3a:	08 95       	ret

00002b3c <dump_stack_info>:
    2b3c:	6f 92       	push	r6
    2b3e:	7f 92       	push	r7
    2b40:	8f 92       	push	r8
    2b42:	9f 92       	push	r9
    2b44:	af 92       	push	r10
    2b46:	bf 92       	push	r11
    2b48:	cf 92       	push	r12
    2b4a:	df 92       	push	r13
    2b4c:	ef 92       	push	r14
    2b4e:	ff 92       	push	r15
    2b50:	0f 93       	push	r16
    2b52:	1f 93       	push	r17
    2b54:	cf 93       	push	r28
    2b56:	df 93       	push	r29
    2b58:	8e ef       	ldi	r24, 0xFE	; 254
    2b5a:	94 e0       	ldi	r25, 0x04	; 4
    2b5c:	0e 94 c1 0c 	call	0x1982	; 0x1982 <nrk_kprintf>
    2b60:	00 d0       	rcall	.+0      	; 0x2b62 <dump_stack_info+0x26>
    2b62:	00 d0       	rcall	.+0      	; 0x2b64 <dump_stack_info+0x28>
    2b64:	83 e6       	ldi	r24, 0x63	; 99
    2b66:	92 e0       	ldi	r25, 0x02	; 2
    2b68:	ad b7       	in	r26, 0x3d	; 61
    2b6a:	be b7       	in	r27, 0x3e	; 62
    2b6c:	12 96       	adiw	r26, 0x02	; 2
    2b6e:	9c 93       	st	X, r25
    2b70:	8e 93       	st	-X, r24
    2b72:	11 97       	sbiw	r26, 0x01	; 1
    2b74:	e0 91 19 06 	lds	r30, 0x0619
    2b78:	f0 91 1a 06 	lds	r31, 0x061A
    2b7c:	80 85       	ldd	r24, Z+8	; 0x08
    2b7e:	99 27       	eor	r25, r25
    2b80:	87 fd       	sbrc	r24, 7
    2b82:	90 95       	com	r25
    2b84:	14 96       	adiw	r26, 0x04	; 4
    2b86:	9c 93       	st	X, r25
    2b88:	8e 93       	st	-X, r24
    2b8a:	13 97       	sbiw	r26, 0x03	; 3
    2b8c:	0e 94 b3 2f 	call	0x5f66	; 0x5f66 <printf>
    2b90:	e0 91 19 06 	lds	r30, 0x0619
    2b94:	f0 91 1a 06 	lds	r31, 0x061A
    2b98:	c2 81       	ldd	r28, Z+2	; 0x02
    2b9a:	d3 81       	ldd	r29, Z+3	; 0x03
    2b9c:	8c e6       	ldi	r24, 0x6C	; 108
    2b9e:	92 e0       	ldi	r25, 0x02	; 2
    2ba0:	ed b7       	in	r30, 0x3d	; 61
    2ba2:	fe b7       	in	r31, 0x3e	; 62
    2ba4:	92 83       	std	Z+2, r25	; 0x02
    2ba6:	81 83       	std	Z+1, r24	; 0x01
    2ba8:	d4 83       	std	Z+4, r29	; 0x04
    2baa:	c3 83       	std	Z+3, r28	; 0x03
    2bac:	0e 94 b3 2f 	call	0x5f66	; 0x5f66 <printf>
    2bb0:	ed b7       	in	r30, 0x3d	; 61
    2bb2:	fe b7       	in	r31, 0x3e	; 62
    2bb4:	31 96       	adiw	r30, 0x01	; 1
    2bb6:	69 e7       	ldi	r22, 0x79	; 121
    2bb8:	e6 2e       	mov	r14, r22
    2bba:	62 e0       	ldi	r22, 0x02	; 2
    2bbc:	f6 2e       	mov	r15, r22
    2bbe:	ad b7       	in	r26, 0x3d	; 61
    2bc0:	be b7       	in	r27, 0x3e	; 62
    2bc2:	12 96       	adiw	r26, 0x02	; 2
    2bc4:	fc 92       	st	X, r15
    2bc6:	ee 92       	st	-X, r14
    2bc8:	11 97       	sbiw	r26, 0x01	; 1
    2bca:	88 81       	ld	r24, Y
    2bcc:	82 83       	std	Z+2, r24	; 0x02
    2bce:	13 82       	std	Z+3, r1	; 0x03
    2bd0:	0e 94 b3 2f 	call	0x5f66	; 0x5f66 <printf>
    2bd4:	56 e8       	ldi	r21, 0x86	; 134
    2bd6:	c5 2e       	mov	r12, r21
    2bd8:	52 e0       	ldi	r21, 0x02	; 2
    2bda:	d5 2e       	mov	r13, r21
    2bdc:	ed b7       	in	r30, 0x3d	; 61
    2bde:	fe b7       	in	r31, 0x3e	; 62
    2be0:	d2 82       	std	Z+2, r13	; 0x02
    2be2:	c1 82       	std	Z+1, r12	; 0x01
    2be4:	e0 91 19 06 	lds	r30, 0x0619
    2be8:	f0 91 1a 06 	lds	r31, 0x061A
    2bec:	80 81       	ld	r24, Z
    2bee:	91 81       	ldd	r25, Z+1	; 0x01
    2bf0:	ad b7       	in	r26, 0x3d	; 61
    2bf2:	be b7       	in	r27, 0x3e	; 62
    2bf4:	14 96       	adiw	r26, 0x04	; 4
    2bf6:	9c 93       	st	X, r25
    2bf8:	8e 93       	st	-X, r24
    2bfa:	13 97       	sbiw	r26, 0x03	; 3
    2bfc:	0e 94 b3 2f 	call	0x5f66	; 0x5f66 <printf>
    2c00:	40 e9       	ldi	r20, 0x90	; 144
    2c02:	a4 2e       	mov	r10, r20
    2c04:	42 e0       	ldi	r20, 0x02	; 2
    2c06:	b4 2e       	mov	r11, r20
    2c08:	ed b7       	in	r30, 0x3d	; 61
    2c0a:	fe b7       	in	r31, 0x3e	; 62
    2c0c:	b2 82       	std	Z+2, r11	; 0x02
    2c0e:	a1 82       	std	Z+1, r10	; 0x01
    2c10:	80 91 19 06 	lds	r24, 0x0619
    2c14:	90 91 1a 06 	lds	r25, 0x061A
    2c18:	94 83       	std	Z+4, r25	; 0x04
    2c1a:	83 83       	std	Z+3, r24	; 0x03
    2c1c:	0e 94 b3 2f 	call	0x5f66	; 0x5f66 <printf>
    2c20:	0a e9       	ldi	r16, 0x9A	; 154
    2c22:	17 e0       	ldi	r17, 0x07	; 7
    2c24:	0f 90       	pop	r0
    2c26:	0f 90       	pop	r0
    2c28:	0f 90       	pop	r0
    2c2a:	0f 90       	pop	r0
    2c2c:	c0 e0       	ldi	r28, 0x00	; 0
    2c2e:	d0 e0       	ldi	r29, 0x00	; 0
    2c30:	30 ea       	ldi	r19, 0xA0	; 160
    2c32:	63 2e       	mov	r6, r19
    2c34:	32 e0       	ldi	r19, 0x02	; 2
    2c36:	73 2e       	mov	r7, r19
    2c38:	47 01       	movw	r8, r14
    2c3a:	c6 01       	movw	r24, r12
    2c3c:	dc 2c       	mov	r13, r12
    2c3e:	c9 2e       	mov	r12, r25
    2c40:	c5 01       	movw	r24, r10
    2c42:	ba 2c       	mov	r11, r10
    2c44:	a9 2e       	mov	r10, r25
    2c46:	d8 01       	movw	r26, r16
    2c48:	12 96       	adiw	r26, 0x02	; 2
    2c4a:	ed 90       	ld	r14, X+
    2c4c:	fc 90       	ld	r15, X
    2c4e:	13 97       	sbiw	r26, 0x03	; 3
    2c50:	00 d0       	rcall	.+0      	; 0x2c52 <dump_stack_info+0x116>
    2c52:	00 d0       	rcall	.+0      	; 0x2c54 <dump_stack_info+0x118>
    2c54:	00 d0       	rcall	.+0      	; 0x2c56 <dump_stack_info+0x11a>
    2c56:	ed b7       	in	r30, 0x3d	; 61
    2c58:	fe b7       	in	r31, 0x3e	; 62
    2c5a:	31 96       	adiw	r30, 0x01	; 1
    2c5c:	ad b7       	in	r26, 0x3d	; 61
    2c5e:	be b7       	in	r27, 0x3e	; 62
    2c60:	12 96       	adiw	r26, 0x02	; 2
    2c62:	7c 92       	st	X, r7
    2c64:	6e 92       	st	-X, r6
    2c66:	11 97       	sbiw	r26, 0x01	; 1
    2c68:	d3 83       	std	Z+3, r29	; 0x03
    2c6a:	c2 83       	std	Z+2, r28	; 0x02
    2c6c:	f5 82       	std	Z+5, r15	; 0x05
    2c6e:	e4 82       	std	Z+4, r14	; 0x04
    2c70:	0e 94 b3 2f 	call	0x5f66	; 0x5f66 <printf>
    2c74:	0f 90       	pop	r0
    2c76:	0f 90       	pop	r0
    2c78:	ed b7       	in	r30, 0x3d	; 61
    2c7a:	fe b7       	in	r31, 0x3e	; 62
    2c7c:	31 96       	adiw	r30, 0x01	; 1
    2c7e:	ad b7       	in	r26, 0x3d	; 61
    2c80:	be b7       	in	r27, 0x3e	; 62
    2c82:	11 96       	adiw	r26, 0x01	; 1
    2c84:	8c 92       	st	X, r8
    2c86:	11 97       	sbiw	r26, 0x01	; 1
    2c88:	12 96       	adiw	r26, 0x02	; 2
    2c8a:	9c 92       	st	X, r9
    2c8c:	d7 01       	movw	r26, r14
    2c8e:	8c 91       	ld	r24, X
    2c90:	82 83       	std	Z+2, r24	; 0x02
    2c92:	13 82       	std	Z+3, r1	; 0x03
    2c94:	0e 94 b3 2f 	call	0x5f66	; 0x5f66 <printf>
    2c98:	ed b7       	in	r30, 0x3d	; 61
    2c9a:	fe b7       	in	r31, 0x3e	; 62
    2c9c:	d1 82       	std	Z+1, r13	; 0x01
    2c9e:	c2 82       	std	Z+2, r12	; 0x02
    2ca0:	d8 01       	movw	r26, r16
    2ca2:	8d 91       	ld	r24, X+
    2ca4:	9c 91       	ld	r25, X
    2ca6:	94 83       	std	Z+4, r25	; 0x04
    2ca8:	83 83       	std	Z+3, r24	; 0x03
    2caa:	0e 94 b3 2f 	call	0x5f66	; 0x5f66 <printf>
    2cae:	ed b7       	in	r30, 0x3d	; 61
    2cb0:	fe b7       	in	r31, 0x3e	; 62
    2cb2:	b1 82       	std	Z+1, r11	; 0x01
    2cb4:	a2 82       	std	Z+2, r10	; 0x02
    2cb6:	ce 01       	movw	r24, r28
    2cb8:	25 e0       	ldi	r18, 0x05	; 5
    2cba:	88 0f       	add	r24, r24
    2cbc:	99 1f       	adc	r25, r25
    2cbe:	2a 95       	dec	r18
    2cc0:	e1 f7       	brne	.-8      	; 0x2cba <dump_stack_info+0x17e>
    2cc2:	8c 0f       	add	r24, r28
    2cc4:	9d 1f       	adc	r25, r29
    2cc6:	86 56       	subi	r24, 0x66	; 102
    2cc8:	98 4f       	sbci	r25, 0xF8	; 248
    2cca:	94 83       	std	Z+4, r25	; 0x04
    2ccc:	83 83       	std	Z+3, r24	; 0x03
    2cce:	0e 94 b3 2f 	call	0x5f66	; 0x5f66 <printf>
    2cd2:	21 96       	adiw	r28, 0x01	; 1
    2cd4:	0f 5d       	subi	r16, 0xDF	; 223
    2cd6:	1f 4f       	sbci	r17, 0xFF	; 255
    2cd8:	0f 90       	pop	r0
    2cda:	0f 90       	pop	r0
    2cdc:	0f 90       	pop	r0
    2cde:	0f 90       	pop	r0
    2ce0:	c5 30       	cpi	r28, 0x05	; 5
    2ce2:	d1 05       	cpc	r29, r1
    2ce4:	09 f0       	breq	.+2      	; 0x2ce8 <dump_stack_info+0x1ac>
    2ce6:	af cf       	rjmp	.-162    	; 0x2c46 <dump_stack_info+0x10a>
    2ce8:	df 91       	pop	r29
    2cea:	cf 91       	pop	r28
    2cec:	1f 91       	pop	r17
    2cee:	0f 91       	pop	r16
    2cf0:	ff 90       	pop	r15
    2cf2:	ef 90       	pop	r14
    2cf4:	df 90       	pop	r13
    2cf6:	cf 90       	pop	r12
    2cf8:	bf 90       	pop	r11
    2cfa:	af 90       	pop	r10
    2cfc:	9f 90       	pop	r9
    2cfe:	8f 90       	pop	r8
    2d00:	7f 90       	pop	r7
    2d02:	6f 90       	pop	r6
    2d04:	08 95       	ret

00002d06 <nrk_stack_check>:
    2d06:	cf 93       	push	r28
    2d08:	df 93       	push	r29
    2d0a:	e0 91 19 06 	lds	r30, 0x0619
    2d0e:	f0 91 1a 06 	lds	r31, 0x061A
    2d12:	c2 81       	ldd	r28, Z+2	; 0x02
    2d14:	d3 81       	ldd	r29, Z+3	; 0x03
    2d16:	88 81       	ld	r24, Y
    2d18:	85 35       	cpi	r24, 0x55	; 85
    2d1a:	39 f0       	breq	.+14     	; 0x2d2a <nrk_stack_check+0x24>
    2d1c:	0e 94 9e 15 	call	0x2b3c	; 0x2b3c <dump_stack_info>
    2d20:	81 e0       	ldi	r24, 0x01	; 1
    2d22:	0e 94 92 15 	call	0x2b24	; 0x2b24 <nrk_error_add>
    2d26:	85 e5       	ldi	r24, 0x55	; 85
    2d28:	88 83       	st	Y, r24
    2d2a:	e0 91 19 06 	lds	r30, 0x0619
    2d2e:	f0 91 1a 06 	lds	r31, 0x061A
    2d32:	80 81       	ld	r24, Z
    2d34:	91 81       	ldd	r25, Z+1	; 0x01
    2d36:	22 e4       	ldi	r18, 0x42	; 66
    2d38:	80 30       	cpi	r24, 0x00	; 0
    2d3a:	92 07       	cpc	r25, r18
    2d3c:	28 f0       	brcs	.+10     	; 0x2d48 <nrk_stack_check+0x42>
    2d3e:	0e 94 9e 15 	call	0x2b3c	; 0x2b3c <dump_stack_info>
    2d42:	82 e1       	ldi	r24, 0x12	; 18
    2d44:	0e 94 92 15 	call	0x2b24	; 0x2b24 <nrk_error_add>
    2d48:	df 91       	pop	r29
    2d4a:	cf 91       	pop	r28
    2d4c:	08 95       	ret

00002d4e <nrk_stack_check_pid>:
    2d4e:	99 27       	eor	r25, r25
    2d50:	87 fd       	sbrc	r24, 7
    2d52:	90 95       	com	r25
    2d54:	fc 01       	movw	r30, r24
    2d56:	75 e0       	ldi	r23, 0x05	; 5
    2d58:	ee 0f       	add	r30, r30
    2d5a:	ff 1f       	adc	r31, r31
    2d5c:	7a 95       	dec	r23
    2d5e:	e1 f7       	brne	.-8      	; 0x2d58 <nrk_stack_check_pid+0xa>
    2d60:	e8 0f       	add	r30, r24
    2d62:	f9 1f       	adc	r31, r25
    2d64:	e6 56       	subi	r30, 0x66	; 102
    2d66:	f8 4f       	sbci	r31, 0xF8	; 248
    2d68:	a2 81       	ldd	r26, Z+2	; 0x02
    2d6a:	b3 81       	ldd	r27, Z+3	; 0x03
    2d6c:	8c 91       	ld	r24, X
    2d6e:	85 35       	cpi	r24, 0x55	; 85
    2d70:	19 f0       	breq	.+6      	; 0x2d78 <nrk_stack_check_pid+0x2a>
    2d72:	85 e5       	ldi	r24, 0x55	; 85
    2d74:	8c 93       	st	X, r24
    2d76:	09 c0       	rjmp	.+18     	; 0x2d8a <nrk_stack_check_pid+0x3c>
    2d78:	80 81       	ld	r24, Z
    2d7a:	91 81       	ldd	r25, Z+1	; 0x01
    2d7c:	22 e4       	ldi	r18, 0x42	; 66
    2d7e:	80 30       	cpi	r24, 0x00	; 0
    2d80:	92 07       	cpc	r25, r18
    2d82:	28 f0       	brcs	.+10     	; 0x2d8e <nrk_stack_check_pid+0x40>
    2d84:	82 e1       	ldi	r24, 0x12	; 18
    2d86:	0e 94 92 15 	call	0x2b24	; 0x2b24 <nrk_error_add>
    2d8a:	8f ef       	ldi	r24, 0xFF	; 255
    2d8c:	08 95       	ret
    2d8e:	81 e0       	ldi	r24, 0x01	; 1
    2d90:	08 95       	ret

00002d92 <nrk_signal_create>:
    2d92:	60 91 9f 05 	lds	r22, 0x059F
    2d96:	70 91 a0 05 	lds	r23, 0x05A0
    2d9a:	80 91 a1 05 	lds	r24, 0x05A1
    2d9e:	90 91 a2 05 	lds	r25, 0x05A2
    2da2:	e0 e0       	ldi	r30, 0x00	; 0
    2da4:	f0 e0       	ldi	r31, 0x00	; 0
    2da6:	9b 01       	movw	r18, r22
    2da8:	ac 01       	movw	r20, r24
    2daa:	0e 2e       	mov	r0, r30
    2dac:	04 c0       	rjmp	.+8      	; 0x2db6 <nrk_signal_create+0x24>
    2dae:	56 95       	lsr	r21
    2db0:	47 95       	ror	r20
    2db2:	37 95       	ror	r19
    2db4:	27 95       	ror	r18
    2db6:	0a 94       	dec	r0
    2db8:	d2 f7       	brpl	.-12     	; 0x2dae <nrk_signal_create+0x1c>
    2dba:	20 fd       	sbrc	r18, 0
    2dbc:	1a c0       	rjmp	.+52     	; 0x2df2 <nrk_signal_create+0x60>
    2dbe:	21 e0       	ldi	r18, 0x01	; 1
    2dc0:	30 e0       	ldi	r19, 0x00	; 0
    2dc2:	40 e0       	ldi	r20, 0x00	; 0
    2dc4:	50 e0       	ldi	r21, 0x00	; 0
    2dc6:	0e 2e       	mov	r0, r30
    2dc8:	04 c0       	rjmp	.+8      	; 0x2dd2 <nrk_signal_create+0x40>
    2dca:	22 0f       	add	r18, r18
    2dcc:	33 1f       	adc	r19, r19
    2dce:	44 1f       	adc	r20, r20
    2dd0:	55 1f       	adc	r21, r21
    2dd2:	0a 94       	dec	r0
    2dd4:	d2 f7       	brpl	.-12     	; 0x2dca <nrk_signal_create+0x38>
    2dd6:	26 2b       	or	r18, r22
    2dd8:	37 2b       	or	r19, r23
    2dda:	48 2b       	or	r20, r24
    2ddc:	59 2b       	or	r21, r25
    2dde:	20 93 9f 05 	sts	0x059F, r18
    2de2:	30 93 a0 05 	sts	0x05A0, r19
    2de6:	40 93 a1 05 	sts	0x05A1, r20
    2dea:	50 93 a2 05 	sts	0x05A2, r21
    2dee:	8e 2f       	mov	r24, r30
    2df0:	08 95       	ret
    2df2:	31 96       	adiw	r30, 0x01	; 1
    2df4:	e0 32       	cpi	r30, 0x20	; 32
    2df6:	f1 05       	cpc	r31, r1
    2df8:	b1 f6       	brne	.-84     	; 0x2da6 <nrk_signal_create+0x14>
    2dfa:	8f ef       	ldi	r24, 0xFF	; 255
    2dfc:	08 95       	ret

00002dfe <nrk_signal_get_registered_mask>:
    2dfe:	e0 91 19 06 	lds	r30, 0x0619
    2e02:	f0 91 1a 06 	lds	r31, 0x061A
    2e06:	65 85       	ldd	r22, Z+13	; 0x0d
    2e08:	76 85       	ldd	r23, Z+14	; 0x0e
    2e0a:	87 85       	ldd	r24, Z+15	; 0x0f
    2e0c:	90 89       	ldd	r25, Z+16	; 0x10
    2e0e:	08 95       	ret

00002e10 <nrk_signal_delete>:
    2e10:	df 92       	push	r13
    2e12:	ef 92       	push	r14
    2e14:	ff 92       	push	r15
    2e16:	0f 93       	push	r16
    2e18:	1f 93       	push	r17
    2e1a:	d8 2e       	mov	r13, r24
    2e1c:	81 e0       	ldi	r24, 0x01	; 1
    2e1e:	e8 2e       	mov	r14, r24
    2e20:	f1 2c       	mov	r15, r1
    2e22:	01 2d       	mov	r16, r1
    2e24:	11 2d       	mov	r17, r1
    2e26:	0d 2c       	mov	r0, r13
    2e28:	04 c0       	rjmp	.+8      	; 0x2e32 <nrk_signal_delete+0x22>
    2e2a:	ee 0c       	add	r14, r14
    2e2c:	ff 1c       	adc	r15, r15
    2e2e:	00 1f       	adc	r16, r16
    2e30:	11 1f       	adc	r17, r17
    2e32:	0a 94       	dec	r0
    2e34:	d2 f7       	brpl	.-12     	; 0x2e2a <nrk_signal_delete+0x1a>
    2e36:	80 91 9f 05 	lds	r24, 0x059F
    2e3a:	90 91 a0 05 	lds	r25, 0x05A0
    2e3e:	a0 91 a1 05 	lds	r26, 0x05A1
    2e42:	b0 91 a2 05 	lds	r27, 0x05A2
    2e46:	8e 21       	and	r24, r14
    2e48:	9f 21       	and	r25, r15
    2e4a:	a0 23       	and	r26, r16
    2e4c:	b1 23       	and	r27, r17
    2e4e:	00 97       	sbiw	r24, 0x00	; 0
    2e50:	a1 05       	cpc	r26, r1
    2e52:	b1 05       	cpc	r27, r1
    2e54:	09 f4       	brne	.+2      	; 0x2e58 <nrk_signal_delete+0x48>
    2e56:	5d c0       	rjmp	.+186    	; 0x2f12 <nrk_signal_delete+0x102>
    2e58:	0e 94 77 11 	call	0x22ee	; 0x22ee <nrk_int_disable>
    2e5c:	e1 ea       	ldi	r30, 0xA1	; 161
    2e5e:	f7 e0       	ldi	r31, 0x07	; 7
    2e60:	a8 01       	movw	r20, r16
    2e62:	97 01       	movw	r18, r14
    2e64:	20 95       	com	r18
    2e66:	30 95       	com	r19
    2e68:	40 95       	com	r20
    2e6a:	50 95       	com	r21
    2e6c:	63 e0       	ldi	r22, 0x03	; 3
    2e6e:	81 81       	ldd	r24, Z+1	; 0x01
    2e70:	8f 3f       	cpi	r24, 0xFF	; 255
    2e72:	39 f1       	breq	.+78     	; 0x2ec2 <nrk_signal_delete+0xb2>
    2e74:	86 81       	ldd	r24, Z+6	; 0x06
    2e76:	97 81       	ldd	r25, Z+7	; 0x07
    2e78:	a0 85       	ldd	r26, Z+8	; 0x08
    2e7a:	b1 85       	ldd	r27, Z+9	; 0x09
    2e7c:	8e 15       	cp	r24, r14
    2e7e:	9f 05       	cpc	r25, r15
    2e80:	a0 07       	cpc	r26, r16
    2e82:	b1 07       	cpc	r27, r17
    2e84:	31 f4       	brne	.+12     	; 0x2e92 <nrk_signal_delete+0x82>
    2e86:	12 86       	std	Z+10, r1	; 0x0a
    2e88:	13 86       	std	Z+11, r1	; 0x0b
    2e8a:	14 86       	std	Z+12, r1	; 0x0c
    2e8c:	15 86       	std	Z+13, r1	; 0x0d
    2e8e:	10 82       	st	Z, r1
    2e90:	62 83       	std	Z+2, r22	; 0x02
    2e92:	86 81       	ldd	r24, Z+6	; 0x06
    2e94:	97 81       	ldd	r25, Z+7	; 0x07
    2e96:	a0 85       	ldd	r26, Z+8	; 0x08
    2e98:	b1 85       	ldd	r27, Z+9	; 0x09
    2e9a:	82 23       	and	r24, r18
    2e9c:	93 23       	and	r25, r19
    2e9e:	a4 23       	and	r26, r20
    2ea0:	b5 23       	and	r27, r21
    2ea2:	86 83       	std	Z+6, r24	; 0x06
    2ea4:	97 83       	std	Z+7, r25	; 0x07
    2ea6:	a0 87       	std	Z+8, r26	; 0x08
    2ea8:	b1 87       	std	Z+9, r27	; 0x09
    2eaa:	82 85       	ldd	r24, Z+10	; 0x0a
    2eac:	93 85       	ldd	r25, Z+11	; 0x0b
    2eae:	a4 85       	ldd	r26, Z+12	; 0x0c
    2eb0:	b5 85       	ldd	r27, Z+13	; 0x0d
    2eb2:	82 23       	and	r24, r18
    2eb4:	93 23       	and	r25, r19
    2eb6:	a4 23       	and	r26, r20
    2eb8:	b5 23       	and	r27, r21
    2eba:	82 87       	std	Z+10, r24	; 0x0a
    2ebc:	93 87       	std	Z+11, r25	; 0x0b
    2ebe:	a4 87       	std	Z+12, r26	; 0x0c
    2ec0:	b5 87       	std	Z+13, r27	; 0x0d
    2ec2:	b1 96       	adiw	r30, 0x21	; 33
    2ec4:	88 e0       	ldi	r24, 0x08	; 8
    2ec6:	e6 34       	cpi	r30, 0x46	; 70
    2ec8:	f8 07       	cpc	r31, r24
    2eca:	89 f6       	brne	.-94     	; 0x2e6e <nrk_signal_delete+0x5e>
    2ecc:	2e ef       	ldi	r18, 0xFE	; 254
    2ece:	3f ef       	ldi	r19, 0xFF	; 255
    2ed0:	4f ef       	ldi	r20, 0xFF	; 255
    2ed2:	5f ef       	ldi	r21, 0xFF	; 255
    2ed4:	04 c0       	rjmp	.+8      	; 0x2ede <nrk_signal_delete+0xce>
    2ed6:	22 0f       	add	r18, r18
    2ed8:	33 1f       	adc	r19, r19
    2eda:	44 1f       	adc	r20, r20
    2edc:	55 1f       	adc	r21, r21
    2ede:	da 94       	dec	r13
    2ee0:	d2 f7       	brpl	.-12     	; 0x2ed6 <nrk_signal_delete+0xc6>
    2ee2:	80 91 9f 05 	lds	r24, 0x059F
    2ee6:	90 91 a0 05 	lds	r25, 0x05A0
    2eea:	a0 91 a1 05 	lds	r26, 0x05A1
    2eee:	b0 91 a2 05 	lds	r27, 0x05A2
    2ef2:	82 23       	and	r24, r18
    2ef4:	93 23       	and	r25, r19
    2ef6:	a4 23       	and	r26, r20
    2ef8:	b5 23       	and	r27, r21
    2efa:	80 93 9f 05 	sts	0x059F, r24
    2efe:	90 93 a0 05 	sts	0x05A0, r25
    2f02:	a0 93 a1 05 	sts	0x05A1, r26
    2f06:	b0 93 a2 05 	sts	0x05A2, r27
    2f0a:	0e 94 79 11 	call	0x22f2	; 0x22f2 <nrk_int_enable>
    2f0e:	81 e0       	ldi	r24, 0x01	; 1
    2f10:	01 c0       	rjmp	.+2      	; 0x2f14 <nrk_signal_delete+0x104>
    2f12:	8f ef       	ldi	r24, 0xFF	; 255
    2f14:	1f 91       	pop	r17
    2f16:	0f 91       	pop	r16
    2f18:	ff 90       	pop	r15
    2f1a:	ef 90       	pop	r14
    2f1c:	df 90       	pop	r13
    2f1e:	08 95       	ret

00002f20 <nrk_signal_unregister>:
    2f20:	ef 92       	push	r14
    2f22:	ff 92       	push	r15
    2f24:	0f 93       	push	r16
    2f26:	1f 93       	push	r17
    2f28:	21 e0       	ldi	r18, 0x01	; 1
    2f2a:	30 e0       	ldi	r19, 0x00	; 0
    2f2c:	40 e0       	ldi	r20, 0x00	; 0
    2f2e:	50 e0       	ldi	r21, 0x00	; 0
    2f30:	04 c0       	rjmp	.+8      	; 0x2f3a <nrk_signal_unregister+0x1a>
    2f32:	22 0f       	add	r18, r18
    2f34:	33 1f       	adc	r19, r19
    2f36:	44 1f       	adc	r20, r20
    2f38:	55 1f       	adc	r21, r21
    2f3a:	8a 95       	dec	r24
    2f3c:	d2 f7       	brpl	.-12     	; 0x2f32 <nrk_signal_unregister+0x12>
    2f3e:	e0 91 19 06 	lds	r30, 0x0619
    2f42:	f0 91 1a 06 	lds	r31, 0x061A
    2f46:	85 85       	ldd	r24, Z+13	; 0x0d
    2f48:	96 85       	ldd	r25, Z+14	; 0x0e
    2f4a:	a7 85       	ldd	r26, Z+15	; 0x0f
    2f4c:	b0 89       	ldd	r27, Z+16	; 0x10
    2f4e:	79 01       	movw	r14, r18
    2f50:	8a 01       	movw	r16, r20
    2f52:	e8 22       	and	r14, r24
    2f54:	f9 22       	and	r15, r25
    2f56:	0a 23       	and	r16, r26
    2f58:	1b 23       	and	r17, r27
    2f5a:	e1 14       	cp	r14, r1
    2f5c:	f1 04       	cpc	r15, r1
    2f5e:	01 05       	cpc	r16, r1
    2f60:	11 05       	cpc	r17, r1
    2f62:	d1 f0       	breq	.+52     	; 0x2f98 <nrk_signal_unregister+0x78>
    2f64:	20 95       	com	r18
    2f66:	30 95       	com	r19
    2f68:	40 95       	com	r20
    2f6a:	50 95       	com	r21
    2f6c:	82 23       	and	r24, r18
    2f6e:	93 23       	and	r25, r19
    2f70:	a4 23       	and	r26, r20
    2f72:	b5 23       	and	r27, r21
    2f74:	85 87       	std	Z+13, r24	; 0x0d
    2f76:	96 87       	std	Z+14, r25	; 0x0e
    2f78:	a7 87       	std	Z+15, r26	; 0x0f
    2f7a:	b0 8b       	std	Z+16, r27	; 0x10
    2f7c:	81 89       	ldd	r24, Z+17	; 0x11
    2f7e:	92 89       	ldd	r25, Z+18	; 0x12
    2f80:	a3 89       	ldd	r26, Z+19	; 0x13
    2f82:	b4 89       	ldd	r27, Z+20	; 0x14
    2f84:	82 23       	and	r24, r18
    2f86:	93 23       	and	r25, r19
    2f88:	a4 23       	and	r26, r20
    2f8a:	b5 23       	and	r27, r21
    2f8c:	81 8b       	std	Z+17, r24	; 0x11
    2f8e:	92 8b       	std	Z+18, r25	; 0x12
    2f90:	a3 8b       	std	Z+19, r26	; 0x13
    2f92:	b4 8b       	std	Z+20, r27	; 0x14
    2f94:	81 e0       	ldi	r24, 0x01	; 1
    2f96:	01 c0       	rjmp	.+2      	; 0x2f9a <nrk_signal_unregister+0x7a>
    2f98:	8f ef       	ldi	r24, 0xFF	; 255
    2f9a:	1f 91       	pop	r17
    2f9c:	0f 91       	pop	r16
    2f9e:	ff 90       	pop	r15
    2fa0:	ef 90       	pop	r14
    2fa2:	08 95       	ret

00002fa4 <nrk_signal_register>:
    2fa4:	20 91 9f 05 	lds	r18, 0x059F
    2fa8:	30 91 a0 05 	lds	r19, 0x05A0
    2fac:	40 91 a1 05 	lds	r20, 0x05A1
    2fb0:	50 91 a2 05 	lds	r21, 0x05A2
    2fb4:	08 2e       	mov	r0, r24
    2fb6:	04 c0       	rjmp	.+8      	; 0x2fc0 <nrk_signal_register+0x1c>
    2fb8:	56 95       	lsr	r21
    2fba:	47 95       	ror	r20
    2fbc:	37 95       	ror	r19
    2fbe:	27 95       	ror	r18
    2fc0:	0a 94       	dec	r0
    2fc2:	d2 f7       	brpl	.-12     	; 0x2fb8 <nrk_signal_register+0x14>
    2fc4:	21 70       	andi	r18, 0x01	; 1
    2fc6:	30 70       	andi	r19, 0x00	; 0
    2fc8:	21 15       	cp	r18, r1
    2fca:	31 05       	cpc	r19, r1
    2fcc:	e9 f0       	breq	.+58     	; 0x3008 <nrk_signal_register+0x64>
    2fce:	e0 91 19 06 	lds	r30, 0x0619
    2fd2:	f0 91 1a 06 	lds	r31, 0x061A
    2fd6:	21 e0       	ldi	r18, 0x01	; 1
    2fd8:	30 e0       	ldi	r19, 0x00	; 0
    2fda:	40 e0       	ldi	r20, 0x00	; 0
    2fdc:	50 e0       	ldi	r21, 0x00	; 0
    2fde:	04 c0       	rjmp	.+8      	; 0x2fe8 <nrk_signal_register+0x44>
    2fe0:	22 0f       	add	r18, r18
    2fe2:	33 1f       	adc	r19, r19
    2fe4:	44 1f       	adc	r20, r20
    2fe6:	55 1f       	adc	r21, r21
    2fe8:	8a 95       	dec	r24
    2fea:	d2 f7       	brpl	.-12     	; 0x2fe0 <nrk_signal_register+0x3c>
    2fec:	85 85       	ldd	r24, Z+13	; 0x0d
    2fee:	96 85       	ldd	r25, Z+14	; 0x0e
    2ff0:	a7 85       	ldd	r26, Z+15	; 0x0f
    2ff2:	b0 89       	ldd	r27, Z+16	; 0x10
    2ff4:	82 2b       	or	r24, r18
    2ff6:	93 2b       	or	r25, r19
    2ff8:	a4 2b       	or	r26, r20
    2ffa:	b5 2b       	or	r27, r21
    2ffc:	85 87       	std	Z+13, r24	; 0x0d
    2ffe:	96 87       	std	Z+14, r25	; 0x0e
    3000:	a7 87       	std	Z+15, r26	; 0x0f
    3002:	b0 8b       	std	Z+16, r27	; 0x10
    3004:	81 e0       	ldi	r24, 0x01	; 1
    3006:	08 95       	ret
    3008:	8f ef       	ldi	r24, 0xFF	; 255
    300a:	08 95       	ret

0000300c <nrk_event_signal>:
    300c:	ef 92       	push	r14
    300e:	ff 92       	push	r15
    3010:	0f 93       	push	r16
    3012:	1f 93       	push	r17
    3014:	df 93       	push	r29
    3016:	cf 93       	push	r28
    3018:	0f 92       	push	r0
    301a:	cd b7       	in	r28, 0x3d	; 61
    301c:	de b7       	in	r29, 0x3e	; 62
    301e:	91 e0       	ldi	r25, 0x01	; 1
    3020:	e9 2e       	mov	r14, r25
    3022:	f1 2c       	mov	r15, r1
    3024:	01 2d       	mov	r16, r1
    3026:	11 2d       	mov	r17, r1
    3028:	04 c0       	rjmp	.+8      	; 0x3032 <nrk_event_signal+0x26>
    302a:	ee 0c       	add	r14, r14
    302c:	ff 1c       	adc	r15, r15
    302e:	00 1f       	adc	r16, r16
    3030:	11 1f       	adc	r17, r17
    3032:	8a 95       	dec	r24
    3034:	d2 f7       	brpl	.-12     	; 0x302a <nrk_event_signal+0x1e>
    3036:	80 91 9f 05 	lds	r24, 0x059F
    303a:	90 91 a0 05 	lds	r25, 0x05A0
    303e:	a0 91 a1 05 	lds	r26, 0x05A1
    3042:	b0 91 a2 05 	lds	r27, 0x05A2
    3046:	8e 21       	and	r24, r14
    3048:	9f 21       	and	r25, r15
    304a:	a0 23       	and	r26, r16
    304c:	b1 23       	and	r27, r17
    304e:	00 97       	sbiw	r24, 0x00	; 0
    3050:	a1 05       	cpc	r26, r1
    3052:	b1 05       	cpc	r27, r1
    3054:	11 f4       	brne	.+4      	; 0x305a <nrk_event_signal+0x4e>
    3056:	81 e0       	ldi	r24, 0x01	; 1
    3058:	3f c0       	rjmp	.+126    	; 0x30d8 <nrk_event_signal+0xcc>
    305a:	0e 94 77 11 	call	0x22ee	; 0x22ee <nrk_int_disable>
    305e:	e1 ea       	ldi	r30, 0xA1	; 161
    3060:	f7 e0       	ldi	r31, 0x07	; 7
    3062:	20 e0       	ldi	r18, 0x00	; 0
    3064:	33 e0       	ldi	r19, 0x03	; 3
    3066:	80 81       	ld	r24, Z
    3068:	81 30       	cpi	r24, 0x01	; 1
    306a:	a9 f4       	brne	.+42     	; 0x3096 <nrk_event_signal+0x8a>
    306c:	82 85       	ldd	r24, Z+10	; 0x0a
    306e:	93 85       	ldd	r25, Z+11	; 0x0b
    3070:	a4 85       	ldd	r26, Z+12	; 0x0c
    3072:	b5 85       	ldd	r27, Z+13	; 0x0d
    3074:	8e 21       	and	r24, r14
    3076:	9f 21       	and	r25, r15
    3078:	a0 23       	and	r26, r16
    307a:	b1 23       	and	r27, r17
    307c:	00 97       	sbiw	r24, 0x00	; 0
    307e:	a1 05       	cpc	r26, r1
    3080:	b1 05       	cpc	r27, r1
    3082:	49 f0       	breq	.+18     	; 0x3096 <nrk_event_signal+0x8a>
    3084:	32 83       	std	Z+2, r19	; 0x02
    3086:	17 86       	std	Z+15, r1	; 0x0f
    3088:	16 86       	std	Z+14, r1	; 0x0e
    308a:	10 82       	st	Z, r1
    308c:	e2 86       	std	Z+10, r14	; 0x0a
    308e:	f3 86       	std	Z+11, r15	; 0x0b
    3090:	04 87       	std	Z+12, r16	; 0x0c
    3092:	15 87       	std	Z+13, r17	; 0x0d
    3094:	21 e0       	ldi	r18, 0x01	; 1
    3096:	80 81       	ld	r24, Z
    3098:	82 30       	cpi	r24, 0x02	; 2
    309a:	91 f4       	brne	.+36     	; 0x30c0 <nrk_event_signal+0xb4>
    309c:	82 85       	ldd	r24, Z+10	; 0x0a
    309e:	93 85       	ldd	r25, Z+11	; 0x0b
    30a0:	a4 85       	ldd	r26, Z+12	; 0x0c
    30a2:	b5 85       	ldd	r27, Z+13	; 0x0d
    30a4:	8e 15       	cp	r24, r14
    30a6:	9f 05       	cpc	r25, r15
    30a8:	a0 07       	cpc	r26, r16
    30aa:	b1 07       	cpc	r27, r17
    30ac:	49 f4       	brne	.+18     	; 0x30c0 <nrk_event_signal+0xb4>
    30ae:	32 83       	std	Z+2, r19	; 0x02
    30b0:	17 86       	std	Z+15, r1	; 0x0f
    30b2:	16 86       	std	Z+14, r1	; 0x0e
    30b4:	10 82       	st	Z, r1
    30b6:	12 86       	std	Z+10, r1	; 0x0a
    30b8:	13 86       	std	Z+11, r1	; 0x0b
    30ba:	14 86       	std	Z+12, r1	; 0x0c
    30bc:	15 86       	std	Z+13, r1	; 0x0d
    30be:	21 e0       	ldi	r18, 0x01	; 1
    30c0:	b1 96       	adiw	r30, 0x21	; 33
    30c2:	88 e0       	ldi	r24, 0x08	; 8
    30c4:	e6 34       	cpi	r30, 0x46	; 70
    30c6:	f8 07       	cpc	r31, r24
    30c8:	71 f6       	brne	.-100    	; 0x3066 <nrk_event_signal+0x5a>
    30ca:	29 83       	std	Y+1, r18	; 0x01
    30cc:	0e 94 79 11 	call	0x22f2	; 0x22f2 <nrk_int_enable>
    30d0:	29 81       	ldd	r18, Y+1	; 0x01
    30d2:	22 23       	and	r18, r18
    30d4:	29 f4       	brne	.+10     	; 0x30e0 <nrk_event_signal+0xd4>
    30d6:	82 e0       	ldi	r24, 0x02	; 2
    30d8:	0e 94 74 13 	call	0x26e8	; 0x26e8 <_nrk_errno_set>
    30dc:	8f ef       	ldi	r24, 0xFF	; 255
    30de:	01 c0       	rjmp	.+2      	; 0x30e2 <nrk_event_signal+0xd6>
    30e0:	81 e0       	ldi	r24, 0x01	; 1
    30e2:	0f 90       	pop	r0
    30e4:	cf 91       	pop	r28
    30e6:	df 91       	pop	r29
    30e8:	1f 91       	pop	r17
    30ea:	0f 91       	pop	r16
    30ec:	ff 90       	pop	r15
    30ee:	ef 90       	pop	r14
    30f0:	08 95       	ret

000030f2 <nrk_event_wait>:
    30f2:	e0 91 19 06 	lds	r30, 0x0619
    30f6:	f0 91 1a 06 	lds	r31, 0x061A
    30fa:	25 85       	ldd	r18, Z+13	; 0x0d
    30fc:	36 85       	ldd	r19, Z+14	; 0x0e
    30fe:	47 85       	ldd	r20, Z+15	; 0x0f
    3100:	50 89       	ldd	r21, Z+16	; 0x10
    3102:	26 23       	and	r18, r22
    3104:	37 23       	and	r19, r23
    3106:	48 23       	and	r20, r24
    3108:	59 23       	and	r21, r25
    310a:	21 15       	cp	r18, r1
    310c:	31 05       	cpc	r19, r1
    310e:	41 05       	cpc	r20, r1
    3110:	51 05       	cpc	r21, r1
    3112:	21 f1       	breq	.+72     	; 0x315c <nrk_event_wait+0x6a>
    3114:	61 8b       	std	Z+17, r22	; 0x11
    3116:	72 8b       	std	Z+18, r23	; 0x12
    3118:	83 8b       	std	Z+19, r24	; 0x13
    311a:	94 8b       	std	Z+20, r25	; 0x14
    311c:	21 e0       	ldi	r18, 0x01	; 1
    311e:	27 83       	std	Z+7, r18	; 0x07
    3120:	00 90 09 05 	lds	r0, 0x0509
    3124:	04 c0       	rjmp	.+8      	; 0x312e <nrk_event_wait+0x3c>
    3126:	96 95       	lsr	r25
    3128:	87 95       	ror	r24
    312a:	77 95       	ror	r23
    312c:	67 95       	ror	r22
    312e:	0a 94       	dec	r0
    3130:	d2 f7       	brpl	.-12     	; 0x3126 <nrk_event_wait+0x34>
    3132:	61 70       	andi	r22, 0x01	; 1
    3134:	70 70       	andi	r23, 0x00	; 0
    3136:	61 15       	cp	r22, r1
    3138:	71 05       	cpc	r23, r1
    313a:	19 f0       	breq	.+6      	; 0x3142 <nrk_event_wait+0x50>
    313c:	0e 94 b1 1b 	call	0x3762	; 0x3762 <nrk_wait_until_nw>
    3140:	04 c0       	rjmp	.+8      	; 0x314a <nrk_event_wait+0x58>
    3142:	80 e0       	ldi	r24, 0x00	; 0
    3144:	90 e0       	ldi	r25, 0x00	; 0
    3146:	0e 94 d8 1b 	call	0x37b0	; 0x37b0 <nrk_wait_until_ticks>
    314a:	e0 91 19 06 	lds	r30, 0x0619
    314e:	f0 91 1a 06 	lds	r31, 0x061A
    3152:	21 89       	ldd	r18, Z+17	; 0x11
    3154:	32 89       	ldd	r19, Z+18	; 0x12
    3156:	43 89       	ldd	r20, Z+19	; 0x13
    3158:	54 89       	ldd	r21, Z+20	; 0x14
    315a:	03 c0       	rjmp	.+6      	; 0x3162 <nrk_event_wait+0x70>
    315c:	20 e0       	ldi	r18, 0x00	; 0
    315e:	30 e0       	ldi	r19, 0x00	; 0
    3160:	a9 01       	movw	r20, r18
    3162:	b9 01       	movw	r22, r18
    3164:	ca 01       	movw	r24, r20
    3166:	08 95       	ret

00003168 <nrk_sem_create>:
    3168:	80 e0       	ldi	r24, 0x00	; 0
    316a:	90 e0       	ldi	r25, 0x00	; 0
    316c:	08 95       	ret

0000316e <nrk_get_resource_index>:
    316e:	25 e0       	ldi	r18, 0x05	; 5
    3170:	82 30       	cpi	r24, 0x02	; 2
    3172:	92 07       	cpc	r25, r18
    3174:	11 f4       	brne	.+4      	; 0x317a <nrk_get_resource_index+0xc>
    3176:	80 e0       	ldi	r24, 0x00	; 0
    3178:	08 95       	ret
    317a:	8f ef       	ldi	r24, 0xFF	; 255
    317c:	08 95       	ret

0000317e <nrk_sem_delete>:
    317e:	0e 94 b7 18 	call	0x316e	; 0x316e <nrk_get_resource_index>
    3182:	8f 3f       	cpi	r24, 0xFF	; 255
    3184:	11 f4       	brne	.+4      	; 0x318a <nrk_sem_delete+0xc>
    3186:	81 e0       	ldi	r24, 0x01	; 1
    3188:	03 c0       	rjmp	.+6      	; 0x3190 <nrk_sem_delete+0x12>
    318a:	81 30       	cpi	r24, 0x01	; 1
    318c:	29 f4       	brne	.+10     	; 0x3198 <nrk_sem_delete+0x1a>
    318e:	82 e0       	ldi	r24, 0x02	; 2
    3190:	0e 94 74 13 	call	0x26e8	; 0x26e8 <_nrk_errno_set>
    3194:	8f ef       	ldi	r24, 0xFF	; 255
    3196:	08 95       	ret
    3198:	99 27       	eor	r25, r25
    319a:	87 fd       	sbrc	r24, 7
    319c:	90 95       	com	r25
    319e:	fc 01       	movw	r30, r24
    31a0:	ee 0f       	add	r30, r30
    31a2:	ff 1f       	adc	r31, r31
    31a4:	e8 0f       	add	r30, r24
    31a6:	f9 1f       	adc	r31, r25
    31a8:	ee 5f       	subi	r30, 0xFE	; 254
    31aa:	fa 4f       	sbci	r31, 0xFA	; 250
    31ac:	8f ef       	ldi	r24, 0xFF	; 255
    31ae:	80 83       	st	Z, r24
    31b0:	82 83       	std	Z+2, r24	; 0x02
    31b2:	81 83       	std	Z+1, r24	; 0x01
    31b4:	80 91 a3 05 	lds	r24, 0x05A3
    31b8:	81 50       	subi	r24, 0x01	; 1
    31ba:	80 93 a3 05 	sts	0x05A3, r24
    31be:	81 e0       	ldi	r24, 0x01	; 1
    31c0:	08 95       	ret

000031c2 <nrk_sem_post>:
    31c2:	0f 93       	push	r16
    31c4:	1f 93       	push	r17
    31c6:	df 93       	push	r29
    31c8:	cf 93       	push	r28
    31ca:	0f 92       	push	r0
    31cc:	cd b7       	in	r28, 0x3d	; 61
    31ce:	de b7       	in	r29, 0x3e	; 62
    31d0:	0e 94 b7 18 	call	0x316e	; 0x316e <nrk_get_resource_index>
    31d4:	8f 3f       	cpi	r24, 0xFF	; 255
    31d6:	11 f4       	brne	.+4      	; 0x31dc <nrk_sem_post+0x1a>
    31d8:	81 e0       	ldi	r24, 0x01	; 1
    31da:	03 c0       	rjmp	.+6      	; 0x31e2 <nrk_sem_post+0x20>
    31dc:	81 30       	cpi	r24, 0x01	; 1
    31de:	29 f4       	brne	.+10     	; 0x31ea <nrk_sem_post+0x28>
    31e0:	82 e0       	ldi	r24, 0x02	; 2
    31e2:	0e 94 74 13 	call	0x26e8	; 0x26e8 <_nrk_errno_set>
    31e6:	8f ef       	ldi	r24, 0xFF	; 255
    31e8:	43 c0       	rjmp	.+134    	; 0x3270 <nrk_sem_post+0xae>
    31ea:	28 2f       	mov	r18, r24
    31ec:	33 27       	eor	r19, r19
    31ee:	27 fd       	sbrc	r18, 7
    31f0:	30 95       	com	r19
    31f2:	89 01       	movw	r16, r18
    31f4:	00 0f       	add	r16, r16
    31f6:	11 1f       	adc	r17, r17
    31f8:	02 0f       	add	r16, r18
    31fa:	13 1f       	adc	r17, r19
    31fc:	0e 5f       	subi	r16, 0xFE	; 254
    31fe:	1a 4f       	sbci	r17, 0xFA	; 250
    3200:	d8 01       	movw	r26, r16
    3202:	12 96       	adiw	r26, 0x02	; 2
    3204:	2c 91       	ld	r18, X
    3206:	12 97       	sbiw	r26, 0x02	; 2
    3208:	9c 91       	ld	r25, X
    320a:	29 17       	cp	r18, r25
    320c:	84 f5       	brge	.+96     	; 0x326e <nrk_sem_post+0xac>
    320e:	89 83       	std	Y+1, r24	; 0x01
    3210:	0e 94 77 11 	call	0x22ee	; 0x22ee <nrk_int_disable>
    3214:	f8 01       	movw	r30, r16
    3216:	92 81       	ldd	r25, Z+2	; 0x02
    3218:	9f 5f       	subi	r25, 0xFF	; 255
    321a:	92 83       	std	Z+2, r25	; 0x02
    321c:	e0 91 19 06 	lds	r30, 0x0619
    3220:	f0 91 1a 06 	lds	r31, 0x061A
    3224:	14 82       	std	Z+4, r1	; 0x04
    3226:	e1 ea       	ldi	r30, 0xA1	; 161
    3228:	f7 e0       	ldi	r31, 0x07	; 7
    322a:	89 81       	ldd	r24, Y+1	; 0x01
    322c:	99 27       	eor	r25, r25
    322e:	87 fd       	sbrc	r24, 7
    3230:	90 95       	com	r25
    3232:	a9 2f       	mov	r26, r25
    3234:	b9 2f       	mov	r27, r25
    3236:	63 e0       	ldi	r22, 0x03	; 3
    3238:	20 81       	ld	r18, Z
    323a:	22 30       	cpi	r18, 0x02	; 2
    323c:	89 f4       	brne	.+34     	; 0x3260 <nrk_sem_post+0x9e>
    323e:	22 85       	ldd	r18, Z+10	; 0x0a
    3240:	33 85       	ldd	r19, Z+11	; 0x0b
    3242:	44 85       	ldd	r20, Z+12	; 0x0c
    3244:	55 85       	ldd	r21, Z+13	; 0x0d
    3246:	28 17       	cp	r18, r24
    3248:	39 07       	cpc	r19, r25
    324a:	4a 07       	cpc	r20, r26
    324c:	5b 07       	cpc	r21, r27
    324e:	41 f4       	brne	.+16     	; 0x3260 <nrk_sem_post+0x9e>
    3250:	62 83       	std	Z+2, r22	; 0x02
    3252:	17 86       	std	Z+15, r1	; 0x0f
    3254:	16 86       	std	Z+14, r1	; 0x0e
    3256:	10 82       	st	Z, r1
    3258:	12 86       	std	Z+10, r1	; 0x0a
    325a:	13 86       	std	Z+11, r1	; 0x0b
    325c:	14 86       	std	Z+12, r1	; 0x0c
    325e:	15 86       	std	Z+13, r1	; 0x0d
    3260:	b1 96       	adiw	r30, 0x21	; 33
    3262:	28 e0       	ldi	r18, 0x08	; 8
    3264:	e6 34       	cpi	r30, 0x46	; 70
    3266:	f2 07       	cpc	r31, r18
    3268:	39 f7       	brne	.-50     	; 0x3238 <nrk_sem_post+0x76>
    326a:	0e 94 79 11 	call	0x22f2	; 0x22f2 <nrk_int_enable>
    326e:	81 e0       	ldi	r24, 0x01	; 1
    3270:	0f 90       	pop	r0
    3272:	cf 91       	pop	r28
    3274:	df 91       	pop	r29
    3276:	1f 91       	pop	r17
    3278:	0f 91       	pop	r16
    327a:	08 95       	ret

0000327c <nrk_sem_pend>:
    327c:	0f 93       	push	r16
    327e:	1f 93       	push	r17
    3280:	df 93       	push	r29
    3282:	cf 93       	push	r28
    3284:	0f 92       	push	r0
    3286:	cd b7       	in	r28, 0x3d	; 61
    3288:	de b7       	in	r29, 0x3e	; 62
    328a:	0e 94 b7 18 	call	0x316e	; 0x316e <nrk_get_resource_index>
    328e:	8f 3f       	cpi	r24, 0xFF	; 255
    3290:	11 f4       	brne	.+4      	; 0x3296 <nrk_sem_pend+0x1a>
    3292:	81 e0       	ldi	r24, 0x01	; 1
    3294:	03 c0       	rjmp	.+6      	; 0x329c <nrk_sem_pend+0x20>
    3296:	81 30       	cpi	r24, 0x01	; 1
    3298:	29 f4       	brne	.+10     	; 0x32a4 <nrk_sem_pend+0x28>
    329a:	82 e0       	ldi	r24, 0x02	; 2
    329c:	0e 94 74 13 	call	0x26e8	; 0x26e8 <_nrk_errno_set>
    32a0:	8f ef       	ldi	r24, 0xFF	; 255
    32a2:	40 c0       	rjmp	.+128    	; 0x3324 <nrk_sem_pend+0xa8>
    32a4:	89 83       	std	Y+1, r24	; 0x01
    32a6:	0e 94 77 11 	call	0x22ee	; 0x22ee <nrk_int_disable>
    32aa:	89 81       	ldd	r24, Y+1	; 0x01
    32ac:	08 2f       	mov	r16, r24
    32ae:	11 27       	eor	r17, r17
    32b0:	07 fd       	sbrc	r16, 7
    32b2:	10 95       	com	r17
    32b4:	f8 01       	movw	r30, r16
    32b6:	ee 0f       	add	r30, r30
    32b8:	ff 1f       	adc	r31, r31
    32ba:	e0 0f       	add	r30, r16
    32bc:	f1 1f       	adc	r31, r17
    32be:	ee 5f       	subi	r30, 0xFE	; 254
    32c0:	fa 4f       	sbci	r31, 0xFA	; 250
    32c2:	92 81       	ldd	r25, Z+2	; 0x02
    32c4:	99 23       	and	r25, r25
    32c6:	b1 f4       	brne	.+44     	; 0x32f4 <nrk_sem_pend+0x78>
    32c8:	e0 91 19 06 	lds	r30, 0x0619
    32cc:	f0 91 1a 06 	lds	r31, 0x061A
    32d0:	97 81       	ldd	r25, Z+7	; 0x07
    32d2:	92 60       	ori	r25, 0x02	; 2
    32d4:	97 83       	std	Z+7, r25	; 0x07
    32d6:	99 27       	eor	r25, r25
    32d8:	87 fd       	sbrc	r24, 7
    32da:	90 95       	com	r25
    32dc:	a9 2f       	mov	r26, r25
    32de:	b9 2f       	mov	r27, r25
    32e0:	81 8b       	std	Z+17, r24	; 0x11
    32e2:	92 8b       	std	Z+18, r25	; 0x12
    32e4:	a3 8b       	std	Z+19, r26	; 0x13
    32e6:	b4 8b       	std	Z+20, r27	; 0x14
    32e8:	0e 94 79 11 	call	0x22f2	; 0x22f2 <nrk_int_enable>
    32ec:	80 e0       	ldi	r24, 0x00	; 0
    32ee:	90 e0       	ldi	r25, 0x00	; 0
    32f0:	0e 94 d8 1b 	call	0x37b0	; 0x37b0 <nrk_wait_until_ticks>
    32f4:	f8 01       	movw	r30, r16
    32f6:	ee 0f       	add	r30, r30
    32f8:	ff 1f       	adc	r31, r31
    32fa:	e0 0f       	add	r30, r16
    32fc:	f1 1f       	adc	r31, r17
    32fe:	ee 5f       	subi	r30, 0xFE	; 254
    3300:	fa 4f       	sbci	r31, 0xFA	; 250
    3302:	82 81       	ldd	r24, Z+2	; 0x02
    3304:	81 50       	subi	r24, 0x01	; 1
    3306:	82 83       	std	Z+2, r24	; 0x02
    3308:	a0 91 19 06 	lds	r26, 0x0619
    330c:	b0 91 1a 06 	lds	r27, 0x061A
    3310:	81 81       	ldd	r24, Z+1	; 0x01
    3312:	1b 96       	adiw	r26, 0x0b	; 11
    3314:	8c 93       	st	X, r24
    3316:	1b 97       	sbiw	r26, 0x0b	; 11
    3318:	81 e0       	ldi	r24, 0x01	; 1
    331a:	14 96       	adiw	r26, 0x04	; 4
    331c:	8c 93       	st	X, r24
    331e:	0e 94 79 11 	call	0x22f2	; 0x22f2 <nrk_int_enable>
    3322:	81 e0       	ldi	r24, 0x01	; 1
    3324:	0f 90       	pop	r0
    3326:	cf 91       	pop	r28
    3328:	df 91       	pop	r29
    332a:	1f 91       	pop	r17
    332c:	0f 91       	pop	r16
    332e:	08 95       	ret

00003330 <nrk_sem_query>:
    3330:	0e 94 b7 18 	call	0x316e	; 0x316e <nrk_get_resource_index>
    3334:	8f 3f       	cpi	r24, 0xFF	; 255
    3336:	11 f4       	brne	.+4      	; 0x333c <nrk_sem_query+0xc>
    3338:	81 e0       	ldi	r24, 0x01	; 1
    333a:	03 c0       	rjmp	.+6      	; 0x3342 <nrk_sem_query+0x12>
    333c:	81 30       	cpi	r24, 0x01	; 1
    333e:	29 f4       	brne	.+10     	; 0x334a <nrk_sem_query+0x1a>
    3340:	82 e0       	ldi	r24, 0x02	; 2
    3342:	0e 94 74 13 	call	0x26e8	; 0x26e8 <_nrk_errno_set>
    3346:	8f ef       	ldi	r24, 0xFF	; 255
    3348:	08 95       	ret
    334a:	99 27       	eor	r25, r25
    334c:	87 fd       	sbrc	r24, 7
    334e:	90 95       	com	r25
