
main.elf:     file format elf32-avr

Sections:
Idx Name          Size      VMA       LMA       File off  Algn
  0 .data         000001d8  00800200  00006668  000066fc  2**0
                  CONTENTS, ALLOC, LOAD, DATA
  1 .text         00006668  00000000  00000000  00000094  2**1
                  CONTENTS, ALLOC, LOAD, READONLY, CODE
  2 .bss          000002f3  008003d8  008003d8  000068d4  2**0
                  ALLOC
  3 .stab         0000ef10  00000000  00000000  000068d4  2**2
                  CONTENTS, READONLY, DEBUGGING
  4 .stabstr      00008d44  00000000  00000000  000157e4  2**0
                  CONTENTS, READONLY, DEBUGGING

Disassembly of section .text:

00000000 <__vectors>:
       0:	0c 94 70 02 	jmp	0x4e0	; 0x4e0 <__ctors_end>
       4:	0c 94 54 27 	jmp	0x4ea8	; 0x4ea8 <__vector_1>
       8:	0c 94 8f 02 	jmp	0x51e	; 0x51e <__bad_interrupt>
       c:	0c 94 8f 02 	jmp	0x51e	; 0x51e <__bad_interrupt>
      10:	0c 94 8f 02 	jmp	0x51e	; 0x51e <__bad_interrupt>
      14:	0c 94 8f 02 	jmp	0x51e	; 0x51e <__bad_interrupt>
      18:	0c 94 8f 02 	jmp	0x51e	; 0x51e <__bad_interrupt>
      1c:	0c 94 8f 02 	jmp	0x51e	; 0x51e <__bad_interrupt>
      20:	0c 94 8f 02 	jmp	0x51e	; 0x51e <__bad_interrupt>
      24:	0c 94 22 27 	jmp	0x4e44	; 0x4e44 <__vector_9>
      28:	0c 94 8f 02 	jmp	0x51e	; 0x51e <__bad_interrupt>
      2c:	0c 94 8f 02 	jmp	0x51e	; 0x51e <__bad_interrupt>
      30:	0c 94 8f 02 	jmp	0x51e	; 0x51e <__bad_interrupt>
      34:	0c 94 80 25 	jmp	0x4b00	; 0x4b00 <__vector_13>
      38:	0c 94 8f 02 	jmp	0x51e	; 0x51e <__bad_interrupt>
      3c:	0c 94 80 25 	jmp	0x4b00	; 0x4b00 <__vector_13>
      40:	0c 94 8f 02 	jmp	0x51e	; 0x51e <__bad_interrupt>
      44:	0c 94 8f 02 	jmp	0x51e	; 0x51e <__bad_interrupt>
      48:	0c 94 8f 02 	jmp	0x51e	; 0x51e <__bad_interrupt>
      4c:	0c 94 8f 02 	jmp	0x51e	; 0x51e <__bad_interrupt>
      50:	0c 94 8f 02 	jmp	0x51e	; 0x51e <__bad_interrupt>
      54:	0c 94 8f 02 	jmp	0x51e	; 0x51e <__bad_interrupt>
      58:	0c 94 8f 02 	jmp	0x51e	; 0x51e <__bad_interrupt>
      5c:	0c 94 8f 02 	jmp	0x51e	; 0x51e <__bad_interrupt>
      60:	0c 94 8f 02 	jmp	0x51e	; 0x51e <__bad_interrupt>
      64:	0c 94 8f 02 	jmp	0x51e	; 0x51e <__bad_interrupt>
      68:	0c 94 8f 02 	jmp	0x51e	; 0x51e <__bad_interrupt>
      6c:	0c 94 8f 02 	jmp	0x51e	; 0x51e <__bad_interrupt>
      70:	0c 94 8f 02 	jmp	0x51e	; 0x51e <__bad_interrupt>
      74:	0c 94 8f 02 	jmp	0x51e	; 0x51e <__bad_interrupt>
      78:	0c 94 8f 02 	jmp	0x51e	; 0x51e <__bad_interrupt>
      7c:	0c 94 8f 02 	jmp	0x51e	; 0x51e <__bad_interrupt>
      80:	0c 94 b3 25 	jmp	0x4b66	; 0x4b66 <__vector_32>
      84:	0c 94 8f 02 	jmp	0x51e	; 0x51e <__bad_interrupt>
      88:	0c 94 8f 02 	jmp	0x51e	; 0x51e <__bad_interrupt>
      8c:	0c 94 8f 02 	jmp	0x51e	; 0x51e <__bad_interrupt>
      90:	0c 94 8f 02 	jmp	0x51e	; 0x51e <__bad_interrupt>
      94:	0c 94 8f 02 	jmp	0x51e	; 0x51e <__bad_interrupt>
      98:	0c 94 8f 02 	jmp	0x51e	; 0x51e <__bad_interrupt>
      9c:	0c 94 8f 02 	jmp	0x51e	; 0x51e <__bad_interrupt>
      a0:	0c 94 8f 02 	jmp	0x51e	; 0x51e <__bad_interrupt>
      a4:	0c 94 8f 02 	jmp	0x51e	; 0x51e <__bad_interrupt>
      a8:	0c 94 8f 02 	jmp	0x51e	; 0x51e <__bad_interrupt>
      ac:	0c 94 8f 02 	jmp	0x51e	; 0x51e <__bad_interrupt>
      b0:	0c 94 8f 02 	jmp	0x51e	; 0x51e <__bad_interrupt>
      b4:	0c 94 8f 02 	jmp	0x51e	; 0x51e <__bad_interrupt>
      b8:	0c 94 8f 02 	jmp	0x51e	; 0x51e <__bad_interrupt>
      bc:	0c 94 8f 02 	jmp	0x51e	; 0x51e <__bad_interrupt>
      c0:	0c 94 8f 02 	jmp	0x51e	; 0x51e <__bad_interrupt>
      c4:	0c 94 8f 02 	jmp	0x51e	; 0x51e <__bad_interrupt>
      c8:	0c 94 8f 02 	jmp	0x51e	; 0x51e <__bad_interrupt>
      cc:	0c 94 8f 02 	jmp	0x51e	; 0x51e <__bad_interrupt>
      d0:	0c 94 8f 02 	jmp	0x51e	; 0x51e <__bad_interrupt>
      d4:	0c 94 8f 02 	jmp	0x51e	; 0x51e <__bad_interrupt>
      d8:	0c 94 8f 02 	jmp	0x51e	; 0x51e <__bad_interrupt>
      dc:	0c 94 8f 02 	jmp	0x51e	; 0x51e <__bad_interrupt>
      e0:	0c 94 8f 02 	jmp	0x51e	; 0x51e <__bad_interrupt>
      e4:	0c 94 f8 06 	jmp	0xdf0	; 0xdf0 <__vector_57>
      e8:	0c 94 e9 06 	jmp	0xdd2	; 0xdd2 <__vector_58>
      ec:	0c 94 b9 06 	jmp	0xd72	; 0xd72 <__vector_59>
      f0:	0c 94 5b 06 	jmp	0xcb6	; 0xcb6 <__vector_60>
      f4:	0c 94 aa 06 	jmp	0xd54	; 0xd54 <__vector_61>
      f8:	0c 94 9b 06 	jmp	0xd36	; 0xd36 <__vector_62>
      fc:	0c 94 89 06 	jmp	0xd12	; 0xd12 <__vector_63>
     100:	0c 94 7a 06 	jmp	0xcf4	; 0xcf4 <__vector_64>
     104:	0c 94 8f 02 	jmp	0x51e	; 0x51e <__bad_interrupt>
     108:	0c 94 8f 02 	jmp	0x51e	; 0x51e <__bad_interrupt>
     10c:	0c 94 8f 02 	jmp	0x51e	; 0x51e <__bad_interrupt>
     110:	0c 94 8f 02 	jmp	0x51e	; 0x51e <__bad_interrupt>
     114:	0c 94 8f 02 	jmp	0x51e	; 0x51e <__bad_interrupt>
     118:	0c 94 8f 02 	jmp	0x51e	; 0x51e <__bad_interrupt>
     11c:	0c 94 8f 02 	jmp	0x51e	; 0x51e <__bad_interrupt>
     120:	36 16       	cp	r3, r22
     122:	3c 16       	cp	r3, r28
     124:	3f 16       	cp	r3, r31
     126:	42 16       	cp	r4, r18
     128:	45 16       	cp	r4, r21
     12a:	48 16       	cp	r4, r24
     12c:	4e 16       	cp	r4, r30
     12e:	4b 16       	cp	r4, r27
     130:	51 16       	cp	r5, r17
     132:	54 16       	cp	r5, r20
     134:	57 16       	cp	r5, r23
     136:	60 16       	cp	r6, r16
     138:	63 16       	cp	r6, r19
     13a:	66 16       	cp	r6, r22
     13c:	69 16       	cp	r6, r25
     13e:	5d 16       	cp	r5, r29
     140:	33 16       	cp	r3, r19
     142:	39 16       	cp	r3, r25
     144:	6c 16       	cp	r6, r28
     146:	6f 16       	cp	r6, r31
     148:	5a 16       	cp	r5, r26
     14a:	30 16       	cp	r3, r16

0000014c <__c.2767>:
     14c:	45 72       	andi	r20, 0x25	; 37
     14e:	72 6f       	ori	r23, 0xF2	; 242
     150:	72 20       	and	r7, r2
     152:	73 65       	ori	r23, 0x53	; 83
     154:	74 74       	andi	r23, 0x44	; 68
     156:	69 6e       	ori	r22, 0xE9	; 233
     158:	67 20       	and	r6, r7
     15a:	75 70       	andi	r23, 0x05	; 5
     15c:	20 74       	andi	r18, 0x40	; 64
     15e:	69 6d       	ori	r22, 0xD9	; 217
     160:	65 72       	andi	r22, 0x25	; 37
     162:	20 63       	ori	r18, 0x30	; 48
     164:	61 6c       	ori	r22, 0xC1	; 193
     166:	6c 62       	ori	r22, 0x2C	; 44
     168:	61 63       	ori	r22, 0x31	; 49
     16a:	6b 0d       	add	r22, r11
     16c:	0a 00       	.word	0x000a	; ????

0000016e <__c.2765>:
     16e:	43 61       	ori	r20, 0x13	; 19
     170:	6c 6c       	ori	r22, 0xCC	; 204
     172:	62 61       	ori	r22, 0x12	; 18
     174:	63 6b       	ori	r22, 0xB3	; 179
     176:	20 74       	andi	r18, 0x40	; 64
     178:	69 6d       	ori	r22, 0xD9	; 217
     17a:	65 72       	andi	r22, 0x25	; 37
     17c:	20 73       	andi	r18, 0x30	; 48
     17e:	65 74       	andi	r22, 0x45	; 69
     180:	75 70       	andi	r23, 0x05	; 5
     182:	0d 0a       	sbc	r0, r29
     184:	00 53       	subi	r16, 0x30	; 48

00000185 <__c.2757>:
     185:	53 74       	andi	r21, 0x43	; 67
     187:	61 72       	andi	r22, 0x21	; 33
     189:	74 69       	ori	r23, 0x94	; 148
     18b:	6e 67       	ori	r22, 0x7E	; 126
     18d:	20 75       	andi	r18, 0x50	; 80
     18f:	70 2e       	mov	r7, r16
     191:	2e 2e       	mov	r2, r30
     193:	0d 0a       	sbc	r0, r29
     195:	00 0d       	add	r16, r0

00000196 <__c.2154>:
     196:	0d 0a       	sbc	r0, r29
     198:	4e 61       	ori	r20, 0x1E	; 30
     19a:	6e 6f       	ori	r22, 0xFE	; 254
     19c:	2d 52       	subi	r18, 0x2D	; 45
     19e:	4b 20       	and	r4, r11
     1a0:	54 61       	ori	r21, 0x14	; 20
     1a2:	73 6b       	ori	r23, 0xB3	; 179
     1a4:	20 53       	subi	r18, 0x30	; 48
     1a6:	74 61       	ori	r23, 0x14	; 20
     1a8:	74 69       	ori	r23, 0x94	; 148
     1aa:	73 74       	andi	r23, 0x43	; 67
     1ac:	69 63       	ori	r22, 0x39	; 57
     1ae:	73 3a       	cpi	r23, 0xA3	; 163
     1b0:	0d 0a       	sbc	r0, r29
     1b2:	00 0d       	add	r16, r0

000001b3 <__c.2149>:
     1b3:	0d 0a       	sbc	r0, r29
     1b5:	00 0d       	add	r16, r0

000001b6 <__c.2147>:
     1b6:	0d 0a       	sbc	r0, r29
     1b8:	20 20       	and	r2, r0
     1ba:	20 4f       	sbci	r18, 0xF0	; 240
     1bc:	76 65       	ori	r23, 0x56	; 86
     1be:	72 66       	ori	r23, 0x62	; 98
     1c0:	6c 6f       	ori	r22, 0xFC	; 252
     1c2:	77 20       	and	r7, r7
     1c4:	45 72       	andi	r20, 0x25	; 37
     1c6:	72 6f       	ori	r23, 0xF2	; 242
     1c8:	72 20       	and	r7, r2
     1ca:	53 74       	andi	r21, 0x43	; 67
     1cc:	61 74       	andi	r22, 0x41	; 65
     1ce:	75 73       	andi	r23, 0x35	; 53
     1d0:	3a 20       	and	r3, r10
     1d2:	00 0d       	add	r16, r0

000001d3 <__c.2145>:
     1d3:	0d 0a       	sbc	r0, r29
     1d5:	20 20       	and	r2, r0
     1d7:	20 4b       	sbci	r18, 0xB0	; 176
     1d9:	65 72       	andi	r22, 0x25	; 37
     1db:	6e 65       	ori	r22, 0x5E	; 94
     1dd:	6c 20       	and	r6, r12
     1df:	56 69       	ori	r21, 0x96	; 150
     1e1:	6f 6c       	ori	r22, 0xCF	; 207
     1e3:	61 74       	andi	r22, 0x41	; 65
     1e5:	69 6f       	ori	r22, 0xF9	; 249
     1e7:	6e 73       	andi	r22, 0x3E	; 62
     1e9:	3a 20       	and	r3, r10
     1eb:	00 0d       	add	r16, r0

000001ec <__c.2143>:
     1ec:	0d 0a       	sbc	r0, r29
     1ee:	20 20       	and	r2, r0
     1f0:	20 50       	subi	r18, 0x00	; 0
     1f2:	72 65       	ori	r23, 0x52	; 82
     1f4:	65 6d       	ori	r22, 0xD5	; 213
     1f6:	70 74       	andi	r23, 0x40	; 64
     1f8:	69 6f       	ori	r22, 0xF9	; 249
     1fa:	6e 73       	andi	r22, 0x3E	; 62
     1fc:	3a 20       	and	r3, r10
     1fe:	00 0d       	add	r16, r0

000001ff <__c.2141>:
     1ff:	0d 0a       	sbc	r0, r29
     201:	20 20       	and	r2, r0
     203:	20 53       	subi	r18, 0x30	; 48
     205:	77 61       	ori	r23, 0x17	; 23
     207:	70 2d       	mov	r23, r0
     209:	69 6e       	ori	r22, 0xE9	; 233
     20b:	73 3a       	cpi	r23, 0xA3	; 163
     20d:	20 00       	.word	0x0020	; ????

0000020f <__c.2139>:
     20f:	0d 0a       	sbc	r0, r29
     211:	20 20       	and	r2, r0
     213:	20 54       	subi	r18, 0x40	; 64
     215:	69 6d       	ori	r22, 0xD9	; 217
     217:	65 20       	and	r6, r5
     219:	5b 4d       	sbci	r21, 0xDB	; 219
     21b:	69 6e       	ori	r22, 0xE9	; 233
     21d:	2c 4c       	sbci	r18, 0xCC	; 204
     21f:	61 73       	andi	r22, 0x31	; 49
     221:	74 2c       	mov	r7, r4
     223:	4d 61       	ori	r20, 0x1D	; 29
     225:	78 5d       	subi	r23, 0xD8	; 216
     227:	3a 20       	and	r3, r10
     229:	00 0d       	add	r16, r0

0000022a <__c.2137>:
     22a:	0d 0a       	sbc	r0, r29
     22c:	20 20       	and	r2, r0
     22e:	20 54       	subi	r18, 0x40	; 64
     230:	6f 74       	andi	r22, 0x4F	; 79
     232:	61 6c       	ori	r22, 0xC1	; 193
     234:	20 43       	sbci	r18, 0x30	; 48
     236:	50 55       	subi	r21, 0x50	; 80
     238:	3a 20       	and	r3, r10
     23a:	00 0d       	add	r16, r0

0000023b <__c.2135>:
     23b:	0d 0a       	sbc	r0, r29
     23d:	20 20       	and	r2, r0
     23f:	20 49       	sbci	r18, 0x90	; 144
     241:	64 6c       	ori	r22, 0xC4	; 196
     243:	65 20       	and	r6, r5
     245:	54 61       	ori	r21, 0x14	; 20
     247:	73 6b       	ori	r23, 0xB3	; 179
     249:	20 44       	sbci	r18, 0x40	; 64
     24b:	65 65       	ori	r22, 0x55	; 85
     24d:	70 20       	and	r7, r0
     24f:	53 6c       	ori	r21, 0xC3	; 195
     251:	65 65       	ori	r22, 0x55	; 85
     253:	70 20       	and	r7, r0
     255:	54 69       	ori	r21, 0x94	; 148
     257:	6d 65       	ori	r22, 0x5D	; 93
     259:	3a 20       	and	r3, r10
     25b:	00 0d       	add	r16, r0

0000025c <__c.2133>:
     25c:	0d 0a       	sbc	r0, r29
     25e:	20 20       	and	r2, r0
     260:	20 54       	subi	r18, 0x40	; 64
     262:	6f 74       	andi	r22, 0x4F	; 79
     264:	61 6c       	ori	r22, 0xC1	; 193
     266:	20 53       	subi	r18, 0x30	; 48
     268:	79 73       	andi	r23, 0x39	; 57
     26a:	74 65       	ori	r23, 0x54	; 84
     26c:	6d 20       	and	r6, r13
     26e:	55 70       	andi	r21, 0x05	; 5
     270:	74 69       	ori	r23, 0x94	; 148
     272:	6d 65       	ori	r22, 0x5D	; 93
     274:	3a 20       	and	r3, r10
     276:	00 20       	and	r0, r0

00000277 <__c.2131>:
     277:	20 54       	subi	r18, 0x40	; 64
     279:	61 73       	andi	r22, 0x31	; 49
     27b:	6b 20       	and	r6, r11
     27d:	49 44       	sbci	r20, 0x49	; 73
     27f:	3a 20       	and	r3, r10
     281:	00 55       	subi	r16, 0x50	; 80

00000282 <__c.2209>:
     282:	55 4e       	sbci	r21, 0xE5	; 229
     284:	4b 4f       	sbci	r20, 0xFB	; 251
     286:	57 4e       	sbci	r21, 0xE7	; 231
     288:	00 45       	sbci	r16, 0x50	; 80

00000289 <__c.2206>:
     289:	45 78       	andi	r20, 0x85	; 133
     28b:	74 65       	ori	r23, 0x54	; 84
     28d:	72 6e       	ori	r23, 0xE2	; 226
     28f:	61 6c       	ori	r22, 0xC1	; 193
     291:	20 52       	subi	r18, 0x20	; 32
     293:	65 73       	andi	r22, 0x35	; 53
     295:	65 74       	andi	r22, 0x45	; 69
     297:	00 42       	sbci	r16, 0x20	; 32

00000298 <__c.2203>:
     298:	42 72       	andi	r20, 0x22	; 34
     29a:	6f 77       	andi	r22, 0x7F	; 127
     29c:	6e 20       	and	r6, r14
     29e:	4f 75       	andi	r20, 0x5F	; 95
     2a0:	74 20       	and	r7, r4
     2a2:	44 65       	ori	r20, 0x54	; 84
     2a4:	74 65       	ori	r23, 0x54	; 84
     2a6:	63 74       	andi	r22, 0x43	; 67
     2a8:	00 46       	sbci	r16, 0x60	; 96

000002a9 <__c.2200>:
     2a9:	46 61       	ori	r20, 0x16	; 22
     2ab:	69 6c       	ori	r22, 0xC9	; 201
     2ad:	65 64       	ori	r22, 0x45	; 69
     2af:	20 74       	andi	r18, 0x40	; 64
     2b1:	6f 20       	and	r6, r15
     2b3:	63 72       	andi	r22, 0x23	; 35
     2b5:	65 61       	ori	r22, 0x15	; 21
     2b7:	74 65       	ori	r23, 0x54	; 84
     2b9:	20 53       	subi	r18, 0x30	; 48
     2bb:	65 6d       	ori	r22, 0xD5	; 213
     2bd:	61 70       	andi	r22, 0x01	; 1
     2bf:	68 6f       	ori	r22, 0xF8	; 248
     2c1:	72 65       	ori	r23, 0x52	; 82
     2c3:	00 46       	sbci	r16, 0x60	; 96

000002c4 <__c.2197>:
     2c4:	46 61       	ori	r20, 0x16	; 22
     2c6:	69 6c       	ori	r22, 0xC9	; 201
     2c8:	65 64       	ori	r22, 0x45	; 69
     2ca:	20 74       	andi	r18, 0x40	; 64
     2cc:	6f 20       	and	r6, r15
     2ce:	63 72       	andi	r22, 0x23	; 35
     2d0:	65 61       	ori	r22, 0x15	; 21
     2d2:	74 65       	ori	r23, 0x54	; 84
     2d4:	20 53       	subi	r18, 0x30	; 48
     2d6:	69 67       	ori	r22, 0x79	; 121
     2d8:	6e 61       	ori	r22, 0x1E	; 30
     2da:	6c 00       	.word	0x006c	; ????

000002dc <__c.2194>:
     2dc:	4b 65       	ori	r20, 0x5B	; 91
     2de:	72 6e       	ori	r23, 0xE2	; 226
     2e0:	65 6c       	ori	r22, 0xC5	; 197
     2e2:	20 66       	ori	r18, 0x60	; 96
     2e4:	75 6e       	ori	r23, 0xE5	; 229
     2e6:	63 74       	andi	r22, 0x43	; 67
     2e8:	69 6f       	ori	r22, 0xF9	; 249
     2ea:	6e 20       	and	r6, r14
     2ec:	6e 6f       	ori	r22, 0xFE	; 254
     2ee:	74 20       	and	r7, r4
     2f0:	69 6d       	ori	r22, 0xD9	; 217
     2f2:	70 6c       	ori	r23, 0xC0	; 192
     2f4:	65 6d       	ori	r22, 0xD5	; 213
     2f6:	65 6e       	ori	r22, 0xE5	; 229
     2f8:	74 65       	ori	r23, 0x54	; 84
     2fa:	64 00       	.word	0x0064	; ????

000002fc <__c.2191>:
     2fc:	44 65       	ori	r20, 0x54	; 84
     2fe:	76 69       	ori	r23, 0x96	; 150
     300:	63 65       	ori	r22, 0x53	; 83
     302:	20 44       	sbci	r18, 0x40	; 64
     304:	72 69       	ori	r23, 0x92	; 146
     306:	76 65       	ori	r23, 0x56	; 86
     308:	72 20       	and	r7, r2
     30a:	45 72       	andi	r20, 0x25	; 37
     30c:	72 6f       	ori	r23, 0xF2	; 242
     30e:	72 00       	.word	0x0072	; ????

00000310 <__c.2188>:
     310:	57 61       	ori	r21, 0x17	; 23
     312:	74 63       	ori	r23, 0x34	; 52
     314:	68 64       	ori	r22, 0x48	; 72
     316:	6f 67       	ori	r22, 0x7F	; 127
     318:	20 52       	subi	r18, 0x20	; 32
     31a:	65 73       	andi	r22, 0x35	; 53
     31c:	74 61       	ori	r23, 0x14	; 20
     31e:	72 74       	andi	r23, 0x42	; 66
     320:	00 53       	subi	r16, 0x30	; 48

00000321 <__c.2185>:
     321:	53 57       	subi	r21, 0x73	; 115
     323:	20 57       	subi	r18, 0x70	; 112
     325:	61 74       	andi	r22, 0x41	; 65
     327:	63 68       	ori	r22, 0x83	; 131
     329:	64 6f       	ori	r22, 0xF4	; 244
     32b:	67 20       	and	r6, r7
     32d:	52 65       	ori	r21, 0x52	; 82
     32f:	73 74       	andi	r23, 0x43	; 67
     331:	61 72       	andi	r22, 0x21	; 33
     333:	74 00       	.word	0x0074	; ????

00000335 <__c.2182>:
     335:	54 69       	ori	r21, 0x94	; 148
     337:	6d 65       	ori	r22, 0x5D	; 93
     339:	72 20       	and	r7, r2
     33b:	4f 76       	andi	r20, 0x6F	; 111
     33d:	65 72       	andi	r22, 0x25	; 37
     33f:	66 6c       	ori	r22, 0xC6	; 198
     341:	6f 77       	andi	r22, 0x7F	; 127
     343:	00 55       	subi	r16, 0x50	; 80

00000344 <__c.2179>:
     344:	55 6e       	ori	r21, 0xE5	; 229
     346:	68 61       	ori	r22, 0x18	; 24
     348:	6e 64       	ori	r22, 0x4E	; 78
     34a:	6c 65       	ori	r22, 0x5C	; 92
     34c:	64 20       	and	r6, r4
     34e:	49 6e       	ori	r20, 0xE9	; 233
     350:	74 65       	ori	r23, 0x54	; 84
     352:	72 72       	andi	r23, 0x22	; 34
     354:	75 70       	andi	r23, 0x05	; 5
     356:	74 20       	and	r7, r4
     358:	56 65       	ori	r21, 0x56	; 86
     35a:	63 74       	andi	r22, 0x43	; 67
     35c:	6f 72       	andi	r22, 0x2F	; 47
     35e:	00 4c       	sbci	r16, 0xC0	; 192

0000035f <__c.2176>:
     35f:	4c 6f       	ori	r20, 0xFC	; 252
     361:	77 20       	and	r7, r7
     363:	56 6f       	ori	r21, 0xF6	; 246
     365:	6c 74       	andi	r22, 0x4C	; 76
     367:	61 67       	ori	r22, 0x71	; 113
     369:	65 00       	.word	0x0065	; ????

0000036b <__c.2173>:
     36b:	45 78       	andi	r20, 0x85	; 133
     36d:	74 72       	andi	r23, 0x24	; 36
     36f:	61 20       	and	r6, r1
     371:	54 61       	ori	r21, 0x14	; 20
     373:	73 6b       	ori	r23, 0xB3	; 179
     375:	20 73       	andi	r18, 0x30	; 48
     377:	74 61       	ori	r23, 0x14	; 20
     379:	72 74       	andi	r23, 0x42	; 66
     37b:	65 64       	ori	r22, 0x45	; 69
     37d:	2c 20       	and	r2, r12
     37f:	69 73       	andi	r22, 0x39	; 57
     381:	20 6e       	ori	r18, 0xE0	; 224
     383:	72 6b       	ori	r23, 0xB2	; 178
     385:	5f 63       	ori	r21, 0x3F	; 63
     387:	66 67       	ori	r22, 0x76	; 118
     389:	2e 68       	ori	r18, 0x8E	; 142
     38b:	20 6f       	ori	r18, 0xF0	; 240
     38d:	6b 3f       	cpi	r22, 0xFB	; 251
     38f:	00 49       	sbci	r16, 0x90	; 144

00000390 <__c.2170>:
     390:	49 64       	ori	r20, 0x49	; 73
     392:	6c 65       	ori	r22, 0x5C	; 92
     394:	20 6f       	ori	r18, 0xF0	; 240
     396:	72 20       	and	r7, r2
     398:	4b 65       	ori	r20, 0x5B	; 91
     39a:	72 6e       	ori	r23, 0xE2	; 226
     39c:	65 6c       	ori	r22, 0xC5	; 197
     39e:	20 53       	subi	r18, 0x30	; 48
     3a0:	74 61       	ori	r23, 0x14	; 20
     3a2:	63 6b       	ori	r22, 0xB3	; 179
     3a4:	20 4f       	sbci	r18, 0xF0	; 240
     3a6:	76 65       	ori	r23, 0x56	; 86
     3a8:	72 66       	ori	r23, 0x62	; 98
     3aa:	6c 6f       	ori	r22, 0xFC	; 252
     3ac:	77 00       	.word	0x0077	; ????

000003ae <__c.2167>:
     3ae:	55 6e       	ori	r21, 0xE5	; 229
     3b0:	65 78       	andi	r22, 0x85	; 133
     3b2:	70 65       	ori	r23, 0x50	; 80
     3b4:	63 74       	andi	r22, 0x43	; 67
     3b6:	65 64       	ori	r22, 0x45	; 69
     3b8:	20 52       	subi	r18, 0x20	; 32
     3ba:	65 73       	andi	r22, 0x35	; 53
     3bc:	74 61       	ori	r23, 0x14	; 20
     3be:	72 74       	andi	r23, 0x42	; 66
     3c0:	00 44       	sbci	r16, 0x40	; 64

000003c1 <__c.2164>:
     3c1:	44 75       	andi	r20, 0x54	; 84
     3c3:	70 6c       	ori	r23, 0xC0	; 192
     3c5:	69 63       	ori	r22, 0x39	; 57
     3c7:	61 74       	andi	r22, 0x41	; 65
     3c9:	65 64       	ori	r22, 0x45	; 69
     3cb:	20 54       	subi	r18, 0x40	; 64
     3cd:	61 73       	andi	r22, 0x31	; 49
     3cf:	6b 20       	and	r6, r11
     3d1:	49 44       	sbci	r20, 0x49	; 73
     3d3:	00 53       	subi	r16, 0x30	; 48

000003d4 <__c.2161>:
     3d4:	53 63       	ori	r21, 0x33	; 51
     3d6:	68 65       	ori	r22, 0x58	; 88
     3d8:	64 75       	andi	r22, 0x54	; 84
     3da:	6c 65       	ori	r22, 0x5C	; 92
     3dc:	72 20       	and	r7, r2
     3de:	4d 69       	ori	r20, 0x9D	; 157
     3e0:	73 73       	andi	r23, 0x33	; 51
     3e2:	65 64       	ori	r22, 0x45	; 69
     3e4:	20 57       	subi	r18, 0x70	; 112
     3e6:	61 6b       	ori	r22, 0xB1	; 177
     3e8:	65 75       	andi	r22, 0x55	; 85
     3ea:	70 00       	.word	0x0070	; ????

000003ec <__c.2158>:
     3ec:	54 61       	ori	r21, 0x14	; 20
     3ee:	73 6b       	ori	r23, 0xB3	; 179
     3f0:	20 52       	subi	r18, 0x20	; 32
     3f2:	65 73       	andi	r22, 0x35	; 53
     3f4:	65 72       	andi	r22, 0x25	; 37
     3f6:	76 65       	ori	r23, 0x56	; 86
     3f8:	20 56       	subi	r18, 0x60	; 96
     3fa:	69 6f       	ori	r22, 0xF9	; 249
     3fc:	6c 61       	ori	r22, 0x1C	; 28
     3fe:	74 65       	ori	r23, 0x54	; 84
     400:	64 00       	.word	0x0064	; ????

00000402 <__c.2155>:
     402:	52 65       	ori	r21, 0x52	; 82
     404:	73 65       	ori	r23, 0x53	; 83
     406:	72 76       	andi	r23, 0x62	; 98
     408:	65 20       	and	r6, r5
     40a:	45 72       	andi	r20, 0x25	; 37
     40c:	72 6f       	ori	r23, 0xF2	; 242
     40e:	72 20       	and	r7, r2
     410:	69 6e       	ori	r22, 0xE9	; 233
     412:	20 53       	subi	r18, 0x30	; 48
     414:	63 68       	ori	r22, 0x83	; 131
     416:	65 64       	ori	r22, 0x45	; 69
     418:	75 6c       	ori	r23, 0xC5	; 197
     41a:	65 72       	andi	r22, 0x25	; 37
     41c:	00 49       	sbci	r16, 0x90	; 144

0000041d <__c.2152>:
     41d:	49 6e       	ori	r20, 0xE9	; 233
     41f:	76 61       	ori	r23, 0x16	; 22
     421:	6c 69       	ori	r22, 0x9C	; 156
     423:	64 20       	and	r6, r4
     425:	53 74       	andi	r21, 0x43	; 67
     427:	61 63       	ori	r22, 0x31	; 49
     429:	6b 20       	and	r6, r11
     42b:	50 6f       	ori	r21, 0xF0	; 240
     42d:	69 6e       	ori	r22, 0xE9	; 233
     42f:	74 65       	ori	r23, 0x54	; 84
     431:	72 00       	.word	0x0072	; ????

00000433 <__c.2149>:
     433:	54 61       	ori	r21, 0x14	; 20
     435:	73 6b       	ori	r23, 0xB3	; 179
     437:	20 53       	subi	r18, 0x30	; 48
     439:	74 61       	ori	r23, 0x14	; 20
     43b:	63 6b       	ori	r22, 0xB3	; 179
     43d:	20 4f       	sbci	r18, 0xF0	; 240
     43f:	76 65       	ori	r23, 0x56	; 86
     441:	72 66       	ori	r23, 0x62	; 98
     443:	6c 6f       	ori	r22, 0xFC	; 252
     445:	77 00       	.word	0x0077	; ????

00000447 <__c.2146>:
     447:	53 74       	andi	r21, 0x43	; 67
     449:	61 63       	ori	r22, 0x31	; 49
     44b:	6b 20       	and	r6, r11
     44d:	77 61       	ori	r23, 0x17	; 23
     44f:	73 20       	and	r7, r3
     451:	6e 6f       	ori	r22, 0xFE	; 254
     453:	74 20       	and	r7, r4
     455:	64 65       	ori	r22, 0x54	; 84
     457:	66 69       	ori	r22, 0x96	; 150
     459:	6e 65       	ori	r22, 0x5E	; 94
     45b:	64 20       	and	r6, r4
     45d:	61 73       	andi	r22, 0x31	; 49
     45f:	20 6c       	ori	r18, 0xC0	; 192
     461:	61 72       	andi	r22, 0x21	; 33
     463:	67 65       	ori	r22, 0x57	; 87
     465:	20 65       	ori	r18, 0x50	; 80
     467:	6e 6f       	ori	r22, 0xFE	; 254
     469:	75 67       	ori	r23, 0x75	; 117
     46b:	68 21       	and	r22, r8
     46d:	00 54       	subi	r16, 0x40	; 64

0000046e <__c.2142>:
     46e:	54 61       	ori	r21, 0x14	; 20
     470:	73 6b       	ori	r23, 0xB3	; 179
     472:	20 70       	andi	r18, 0x00	; 0
     474:	65 72       	andi	r22, 0x25	; 37
     476:	69 6f       	ori	r22, 0xF9	; 249
     478:	64 20       	and	r6, r4
     47a:	74 6f       	ori	r23, 0xF4	; 244
     47c:	6f 20       	and	r6, r15
     47e:	6c 61       	ori	r22, 0x1C	; 28
     480:	72 67       	ori	r23, 0x72	; 114
     482:	65 2e       	mov	r6, r21
     484:	20 50       	subi	r18, 0x00	; 0
     486:	65 72       	andi	r22, 0x25	; 37
     488:	69 6f       	ori	r22, 0xF9	; 249
     48a:	64 20       	and	r6, r4
     48c:	6d 75       	andi	r22, 0x5D	; 93
     48e:	73 74       	andi	r23, 0x43	; 67
     490:	20 62       	ori	r18, 0x20	; 32
     492:	65 20       	and	r6, r5
     494:	6c 65       	ori	r22, 0x5C	; 92
     496:	73 73       	andi	r23, 0x33	; 51
     498:	20 74       	andi	r18, 0x40	; 64
     49a:	68 61       	ori	r22, 0x18	; 24
     49c:	6e 20       	and	r6, r14
     49e:	36 31       	cpi	r19, 0x16	; 22
     4a0:	20 73       	andi	r18, 0x30	; 48
     4a2:	65 63       	ori	r22, 0x35	; 53
     4a4:	6f 6e       	ori	r22, 0xEF	; 239
     4a6:	64 73       	andi	r22, 0x34	; 52
     4a8:	2e 00       	.word	0x002e	; ????

000004aa <__c.2139>:
     4aa:	29 3a       	cpi	r18, 0xA9	; 169
     4ac:	20 00       	.word	0x0020	; ????

000004ae <__c.2137>:
     4ae:	2a 4e       	sbci	r18, 0xEA	; 234
     4b0:	52 4b       	sbci	r21, 0xB2	; 178
     4b2:	20 45       	sbci	r18, 0x50	; 80
     4b4:	52 52       	subi	r21, 0x22	; 34
     4b6:	4f 52       	subi	r20, 0x2F	; 47
     4b8:	28 00       	.word	0x0028	; ????

000004ba <__c.2062>:
     4ba:	0d 0a       	sbc	r0, r29
     4bc:	53 54       	subi	r21, 0x43	; 67
     4be:	41 43       	sbci	r20, 0x31	; 49
     4c0:	4b 20       	and	r4, r11
     4c2:	44 55       	subi	r20, 0x54	; 84
     4c4:	4d 50       	subi	r20, 0x0D	; 13
     4c6:	0d 0a       	sbc	r0, r29
     4c8:	00 45       	sbci	r16, 0x50	; 80

000004c9 <__c.1851>:
     4c9:	45 46       	sbci	r20, 0x65	; 101
     4cb:	47 65       	ori	r20, 0x57	; 87
     4cd:	66 67       	ori	r22, 0x76	; 118
     4cf:	00 20       	and	r0, r0

000004d0 <__c.1845>:
     4d0:	20 2b       	or	r18, r16
     4d2:	2d 2e       	mov	r2, r29
     4d4:	30 31       	cpi	r19, 0x10	; 16
     4d6:	32 33       	cpi	r19, 0x32	; 50
     4d8:	34 35       	cpi	r19, 0x54	; 84
     4da:	36 37       	cpi	r19, 0x76	; 118
     4dc:	38 39       	cpi	r19, 0x98	; 152
     4de:	68 00       	.word	0x0068	; ????

000004e0 <__ctors_end>:
     4e0:	11 24       	eor	r1, r1
     4e2:	1f be       	out	0x3f, r1	; 63
     4e4:	cf ef       	ldi	r28, 0xFF	; 255
     4e6:	d1 e4       	ldi	r29, 0x41	; 65
     4e8:	de bf       	out	0x3e, r29	; 62
     4ea:	cd bf       	out	0x3d, r28	; 61

000004ec <__do_copy_data>:
     4ec:	13 e0       	ldi	r17, 0x03	; 3
     4ee:	a0 e0       	ldi	r26, 0x00	; 0
     4f0:	b2 e0       	ldi	r27, 0x02	; 2
     4f2:	e8 e6       	ldi	r30, 0x68	; 104
     4f4:	f6 e6       	ldi	r31, 0x66	; 102
     4f6:	00 e0       	ldi	r16, 0x00	; 0
     4f8:	0b bf       	out	0x3b, r16	; 59
     4fa:	02 c0       	rjmp	.+4      	; 0x500 <__do_copy_data+0x14>
     4fc:	07 90       	elpm	r0, Z+
     4fe:	0d 92       	st	X+, r0
     500:	a8 3d       	cpi	r26, 0xD8	; 216
     502:	b1 07       	cpc	r27, r17
     504:	d9 f7       	brne	.-10     	; 0x4fc <__do_copy_data+0x10>

00000506 <__do_clear_bss>:
     506:	16 e0       	ldi	r17, 0x06	; 6
     508:	a8 ed       	ldi	r26, 0xD8	; 216
     50a:	b3 e0       	ldi	r27, 0x03	; 3
     50c:	01 c0       	rjmp	.+2      	; 0x510 <.do_clear_bss_start>

0000050e <.do_clear_bss_loop>:
     50e:	1d 92       	st	X+, r1

00000510 <.do_clear_bss_start>:
     510:	ab 3c       	cpi	r26, 0xCB	; 203
     512:	b1 07       	cpc	r27, r17
     514:	e1 f7       	brne	.-8      	; 0x50e <.do_clear_bss_loop>
     516:	0e 94 49 03 	call	0x692	; 0x692 <main>
     51a:	0c 94 32 33 	jmp	0x6664	; 0x6664 <_exit>

0000051e <__bad_interrupt>:
     51e:	0c 94 68 25 	jmp	0x4ad0	; 0x4ad0 <__vector_default>

00000522 <Task1>:
     522:	cf 93       	push	r28
     524:	df 93       	push	r29
     526:	00 d0       	rcall	.+0      	; 0x528 <Task1+0x6>
     528:	00 d0       	rcall	.+0      	; 0x52a <Task1+0x8>
     52a:	80 e0       	ldi	r24, 0x00	; 0
     52c:	92 e0       	ldi	r25, 0x02	; 2
     52e:	ad b7       	in	r26, 0x3d	; 61
     530:	be b7       	in	r27, 0x3e	; 62
     532:	12 96       	adiw	r26, 0x02	; 2
     534:	9c 93       	st	X, r25
     536:	8e 93       	st	-X, r24
     538:	11 97       	sbiw	r26, 0x01	; 1
     53a:	14 96       	adiw	r26, 0x04	; 4
     53c:	1c 92       	st	X, r1
     53e:	1e 92       	st	-X, r1
     540:	13 97       	sbiw	r26, 0x03	; 3
     542:	0e 94 1d 31 	call	0x623a	; 0x623a <printf>
     546:	0f 90       	pop	r0
     548:	0f 90       	pop	r0
     54a:	0f 90       	pop	r0
     54c:	0f 90       	pop	r0
     54e:	0e 94 82 1e 	call	0x3d04	; 0x3d04 <nrk_get_pid>
     552:	00 d0       	rcall	.+0      	; 0x554 <Task1+0x32>
     554:	00 d0       	rcall	.+0      	; 0x556 <Task1+0x34>
     556:	ed b7       	in	r30, 0x3d	; 61
     558:	fe b7       	in	r31, 0x3e	; 62
     55a:	31 96       	adiw	r30, 0x01	; 1
     55c:	2a e1       	ldi	r18, 0x1A	; 26
     55e:	32 e0       	ldi	r19, 0x02	; 2
     560:	ad b7       	in	r26, 0x3d	; 61
     562:	be b7       	in	r27, 0x3e	; 62
     564:	12 96       	adiw	r26, 0x02	; 2
     566:	3c 93       	st	X, r19
     568:	2e 93       	st	-X, r18
     56a:	11 97       	sbiw	r26, 0x01	; 1
     56c:	82 83       	std	Z+2, r24	; 0x02
     56e:	13 82       	std	Z+3, r1	; 0x03
     570:	0e 94 1d 31 	call	0x623a	; 0x623a <printf>
     574:	0f 90       	pop	r0
     576:	0f 90       	pop	r0
     578:	0f 90       	pop	r0
     57a:	0f 90       	pop	r0
     57c:	80 e0       	ldi	r24, 0x00	; 0
     57e:	61 e0       	ldi	r22, 0x01	; 1
     580:	70 e0       	ldi	r23, 0x00	; 0
     582:	40 e4       	ldi	r20, 0x40	; 64
     584:	5c e9       	ldi	r21, 0x9C	; 156
     586:	2c ee       	ldi	r18, 0xEC	; 236
     588:	32 e0       	ldi	r19, 0x02	; 2
     58a:	0e 94 28 25 	call	0x4a50	; 0x4a50 <nrk_timer_int_configure>
     58e:	81 30       	cpi	r24, 0x01	; 1
     590:	19 f4       	brne	.+6      	; 0x598 <Task1+0x76>
     592:	8e e6       	ldi	r24, 0x6E	; 110
     594:	91 e0       	ldi	r25, 0x01	; 1
     596:	02 c0       	rjmp	.+4      	; 0x59c <Task1+0x7a>
     598:	8c e4       	ldi	r24, 0x4C	; 76
     59a:	91 e0       	ldi	r25, 0x01	; 1
     59c:	0e 94 57 07 	call	0xeae	; 0xeae <nrk_kprintf>
     5a0:	80 e0       	ldi	r24, 0x00	; 0
     5a2:	0e 94 0a 25 	call	0x4a14	; 0x4a14 <nrk_timer_int_reset>
     5a6:	80 e0       	ldi	r24, 0x00	; 0
     5a8:	0e 94 1f 25 	call	0x4a3e	; 0x4a3e <nrk_timer_int_start>
     5ac:	c9 e2       	ldi	r28, 0x29	; 41
     5ae:	d2 e0       	ldi	r29, 0x02	; 2
     5b0:	80 e0       	ldi	r24, 0x00	; 0
     5b2:	0e 94 14 25 	call	0x4a28	; 0x4a28 <nrk_timer_int_read>
     5b6:	00 d0       	rcall	.+0      	; 0x5b8 <Task1+0x96>
     5b8:	00 d0       	rcall	.+0      	; 0x5ba <Task1+0x98>
     5ba:	ed b7       	in	r30, 0x3d	; 61
     5bc:	fe b7       	in	r31, 0x3e	; 62
     5be:	d2 83       	std	Z+2, r29	; 0x02
     5c0:	c1 83       	std	Z+1, r28	; 0x01
     5c2:	94 83       	std	Z+4, r25	; 0x04
     5c4:	83 83       	std	Z+3, r24	; 0x03
     5c6:	0e 94 1d 31 	call	0x623a	; 0x623a <printf>
     5ca:	0f 90       	pop	r0
     5cc:	0f 90       	pop	r0
     5ce:	0f 90       	pop	r0
     5d0:	0f 90       	pop	r0
     5d2:	0e 94 ef 1d 	call	0x3bde	; 0x3bde <nrk_wait_until_next_period>
     5d6:	ec cf       	rjmp	.-40     	; 0x5b0 <Task1+0x8e>

000005d8 <my_timer_callback>:
     5d8:	82 e0       	ldi	r24, 0x02	; 2
     5da:	90 e0       	ldi	r25, 0x00	; 0
     5dc:	0e 94 b8 0a 	call	0x1570	; 0x1570 <nrk_led_toggle>
     5e0:	08 95       	ret

000005e2 <nrk_create_taskset>:
     5e2:	81 e9       	ldi	r24, 0x91	; 145
     5e4:	92 e0       	ldi	r25, 0x02	; 2
     5e6:	90 93 e4 03 	sts	0x03E4, r25
     5ea:	80 93 e3 03 	sts	0x03E3, r24
     5ee:	85 e8       	ldi	r24, 0x85	; 133
     5f0:	94 e0       	ldi	r25, 0x04	; 4
     5f2:	90 93 e0 03 	sts	0x03E0, r25
     5f6:	80 93 df 03 	sts	0x03DF, r24
     5fa:	85 e0       	ldi	r24, 0x05	; 5
     5fc:	94 e0       	ldi	r25, 0x04	; 4
     5fe:	90 93 e2 03 	sts	0x03E2, r25
     602:	80 93 e1 03 	sts	0x03E1, r24
     606:	81 e0       	ldi	r24, 0x01	; 1
     608:	80 93 e6 03 	sts	0x03E6, r24
     60c:	80 93 e5 03 	sts	0x03E5, r24
     610:	80 93 e7 03 	sts	0x03E7, r24
     614:	80 93 e8 03 	sts	0x03E8, r24
     618:	10 92 e9 03 	sts	0x03E9, r1
     61c:	10 92 ea 03 	sts	0x03EA, r1
     620:	10 92 eb 03 	sts	0x03EB, r1
     624:	10 92 ec 03 	sts	0x03EC, r1
     628:	80 e8       	ldi	r24, 0x80	; 128
     62a:	92 eb       	ldi	r25, 0xB2	; 178
     62c:	a6 ee       	ldi	r26, 0xE6	; 230
     62e:	be e0       	ldi	r27, 0x0E	; 14
     630:	80 93 ed 03 	sts	0x03ED, r24
     634:	90 93 ee 03 	sts	0x03EE, r25
     638:	a0 93 ef 03 	sts	0x03EF, r26
     63c:	b0 93 f0 03 	sts	0x03F0, r27
     640:	10 92 f1 03 	sts	0x03F1, r1
     644:	10 92 f2 03 	sts	0x03F2, r1
     648:	10 92 f3 03 	sts	0x03F3, r1
     64c:	10 92 f4 03 	sts	0x03F4, r1
     650:	80 e8       	ldi	r24, 0x80	; 128
     652:	90 ef       	ldi	r25, 0xF0	; 240
     654:	aa ef       	ldi	r26, 0xFA	; 250
     656:	b2 e0       	ldi	r27, 0x02	; 2
     658:	80 93 f5 03 	sts	0x03F5, r24
     65c:	90 93 f6 03 	sts	0x03F6, r25
     660:	a0 93 f7 03 	sts	0x03F7, r26
     664:	b0 93 f8 03 	sts	0x03F8, r27
     668:	10 92 f9 03 	sts	0x03F9, r1
     66c:	10 92 fa 03 	sts	0x03FA, r1
     670:	10 92 fb 03 	sts	0x03FB, r1
     674:	10 92 fc 03 	sts	0x03FC, r1
     678:	10 92 fd 03 	sts	0x03FD, r1
     67c:	10 92 fe 03 	sts	0x03FE, r1
     680:	10 92 ff 03 	sts	0x03FF, r1
     684:	10 92 00 04 	sts	0x0400, r1
     688:	8e ed       	ldi	r24, 0xDE	; 222
     68a:	93 e0       	ldi	r25, 0x03	; 3
     68c:	0e 94 3b 1c 	call	0x3876	; 0x3876 <nrk_activate_task>
     690:	08 95       	ret

00000692 <main>:
     692:	0e 94 77 07 	call	0xeee	; 0xeee <nrk_setup_ports>
     696:	80 e1       	ldi	r24, 0x10	; 16
     698:	90 e0       	ldi	r25, 0x00	; 0
     69a:	0e 94 3b 0b 	call	0x1676	; 0x1676 <nrk_setup_uart>
     69e:	85 e8       	ldi	r24, 0x85	; 133
     6a0:	91 e0       	ldi	r25, 0x01	; 1
     6a2:	0e 94 57 07 	call	0xeae	; 0xeae <nrk_kprintf>
     6a6:	0e 94 14 0c 	call	0x1828	; 0x1828 <nrk_init>
     6aa:	60 e0       	ldi	r22, 0x00	; 0
     6ac:	70 e0       	ldi	r23, 0x00	; 0
     6ae:	cb 01       	movw	r24, r22
     6b0:	20 e0       	ldi	r18, 0x00	; 0
     6b2:	30 e0       	ldi	r19, 0x00	; 0
     6b4:	a9 01       	movw	r20, r18
     6b6:	0e 94 f3 1f 	call	0x3fe6	; 0x3fe6 <nrk_time_set>
     6ba:	0e 94 f1 02 	call	0x5e2	; 0x5e2 <nrk_create_taskset>
     6be:	0e 94 dd 0c 	call	0x19ba	; 0x19ba <nrk_start>
     6c2:	80 e0       	ldi	r24, 0x00	; 0
     6c4:	90 e0       	ldi	r25, 0x00	; 0
     6c6:	08 95       	ret

000006c8 <rf_cmd>:
     6c8:	90 91 41 01 	lds	r25, 0x0141
     6cc:	9f 71       	andi	r25, 0x1F	; 31
     6ce:	9f 31       	cpi	r25, 0x1F	; 31
     6d0:	d9 f3       	breq	.-10     	; 0x6c8 <rf_cmd>
     6d2:	80 93 42 01 	sts	0x0142, r24
     6d6:	08 95       	ret

000006d8 <rf_power_down>:
     6d8:	80 91 41 01 	lds	r24, 0x0141
     6dc:	8f 71       	andi	r24, 0x1F	; 31
     6de:	8f 31       	cpi	r24, 0x1F	; 31
     6e0:	d9 f3       	breq	.-10     	; 0x6d8 <rf_power_down>
     6e2:	80 91 41 01 	lds	r24, 0x0141
     6e6:	8f 71       	andi	r24, 0x1F	; 31
     6e8:	d1 f0       	breq	.+52     	; 0x71e <rf_power_down+0x46>
     6ea:	8f 30       	cpi	r24, 0x0F	; 15
     6ec:	c1 f0       	breq	.+48     	; 0x71e <rf_power_down+0x46>
     6ee:	80 91 41 01 	lds	r24, 0x0141
     6f2:	8f 71       	andi	r24, 0x1F	; 31
     6f4:	88 30       	cpi	r24, 0x08	; 8
     6f6:	41 f0       	breq	.+16     	; 0x708 <rf_power_down+0x30>
     6f8:	88 e0       	ldi	r24, 0x08	; 8
     6fa:	0e 94 64 03 	call	0x6c8	; 0x6c8 <rf_cmd>
     6fe:	80 91 41 01 	lds	r24, 0x0141
     702:	8f 71       	andi	r24, 0x1F	; 31
     704:	88 30       	cpi	r24, 0x08	; 8
     706:	d9 f7       	brne	.-10     	; 0x6fe <rf_power_down+0x26>
     708:	80 91 39 01 	lds	r24, 0x0139
     70c:	82 60       	ori	r24, 0x02	; 2
     70e:	80 93 39 01 	sts	0x0139, r24
     712:	80 91 41 01 	lds	r24, 0x0141
     716:	8f 71       	andi	r24, 0x1F	; 31
     718:	11 f0       	breq	.+4      	; 0x71e <rf_power_down+0x46>
     71a:	8f 30       	cpi	r24, 0x0F	; 15
     71c:	d1 f7       	brne	.-12     	; 0x712 <rf_power_down+0x3a>
     71e:	08 95       	ret

00000720 <rf_power_up>:
     720:	80 91 41 01 	lds	r24, 0x0141
     724:	8f 71       	andi	r24, 0x1F	; 31
     726:	8f 31       	cpi	r24, 0x1F	; 31
     728:	d9 f3       	breq	.-10     	; 0x720 <rf_power_up>
     72a:	80 91 41 01 	lds	r24, 0x0141
     72e:	8f 71       	andi	r24, 0x1F	; 31
     730:	11 f0       	breq	.+4      	; 0x736 <rf_power_up+0x16>
     732:	8f 30       	cpi	r24, 0x0F	; 15
     734:	51 f4       	brne	.+20     	; 0x74a <rf_power_up+0x2a>
     736:	80 91 39 01 	lds	r24, 0x0139
     73a:	8d 7f       	andi	r24, 0xFD	; 253
     73c:	80 93 39 01 	sts	0x0139, r24
     740:	80 91 41 01 	lds	r24, 0x0141
     744:	8f 71       	andi	r24, 0x1F	; 31
     746:	88 30       	cpi	r24, 0x08	; 8
     748:	d9 f7       	brne	.-10     	; 0x740 <rf_power_up+0x20>
     74a:	08 95       	ret

0000074c <rf_tx_power>:
     74c:	e5 e4       	ldi	r30, 0x45	; 69
     74e:	f1 e0       	ldi	r31, 0x01	; 1
     750:	90 81       	ld	r25, Z
     752:	90 7f       	andi	r25, 0xF0	; 240
     754:	90 83       	st	Z, r25
     756:	90 81       	ld	r25, Z
     758:	8f 70       	andi	r24, 0x0F	; 15
     75a:	89 2b       	or	r24, r25
     75c:	80 83       	st	Z, r24
     75e:	08 95       	ret

00000760 <rf_addr_decode_enable>:
     760:	e7 e5       	ldi	r30, 0x57	; 87
     762:	f1 e0       	ldi	r31, 0x01	; 1
     764:	80 81       	ld	r24, Z
     766:	8d 7f       	andi	r24, 0xFD	; 253
     768:	80 83       	st	Z, r24
     76a:	08 95       	ret

0000076c <rf_addr_decode_disable>:
     76c:	e7 e5       	ldi	r30, 0x57	; 87
     76e:	f1 e0       	ldi	r31, 0x01	; 1
     770:	80 81       	ld	r24, Z
     772:	82 60       	ori	r24, 0x02	; 2
     774:	80 83       	st	Z, r24
     776:	08 95       	ret

00000778 <rf_auto_ack_enable>:
     778:	ee e6       	ldi	r30, 0x6E	; 110
     77a:	f1 e0       	ldi	r31, 0x01	; 1
     77c:	80 81       	ld	r24, Z
     77e:	8f 7e       	andi	r24, 0xEF	; 239
     780:	80 83       	st	Z, r24
     782:	08 95       	ret

00000784 <rf_auto_ack_disable>:
     784:	ee e6       	ldi	r30, 0x6E	; 110
     786:	f1 e0       	ldi	r31, 0x01	; 1
     788:	80 81       	ld	r24, Z
     78a:	80 61       	ori	r24, 0x10	; 16
     78c:	80 83       	st	Z, r24
     78e:	08 95       	ret

00000790 <rf_addr_decode_set_my_mac>:
     790:	80 93 60 01 	sts	0x0160, r24
     794:	90 93 61 01 	sts	0x0161, r25
     798:	90 93 19 05 	sts	0x0519, r25
     79c:	80 93 18 05 	sts	0x0518, r24
     7a0:	08 95       	ret

000007a2 <rf_set_rx>:
     7a2:	90 93 13 05 	sts	0x0513, r25
     7a6:	80 93 12 05 	sts	0x0512, r24
     7aa:	e8 e4       	ldi	r30, 0x48	; 72
     7ac:	f1 e0       	ldi	r31, 0x01	; 1
     7ae:	80 81       	ld	r24, Z
     7b0:	80 7e       	andi	r24, 0xE0	; 224
     7b2:	80 83       	st	Z, r24
     7b4:	80 81       	ld	r24, Z
     7b6:	68 2b       	or	r22, r24
     7b8:	60 83       	st	Z, r22
     7ba:	08 95       	ret

000007bc <rx_start_callback>:
     7bc:	90 93 d9 03 	sts	0x03D9, r25
     7c0:	80 93 d8 03 	sts	0x03D8, r24
     7c4:	08 95       	ret

000007c6 <rf_init>:
     7c6:	1f 93       	push	r17
     7c8:	70 e2       	ldi	r23, 0x20	; 32
     7ca:	70 93 44 01 	sts	0x0144, r23
     7ce:	70 ec       	ldi	r23, 0xC0	; 192
     7d0:	70 93 45 01 	sts	0x0145, r23
     7d4:	60 62       	ori	r22, 0x20	; 32
     7d6:	60 93 48 01 	sts	0x0148, r22
     7da:	65 ec       	ldi	r22, 0xC5	; 197
     7dc:	60 93 49 01 	sts	0x0149, r22
     7e0:	67 ea       	ldi	r22, 0xA7	; 167
     7e2:	60 93 4b 01 	sts	0x014B, r22
     7e6:	60 e8       	ldi	r22, 0x80	; 128
     7e8:	60 93 4c 01 	sts	0x014C, r22
     7ec:	20 93 60 01 	sts	0x0160, r18
     7f0:	30 93 61 01 	sts	0x0161, r19
     7f4:	40 93 62 01 	sts	0x0162, r20
     7f8:	50 93 63 01 	sts	0x0163, r21
     7fc:	e6 e4       	ldi	r30, 0x46	; 70
     7fe:	f1 e0       	ldi	r31, 0x01	; 1
     800:	10 81       	ld	r17, Z
     802:	a0 81       	ld	r26, Z
     804:	60 81       	ld	r22, Z
     806:	70 81       	ld	r23, Z
     808:	12 95       	swap	r17
     80a:	16 95       	lsr	r17
     80c:	17 70       	andi	r17, 0x07	; 7
     80e:	12 95       	swap	r17
     810:	11 0f       	add	r17, r17
     812:	11 0f       	add	r17, r17
     814:	10 7c       	andi	r17, 0xC0	; 192
     816:	72 95       	swap	r23
     818:	76 95       	lsr	r23
     81a:	73 70       	andi	r23, 0x03	; 3
     81c:	17 2b       	or	r17, r23
     81e:	a2 95       	swap	r26
     820:	a6 95       	lsr	r26
     822:	a7 70       	andi	r26, 0x07	; 7
     824:	b0 e0       	ldi	r27, 0x00	; 0
     826:	a3 70       	andi	r26, 0x03	; 3
     828:	b0 70       	andi	r27, 0x00	; 0
     82a:	74 e0       	ldi	r23, 0x04	; 4
     82c:	aa 0f       	add	r26, r26
     82e:	bb 1f       	adc	r27, r27
     830:	7a 95       	dec	r23
     832:	e1 f7       	brne	.-8      	; 0x82c <rf_init+0x66>
     834:	1a 2b       	or	r17, r26
     836:	62 95       	swap	r22
     838:	66 95       	lsr	r22
     83a:	67 70       	andi	r22, 0x07	; 7
     83c:	70 e0       	ldi	r23, 0x00	; 0
     83e:	63 70       	andi	r22, 0x03	; 3
     840:	70 70       	andi	r23, 0x00	; 0
     842:	66 0f       	add	r22, r22
     844:	77 1f       	adc	r23, r23
     846:	66 0f       	add	r22, r22
     848:	77 1f       	adc	r23, r23
     84a:	16 2b       	or	r17, r22
     84c:	10 93 6d 01 	sts	0x016D, r17
     850:	60 81       	ld	r22, Z
     852:	e0 81       	ld	r30, Z
     854:	e2 95       	swap	r30
     856:	e6 95       	lsr	r30
     858:	e3 70       	andi	r30, 0x03	; 3
     85a:	e0 64       	ori	r30, 0x40	; 64
     85c:	62 95       	swap	r22
     85e:	66 95       	lsr	r22
     860:	67 70       	andi	r22, 0x07	; 7
     862:	70 e0       	ldi	r23, 0x00	; 0
     864:	63 70       	andi	r22, 0x03	; 3
     866:	70 70       	andi	r23, 0x00	; 0
     868:	66 0f       	add	r22, r22
     86a:	77 1f       	adc	r23, r23
     86c:	e6 2b       	or	r30, r22
     86e:	e0 93 6e 01 	sts	0x016E, r30
     872:	10 92 6c 01 	sts	0x016C, r1
     876:	6f ef       	ldi	r22, 0xFF	; 255
     878:	60 93 4e 01 	sts	0x014E, r22
     87c:	90 93 13 05 	sts	0x0513, r25
     880:	80 93 12 05 	sts	0x0512, r24
     884:	10 92 14 05 	sts	0x0514, r1
     888:	10 92 15 05 	sts	0x0515, r1
     88c:	50 93 17 05 	sts	0x0517, r21
     890:	40 93 16 05 	sts	0x0516, r20
     894:	30 93 19 05 	sts	0x0519, r19
     898:	20 93 18 05 	sts	0x0518, r18
     89c:	10 92 1a 05 	sts	0x051A, r1
     8a0:	81 e0       	ldi	r24, 0x01	; 1
     8a2:	80 93 24 05 	sts	0x0524, r24
     8a6:	10 92 33 05 	sts	0x0533, r1
     8aa:	10 92 23 05 	sts	0x0523, r1
     8ae:	1f 91       	pop	r17
     8b0:	08 95       	ret

000008b2 <rf_rx_on>:
     8b2:	86 e1       	ldi	r24, 0x16	; 22
     8b4:	0e 94 64 03 	call	0x6c8	; 0x6c8 <rf_cmd>
     8b8:	08 95       	ret

000008ba <rf_polling_rx_on>:
     8ba:	86 e1       	ldi	r24, 0x16	; 22
     8bc:	0e 94 64 03 	call	0x6c8	; 0x6c8 <rf_cmd>
     8c0:	08 95       	ret

000008c2 <rf_rx_off>:
     8c2:	88 e0       	ldi	r24, 0x08	; 8
     8c4:	0e 94 64 03 	call	0x6c8	; 0x6c8 <rf_cmd>
     8c8:	10 92 33 05 	sts	0x0533, r1
     8cc:	08 95       	ret

000008ce <rf_tx_packet_repeat>:
     8ce:	2f 92       	push	r2
     8d0:	3f 92       	push	r3
     8d2:	4f 92       	push	r4
     8d4:	5f 92       	push	r5
     8d6:	7f 92       	push	r7
     8d8:	8f 92       	push	r8
     8da:	9f 92       	push	r9
     8dc:	af 92       	push	r10
     8de:	bf 92       	push	r11
     8e0:	cf 92       	push	r12
     8e2:	df 92       	push	r13
     8e4:	ef 92       	push	r14
     8e6:	ff 92       	push	r15
     8e8:	0f 93       	push	r16
     8ea:	1f 93       	push	r17
     8ec:	cf 93       	push	r28
     8ee:	df 93       	push	r29
     8f0:	ec 01       	movw	r28, r24
     8f2:	1b 01       	movw	r2, r22
     8f4:	80 91 24 05 	lds	r24, 0x0524
     8f8:	88 23       	and	r24, r24
     8fa:	09 f4       	brne	.+2      	; 0x8fe <rf_tx_packet_repeat+0x30>
     8fc:	01 c1       	rjmp	.+514    	; 0xb00 <rf_tx_packet_repeat+0x232>
     8fe:	8e 81       	ldd	r24, Y+6	; 0x06
     900:	90 91 14 05 	lds	r25, 0x0514
     904:	9f 5f       	subi	r25, 0xFF	; 255
     906:	90 93 14 05 	sts	0x0514, r25
     90a:	e1 e8       	ldi	r30, 0x81	; 129
     90c:	f1 e0       	ldi	r31, 0x01	; 1
     90e:	81 70       	andi	r24, 0x01	; 1
     910:	82 95       	swap	r24
     912:	88 0f       	add	r24, r24
     914:	80 72       	andi	r24, 0x20	; 32
     916:	81 64       	ori	r24, 0x41	; 65
     918:	80 93 81 01 	sts	0x0181, r24
     91c:	88 e8       	ldi	r24, 0x88	; 136
     91e:	81 83       	std	Z+1, r24	; 0x01
     920:	80 91 14 05 	lds	r24, 0x0514
     924:	82 83       	std	Z+2, r24	; 0x02
     926:	90 91 63 01 	lds	r25, 0x0163
     92a:	80 91 62 01 	lds	r24, 0x0162
     92e:	39 2f       	mov	r19, r25
     930:	20 e0       	ldi	r18, 0x00	; 0
     932:	90 e0       	ldi	r25, 0x00	; 0
     934:	82 2b       	or	r24, r18
     936:	93 2b       	or	r25, r19
     938:	94 83       	std	Z+4, r25	; 0x04
     93a:	83 83       	std	Z+3, r24	; 0x03
     93c:	88 81       	ld	r24, Y
     93e:	99 81       	ldd	r25, Y+1	; 0x01
     940:	96 83       	std	Z+6, r25	; 0x06
     942:	85 83       	std	Z+5, r24	; 0x05
     944:	90 91 61 01 	lds	r25, 0x0161
     948:	80 91 60 01 	lds	r24, 0x0160
     94c:	39 2f       	mov	r19, r25
     94e:	20 e0       	ldi	r18, 0x00	; 0
     950:	90 e0       	ldi	r25, 0x00	; 0
     952:	82 2b       	or	r24, r18
     954:	93 2b       	or	r25, r19
     956:	90 87       	std	Z+8, r25	; 0x08
     958:	87 83       	std	Z+7, r24	; 0x07
     95a:	4a 81       	ldd	r20, Y+2	; 0x02
     95c:	24 2f       	mov	r18, r20
     95e:	33 27       	eor	r19, r19
     960:	27 fd       	sbrc	r18, 7
     962:	30 95       	com	r19
     964:	6b 81       	ldd	r22, Y+3	; 0x03
     966:	7c 81       	ldd	r23, Y+4	; 0x04
     968:	8a e8       	ldi	r24, 0x8A	; 138
     96a:	91 e0       	ldi	r25, 0x01	; 1
     96c:	53 2f       	mov	r21, r19
     96e:	0e 94 9d 30 	call	0x613a	; 0x613a <memcpy>
     972:	8a 81       	ldd	r24, Y+2	; 0x02
     974:	85 5f       	subi	r24, 0xF5	; 245
     976:	80 93 80 01 	sts	0x0180, r24
     97a:	70 90 41 01 	lds	r7, 0x0141
     97e:	8f e1       	ldi	r24, 0x1F	; 31
     980:	78 22       	and	r7, r24
     982:	87 2d       	mov	r24, r7
     984:	81 50       	subi	r24, 0x01	; 1
     986:	82 30       	cpi	r24, 0x02	; 2
     988:	c0 f3       	brcs	.-16     	; 0x97a <rf_tx_packet_repeat+0xac>
     98a:	87 2d       	mov	r24, r7
     98c:	81 31       	cpi	r24, 0x11	; 17
     98e:	a9 f3       	breq	.-22     	; 0x97a <rf_tx_packet_repeat+0xac>
     990:	82 31       	cpi	r24, 0x12	; 18
     992:	99 f3       	breq	.-26     	; 0x97a <rf_tx_packet_repeat+0xac>
     994:	8f 31       	cpi	r24, 0x1F	; 31
     996:	89 f3       	breq	.-30     	; 0x97a <rf_tx_packet_repeat+0xac>
     998:	88 30       	cpi	r24, 0x08	; 8
     99a:	39 f0       	breq	.+14     	; 0x9aa <rf_tx_packet_repeat+0xdc>
     99c:	86 30       	cpi	r24, 0x06	; 6
     99e:	29 f0       	breq	.+10     	; 0x9aa <rf_tx_packet_repeat+0xdc>
     9a0:	86 31       	cpi	r24, 0x16	; 22
     9a2:	19 f0       	breq	.+6      	; 0x9aa <rf_tx_packet_repeat+0xdc>
     9a4:	89 30       	cpi	r24, 0x09	; 9
     9a6:	09 f0       	breq	.+2      	; 0x9aa <rf_tx_packet_repeat+0xdc>
     9a8:	ab c0       	rjmp	.+342    	; 0xb00 <rf_tx_packet_repeat+0x232>
     9aa:	86 e1       	ldi	r24, 0x16	; 22
     9ac:	0e 94 64 03 	call	0x6c8	; 0x6c8 <rf_cmd>
     9b0:	8d 81       	ldd	r24, Y+5	; 0x05
     9b2:	88 23       	and	r24, r24
     9b4:	69 f0       	breq	.+26     	; 0x9d0 <rf_tx_packet_repeat+0x102>
     9b6:	80 91 48 01 	lds	r24, 0x0148
     9ba:	80 68       	ori	r24, 0x80	; 128
     9bc:	80 93 48 01 	sts	0x0148, r24
     9c0:	80 91 41 01 	lds	r24, 0x0141
     9c4:	87 ff       	sbrs	r24, 7
     9c6:	fc cf       	rjmp	.-8      	; 0x9c0 <rf_tx_packet_repeat+0xf2>
     9c8:	80 91 41 01 	lds	r24, 0x0141
     9cc:	86 ff       	sbrs	r24, 6
     9ce:	98 c0       	rjmp	.+304    	; 0xb00 <rf_tx_packet_repeat+0x232>
     9d0:	89 e0       	ldi	r24, 0x09	; 9
     9d2:	0e 94 64 03 	call	0x6c8	; 0x6c8 <rf_cmd>
     9d6:	8e 81       	ldd	r24, Y+6	; 0x06
     9d8:	88 23       	and	r24, r24
     9da:	19 f0       	breq	.+6      	; 0x9e2 <rf_tx_packet_repeat+0x114>
     9dc:	89 e1       	ldi	r24, 0x19	; 25
     9de:	0e 94 64 03 	call	0x6c8	; 0x6c8 <rf_cmd>
     9e2:	21 14       	cp	r2, r1
     9e4:	31 04       	cpc	r3, r1
     9e6:	a9 f1       	breq	.+106    	; 0xa52 <rf_tx_packet_repeat+0x184>
     9e8:	8b e1       	ldi	r24, 0x1B	; 27
     9ea:	95 e0       	ldi	r25, 0x05	; 5
     9ec:	0e 94 88 1e 	call	0x3d10	; 0x3d10 <nrk_time_get>
     9f0:	80 91 1b 05 	lds	r24, 0x051B
     9f4:	90 91 1c 05 	lds	r25, 0x051C
     9f8:	a0 91 1d 05 	lds	r26, 0x051D
     9fc:	b0 91 1e 05 	lds	r27, 0x051E
     a00:	80 93 25 05 	sts	0x0525, r24
     a04:	90 93 26 05 	sts	0x0526, r25
     a08:	a0 93 27 05 	sts	0x0527, r26
     a0c:	b0 93 28 05 	sts	0x0528, r27
     a10:	b1 01       	movw	r22, r2
     a12:	80 e0       	ldi	r24, 0x00	; 0
     a14:	90 e0       	ldi	r25, 0x00	; 0
     a16:	20 e4       	ldi	r18, 0x40	; 64
     a18:	32 e4       	ldi	r19, 0x42	; 66
     a1a:	4f e0       	ldi	r20, 0x0F	; 15
     a1c:	50 e0       	ldi	r21, 0x00	; 0
     a1e:	0e 94 06 30 	call	0x600c	; 0x600c <__mulsi3>
     a22:	20 91 1f 05 	lds	r18, 0x051F
     a26:	30 91 20 05 	lds	r19, 0x0520
     a2a:	40 91 21 05 	lds	r20, 0x0521
     a2e:	50 91 22 05 	lds	r21, 0x0522
     a32:	62 0f       	add	r22, r18
     a34:	73 1f       	adc	r23, r19
     a36:	84 1f       	adc	r24, r20
     a38:	95 1f       	adc	r25, r21
     a3a:	60 93 29 05 	sts	0x0529, r22
     a3e:	70 93 2a 05 	sts	0x052A, r23
     a42:	80 93 2b 05 	sts	0x052B, r24
     a46:	90 93 2c 05 	sts	0x052C, r25
     a4a:	85 e2       	ldi	r24, 0x25	; 37
     a4c:	95 e0       	ldi	r25, 0x05	; 5
     a4e:	0e 94 75 1f 	call	0x3eea	; 0x3eea <nrk_time_compact_nanos>
     a52:	10 92 23 05 	sts	0x0523, r1
     a56:	82 e0       	ldi	r24, 0x02	; 2
     a58:	0e 94 64 03 	call	0x6c8	; 0x6c8 <rf_cmd>
     a5c:	44 24       	eor	r4, r4
     a5e:	55 24       	eor	r5, r5
     a60:	08 c0       	rjmp	.+16     	; 0xa72 <rf_tx_packet_repeat+0x1a4>
     a62:	08 94       	sec
     a64:	41 1c       	adc	r4, r1
     a66:	51 1c       	adc	r5, r1
     a68:	88 ee       	ldi	r24, 0xE8	; 232
     a6a:	48 16       	cp	r4, r24
     a6c:	8d ef       	ldi	r24, 0xFD	; 253
     a6e:	58 06       	cpc	r5, r24
     a70:	21 f0       	breq	.+8      	; 0xa7a <rf_tx_packet_repeat+0x1ac>
     a72:	80 91 23 05 	lds	r24, 0x0523
     a76:	88 23       	and	r24, r24
     a78:	a1 f3       	breq	.-24     	; 0xa62 <rf_tx_packet_repeat+0x194>
     a7a:	21 14       	cp	r2, r1
     a7c:	31 04       	cpc	r3, r1
     a7e:	59 f1       	breq	.+86     	; 0xad6 <rf_tx_packet_repeat+0x208>
     a80:	8b e1       	ldi	r24, 0x1B	; 27
     a82:	95 e0       	ldi	r25, 0x05	; 5
     a84:	0e 94 88 1e 	call	0x3d10	; 0x3d10 <nrk_time_get>
     a88:	84 e3       	ldi	r24, 0x34	; 52
     a8a:	95 e0       	ldi	r25, 0x05	; 5
     a8c:	00 91 25 05 	lds	r16, 0x0525
     a90:	10 91 26 05 	lds	r17, 0x0526
     a94:	20 91 27 05 	lds	r18, 0x0527
     a98:	30 91 28 05 	lds	r19, 0x0528
     a9c:	40 91 29 05 	lds	r20, 0x0529
     aa0:	50 91 2a 05 	lds	r21, 0x052A
     aa4:	60 91 2b 05 	lds	r22, 0x052B
     aa8:	70 91 2c 05 	lds	r23, 0x052C
     aac:	80 90 1b 05 	lds	r8, 0x051B
     ab0:	90 90 1c 05 	lds	r9, 0x051C
     ab4:	a0 90 1d 05 	lds	r10, 0x051D
     ab8:	b0 90 1e 05 	lds	r11, 0x051E
     abc:	c0 90 1f 05 	lds	r12, 0x051F
     ac0:	d0 90 20 05 	lds	r13, 0x0520
     ac4:	e0 90 21 05 	lds	r14, 0x0521
     ac8:	f0 90 22 05 	lds	r15, 0x0522
     acc:	0e 94 e6 1e 	call	0x3dcc	; 0x3dcc <nrk_time_sub>
     ad0:	8f 3f       	cpi	r24, 0xFF	; 255
     ad2:	09 f0       	breq	.+2      	; 0xad6 <rf_tx_packet_repeat+0x208>
     ad4:	be cf       	rjmp	.-132    	; 0xa52 <rf_tx_packet_repeat+0x184>
     ad6:	8e 81       	ldd	r24, Y+6	; 0x06
     ad8:	88 23       	and	r24, r24
     ada:	31 f0       	breq	.+12     	; 0xae8 <rf_tx_packet_repeat+0x21a>
     adc:	80 91 42 01 	lds	r24, 0x0142
     ae0:	82 95       	swap	r24
     ae2:	86 95       	lsr	r24
     ae4:	87 70       	andi	r24, 0x07	; 7
     ae6:	29 f4       	brne	.+10     	; 0xaf2 <rf_tx_packet_repeat+0x224>
     ae8:	88 ee       	ldi	r24, 0xE8	; 232
     aea:	48 16       	cp	r4, r24
     aec:	8d ef       	ldi	r24, 0xFD	; 253
     aee:	58 06       	cpc	r5, r24
     af0:	11 f4       	brne	.+4      	; 0xaf6 <rf_tx_packet_repeat+0x228>
     af2:	1f ef       	ldi	r17, 0xFF	; 255
     af4:	01 c0       	rjmp	.+2      	; 0xaf8 <rf_tx_packet_repeat+0x22a>
     af6:	11 e0       	ldi	r17, 0x01	; 1
     af8:	87 2d       	mov	r24, r7
     afa:	0e 94 64 03 	call	0x6c8	; 0x6c8 <rf_cmd>
     afe:	01 c0       	rjmp	.+2      	; 0xb02 <rf_tx_packet_repeat+0x234>
     b00:	1f ef       	ldi	r17, 0xFF	; 255
     b02:	81 2f       	mov	r24, r17
     b04:	df 91       	pop	r29
     b06:	cf 91       	pop	r28
     b08:	1f 91       	pop	r17
     b0a:	0f 91       	pop	r16
     b0c:	ff 90       	pop	r15
     b0e:	ef 90       	pop	r14
     b10:	df 90       	pop	r13
     b12:	cf 90       	pop	r12
     b14:	bf 90       	pop	r11
     b16:	af 90       	pop	r10
     b18:	9f 90       	pop	r9
     b1a:	8f 90       	pop	r8
     b1c:	7f 90       	pop	r7
     b1e:	5f 90       	pop	r5
     b20:	4f 90       	pop	r4
     b22:	3f 90       	pop	r3
     b24:	2f 90       	pop	r2
     b26:	08 95       	ret

00000b28 <rf_tx_packet>:
     b28:	60 e0       	ldi	r22, 0x00	; 0
     b2a:	70 e0       	ldi	r23, 0x00	; 0
     b2c:	0e 94 67 04 	call	0x8ce	; 0x8ce <rf_tx_packet_repeat>
     b30:	08 95       	ret

00000b32 <rf_cca_check>:
     b32:	0f 93       	push	r16
     b34:	1f 93       	push	r17
     b36:	80 91 24 05 	lds	r24, 0x0524
     b3a:	88 23       	and	r24, r24
     b3c:	49 f1       	breq	.+82     	; 0xb90 <rf_cca_check+0x5e>
     b3e:	10 91 41 01 	lds	r17, 0x0141
     b42:	1f 71       	andi	r17, 0x1F	; 31
     b44:	81 2f       	mov	r24, r17
     b46:	81 50       	subi	r24, 0x01	; 1
     b48:	82 30       	cpi	r24, 0x02	; 2
     b4a:	c8 f3       	brcs	.-14     	; 0xb3e <rf_cca_check+0xc>
     b4c:	11 31       	cpi	r17, 0x11	; 17
     b4e:	b9 f3       	breq	.-18     	; 0xb3e <rf_cca_check+0xc>
     b50:	12 31       	cpi	r17, 0x12	; 18
     b52:	a9 f3       	breq	.-22     	; 0xb3e <rf_cca_check+0xc>
     b54:	1f 31       	cpi	r17, 0x1F	; 31
     b56:	99 f3       	breq	.-26     	; 0xb3e <rf_cca_check+0xc>
     b58:	18 30       	cpi	r17, 0x08	; 8
     b5a:	21 f0       	breq	.+8      	; 0xb64 <rf_cca_check+0x32>
     b5c:	16 30       	cpi	r17, 0x06	; 6
     b5e:	11 f0       	breq	.+4      	; 0xb64 <rf_cca_check+0x32>
     b60:	16 31       	cpi	r17, 0x16	; 22
     b62:	b1 f4       	brne	.+44     	; 0xb90 <rf_cca_check+0x5e>
     b64:	86 e1       	ldi	r24, 0x16	; 22
     b66:	0e 94 64 03 	call	0x6c8	; 0x6c8 <rf_cmd>
     b6a:	80 91 48 01 	lds	r24, 0x0148
     b6e:	80 68       	ori	r24, 0x80	; 128
     b70:	80 93 48 01 	sts	0x0148, r24
     b74:	80 91 41 01 	lds	r24, 0x0141
     b78:	87 ff       	sbrs	r24, 7
     b7a:	fc cf       	rjmp	.-8      	; 0xb74 <rf_cca_check+0x42>
     b7c:	00 91 41 01 	lds	r16, 0x0141
     b80:	81 2f       	mov	r24, r17
     b82:	0e 94 64 03 	call	0x6c8	; 0x6c8 <rf_cmd>
     b86:	81 e0       	ldi	r24, 0x01	; 1
     b88:	06 fd       	sbrc	r16, 6
     b8a:	03 c0       	rjmp	.+6      	; 0xb92 <rf_cca_check+0x60>
     b8c:	80 e0       	ldi	r24, 0x00	; 0
     b8e:	01 c0       	rjmp	.+2      	; 0xb92 <rf_cca_check+0x60>
     b90:	8f ef       	ldi	r24, 0xFF	; 255
     b92:	1f 91       	pop	r17
     b94:	0f 91       	pop	r16
     b96:	08 95       	ret

00000b98 <rf_rx_packet_nonblock>:
     b98:	80 91 24 05 	lds	r24, 0x0524
     b9c:	88 23       	and	r24, r24
     b9e:	09 f4       	brne	.+2      	; 0xba2 <rf_rx_packet_nonblock+0xa>
     ba0:	84 c0       	rjmp	.+264    	; 0xcaa <rf_rx_packet_nonblock+0x112>
     ba2:	80 91 33 05 	lds	r24, 0x0533
     ba6:	88 23       	and	r24, r24
     ba8:	09 f4       	brne	.+2      	; 0xbac <rf_rx_packet_nonblock+0x14>
     baa:	81 c0       	rjmp	.+258    	; 0xcae <rf_rx_packet_nonblock+0x116>
     bac:	80 91 7b 01 	lds	r24, 0x017B
     bb0:	e0 91 12 05 	lds	r30, 0x0512
     bb4:	f0 91 13 05 	lds	r31, 0x0513
     bb8:	90 e0       	ldi	r25, 0x00	; 0
     bba:	02 97       	sbiw	r24, 0x02	; 2
     bbc:	24 81       	ldd	r18, Z+4	; 0x04
     bbe:	33 27       	eor	r19, r19
     bc0:	27 fd       	sbrc	r18, 7
     bc2:	30 95       	com	r19
     bc4:	28 17       	cp	r18, r24
     bc6:	39 07       	cpc	r19, r25
     bc8:	0c f4       	brge	.+2      	; 0xbcc <rf_rx_packet_nonblock+0x34>
     bca:	73 c0       	rjmp	.+230    	; 0xcb2 <rf_rx_packet_nonblock+0x11a>
     bcc:	e0 91 12 05 	lds	r30, 0x0512
     bd0:	f0 91 13 05 	lds	r31, 0x0513
     bd4:	80 91 82 01 	lds	r24, 0x0182
     bd8:	80 83       	st	Z, r24
     bda:	e0 91 12 05 	lds	r30, 0x0512
     bde:	f0 91 13 05 	lds	r31, 0x0513
     be2:	80 91 87 01 	lds	r24, 0x0187
     be6:	90 91 88 01 	lds	r25, 0x0188
     bea:	92 83       	std	Z+2, r25	; 0x02
     bec:	81 83       	std	Z+1, r24	; 0x01
     bee:	e0 91 12 05 	lds	r30, 0x0512
     bf2:	f0 91 13 05 	lds	r31, 0x0513
     bf6:	80 91 7b 01 	lds	r24, 0x017B
     bfa:	8b 50       	subi	r24, 0x0B	; 11
     bfc:	83 83       	std	Z+3, r24	; 0x03
     bfe:	a0 91 12 05 	lds	r26, 0x0512
     c02:	b0 91 13 05 	lds	r27, 0x0513
     c06:	e0 91 12 05 	lds	r30, 0x0512
     c0a:	f0 91 13 05 	lds	r31, 0x0513
     c0e:	13 96       	adiw	r26, 0x03	; 3
     c10:	9c 91       	ld	r25, X
     c12:	13 97       	sbiw	r26, 0x03	; 3
     c14:	84 81       	ldd	r24, Z+4	; 0x04
     c16:	89 17       	cp	r24, r25
     c18:	3c f0       	brlt	.+14     	; 0xc28 <rf_rx_packet_nonblock+0x90>
     c1a:	e0 91 12 05 	lds	r30, 0x0512
     c1e:	f0 91 13 05 	lds	r31, 0x0513
     c22:	83 81       	ldd	r24, Z+3	; 0x03
     c24:	87 ff       	sbrs	r24, 7
     c26:	0d c0       	rjmp	.+26     	; 0xc42 <rf_rx_packet_nonblock+0xaa>
     c28:	10 92 33 05 	sts	0x0533, r1
     c2c:	80 91 4c 01 	lds	r24, 0x014C
     c30:	8f 77       	andi	r24, 0x7F	; 127
     c32:	80 93 4c 01 	sts	0x014C, r24
     c36:	80 91 4c 01 	lds	r24, 0x014C
     c3a:	80 68       	ori	r24, 0x80	; 128
     c3c:	80 93 4c 01 	sts	0x014C, r24
     c40:	34 c0       	rjmp	.+104    	; 0xcaa <rf_rx_packet_nonblock+0x112>
     c42:	e0 91 12 05 	lds	r30, 0x0512
     c46:	f0 91 13 05 	lds	r31, 0x0513
     c4a:	a0 91 12 05 	lds	r26, 0x0512
     c4e:	b0 91 13 05 	lds	r27, 0x0513
     c52:	13 96       	adiw	r26, 0x03	; 3
     c54:	4c 91       	ld	r20, X
     c56:	24 2f       	mov	r18, r20
     c58:	33 27       	eor	r19, r19
     c5a:	27 fd       	sbrc	r18, 7
     c5c:	30 95       	com	r19
     c5e:	85 81       	ldd	r24, Z+5	; 0x05
     c60:	96 81       	ldd	r25, Z+6	; 0x06
     c62:	69 e8       	ldi	r22, 0x89	; 137
     c64:	71 e0       	ldi	r23, 0x01	; 1
     c66:	53 2f       	mov	r21, r19
     c68:	0e 94 9d 30 	call	0x613a	; 0x613a <memcpy>
     c6c:	e0 91 12 05 	lds	r30, 0x0512
     c70:	f0 91 13 05 	lds	r31, 0x0513
     c74:	80 91 80 01 	lds	r24, 0x0180
     c78:	82 95       	swap	r24
     c7a:	86 95       	lsr	r24
     c7c:	81 70       	andi	r24, 0x01	; 1
     c7e:	87 83       	std	Z+7, r24	; 0x07
     c80:	e0 91 12 05 	lds	r30, 0x0512
     c84:	f0 91 13 05 	lds	r31, 0x0513
     c88:	80 91 47 01 	lds	r24, 0x0147
     c8c:	80 87       	std	Z+8, r24	; 0x08
     c8e:	10 92 33 05 	sts	0x0533, r1
     c92:	80 91 4c 01 	lds	r24, 0x014C
     c96:	8f 77       	andi	r24, 0x7F	; 127
     c98:	80 93 4c 01 	sts	0x014C, r24
     c9c:	80 91 4c 01 	lds	r24, 0x014C
     ca0:	80 68       	ori	r24, 0x80	; 128
     ca2:	80 93 4c 01 	sts	0x014C, r24
     ca6:	81 e0       	ldi	r24, 0x01	; 1
     ca8:	08 95       	ret
     caa:	8f ef       	ldi	r24, 0xFF	; 255
     cac:	08 95       	ret
     cae:	80 e0       	ldi	r24, 0x00	; 0
     cb0:	08 95       	ret
     cb2:	8f ef       	ldi	r24, 0xFF	; 255
     cb4:	08 95       	ret

00000cb6 <__vector_60>:
     cb6:	1f 92       	push	r1
     cb8:	0f 92       	push	r0
     cba:	0f b6       	in	r0, 0x3f	; 63
     cbc:	0f 92       	push	r0
     cbe:	11 24       	eor	r1, r1
     cc0:	8f 93       	push	r24
     cc2:	9f 93       	push	r25
     cc4:	80 e0       	ldi	r24, 0x00	; 0
     cc6:	01 c0       	rjmp	.+2      	; 0xcca <__vector_60+0x14>
     cc8:	8f 5f       	subi	r24, 0xFF	; 255
     cca:	90 91 7b 01 	lds	r25, 0x017B
     cce:	89 17       	cp	r24, r25
     cd0:	d8 f3       	brcs	.-10     	; 0xcc8 <__vector_60+0x12>
     cd2:	80 91 46 01 	lds	r24, 0x0146
     cd6:	87 ff       	sbrs	r24, 7
     cd8:	03 c0       	rjmp	.+6      	; 0xce0 <__vector_60+0x2a>
     cda:	81 e0       	ldi	r24, 0x01	; 1
     cdc:	80 93 33 05 	sts	0x0533, r24
     ce0:	88 e0       	ldi	r24, 0x08	; 8
     ce2:	80 93 4f 01 	sts	0x014F, r24
     ce6:	9f 91       	pop	r25
     ce8:	8f 91       	pop	r24
     cea:	0f 90       	pop	r0
     cec:	0f be       	out	0x3f, r0	; 63
     cee:	0f 90       	pop	r0
     cf0:	1f 90       	pop	r1
     cf2:	18 95       	reti

00000cf4 <__vector_64>:
     cf4:	1f 92       	push	r1
     cf6:	0f 92       	push	r0
     cf8:	0f b6       	in	r0, 0x3f	; 63
     cfa:	0f 92       	push	r0
     cfc:	11 24       	eor	r1, r1
     cfe:	8f 93       	push	r24
     d00:	80 e8       	ldi	r24, 0x80	; 128
     d02:	80 93 4f 01 	sts	0x014F, r24
     d06:	8f 91       	pop	r24
     d08:	0f 90       	pop	r0
     d0a:	0f be       	out	0x3f, r0	; 63
     d0c:	0f 90       	pop	r0
     d0e:	1f 90       	pop	r1
     d10:	18 95       	reti

00000d12 <__vector_63>:
     d12:	1f 92       	push	r1
     d14:	0f 92       	push	r0
     d16:	0f b6       	in	r0, 0x3f	; 63
     d18:	0f 92       	push	r0
     d1a:	11 24       	eor	r1, r1
     d1c:	8f 93       	push	r24
     d1e:	81 e0       	ldi	r24, 0x01	; 1
     d20:	80 93 23 05 	sts	0x0523, r24
     d24:	80 e4       	ldi	r24, 0x40	; 64
     d26:	80 93 4f 01 	sts	0x014F, r24
     d2a:	8f 91       	pop	r24
     d2c:	0f 90       	pop	r0
     d2e:	0f be       	out	0x3f, r0	; 63
     d30:	0f 90       	pop	r0
     d32:	1f 90       	pop	r1
     d34:	18 95       	reti

00000d36 <__vector_62>:
     d36:	1f 92       	push	r1
     d38:	0f 92       	push	r0
     d3a:	0f b6       	in	r0, 0x3f	; 63
     d3c:	0f 92       	push	r0
     d3e:	11 24       	eor	r1, r1
     d40:	8f 93       	push	r24
     d42:	80 e2       	ldi	r24, 0x20	; 32
     d44:	80 93 4f 01 	sts	0x014F, r24
     d48:	8f 91       	pop	r24
     d4a:	0f 90       	pop	r0
     d4c:	0f be       	out	0x3f, r0	; 63
     d4e:	0f 90       	pop	r0
     d50:	1f 90       	pop	r1
     d52:	18 95       	reti

00000d54 <__vector_61>:
     d54:	1f 92       	push	r1
     d56:	0f 92       	push	r0
     d58:	0f b6       	in	r0, 0x3f	; 63
     d5a:	0f 92       	push	r0
     d5c:	11 24       	eor	r1, r1
     d5e:	8f 93       	push	r24
     d60:	80 e1       	ldi	r24, 0x10	; 16
     d62:	80 93 4f 01 	sts	0x014F, r24
     d66:	8f 91       	pop	r24
     d68:	0f 90       	pop	r0
     d6a:	0f be       	out	0x3f, r0	; 63
     d6c:	0f 90       	pop	r0
     d6e:	1f 90       	pop	r1
     d70:	18 95       	reti

00000d72 <__vector_59>:
     d72:	1f 92       	push	r1
     d74:	0f 92       	push	r0
     d76:	0f b6       	in	r0, 0x3f	; 63
     d78:	0f 92       	push	r0
     d7a:	0b b6       	in	r0, 0x3b	; 59
     d7c:	0f 92       	push	r0
     d7e:	11 24       	eor	r1, r1
     d80:	2f 93       	push	r18
     d82:	3f 93       	push	r19
     d84:	4f 93       	push	r20
     d86:	5f 93       	push	r21
     d88:	6f 93       	push	r22
     d8a:	7f 93       	push	r23
     d8c:	8f 93       	push	r24
     d8e:	9f 93       	push	r25
     d90:	af 93       	push	r26
     d92:	bf 93       	push	r27
     d94:	ef 93       	push	r30
     d96:	ff 93       	push	r31
     d98:	84 e0       	ldi	r24, 0x04	; 4
     d9a:	80 93 4f 01 	sts	0x014F, r24
     d9e:	e0 91 d8 03 	lds	r30, 0x03D8
     da2:	f0 91 d9 03 	lds	r31, 0x03D9
     da6:	30 97       	sbiw	r30, 0x00	; 0
     da8:	09 f0       	breq	.+2      	; 0xdac <__vector_59+0x3a>
     daa:	09 95       	icall
     dac:	ff 91       	pop	r31
     dae:	ef 91       	pop	r30
     db0:	bf 91       	pop	r27
     db2:	af 91       	pop	r26
     db4:	9f 91       	pop	r25
     db6:	8f 91       	pop	r24
     db8:	7f 91       	pop	r23
     dba:	6f 91       	pop	r22
     dbc:	5f 91       	pop	r21
     dbe:	4f 91       	pop	r20
     dc0:	3f 91       	pop	r19
     dc2:	2f 91       	pop	r18
     dc4:	0f 90       	pop	r0
     dc6:	0b be       	out	0x3b, r0	; 59
     dc8:	0f 90       	pop	r0
     dca:	0f be       	out	0x3f, r0	; 63
     dcc:	0f 90       	pop	r0
     dce:	1f 90       	pop	r1
     dd0:	18 95       	reti

00000dd2 <__vector_58>:
     dd2:	1f 92       	push	r1
     dd4:	0f 92       	push	r0
     dd6:	0f b6       	in	r0, 0x3f	; 63
     dd8:	0f 92       	push	r0
     dda:	11 24       	eor	r1, r1
     ddc:	8f 93       	push	r24
     dde:	82 e0       	ldi	r24, 0x02	; 2
     de0:	80 93 4f 01 	sts	0x014F, r24
     de4:	8f 91       	pop	r24
     de6:	0f 90       	pop	r0
     de8:	0f be       	out	0x3f, r0	; 63
     dea:	0f 90       	pop	r0
     dec:	1f 90       	pop	r1
     dee:	18 95       	reti

00000df0 <__vector_57>:
     df0:	1f 92       	push	r1
     df2:	0f 92       	push	r0
     df4:	0f b6       	in	r0, 0x3f	; 63
     df6:	0f 92       	push	r0
     df8:	11 24       	eor	r1, r1
     dfa:	8f 93       	push	r24
     dfc:	81 e0       	ldi	r24, 0x01	; 1
     dfe:	80 93 4f 01 	sts	0x014F, r24
     e02:	8f 91       	pop	r24
     e04:	0f 90       	pop	r0
     e06:	0f be       	out	0x3f, r0	; 63
     e08:	0f 90       	pop	r0
     e0a:	1f 90       	pop	r1
     e0c:	18 95       	reti

00000e0e <rf_set_cca_thresh>:
     e0e:	e9 e4       	ldi	r30, 0x49	; 73
     e10:	f1 e0       	ldi	r31, 0x01	; 1
     e12:	90 81       	ld	r25, Z
     e14:	90 7f       	andi	r25, 0xF0	; 240
     e16:	90 83       	st	Z, r25
     e18:	90 81       	ld	r25, Z
     e1a:	8f 70       	andi	r24, 0x0F	; 15
     e1c:	89 2b       	or	r24, r25
     e1e:	80 83       	st	Z, r24
     e20:	08 95       	ret

00000e22 <rf_security_last_pkt_status>:
     e22:	8f ef       	ldi	r24, 0xFF	; 255
     e24:	08 95       	ret

00000e26 <rf_security_set_ctr_counter>:
     e26:	08 95       	ret

00000e28 <rf_security_set_key>:
     e28:	08 95       	ret

00000e2a <rf_security_disable>:
     e2a:	08 95       	ret

00000e2c <rf_tx_tdma_packet>:
     e2c:	8f ef       	ldi	r24, 0xFF	; 255
     e2e:	08 95       	ret

00000e30 <rf_get_sem>:
     e30:	80 91 0e 05 	lds	r24, 0x050E
     e34:	90 91 0f 05 	lds	r25, 0x050F
     e38:	08 95       	ret

00000e3a <rf_rx_packet>:
     e3a:	80 e0       	ldi	r24, 0x00	; 0
     e3c:	08 95       	ret

00000e3e <rf_flush_rx_fifo>:
     e3e:	08 95       	ret

00000e40 <rf_busy>:
     e40:	81 e0       	ldi	r24, 0x01	; 1
     e42:	08 95       	ret

00000e44 <rf_rx_check_fifop>:
     e44:	81 e0       	ldi	r24, 0x01	; 1
     e46:	08 95       	ret

00000e48 <rf_rx_check_sfd>:
     e48:	81 e0       	ldi	r24, 0x01	; 1
     e4a:	08 95       	ret

00000e4c <rf_carrier_on>:
     e4c:	08 95       	ret

00000e4e <rf_carrier_off>:
     e4e:	08 95       	ret

00000e50 <rf_test_mode>:
     e50:	08 95       	ret

00000e52 <rf_data_mode>:
     e52:	08 95       	ret

00000e54 <rf_rx_set_serial>:
     e54:	08 95       	ret

00000e56 <rf_tx_set_serial>:
     e56:	08 95       	ret

00000e58 <rf_set_preamble_length>:
     e58:	08 95       	ret

00000e5a <rf_set_cca_mode>:
     e5a:	08 95       	ret

00000e5c <getc0>:
     e5c:	80 91 c0 00 	lds	r24, 0x00C0
     e60:	87 ff       	sbrs	r24, 7
     e62:	fc cf       	rjmp	.-8      	; 0xe5c <getc0>
     e64:	80 91 c0 00 	lds	r24, 0x00C0
     e68:	8f 77       	andi	r24, 0x7F	; 127
     e6a:	80 93 c0 00 	sts	0x00C0, r24
     e6e:	80 91 c6 00 	lds	r24, 0x00C6
     e72:	08 95       	ret

00000e74 <putc0>:
     e74:	90 91 c0 00 	lds	r25, 0x00C0
     e78:	95 ff       	sbrs	r25, 5
     e7a:	fc cf       	rjmp	.-8      	; 0xe74 <putc0>
     e7c:	90 91 c0 00 	lds	r25, 0x00C0
     e80:	9f 7d       	andi	r25, 0xDF	; 223
     e82:	90 93 c0 00 	sts	0x00C0, r25
     e86:	80 93 c6 00 	sts	0x00C6, r24
     e8a:	08 95       	ret

00000e8c <nrk_uart_rx_signal_get>:
     e8c:	8f ef       	ldi	r24, 0xFF	; 255
     e8e:	08 95       	ret

00000e90 <nrk_uart_data_ready>:
     e90:	81 30       	cpi	r24, 0x01	; 1
     e92:	19 f4       	brne	.+6      	; 0xe9a <nrk_uart_data_ready+0xa>
     e94:	80 91 c8 00 	lds	r24, 0x00C8
     e98:	04 c0       	rjmp	.+8      	; 0xea2 <nrk_uart_data_ready+0x12>
     e9a:	88 23       	and	r24, r24
     e9c:	31 f4       	brne	.+12     	; 0xeaa <nrk_uart_data_ready+0x1a>
     e9e:	80 91 c0 00 	lds	r24, 0x00C0
     ea2:	88 1f       	adc	r24, r24
     ea4:	88 27       	eor	r24, r24
     ea6:	88 1f       	adc	r24, r24
     ea8:	08 95       	ret
     eaa:	80 e0       	ldi	r24, 0x00	; 0
     eac:	08 95       	ret

00000eae <nrk_kprintf>:
     eae:	cf 93       	push	r28
     eb0:	df 93       	push	r29
     eb2:	ec 01       	movw	r28, r24
     eb4:	07 c0       	rjmp	.+14     	; 0xec4 <nrk_kprintf+0x16>
     eb6:	60 91 c3 06 	lds	r22, 0x06C3
     eba:	70 91 c4 06 	lds	r23, 0x06C4
     ebe:	90 e0       	ldi	r25, 0x00	; 0
     ec0:	0e 94 f1 30 	call	0x61e2	; 0x61e2 <fputc>
     ec4:	fe 01       	movw	r30, r28
     ec6:	21 96       	adiw	r28, 0x01	; 1
     ec8:	84 91       	lpm	r24, Z+
     eca:	88 23       	and	r24, r24
     ecc:	a1 f7       	brne	.-24     	; 0xeb6 <nrk_kprintf+0x8>
     ece:	df 91       	pop	r29
     ed0:	cf 91       	pop	r28
     ed2:	08 95       	ret

00000ed4 <PORT_INIT>:
     ed4:	86 e0       	ldi	r24, 0x06	; 6
     ed6:	84 b9       	out	0x04, r24	; 4
     ed8:	85 b9       	out	0x05, r24	; 5
     eda:	88 ef       	ldi	r24, 0xF8	; 248
     edc:	8a b9       	out	0x0a, r24	; 10
     ede:	80 ef       	ldi	r24, 0xF0	; 240
     ee0:	8b b9       	out	0x0b, r24	; 11
     ee2:	82 e0       	ldi	r24, 0x02	; 2
     ee4:	8e b9       	out	0x0e, r24	; 14
     ee6:	80 e6       	ldi	r24, 0x60	; 96
     ee8:	81 b9       	out	0x01, r24	; 1
     eea:	16 9a       	sbi	0x02, 6	; 2
     eec:	08 95       	ret

00000eee <nrk_setup_ports>:
     eee:	0e 94 6a 07 	call	0xed4	; 0xed4 <PORT_INIT>
     ef2:	08 95       	ret

00000ef4 <nrk_gpio_set>:
     ef4:	8f 3f       	cpi	r24, 0xFF	; 255
     ef6:	09 f4       	brne	.+2      	; 0xefa <nrk_gpio_set+0x6>
     ef8:	71 c0       	rjmp	.+226    	; 0xfdc <nrk_gpio_set+0xe8>
     efa:	28 2f       	mov	r18, r24
     efc:	30 e0       	ldi	r19, 0x00	; 0
     efe:	27 70       	andi	r18, 0x07	; 7
     f00:	30 70       	andi	r19, 0x00	; 0
     f02:	22 30       	cpi	r18, 0x02	; 2
     f04:	31 05       	cpc	r19, r1
     f06:	89 f1       	breq	.+98     	; 0xf6a <nrk_gpio_set+0x76>
     f08:	23 30       	cpi	r18, 0x03	; 3
     f0a:	31 05       	cpc	r19, r1
     f0c:	44 f4       	brge	.+16     	; 0xf1e <nrk_gpio_set+0x2a>
     f0e:	21 15       	cp	r18, r1
     f10:	31 05       	cpc	r19, r1
     f12:	89 f0       	breq	.+34     	; 0xf36 <nrk_gpio_set+0x42>
     f14:	21 30       	cpi	r18, 0x01	; 1
     f16:	31 05       	cpc	r19, r1
     f18:	09 f0       	breq	.+2      	; 0xf1c <nrk_gpio_set+0x28>
     f1a:	62 c0       	rjmp	.+196    	; 0xfe0 <nrk_gpio_set+0xec>
     f1c:	1a c0       	rjmp	.+52     	; 0xf52 <nrk_gpio_set+0x5e>
     f1e:	24 30       	cpi	r18, 0x04	; 4
     f20:	31 05       	cpc	r19, r1
     f22:	09 f4       	brne	.+2      	; 0xf26 <nrk_gpio_set+0x32>
     f24:	3f c0       	rjmp	.+126    	; 0xfa4 <nrk_gpio_set+0xb0>
     f26:	24 30       	cpi	r18, 0x04	; 4
     f28:	31 05       	cpc	r19, r1
     f2a:	74 f1       	brlt	.+92     	; 0xf88 <nrk_gpio_set+0x94>
     f2c:	25 30       	cpi	r18, 0x05	; 5
     f2e:	31 05       	cpc	r19, r1
     f30:	09 f0       	breq	.+2      	; 0xf34 <nrk_gpio_set+0x40>
     f32:	56 c0       	rjmp	.+172    	; 0xfe0 <nrk_gpio_set+0xec>
     f34:	45 c0       	rjmp	.+138    	; 0xfc0 <nrk_gpio_set+0xcc>
     f36:	92 b1       	in	r25, 0x02	; 2
     f38:	86 95       	lsr	r24
     f3a:	86 95       	lsr	r24
     f3c:	86 95       	lsr	r24
     f3e:	41 e0       	ldi	r20, 0x01	; 1
     f40:	50 e0       	ldi	r21, 0x00	; 0
     f42:	02 c0       	rjmp	.+4      	; 0xf48 <nrk_gpio_set+0x54>
     f44:	44 0f       	add	r20, r20
     f46:	55 1f       	adc	r21, r21
     f48:	8a 95       	dec	r24
     f4a:	e2 f7       	brpl	.-8      	; 0xf44 <nrk_gpio_set+0x50>
     f4c:	94 2b       	or	r25, r20
     f4e:	92 b9       	out	0x02, r25	; 2
     f50:	19 c0       	rjmp	.+50     	; 0xf84 <nrk_gpio_set+0x90>
     f52:	95 b1       	in	r25, 0x05	; 5
     f54:	86 95       	lsr	r24
     f56:	86 95       	lsr	r24
     f58:	86 95       	lsr	r24
     f5a:	02 c0       	rjmp	.+4      	; 0xf60 <nrk_gpio_set+0x6c>
     f5c:	22 0f       	add	r18, r18
     f5e:	33 1f       	adc	r19, r19
     f60:	8a 95       	dec	r24
     f62:	e2 f7       	brpl	.-8      	; 0xf5c <nrk_gpio_set+0x68>
     f64:	92 2b       	or	r25, r18
     f66:	95 b9       	out	0x05, r25	; 5
     f68:	0d c0       	rjmp	.+26     	; 0xf84 <nrk_gpio_set+0x90>
     f6a:	98 b1       	in	r25, 0x08	; 8
     f6c:	86 95       	lsr	r24
     f6e:	86 95       	lsr	r24
     f70:	86 95       	lsr	r24
     f72:	41 e0       	ldi	r20, 0x01	; 1
     f74:	50 e0       	ldi	r21, 0x00	; 0
     f76:	02 c0       	rjmp	.+4      	; 0xf7c <nrk_gpio_set+0x88>
     f78:	44 0f       	add	r20, r20
     f7a:	55 1f       	adc	r21, r21
     f7c:	8a 95       	dec	r24
     f7e:	e2 f7       	brpl	.-8      	; 0xf78 <nrk_gpio_set+0x84>
     f80:	94 2b       	or	r25, r20
     f82:	98 b9       	out	0x08, r25	; 8
     f84:	81 e0       	ldi	r24, 0x01	; 1
     f86:	08 95       	ret
     f88:	9b b1       	in	r25, 0x0b	; 11
     f8a:	86 95       	lsr	r24
     f8c:	86 95       	lsr	r24
     f8e:	86 95       	lsr	r24
     f90:	41 e0       	ldi	r20, 0x01	; 1
     f92:	50 e0       	ldi	r21, 0x00	; 0
     f94:	02 c0       	rjmp	.+4      	; 0xf9a <nrk_gpio_set+0xa6>
     f96:	44 0f       	add	r20, r20
     f98:	55 1f       	adc	r21, r21
     f9a:	8a 95       	dec	r24
     f9c:	e2 f7       	brpl	.-8      	; 0xf96 <nrk_gpio_set+0xa2>
     f9e:	94 2b       	or	r25, r20
     fa0:	9b b9       	out	0x0b, r25	; 11
     fa2:	f0 cf       	rjmp	.-32     	; 0xf84 <nrk_gpio_set+0x90>
     fa4:	9e b1       	in	r25, 0x0e	; 14
     fa6:	86 95       	lsr	r24
     fa8:	86 95       	lsr	r24
     faa:	86 95       	lsr	r24
     fac:	41 e0       	ldi	r20, 0x01	; 1
     fae:	50 e0       	ldi	r21, 0x00	; 0
     fb0:	02 c0       	rjmp	.+4      	; 0xfb6 <nrk_gpio_set+0xc2>
     fb2:	44 0f       	add	r20, r20
     fb4:	55 1f       	adc	r21, r21
     fb6:	8a 95       	dec	r24
     fb8:	e2 f7       	brpl	.-8      	; 0xfb2 <nrk_gpio_set+0xbe>
     fba:	94 2b       	or	r25, r20
     fbc:	9e b9       	out	0x0e, r25	; 14
     fbe:	e2 cf       	rjmp	.-60     	; 0xf84 <nrk_gpio_set+0x90>
     fc0:	91 b3       	in	r25, 0x11	; 17
     fc2:	86 95       	lsr	r24
     fc4:	86 95       	lsr	r24
     fc6:	86 95       	lsr	r24
     fc8:	41 e0       	ldi	r20, 0x01	; 1
     fca:	50 e0       	ldi	r21, 0x00	; 0
     fcc:	02 c0       	rjmp	.+4      	; 0xfd2 <nrk_gpio_set+0xde>
     fce:	44 0f       	add	r20, r20
     fd0:	55 1f       	adc	r21, r21
     fd2:	8a 95       	dec	r24
     fd4:	e2 f7       	brpl	.-8      	; 0xfce <nrk_gpio_set+0xda>
     fd6:	94 2b       	or	r25, r20
     fd8:	91 bb       	out	0x11, r25	; 17
     fda:	d4 cf       	rjmp	.-88     	; 0xf84 <nrk_gpio_set+0x90>
     fdc:	8f ef       	ldi	r24, 0xFF	; 255
     fde:	08 95       	ret
     fe0:	8f ef       	ldi	r24, 0xFF	; 255
     fe2:	08 95       	ret

00000fe4 <nrk_gpio_clr>:
     fe4:	8f 3f       	cpi	r24, 0xFF	; 255
     fe6:	09 f4       	brne	.+2      	; 0xfea <nrk_gpio_clr+0x6>
     fe8:	77 c0       	rjmp	.+238    	; 0x10d8 <nrk_gpio_clr+0xf4>
     fea:	28 2f       	mov	r18, r24
     fec:	30 e0       	ldi	r19, 0x00	; 0
     fee:	27 70       	andi	r18, 0x07	; 7
     ff0:	30 70       	andi	r19, 0x00	; 0
     ff2:	22 30       	cpi	r18, 0x02	; 2
     ff4:	31 05       	cpc	r19, r1
     ff6:	99 f1       	breq	.+102    	; 0x105e <nrk_gpio_clr+0x7a>
     ff8:	23 30       	cpi	r18, 0x03	; 3
     ffa:	31 05       	cpc	r19, r1
     ffc:	44 f4       	brge	.+16     	; 0x100e <nrk_gpio_clr+0x2a>
     ffe:	21 15       	cp	r18, r1
    1000:	31 05       	cpc	r19, r1
    1002:	89 f0       	breq	.+34     	; 0x1026 <nrk_gpio_clr+0x42>
    1004:	21 30       	cpi	r18, 0x01	; 1
    1006:	31 05       	cpc	r19, r1
    1008:	09 f0       	breq	.+2      	; 0x100c <nrk_gpio_clr+0x28>
    100a:	68 c0       	rjmp	.+208    	; 0x10dc <nrk_gpio_clr+0xf8>
    100c:	1b c0       	rjmp	.+54     	; 0x1044 <nrk_gpio_clr+0x60>
    100e:	24 30       	cpi	r18, 0x04	; 4
    1010:	31 05       	cpc	r19, r1
    1012:	09 f4       	brne	.+2      	; 0x1016 <nrk_gpio_clr+0x32>
    1014:	43 c0       	rjmp	.+134    	; 0x109c <nrk_gpio_clr+0xb8>
    1016:	24 30       	cpi	r18, 0x04	; 4
    1018:	31 05       	cpc	r19, r1
    101a:	8c f1       	brlt	.+98     	; 0x107e <nrk_gpio_clr+0x9a>
    101c:	25 30       	cpi	r18, 0x05	; 5
    101e:	31 05       	cpc	r19, r1
    1020:	09 f0       	breq	.+2      	; 0x1024 <nrk_gpio_clr+0x40>
    1022:	5c c0       	rjmp	.+184    	; 0x10dc <nrk_gpio_clr+0xf8>
    1024:	4a c0       	rjmp	.+148    	; 0x10ba <nrk_gpio_clr+0xd6>
    1026:	92 b1       	in	r25, 0x02	; 2
    1028:	86 95       	lsr	r24
    102a:	86 95       	lsr	r24
    102c:	86 95       	lsr	r24
    102e:	41 e0       	ldi	r20, 0x01	; 1
    1030:	50 e0       	ldi	r21, 0x00	; 0
    1032:	02 c0       	rjmp	.+4      	; 0x1038 <nrk_gpio_clr+0x54>
    1034:	44 0f       	add	r20, r20
    1036:	55 1f       	adc	r21, r21
    1038:	8a 95       	dec	r24
    103a:	e2 f7       	brpl	.-8      	; 0x1034 <nrk_gpio_clr+0x50>
    103c:	40 95       	com	r20
    103e:	49 23       	and	r20, r25
    1040:	42 b9       	out	0x02, r20	; 2
    1042:	1b c0       	rjmp	.+54     	; 0x107a <nrk_gpio_clr+0x96>
    1044:	95 b1       	in	r25, 0x05	; 5
    1046:	86 95       	lsr	r24
    1048:	86 95       	lsr	r24
    104a:	86 95       	lsr	r24
    104c:	02 c0       	rjmp	.+4      	; 0x1052 <nrk_gpio_clr+0x6e>
    104e:	22 0f       	add	r18, r18
    1050:	33 1f       	adc	r19, r19
    1052:	8a 95       	dec	r24
    1054:	e2 f7       	brpl	.-8      	; 0x104e <nrk_gpio_clr+0x6a>
    1056:	20 95       	com	r18
    1058:	29 23       	and	r18, r25
    105a:	25 b9       	out	0x05, r18	; 5
    105c:	0e c0       	rjmp	.+28     	; 0x107a <nrk_gpio_clr+0x96>
    105e:	98 b1       	in	r25, 0x08	; 8
    1060:	86 95       	lsr	r24
    1062:	86 95       	lsr	r24
    1064:	86 95       	lsr	r24
    1066:	41 e0       	ldi	r20, 0x01	; 1
    1068:	50 e0       	ldi	r21, 0x00	; 0
    106a:	02 c0       	rjmp	.+4      	; 0x1070 <nrk_gpio_clr+0x8c>
    106c:	44 0f       	add	r20, r20
    106e:	55 1f       	adc	r21, r21
    1070:	8a 95       	dec	r24
    1072:	e2 f7       	brpl	.-8      	; 0x106c <nrk_gpio_clr+0x88>
    1074:	40 95       	com	r20
    1076:	49 23       	and	r20, r25
    1078:	48 b9       	out	0x08, r20	; 8
    107a:	81 e0       	ldi	r24, 0x01	; 1
    107c:	08 95       	ret
    107e:	9b b1       	in	r25, 0x0b	; 11
    1080:	86 95       	lsr	r24
    1082:	86 95       	lsr	r24
    1084:	86 95       	lsr	r24
    1086:	41 e0       	ldi	r20, 0x01	; 1
    1088:	50 e0       	ldi	r21, 0x00	; 0
    108a:	02 c0       	rjmp	.+4      	; 0x1090 <nrk_gpio_clr+0xac>
    108c:	44 0f       	add	r20, r20
    108e:	55 1f       	adc	r21, r21
    1090:	8a 95       	dec	r24
    1092:	e2 f7       	brpl	.-8      	; 0x108c <nrk_gpio_clr+0xa8>
    1094:	40 95       	com	r20
    1096:	49 23       	and	r20, r25
    1098:	4b b9       	out	0x0b, r20	; 11
    109a:	ef cf       	rjmp	.-34     	; 0x107a <nrk_gpio_clr+0x96>
    109c:	9e b1       	in	r25, 0x0e	; 14
    109e:	86 95       	lsr	r24
    10a0:	86 95       	lsr	r24
    10a2:	86 95       	lsr	r24
    10a4:	41 e0       	ldi	r20, 0x01	; 1
    10a6:	50 e0       	ldi	r21, 0x00	; 0
    10a8:	02 c0       	rjmp	.+4      	; 0x10ae <nrk_gpio_clr+0xca>
    10aa:	44 0f       	add	r20, r20
    10ac:	55 1f       	adc	r21, r21
    10ae:	8a 95       	dec	r24
    10b0:	e2 f7       	brpl	.-8      	; 0x10aa <nrk_gpio_clr+0xc6>
    10b2:	40 95       	com	r20
    10b4:	49 23       	and	r20, r25
    10b6:	4e b9       	out	0x0e, r20	; 14
    10b8:	e0 cf       	rjmp	.-64     	; 0x107a <nrk_gpio_clr+0x96>
    10ba:	91 b3       	in	r25, 0x11	; 17
    10bc:	86 95       	lsr	r24
    10be:	86 95       	lsr	r24
    10c0:	86 95       	lsr	r24
    10c2:	41 e0       	ldi	r20, 0x01	; 1
    10c4:	50 e0       	ldi	r21, 0x00	; 0
    10c6:	02 c0       	rjmp	.+4      	; 0x10cc <nrk_gpio_clr+0xe8>
    10c8:	44 0f       	add	r20, r20
    10ca:	55 1f       	adc	r21, r21
    10cc:	8a 95       	dec	r24
    10ce:	e2 f7       	brpl	.-8      	; 0x10c8 <nrk_gpio_clr+0xe4>
    10d0:	40 95       	com	r20
    10d2:	49 23       	and	r20, r25
    10d4:	41 bb       	out	0x11, r20	; 17
    10d6:	d1 cf       	rjmp	.-94     	; 0x107a <nrk_gpio_clr+0x96>
    10d8:	8f ef       	ldi	r24, 0xFF	; 255
    10da:	08 95       	ret
    10dc:	8f ef       	ldi	r24, 0xFF	; 255
    10de:	08 95       	ret

000010e0 <nrk_gpio_get>:
    10e0:	8f 3f       	cpi	r24, 0xFF	; 255
    10e2:	89 f1       	breq	.+98     	; 0x1146 <nrk_gpio_get+0x66>
    10e4:	28 2f       	mov	r18, r24
    10e6:	30 e0       	ldi	r19, 0x00	; 0
    10e8:	27 70       	andi	r18, 0x07	; 7
    10ea:	30 70       	andi	r19, 0x00	; 0
    10ec:	22 30       	cpi	r18, 0x02	; 2
    10ee:	31 05       	cpc	r19, r1
    10f0:	c1 f0       	breq	.+48     	; 0x1122 <nrk_gpio_get+0x42>
    10f2:	23 30       	cpi	r18, 0x03	; 3
    10f4:	31 05       	cpc	r19, r1
    10f6:	3c f4       	brge	.+14     	; 0x1106 <nrk_gpio_get+0x26>
    10f8:	21 15       	cp	r18, r1
    10fa:	31 05       	cpc	r19, r1
    10fc:	71 f0       	breq	.+28     	; 0x111a <nrk_gpio_get+0x3a>
    10fe:	21 30       	cpi	r18, 0x01	; 1
    1100:	31 05       	cpc	r19, r1
    1102:	09 f5       	brne	.+66     	; 0x1146 <nrk_gpio_get+0x66>
    1104:	0c c0       	rjmp	.+24     	; 0x111e <nrk_gpio_get+0x3e>
    1106:	24 30       	cpi	r18, 0x04	; 4
    1108:	31 05       	cpc	r19, r1
    110a:	79 f0       	breq	.+30     	; 0x112a <nrk_gpio_get+0x4a>
    110c:	24 30       	cpi	r18, 0x04	; 4
    110e:	31 05       	cpc	r19, r1
    1110:	54 f0       	brlt	.+20     	; 0x1126 <nrk_gpio_get+0x46>
    1112:	25 30       	cpi	r18, 0x05	; 5
    1114:	31 05       	cpc	r19, r1
    1116:	b9 f4       	brne	.+46     	; 0x1146 <nrk_gpio_get+0x66>
    1118:	0a c0       	rjmp	.+20     	; 0x112e <nrk_gpio_get+0x4e>
    111a:	20 b1       	in	r18, 0x00	; 0
    111c:	09 c0       	rjmp	.+18     	; 0x1130 <nrk_gpio_get+0x50>
    111e:	23 b1       	in	r18, 0x03	; 3
    1120:	07 c0       	rjmp	.+14     	; 0x1130 <nrk_gpio_get+0x50>
    1122:	26 b1       	in	r18, 0x06	; 6
    1124:	05 c0       	rjmp	.+10     	; 0x1130 <nrk_gpio_get+0x50>
    1126:	29 b1       	in	r18, 0x09	; 9
    1128:	03 c0       	rjmp	.+6      	; 0x1130 <nrk_gpio_get+0x50>
    112a:	2c b1       	in	r18, 0x0c	; 12
    112c:	01 c0       	rjmp	.+2      	; 0x1130 <nrk_gpio_get+0x50>
    112e:	2f b1       	in	r18, 0x0f	; 15
    1130:	30 e0       	ldi	r19, 0x00	; 0
    1132:	86 95       	lsr	r24
    1134:	86 95       	lsr	r24
    1136:	86 95       	lsr	r24
    1138:	02 c0       	rjmp	.+4      	; 0x113e <nrk_gpio_get+0x5e>
    113a:	35 95       	asr	r19
    113c:	27 95       	ror	r18
    113e:	8a 95       	dec	r24
    1140:	e2 f7       	brpl	.-8      	; 0x113a <nrk_gpio_get+0x5a>
    1142:	21 70       	andi	r18, 0x01	; 1
    1144:	01 c0       	rjmp	.+2      	; 0x1148 <nrk_gpio_get+0x68>
    1146:	2f ef       	ldi	r18, 0xFF	; 255
    1148:	82 2f       	mov	r24, r18
    114a:	08 95       	ret

0000114c <nrk_gpio_toggle>:
    114c:	8f 3f       	cpi	r24, 0xFF	; 255
    114e:	09 f4       	brne	.+2      	; 0x1152 <nrk_gpio_toggle+0x6>
    1150:	fa c0       	rjmp	.+500    	; 0x1346 <nrk_gpio_toggle+0x1fa>
    1152:	28 2f       	mov	r18, r24
    1154:	30 e0       	ldi	r19, 0x00	; 0
    1156:	27 70       	andi	r18, 0x07	; 7
    1158:	30 70       	andi	r19, 0x00	; 0
    115a:	22 30       	cpi	r18, 0x02	; 2
    115c:	31 05       	cpc	r19, r1
    115e:	09 f4       	brne	.+2      	; 0x1162 <nrk_gpio_toggle+0x16>
    1160:	59 c0       	rjmp	.+178    	; 0x1214 <nrk_gpio_toggle+0xc8>
    1162:	23 30       	cpi	r18, 0x03	; 3
    1164:	31 05       	cpc	r19, r1
    1166:	44 f4       	brge	.+16     	; 0x1178 <nrk_gpio_toggle+0x2c>
    1168:	21 15       	cp	r18, r1
    116a:	31 05       	cpc	r19, r1
    116c:	91 f0       	breq	.+36     	; 0x1192 <nrk_gpio_toggle+0x46>
    116e:	21 30       	cpi	r18, 0x01	; 1
    1170:	31 05       	cpc	r19, r1
    1172:	09 f0       	breq	.+2      	; 0x1176 <nrk_gpio_toggle+0x2a>
    1174:	ea c0       	rjmp	.+468    	; 0x134a <nrk_gpio_toggle+0x1fe>
    1176:	33 c0       	rjmp	.+102    	; 0x11de <nrk_gpio_toggle+0x92>
    1178:	24 30       	cpi	r18, 0x04	; 4
    117a:	31 05       	cpc	r19, r1
    117c:	09 f4       	brne	.+2      	; 0x1180 <nrk_gpio_toggle+0x34>
    117e:	97 c0       	rjmp	.+302    	; 0x12ae <nrk_gpio_toggle+0x162>
    1180:	24 30       	cpi	r18, 0x04	; 4
    1182:	31 05       	cpc	r19, r1
    1184:	0c f4       	brge	.+2      	; 0x1188 <nrk_gpio_toggle+0x3c>
    1186:	6c c0       	rjmp	.+216    	; 0x1260 <nrk_gpio_toggle+0x114>
    1188:	25 30       	cpi	r18, 0x05	; 5
    118a:	31 05       	cpc	r19, r1
    118c:	09 f0       	breq	.+2      	; 0x1190 <nrk_gpio_toggle+0x44>
    118e:	dd c0       	rjmp	.+442    	; 0x134a <nrk_gpio_toggle+0x1fe>
    1190:	b4 c0       	rjmp	.+360    	; 0x12fa <nrk_gpio_toggle+0x1ae>
    1192:	90 b1       	in	r25, 0x00	; 0
    1194:	86 95       	lsr	r24
    1196:	86 95       	lsr	r24
    1198:	86 95       	lsr	r24
    119a:	28 2f       	mov	r18, r24
    119c:	89 2f       	mov	r24, r25
    119e:	90 e0       	ldi	r25, 0x00	; 0
    11a0:	02 2e       	mov	r0, r18
    11a2:	02 c0       	rjmp	.+4      	; 0x11a8 <nrk_gpio_toggle+0x5c>
    11a4:	95 95       	asr	r25
    11a6:	87 95       	ror	r24
    11a8:	0a 94       	dec	r0
    11aa:	e2 f7       	brpl	.-8      	; 0x11a4 <nrk_gpio_toggle+0x58>
    11ac:	80 fd       	sbrc	r24, 0
    11ae:	0b c0       	rjmp	.+22     	; 0x11c6 <nrk_gpio_toggle+0x7a>
    11b0:	32 b1       	in	r19, 0x02	; 2
    11b2:	81 e0       	ldi	r24, 0x01	; 1
    11b4:	90 e0       	ldi	r25, 0x00	; 0
    11b6:	02 c0       	rjmp	.+4      	; 0x11bc <nrk_gpio_toggle+0x70>
    11b8:	88 0f       	add	r24, r24
    11ba:	99 1f       	adc	r25, r25
    11bc:	2a 95       	dec	r18
    11be:	e2 f7       	brpl	.-8      	; 0x11b8 <nrk_gpio_toggle+0x6c>
    11c0:	38 2b       	or	r19, r24
    11c2:	32 b9       	out	0x02, r19	; 2
    11c4:	66 c0       	rjmp	.+204    	; 0x1292 <nrk_gpio_toggle+0x146>
    11c6:	32 b1       	in	r19, 0x02	; 2
    11c8:	81 e0       	ldi	r24, 0x01	; 1
    11ca:	90 e0       	ldi	r25, 0x00	; 0
    11cc:	02 c0       	rjmp	.+4      	; 0x11d2 <nrk_gpio_toggle+0x86>
    11ce:	88 0f       	add	r24, r24
    11d0:	99 1f       	adc	r25, r25
    11d2:	2a 95       	dec	r18
    11d4:	e2 f7       	brpl	.-8      	; 0x11ce <nrk_gpio_toggle+0x82>
    11d6:	80 95       	com	r24
    11d8:	83 23       	and	r24, r19
    11da:	82 b9       	out	0x02, r24	; 2
    11dc:	5a c0       	rjmp	.+180    	; 0x1292 <nrk_gpio_toggle+0x146>
    11de:	43 b1       	in	r20, 0x03	; 3
    11e0:	86 95       	lsr	r24
    11e2:	86 95       	lsr	r24
    11e4:	86 95       	lsr	r24
    11e6:	50 e0       	ldi	r21, 0x00	; 0
    11e8:	08 2e       	mov	r0, r24
    11ea:	02 c0       	rjmp	.+4      	; 0x11f0 <nrk_gpio_toggle+0xa4>
    11ec:	55 95       	asr	r21
    11ee:	47 95       	ror	r20
    11f0:	0a 94       	dec	r0
    11f2:	e2 f7       	brpl	.-8      	; 0x11ec <nrk_gpio_toggle+0xa0>
    11f4:	02 c0       	rjmp	.+4      	; 0x11fa <nrk_gpio_toggle+0xae>
    11f6:	22 0f       	add	r18, r18
    11f8:	33 1f       	adc	r19, r19
    11fa:	8a 95       	dec	r24
    11fc:	e2 f7       	brpl	.-8      	; 0x11f6 <nrk_gpio_toggle+0xaa>
    11fe:	40 fd       	sbrc	r20, 0
    1200:	04 c0       	rjmp	.+8      	; 0x120a <nrk_gpio_toggle+0xbe>
    1202:	85 b1       	in	r24, 0x05	; 5
    1204:	82 2b       	or	r24, r18
    1206:	85 b9       	out	0x05, r24	; 5
    1208:	44 c0       	rjmp	.+136    	; 0x1292 <nrk_gpio_toggle+0x146>
    120a:	85 b1       	in	r24, 0x05	; 5
    120c:	20 95       	com	r18
    120e:	28 23       	and	r18, r24
    1210:	25 b9       	out	0x05, r18	; 5
    1212:	3f c0       	rjmp	.+126    	; 0x1292 <nrk_gpio_toggle+0x146>
    1214:	96 b1       	in	r25, 0x06	; 6
    1216:	86 95       	lsr	r24
    1218:	86 95       	lsr	r24
    121a:	86 95       	lsr	r24
    121c:	28 2f       	mov	r18, r24
    121e:	89 2f       	mov	r24, r25
    1220:	90 e0       	ldi	r25, 0x00	; 0
    1222:	02 2e       	mov	r0, r18
    1224:	02 c0       	rjmp	.+4      	; 0x122a <nrk_gpio_toggle+0xde>
    1226:	95 95       	asr	r25
    1228:	87 95       	ror	r24
    122a:	0a 94       	dec	r0
    122c:	e2 f7       	brpl	.-8      	; 0x1226 <nrk_gpio_toggle+0xda>
    122e:	80 fd       	sbrc	r24, 0
    1230:	0b c0       	rjmp	.+22     	; 0x1248 <nrk_gpio_toggle+0xfc>
    1232:	38 b1       	in	r19, 0x08	; 8
    1234:	81 e0       	ldi	r24, 0x01	; 1
    1236:	90 e0       	ldi	r25, 0x00	; 0
    1238:	02 c0       	rjmp	.+4      	; 0x123e <nrk_gpio_toggle+0xf2>
    123a:	88 0f       	add	r24, r24
    123c:	99 1f       	adc	r25, r25
    123e:	2a 95       	dec	r18
    1240:	e2 f7       	brpl	.-8      	; 0x123a <nrk_gpio_toggle+0xee>
    1242:	38 2b       	or	r19, r24
    1244:	38 b9       	out	0x08, r19	; 8
    1246:	25 c0       	rjmp	.+74     	; 0x1292 <nrk_gpio_toggle+0x146>
    1248:	38 b1       	in	r19, 0x08	; 8
    124a:	81 e0       	ldi	r24, 0x01	; 1
    124c:	90 e0       	ldi	r25, 0x00	; 0
    124e:	02 c0       	rjmp	.+4      	; 0x1254 <nrk_gpio_toggle+0x108>
    1250:	88 0f       	add	r24, r24
    1252:	99 1f       	adc	r25, r25
    1254:	2a 95       	dec	r18
    1256:	e2 f7       	brpl	.-8      	; 0x1250 <nrk_gpio_toggle+0x104>
    1258:	80 95       	com	r24
    125a:	83 23       	and	r24, r19
    125c:	88 b9       	out	0x08, r24	; 8
    125e:	19 c0       	rjmp	.+50     	; 0x1292 <nrk_gpio_toggle+0x146>
    1260:	99 b1       	in	r25, 0x09	; 9
    1262:	86 95       	lsr	r24
    1264:	86 95       	lsr	r24
    1266:	86 95       	lsr	r24
    1268:	28 2f       	mov	r18, r24
    126a:	89 2f       	mov	r24, r25
    126c:	90 e0       	ldi	r25, 0x00	; 0
    126e:	02 2e       	mov	r0, r18
    1270:	02 c0       	rjmp	.+4      	; 0x1276 <nrk_gpio_toggle+0x12a>
    1272:	95 95       	asr	r25
    1274:	87 95       	ror	r24
    1276:	0a 94       	dec	r0
    1278:	e2 f7       	brpl	.-8      	; 0x1272 <nrk_gpio_toggle+0x126>
    127a:	80 fd       	sbrc	r24, 0
    127c:	0c c0       	rjmp	.+24     	; 0x1296 <nrk_gpio_toggle+0x14a>
    127e:	3b b1       	in	r19, 0x0b	; 11
    1280:	81 e0       	ldi	r24, 0x01	; 1
    1282:	90 e0       	ldi	r25, 0x00	; 0
    1284:	02 c0       	rjmp	.+4      	; 0x128a <nrk_gpio_toggle+0x13e>
    1286:	88 0f       	add	r24, r24
    1288:	99 1f       	adc	r25, r25
    128a:	2a 95       	dec	r18
    128c:	e2 f7       	brpl	.-8      	; 0x1286 <nrk_gpio_toggle+0x13a>
    128e:	38 2b       	or	r19, r24
    1290:	3b b9       	out	0x0b, r19	; 11
    1292:	81 e0       	ldi	r24, 0x01	; 1
    1294:	08 95       	ret
    1296:	3b b1       	in	r19, 0x0b	; 11
    1298:	81 e0       	ldi	r24, 0x01	; 1
    129a:	90 e0       	ldi	r25, 0x00	; 0
    129c:	02 c0       	rjmp	.+4      	; 0x12a2 <nrk_gpio_toggle+0x156>
    129e:	88 0f       	add	r24, r24
    12a0:	99 1f       	adc	r25, r25
    12a2:	2a 95       	dec	r18
    12a4:	e2 f7       	brpl	.-8      	; 0x129e <nrk_gpio_toggle+0x152>
    12a6:	80 95       	com	r24
    12a8:	83 23       	and	r24, r19
    12aa:	8b b9       	out	0x0b, r24	; 11
    12ac:	f2 cf       	rjmp	.-28     	; 0x1292 <nrk_gpio_toggle+0x146>
    12ae:	9c b1       	in	r25, 0x0c	; 12
    12b0:	86 95       	lsr	r24
    12b2:	86 95       	lsr	r24
    12b4:	86 95       	lsr	r24
    12b6:	28 2f       	mov	r18, r24
    12b8:	89 2f       	mov	r24, r25
    12ba:	90 e0       	ldi	r25, 0x00	; 0
    12bc:	02 2e       	mov	r0, r18
    12be:	02 c0       	rjmp	.+4      	; 0x12c4 <nrk_gpio_toggle+0x178>
    12c0:	95 95       	asr	r25
    12c2:	87 95       	ror	r24
    12c4:	0a 94       	dec	r0
    12c6:	e2 f7       	brpl	.-8      	; 0x12c0 <nrk_gpio_toggle+0x174>
    12c8:	80 fd       	sbrc	r24, 0
    12ca:	0b c0       	rjmp	.+22     	; 0x12e2 <nrk_gpio_toggle+0x196>
    12cc:	3e b1       	in	r19, 0x0e	; 14
    12ce:	81 e0       	ldi	r24, 0x01	; 1
    12d0:	90 e0       	ldi	r25, 0x00	; 0
    12d2:	02 c0       	rjmp	.+4      	; 0x12d8 <nrk_gpio_toggle+0x18c>
    12d4:	88 0f       	add	r24, r24
    12d6:	99 1f       	adc	r25, r25
    12d8:	2a 95       	dec	r18
    12da:	e2 f7       	brpl	.-8      	; 0x12d4 <nrk_gpio_toggle+0x188>
    12dc:	38 2b       	or	r19, r24
    12de:	3e b9       	out	0x0e, r19	; 14
    12e0:	d8 cf       	rjmp	.-80     	; 0x1292 <nrk_gpio_toggle+0x146>
    12e2:	3e b1       	in	r19, 0x0e	; 14
    12e4:	81 e0       	ldi	r24, 0x01	; 1
    12e6:	90 e0       	ldi	r25, 0x00	; 0
    12e8:	02 c0       	rjmp	.+4      	; 0x12ee <nrk_gpio_toggle+0x1a2>
    12ea:	88 0f       	add	r24, r24
    12ec:	99 1f       	adc	r25, r25
    12ee:	2a 95       	dec	r18
    12f0:	e2 f7       	brpl	.-8      	; 0x12ea <nrk_gpio_toggle+0x19e>
    12f2:	80 95       	com	r24
    12f4:	83 23       	and	r24, r19
    12f6:	8e b9       	out	0x0e, r24	; 14
    12f8:	cc cf       	rjmp	.-104    	; 0x1292 <nrk_gpio_toggle+0x146>
    12fa:	9f b1       	in	r25, 0x0f	; 15
    12fc:	86 95       	lsr	r24
    12fe:	86 95       	lsr	r24
    1300:	86 95       	lsr	r24
    1302:	28 2f       	mov	r18, r24
    1304:	89 2f       	mov	r24, r25
    1306:	90 e0       	ldi	r25, 0x00	; 0
    1308:	02 2e       	mov	r0, r18
    130a:	02 c0       	rjmp	.+4      	; 0x1310 <nrk_gpio_toggle+0x1c4>
    130c:	95 95       	asr	r25
    130e:	87 95       	ror	r24
    1310:	0a 94       	dec	r0
    1312:	e2 f7       	brpl	.-8      	; 0x130c <nrk_gpio_toggle+0x1c0>
    1314:	80 fd       	sbrc	r24, 0
    1316:	0b c0       	rjmp	.+22     	; 0x132e <nrk_gpio_toggle+0x1e2>
    1318:	31 b3       	in	r19, 0x11	; 17
    131a:	81 e0       	ldi	r24, 0x01	; 1
    131c:	90 e0       	ldi	r25, 0x00	; 0
    131e:	02 c0       	rjmp	.+4      	; 0x1324 <nrk_gpio_toggle+0x1d8>
    1320:	88 0f       	add	r24, r24
    1322:	99 1f       	adc	r25, r25
    1324:	2a 95       	dec	r18
    1326:	e2 f7       	brpl	.-8      	; 0x1320 <nrk_gpio_toggle+0x1d4>
    1328:	38 2b       	or	r19, r24
    132a:	31 bb       	out	0x11, r19	; 17
    132c:	b2 cf       	rjmp	.-156    	; 0x1292 <nrk_gpio_toggle+0x146>
    132e:	31 b3       	in	r19, 0x11	; 17
    1330:	81 e0       	ldi	r24, 0x01	; 1
    1332:	90 e0       	ldi	r25, 0x00	; 0
    1334:	02 c0       	rjmp	.+4      	; 0x133a <nrk_gpio_toggle+0x1ee>
    1336:	88 0f       	add	r24, r24
    1338:	99 1f       	adc	r25, r25
    133a:	2a 95       	dec	r18
    133c:	e2 f7       	brpl	.-8      	; 0x1336 <nrk_gpio_toggle+0x1ea>
    133e:	80 95       	com	r24
    1340:	83 23       	and	r24, r19
    1342:	81 bb       	out	0x11, r24	; 17
    1344:	a6 cf       	rjmp	.-180    	; 0x1292 <nrk_gpio_toggle+0x146>
    1346:	8f ef       	ldi	r24, 0xFF	; 255
    1348:	08 95       	ret
    134a:	8f ef       	ldi	r24, 0xFF	; 255
    134c:	08 95       	ret

0000134e <nrk_gpio_direction>:
    134e:	8f 3f       	cpi	r24, 0xFF	; 255
    1350:	09 f4       	brne	.+2      	; 0x1354 <nrk_gpio_direction+0x6>
    1352:	01 c1       	rjmp	.+514    	; 0x1556 <nrk_gpio_direction+0x208>
    1354:	28 2f       	mov	r18, r24
    1356:	30 e0       	ldi	r19, 0x00	; 0
    1358:	66 23       	and	r22, r22
    135a:	09 f0       	breq	.+2      	; 0x135e <nrk_gpio_direction+0x10>
    135c:	8d c0       	rjmp	.+282    	; 0x1478 <nrk_gpio_direction+0x12a>
    135e:	27 70       	andi	r18, 0x07	; 7
    1360:	30 70       	andi	r19, 0x00	; 0
    1362:	22 30       	cpi	r18, 0x02	; 2
    1364:	31 05       	cpc	r19, r1
    1366:	e1 f1       	breq	.+120    	; 0x13e0 <nrk_gpio_direction+0x92>
    1368:	23 30       	cpi	r18, 0x03	; 3
    136a:	31 05       	cpc	r19, r1
    136c:	44 f4       	brge	.+16     	; 0x137e <nrk_gpio_direction+0x30>
    136e:	21 15       	cp	r18, r1
    1370:	31 05       	cpc	r19, r1
    1372:	91 f0       	breq	.+36     	; 0x1398 <nrk_gpio_direction+0x4a>
    1374:	21 30       	cpi	r18, 0x01	; 1
    1376:	31 05       	cpc	r19, r1
    1378:	09 f0       	breq	.+2      	; 0x137c <nrk_gpio_direction+0x2e>
    137a:	ed c0       	rjmp	.+474    	; 0x1556 <nrk_gpio_direction+0x208>
    137c:	20 c0       	rjmp	.+64     	; 0x13be <nrk_gpio_direction+0x70>
    137e:	24 30       	cpi	r18, 0x04	; 4
    1380:	31 05       	cpc	r19, r1
    1382:	09 f4       	brne	.+2      	; 0x1386 <nrk_gpio_direction+0x38>
    1384:	53 c0       	rjmp	.+166    	; 0x142c <nrk_gpio_direction+0xde>
    1386:	24 30       	cpi	r18, 0x04	; 4
    1388:	31 05       	cpc	r19, r1
    138a:	0c f4       	brge	.+2      	; 0x138e <nrk_gpio_direction+0x40>
    138c:	3c c0       	rjmp	.+120    	; 0x1406 <nrk_gpio_direction+0xb8>
    138e:	25 30       	cpi	r18, 0x05	; 5
    1390:	31 05       	cpc	r19, r1
    1392:	09 f0       	breq	.+2      	; 0x1396 <nrk_gpio_direction+0x48>
    1394:	e0 c0       	rjmp	.+448    	; 0x1556 <nrk_gpio_direction+0x208>
    1396:	5d c0       	rjmp	.+186    	; 0x1452 <nrk_gpio_direction+0x104>
    1398:	91 b1       	in	r25, 0x01	; 1
    139a:	86 95       	lsr	r24
    139c:	86 95       	lsr	r24
    139e:	86 95       	lsr	r24
    13a0:	41 e0       	ldi	r20, 0x01	; 1
    13a2:	50 e0       	ldi	r21, 0x00	; 0
    13a4:	02 c0       	rjmp	.+4      	; 0x13aa <nrk_gpio_direction+0x5c>
    13a6:	44 0f       	add	r20, r20
    13a8:	55 1f       	adc	r21, r21
    13aa:	8a 95       	dec	r24
    13ac:	e2 f7       	brpl	.-8      	; 0x13a6 <nrk_gpio_direction+0x58>
    13ae:	84 2f       	mov	r24, r20
    13b0:	80 95       	com	r24
    13b2:	89 23       	and	r24, r25
    13b4:	81 b9       	out	0x01, r24	; 1
    13b6:	82 b1       	in	r24, 0x02	; 2
    13b8:	84 2b       	or	r24, r20
    13ba:	82 b9       	out	0x02, r24	; 2
    13bc:	ca c0       	rjmp	.+404    	; 0x1552 <nrk_gpio_direction+0x204>
    13be:	94 b1       	in	r25, 0x04	; 4
    13c0:	86 95       	lsr	r24
    13c2:	86 95       	lsr	r24
    13c4:	86 95       	lsr	r24
    13c6:	02 c0       	rjmp	.+4      	; 0x13cc <nrk_gpio_direction+0x7e>
    13c8:	22 0f       	add	r18, r18
    13ca:	33 1f       	adc	r19, r19
    13cc:	8a 95       	dec	r24
    13ce:	e2 f7       	brpl	.-8      	; 0x13c8 <nrk_gpio_direction+0x7a>
    13d0:	82 2f       	mov	r24, r18
    13d2:	80 95       	com	r24
    13d4:	89 23       	and	r24, r25
    13d6:	84 b9       	out	0x04, r24	; 4
    13d8:	85 b1       	in	r24, 0x05	; 5
    13da:	82 2b       	or	r24, r18
    13dc:	85 b9       	out	0x05, r24	; 5
    13de:	b9 c0       	rjmp	.+370    	; 0x1552 <nrk_gpio_direction+0x204>
    13e0:	97 b1       	in	r25, 0x07	; 7
    13e2:	86 95       	lsr	r24
    13e4:	86 95       	lsr	r24
    13e6:	86 95       	lsr	r24
    13e8:	41 e0       	ldi	r20, 0x01	; 1
    13ea:	50 e0       	ldi	r21, 0x00	; 0
    13ec:	02 c0       	rjmp	.+4      	; 0x13f2 <nrk_gpio_direction+0xa4>
    13ee:	44 0f       	add	r20, r20
    13f0:	55 1f       	adc	r21, r21
    13f2:	8a 95       	dec	r24
    13f4:	e2 f7       	brpl	.-8      	; 0x13ee <nrk_gpio_direction+0xa0>
    13f6:	84 2f       	mov	r24, r20
    13f8:	80 95       	com	r24
    13fa:	89 23       	and	r24, r25
    13fc:	87 b9       	out	0x07, r24	; 7
    13fe:	88 b1       	in	r24, 0x08	; 8
    1400:	84 2b       	or	r24, r20
    1402:	88 b9       	out	0x08, r24	; 8
    1404:	a6 c0       	rjmp	.+332    	; 0x1552 <nrk_gpio_direction+0x204>
    1406:	9a b1       	in	r25, 0x0a	; 10
    1408:	86 95       	lsr	r24
    140a:	86 95       	lsr	r24
    140c:	86 95       	lsr	r24
    140e:	41 e0       	ldi	r20, 0x01	; 1
    1410:	50 e0       	ldi	r21, 0x00	; 0
    1412:	02 c0       	rjmp	.+4      	; 0x1418 <nrk_gpio_direction+0xca>
    1414:	44 0f       	add	r20, r20
    1416:	55 1f       	adc	r21, r21
    1418:	8a 95       	dec	r24
    141a:	e2 f7       	brpl	.-8      	; 0x1414 <nrk_gpio_direction+0xc6>
    141c:	84 2f       	mov	r24, r20
    141e:	80 95       	com	r24
    1420:	89 23       	and	r24, r25
    1422:	8a b9       	out	0x0a, r24	; 10
    1424:	8b b1       	in	r24, 0x0b	; 11
    1426:	84 2b       	or	r24, r20
    1428:	8b b9       	out	0x0b, r24	; 11
    142a:	93 c0       	rjmp	.+294    	; 0x1552 <nrk_gpio_direction+0x204>
    142c:	9d b1       	in	r25, 0x0d	; 13
    142e:	86 95       	lsr	r24
    1430:	86 95       	lsr	r24
    1432:	86 95       	lsr	r24
    1434:	41 e0       	ldi	r20, 0x01	; 1
    1436:	50 e0       	ldi	r21, 0x00	; 0
    1438:	02 c0       	rjmp	.+4      	; 0x143e <nrk_gpio_direction+0xf0>
    143a:	44 0f       	add	r20, r20
    143c:	55 1f       	adc	r21, r21
    143e:	8a 95       	dec	r24
    1440:	e2 f7       	brpl	.-8      	; 0x143a <nrk_gpio_direction+0xec>
    1442:	84 2f       	mov	r24, r20
    1444:	80 95       	com	r24
    1446:	89 23       	and	r24, r25
    1448:	8d b9       	out	0x0d, r24	; 13
    144a:	8e b1       	in	r24, 0x0e	; 14
    144c:	84 2b       	or	r24, r20
    144e:	8e b9       	out	0x0e, r24	; 14
    1450:	80 c0       	rjmp	.+256    	; 0x1552 <nrk_gpio_direction+0x204>
    1452:	90 b3       	in	r25, 0x10	; 16
    1454:	86 95       	lsr	r24
    1456:	86 95       	lsr	r24
    1458:	86 95       	lsr	r24
    145a:	41 e0       	ldi	r20, 0x01	; 1
    145c:	50 e0       	ldi	r21, 0x00	; 0
    145e:	02 c0       	rjmp	.+4      	; 0x1464 <nrk_gpio_direction+0x116>
    1460:	44 0f       	add	r20, r20
    1462:	55 1f       	adc	r21, r21
    1464:	8a 95       	dec	r24
    1466:	e2 f7       	brpl	.-8      	; 0x1460 <nrk_gpio_direction+0x112>
    1468:	84 2f       	mov	r24, r20
    146a:	80 95       	com	r24
    146c:	89 23       	and	r24, r25
    146e:	80 bb       	out	0x10, r24	; 16
    1470:	81 b3       	in	r24, 0x11	; 17
    1472:	84 2b       	or	r24, r20
    1474:	81 bb       	out	0x11, r24	; 17
    1476:	6d c0       	rjmp	.+218    	; 0x1552 <nrk_gpio_direction+0x204>
    1478:	27 70       	andi	r18, 0x07	; 7
    147a:	30 70       	andi	r19, 0x00	; 0
    147c:	22 30       	cpi	r18, 0x02	; 2
    147e:	31 05       	cpc	r19, r1
    1480:	89 f1       	breq	.+98     	; 0x14e4 <nrk_gpio_direction+0x196>
    1482:	23 30       	cpi	r18, 0x03	; 3
    1484:	31 05       	cpc	r19, r1
    1486:	44 f4       	brge	.+16     	; 0x1498 <nrk_gpio_direction+0x14a>
    1488:	21 15       	cp	r18, r1
    148a:	31 05       	cpc	r19, r1
    148c:	89 f0       	breq	.+34     	; 0x14b0 <nrk_gpio_direction+0x162>
    148e:	21 30       	cpi	r18, 0x01	; 1
    1490:	31 05       	cpc	r19, r1
    1492:	09 f0       	breq	.+2      	; 0x1496 <nrk_gpio_direction+0x148>
    1494:	62 c0       	rjmp	.+196    	; 0x155a <nrk_gpio_direction+0x20c>
    1496:	1a c0       	rjmp	.+52     	; 0x14cc <nrk_gpio_direction+0x17e>
    1498:	24 30       	cpi	r18, 0x04	; 4
    149a:	31 05       	cpc	r19, r1
    149c:	09 f4       	brne	.+2      	; 0x14a0 <nrk_gpio_direction+0x152>
    149e:	3e c0       	rjmp	.+124    	; 0x151c <nrk_gpio_direction+0x1ce>
    14a0:	24 30       	cpi	r18, 0x04	; 4
    14a2:	31 05       	cpc	r19, r1
    14a4:	6c f1       	brlt	.+90     	; 0x1500 <nrk_gpio_direction+0x1b2>
    14a6:	25 30       	cpi	r18, 0x05	; 5
    14a8:	31 05       	cpc	r19, r1
    14aa:	09 f0       	breq	.+2      	; 0x14ae <nrk_gpio_direction+0x160>
    14ac:	56 c0       	rjmp	.+172    	; 0x155a <nrk_gpio_direction+0x20c>
    14ae:	44 c0       	rjmp	.+136    	; 0x1538 <nrk_gpio_direction+0x1ea>
    14b0:	91 b1       	in	r25, 0x01	; 1
    14b2:	86 95       	lsr	r24
    14b4:	86 95       	lsr	r24
    14b6:	86 95       	lsr	r24
    14b8:	41 e0       	ldi	r20, 0x01	; 1
    14ba:	50 e0       	ldi	r21, 0x00	; 0
    14bc:	02 c0       	rjmp	.+4      	; 0x14c2 <nrk_gpio_direction+0x174>
    14be:	44 0f       	add	r20, r20
    14c0:	55 1f       	adc	r21, r21
    14c2:	8a 95       	dec	r24
    14c4:	e2 f7       	brpl	.-8      	; 0x14be <nrk_gpio_direction+0x170>
    14c6:	94 2b       	or	r25, r20
    14c8:	91 b9       	out	0x01, r25	; 1
    14ca:	43 c0       	rjmp	.+134    	; 0x1552 <nrk_gpio_direction+0x204>
    14cc:	94 b1       	in	r25, 0x04	; 4
    14ce:	86 95       	lsr	r24
    14d0:	86 95       	lsr	r24
    14d2:	86 95       	lsr	r24
    14d4:	02 c0       	rjmp	.+4      	; 0x14da <nrk_gpio_direction+0x18c>
    14d6:	22 0f       	add	r18, r18
    14d8:	33 1f       	adc	r19, r19
    14da:	8a 95       	dec	r24
    14dc:	e2 f7       	brpl	.-8      	; 0x14d6 <nrk_gpio_direction+0x188>
    14de:	92 2b       	or	r25, r18
    14e0:	94 b9       	out	0x04, r25	; 4
    14e2:	37 c0       	rjmp	.+110    	; 0x1552 <nrk_gpio_direction+0x204>
    14e4:	97 b1       	in	r25, 0x07	; 7
    14e6:	86 95       	lsr	r24
    14e8:	86 95       	lsr	r24
    14ea:	86 95       	lsr	r24
    14ec:	41 e0       	ldi	r20, 0x01	; 1
    14ee:	50 e0       	ldi	r21, 0x00	; 0
    14f0:	02 c0       	rjmp	.+4      	; 0x14f6 <nrk_gpio_direction+0x1a8>
    14f2:	44 0f       	add	r20, r20
    14f4:	55 1f       	adc	r21, r21
    14f6:	8a 95       	dec	r24
    14f8:	e2 f7       	brpl	.-8      	; 0x14f2 <nrk_gpio_direction+0x1a4>
    14fa:	94 2b       	or	r25, r20
    14fc:	97 b9       	out	0x07, r25	; 7
    14fe:	29 c0       	rjmp	.+82     	; 0x1552 <nrk_gpio_direction+0x204>
    1500:	9a b1       	in	r25, 0x0a	; 10
    1502:	86 95       	lsr	r24
    1504:	86 95       	lsr	r24
    1506:	86 95       	lsr	r24
    1508:	41 e0       	ldi	r20, 0x01	; 1
    150a:	50 e0       	ldi	r21, 0x00	; 0
    150c:	02 c0       	rjmp	.+4      	; 0x1512 <nrk_gpio_direction+0x1c4>
    150e:	44 0f       	add	r20, r20
    1510:	55 1f       	adc	r21, r21
    1512:	8a 95       	dec	r24
    1514:	e2 f7       	brpl	.-8      	; 0x150e <nrk_gpio_direction+0x1c0>
    1516:	94 2b       	or	r25, r20
    1518:	9a b9       	out	0x0a, r25	; 10
    151a:	1b c0       	rjmp	.+54     	; 0x1552 <nrk_gpio_direction+0x204>
    151c:	9d b1       	in	r25, 0x0d	; 13
    151e:	86 95       	lsr	r24
    1520:	86 95       	lsr	r24
    1522:	86 95       	lsr	r24
    1524:	41 e0       	ldi	r20, 0x01	; 1
    1526:	50 e0       	ldi	r21, 0x00	; 0
    1528:	02 c0       	rjmp	.+4      	; 0x152e <nrk_gpio_direction+0x1e0>
    152a:	44 0f       	add	r20, r20
    152c:	55 1f       	adc	r21, r21
    152e:	8a 95       	dec	r24
    1530:	e2 f7       	brpl	.-8      	; 0x152a <nrk_gpio_direction+0x1dc>
    1532:	94 2b       	or	r25, r20
    1534:	9d b9       	out	0x0d, r25	; 13
    1536:	0d c0       	rjmp	.+26     	; 0x1552 <nrk_gpio_direction+0x204>
    1538:	90 b3       	in	r25, 0x10	; 16
    153a:	86 95       	lsr	r24
    153c:	86 95       	lsr	r24
    153e:	86 95       	lsr	r24
    1540:	41 e0       	ldi	r20, 0x01	; 1
    1542:	50 e0       	ldi	r21, 0x00	; 0
    1544:	02 c0       	rjmp	.+4      	; 0x154a <nrk_gpio_direction+0x1fc>
    1546:	44 0f       	add	r20, r20
    1548:	55 1f       	adc	r21, r21
    154a:	8a 95       	dec	r24
    154c:	e2 f7       	brpl	.-8      	; 0x1546 <nrk_gpio_direction+0x1f8>
    154e:	94 2b       	or	r25, r20
    1550:	90 bb       	out	0x10, r25	; 16
    1552:	81 e0       	ldi	r24, 0x01	; 1
    1554:	08 95       	ret
    1556:	8f ef       	ldi	r24, 0xFF	; 255
    1558:	08 95       	ret
    155a:	8f ef       	ldi	r24, 0xFF	; 255
    155c:	08 95       	ret

0000155e <nrk_get_button>:
    155e:	88 23       	and	r24, r24
    1560:	29 f4       	brne	.+10     	; 0x156c <nrk_get_button+0xe>
    1562:	81 e0       	ldi	r24, 0x01	; 1
    1564:	01 9b       	sbis	0x00, 1	; 0
    1566:	03 c0       	rjmp	.+6      	; 0x156e <nrk_get_button+0x10>
    1568:	80 e0       	ldi	r24, 0x00	; 0
    156a:	08 95       	ret
    156c:	8f ef       	ldi	r24, 0xFF	; 255
    156e:	08 95       	ret

00001570 <nrk_led_toggle>:
    1570:	00 97       	sbiw	r24, 0x00	; 0
    1572:	11 f4       	brne	.+4      	; 0x1578 <nrk_led_toggle+0x8>
    1574:	83 e2       	ldi	r24, 0x23	; 35
    1576:	0e c0       	rjmp	.+28     	; 0x1594 <nrk_led_toggle+0x24>
    1578:	81 30       	cpi	r24, 0x01	; 1
    157a:	91 05       	cpc	r25, r1
    157c:	11 f4       	brne	.+4      	; 0x1582 <nrk_led_toggle+0x12>
    157e:	8b e2       	ldi	r24, 0x2B	; 43
    1580:	09 c0       	rjmp	.+18     	; 0x1594 <nrk_led_toggle+0x24>
    1582:	82 30       	cpi	r24, 0x02	; 2
    1584:	91 05       	cpc	r25, r1
    1586:	11 f4       	brne	.+4      	; 0x158c <nrk_led_toggle+0x1c>
    1588:	83 e3       	ldi	r24, 0x33	; 51
    158a:	04 c0       	rjmp	.+8      	; 0x1594 <nrk_led_toggle+0x24>
    158c:	83 30       	cpi	r24, 0x03	; 3
    158e:	91 05       	cpc	r25, r1
    1590:	29 f4       	brne	.+10     	; 0x159c <nrk_led_toggle+0x2c>
    1592:	8b e3       	ldi	r24, 0x3B	; 59
    1594:	0e 94 a6 08 	call	0x114c	; 0x114c <nrk_gpio_toggle>
    1598:	81 e0       	ldi	r24, 0x01	; 1
    159a:	08 95       	ret
    159c:	8f ef       	ldi	r24, 0xFF	; 255
    159e:	08 95       	ret

000015a0 <nrk_led_clr>:
    15a0:	00 97       	sbiw	r24, 0x00	; 0
    15a2:	11 f4       	brne	.+4      	; 0x15a8 <nrk_led_clr+0x8>
    15a4:	83 e2       	ldi	r24, 0x23	; 35
    15a6:	0e c0       	rjmp	.+28     	; 0x15c4 <nrk_led_clr+0x24>
    15a8:	81 30       	cpi	r24, 0x01	; 1
    15aa:	91 05       	cpc	r25, r1
    15ac:	11 f4       	brne	.+4      	; 0x15b2 <nrk_led_clr+0x12>
    15ae:	8b e2       	ldi	r24, 0x2B	; 43
    15b0:	09 c0       	rjmp	.+18     	; 0x15c4 <nrk_led_clr+0x24>
    15b2:	82 30       	cpi	r24, 0x02	; 2
    15b4:	91 05       	cpc	r25, r1
    15b6:	11 f4       	brne	.+4      	; 0x15bc <nrk_led_clr+0x1c>
    15b8:	83 e3       	ldi	r24, 0x33	; 51
    15ba:	04 c0       	rjmp	.+8      	; 0x15c4 <nrk_led_clr+0x24>
    15bc:	83 30       	cpi	r24, 0x03	; 3
    15be:	91 05       	cpc	r25, r1
    15c0:	29 f4       	brne	.+10     	; 0x15cc <nrk_led_clr+0x2c>
    15c2:	8b e3       	ldi	r24, 0x3B	; 59
    15c4:	0e 94 7a 07 	call	0xef4	; 0xef4 <nrk_gpio_set>
    15c8:	81 e0       	ldi	r24, 0x01	; 1
    15ca:	08 95       	ret
    15cc:	8f ef       	ldi	r24, 0xFF	; 255
    15ce:	08 95       	ret

000015d0 <nrk_led_set>:
    15d0:	00 97       	sbiw	r24, 0x00	; 0
    15d2:	11 f4       	brne	.+4      	; 0x15d8 <nrk_led_set+0x8>
    15d4:	83 e2       	ldi	r24, 0x23	; 35
    15d6:	0e c0       	rjmp	.+28     	; 0x15f4 <nrk_led_set+0x24>
    15d8:	81 30       	cpi	r24, 0x01	; 1
    15da:	91 05       	cpc	r25, r1
    15dc:	11 f4       	brne	.+4      	; 0x15e2 <nrk_led_set+0x12>
    15de:	8b e2       	ldi	r24, 0x2B	; 43
    15e0:	09 c0       	rjmp	.+18     	; 0x15f4 <nrk_led_set+0x24>
    15e2:	82 30       	cpi	r24, 0x02	; 2
    15e4:	91 05       	cpc	r25, r1
    15e6:	11 f4       	brne	.+4      	; 0x15ec <nrk_led_set+0x1c>
    15e8:	83 e3       	ldi	r24, 0x33	; 51
    15ea:	04 c0       	rjmp	.+8      	; 0x15f4 <nrk_led_set+0x24>
    15ec:	83 30       	cpi	r24, 0x03	; 3
    15ee:	91 05       	cpc	r25, r1
    15f0:	29 f4       	brne	.+10     	; 0x15fc <nrk_led_set+0x2c>
    15f2:	8b e3       	ldi	r24, 0x3B	; 59
    15f4:	0e 94 f2 07 	call	0xfe4	; 0xfe4 <nrk_gpio_clr>
    15f8:	81 e0       	ldi	r24, 0x01	; 1
    15fa:	08 95       	ret
    15fc:	8f ef       	ldi	r24, 0xFF	; 255
    15fe:	08 95       	ret

00001600 <nrk_gpio_pullups>:
    1600:	88 23       	and	r24, r24
    1602:	19 f0       	breq	.+6      	; 0x160a <nrk_gpio_pullups+0xa>
    1604:	85 b7       	in	r24, 0x35	; 53
    1606:	8f 7e       	andi	r24, 0xEF	; 239
    1608:	02 c0       	rjmp	.+4      	; 0x160e <nrk_gpio_pullups+0xe>
    160a:	85 b7       	in	r24, 0x35	; 53
    160c:	80 61       	ori	r24, 0x10	; 16
    160e:	85 bf       	out	0x35, r24	; 53
    1610:	81 e0       	ldi	r24, 0x01	; 1
    1612:	08 95       	ret

00001614 <putc1>:
    1614:	90 91 c8 00 	lds	r25, 0x00C8
    1618:	95 ff       	sbrs	r25, 5
    161a:	fc cf       	rjmp	.-8      	; 0x1614 <putc1>
    161c:	80 93 ce 00 	sts	0x00CE, r24
    1620:	08 95       	ret

00001622 <setup_uart0>:
    1622:	90 93 c5 00 	sts	0x00C5, r25
    1626:	80 93 c4 00 	sts	0x00C4, r24
    162a:	86 e0       	ldi	r24, 0x06	; 6
    162c:	80 93 c2 00 	sts	0x00C2, r24
    1630:	e1 ec       	ldi	r30, 0xC1	; 193
    1632:	f0 e0       	ldi	r31, 0x00	; 0
    1634:	80 81       	ld	r24, Z
    1636:	8b 7f       	andi	r24, 0xFB	; 251
    1638:	80 83       	st	Z, r24
    163a:	a0 ec       	ldi	r26, 0xC0	; 192
    163c:	b0 e0       	ldi	r27, 0x00	; 0
    163e:	8c 91       	ld	r24, X
    1640:	82 60       	ori	r24, 0x02	; 2
    1642:	8c 93       	st	X, r24
    1644:	80 81       	ld	r24, Z
    1646:	88 61       	ori	r24, 0x18	; 24
    1648:	80 83       	st	Z, r24
    164a:	08 95       	ret

0000164c <setup_uart1>:
    164c:	90 93 cd 00 	sts	0x00CD, r25
    1650:	80 93 cc 00 	sts	0x00CC, r24
    1654:	86 e0       	ldi	r24, 0x06	; 6
    1656:	80 93 ca 00 	sts	0x00CA, r24
    165a:	e9 ec       	ldi	r30, 0xC9	; 201
    165c:	f0 e0       	ldi	r31, 0x00	; 0
    165e:	80 81       	ld	r24, Z
    1660:	8b 7f       	andi	r24, 0xFB	; 251
    1662:	80 83       	st	Z, r24
    1664:	a8 ec       	ldi	r26, 0xC8	; 200
    1666:	b0 e0       	ldi	r27, 0x00	; 0
    1668:	8c 91       	ld	r24, X
    166a:	82 60       	ori	r24, 0x02	; 2
    166c:	8c 93       	st	X, r24
    166e:	80 81       	ld	r24, Z
    1670:	88 61       	ori	r24, 0x18	; 24
    1672:	80 83       	st	Z, r24
    1674:	08 95       	ret

00001676 <nrk_setup_uart>:
    1676:	0f 93       	push	r16
    1678:	1f 93       	push	r17
    167a:	cf 93       	push	r28
    167c:	df 93       	push	r29
    167e:	0e 94 11 0b 	call	0x1622	; 0x1622 <setup_uart0>
    1682:	ca e3       	ldi	r28, 0x3A	; 58
    1684:	d7 e0       	ldi	r29, 0x07	; 7
    1686:	0e e2       	ldi	r16, 0x2E	; 46
    1688:	17 e0       	ldi	r17, 0x07	; 7
    168a:	ce 01       	movw	r24, r28
    168c:	b8 01       	movw	r22, r16
    168e:	0e 94 a6 30 	call	0x614c	; 0x614c <fdevopen>
    1692:	90 93 c4 06 	sts	0x06C4, r25
    1696:	80 93 c3 06 	sts	0x06C3, r24
    169a:	ce 01       	movw	r24, r28
    169c:	b8 01       	movw	r22, r16
    169e:	0e 94 a6 30 	call	0x614c	; 0x614c <fdevopen>
    16a2:	90 93 c2 06 	sts	0x06C2, r25
    16a6:	80 93 c1 06 	sts	0x06C1, r24
    16aa:	df 91       	pop	r29
    16ac:	cf 91       	pop	r28
    16ae:	1f 91       	pop	r17
    16b0:	0f 91       	pop	r16
    16b2:	08 95       	ret

000016b4 <getc1>:
    16b4:	80 91 c8 00 	lds	r24, 0x00C8
    16b8:	87 ff       	sbrs	r24, 7
    16ba:	fc cf       	rjmp	.-8      	; 0x16b4 <getc1>
    16bc:	80 91 c8 00 	lds	r24, 0x00C8
    16c0:	8f 77       	andi	r24, 0x7F	; 127
    16c2:	80 93 c8 00 	sts	0x00C8, r24
    16c6:	80 91 ce 00 	lds	r24, 0x00CE
    16ca:	08 95       	ret

000016cc <halWait>:
    16cc:	00 00       	nop
    16ce:	00 00       	nop
    16d0:	00 00       	nop
    16d2:	00 00       	nop
    16d4:	01 97       	sbiw	r24, 0x01	; 1
    16d6:	d1 f7       	brne	.-12     	; 0x16cc <halWait>
    16d8:	08 95       	ret

000016da <nrk_eeprom_read_byte>:
    16da:	0e 94 bd 31 	call	0x637a	; 0x637a <__eerd_byte_m128rfa1>
    16de:	08 95       	ret

000016e0 <nrk_eeprom_write_byte>:
    16e0:	0e 94 c5 31 	call	0x638a	; 0x638a <__eewr_byte_m128rfa1>
    16e4:	08 95       	ret

000016e6 <read_eeprom_mac_address>:
    16e6:	ef 92       	push	r14
    16e8:	ff 92       	push	r15
    16ea:	0f 93       	push	r16
    16ec:	1f 93       	push	r17
    16ee:	cf 93       	push	r28
    16f0:	df 93       	push	r29
    16f2:	e8 2e       	mov	r14, r24
    16f4:	e7 01       	movw	r28, r14
    16f6:	7e 01       	movw	r14, r28
    16f8:	f9 2e       	mov	r15, r25
    16fa:	e7 01       	movw	r28, r14
    16fc:	80 e0       	ldi	r24, 0x00	; 0
    16fe:	90 e0       	ldi	r25, 0x00	; 0
    1700:	0e 94 bd 31 	call	0x637a	; 0x637a <__eerd_byte_m128rfa1>
    1704:	08 2f       	mov	r16, r24
    1706:	8b 83       	std	Y+3, r24	; 0x03
    1708:	81 e0       	ldi	r24, 0x01	; 1
    170a:	90 e0       	ldi	r25, 0x00	; 0
    170c:	0e 94 bd 31 	call	0x637a	; 0x637a <__eerd_byte_m128rfa1>
    1710:	e8 2e       	mov	r14, r24
    1712:	8a 83       	std	Y+2, r24	; 0x02
    1714:	82 e0       	ldi	r24, 0x02	; 2
    1716:	90 e0       	ldi	r25, 0x00	; 0
    1718:	0e 94 bd 31 	call	0x637a	; 0x637a <__eerd_byte_m128rfa1>
    171c:	f8 2e       	mov	r15, r24
    171e:	89 83       	std	Y+1, r24	; 0x01
    1720:	83 e0       	ldi	r24, 0x03	; 3
    1722:	90 e0       	ldi	r25, 0x00	; 0
    1724:	0e 94 bd 31 	call	0x637a	; 0x637a <__eerd_byte_m128rfa1>
    1728:	18 2f       	mov	r17, r24
    172a:	88 83       	st	Y, r24
    172c:	84 e0       	ldi	r24, 0x04	; 4
    172e:	90 e0       	ldi	r25, 0x00	; 0
    1730:	0e 94 bd 31 	call	0x637a	; 0x637a <__eerd_byte_m128rfa1>
    1734:	fe 0c       	add	r15, r14
    1736:	f0 0e       	add	r15, r16
    1738:	f1 0e       	add	r15, r17
    173a:	8f 15       	cp	r24, r15
    173c:	11 f4       	brne	.+4      	; 0x1742 <read_eeprom_mac_address+0x5c>
    173e:	81 e0       	ldi	r24, 0x01	; 1
    1740:	01 c0       	rjmp	.+2      	; 0x1744 <read_eeprom_mac_address+0x5e>
    1742:	8f ef       	ldi	r24, 0xFF	; 255
    1744:	df 91       	pop	r29
    1746:	cf 91       	pop	r28
    1748:	1f 91       	pop	r17
    174a:	0f 91       	pop	r16
    174c:	ff 90       	pop	r15
    174e:	ef 90       	pop	r14
    1750:	08 95       	ret

00001752 <read_eeprom_channel>:
    1752:	cf 93       	push	r28
    1754:	df 93       	push	r29
    1756:	ec 01       	movw	r28, r24
    1758:	85 e0       	ldi	r24, 0x05	; 5
    175a:	90 e0       	ldi	r25, 0x00	; 0
    175c:	0e 94 bd 31 	call	0x637a	; 0x637a <__eerd_byte_m128rfa1>
    1760:	88 83       	st	Y, r24
    1762:	81 e0       	ldi	r24, 0x01	; 1
    1764:	df 91       	pop	r29
    1766:	cf 91       	pop	r28
    1768:	08 95       	ret

0000176a <write_eeprom_load_img_pages>:
    176a:	fc 01       	movw	r30, r24
    176c:	86 e0       	ldi	r24, 0x06	; 6
    176e:	90 e0       	ldi	r25, 0x00	; 0
    1770:	60 81       	ld	r22, Z
    1772:	0e 94 c5 31 	call	0x638a	; 0x638a <__eewr_byte_m128rfa1>
    1776:	81 e0       	ldi	r24, 0x01	; 1
    1778:	08 95       	ret

0000177a <read_eeprom_load_img_pages>:
    177a:	cf 93       	push	r28
    177c:	df 93       	push	r29
    177e:	ec 01       	movw	r28, r24
    1780:	86 e0       	ldi	r24, 0x06	; 6
    1782:	90 e0       	ldi	r25, 0x00	; 0
    1784:	0e 94 bd 31 	call	0x637a	; 0x637a <__eerd_byte_m128rfa1>
    1788:	88 83       	st	Y, r24
    178a:	81 e0       	ldi	r24, 0x01	; 1
    178c:	df 91       	pop	r29
    178e:	cf 91       	pop	r28
    1790:	08 95       	ret

00001792 <read_eeprom_aes_key>:
    1792:	0f 93       	push	r16
    1794:	1f 93       	push	r17
    1796:	cf 93       	push	r28
    1798:	df 93       	push	r29
    179a:	08 2f       	mov	r16, r24
    179c:	19 2f       	mov	r17, r25
    179e:	c8 e0       	ldi	r28, 0x08	; 8
    17a0:	d0 e0       	ldi	r29, 0x00	; 0
    17a2:	ce 01       	movw	r24, r28
    17a4:	0e 94 bd 31 	call	0x637a	; 0x637a <__eerd_byte_m128rfa1>
    17a8:	f8 01       	movw	r30, r16
    17aa:	81 93       	st	Z+, r24
    17ac:	8f 01       	movw	r16, r30
    17ae:	21 96       	adiw	r28, 0x01	; 1
    17b0:	c8 31       	cpi	r28, 0x18	; 24
    17b2:	d1 05       	cpc	r29, r1
    17b4:	b1 f7       	brne	.-20     	; 0x17a2 <read_eeprom_aes_key+0x10>
    17b6:	81 e0       	ldi	r24, 0x01	; 1
    17b8:	df 91       	pop	r29
    17ba:	cf 91       	pop	r28
    17bc:	1f 91       	pop	r17
    17be:	0f 91       	pop	r16
    17c0:	08 95       	ret

000017c2 <write_eeprom_aes_key>:
    17c2:	0f 93       	push	r16
    17c4:	1f 93       	push	r17
    17c6:	cf 93       	push	r28
    17c8:	df 93       	push	r29
    17ca:	08 2f       	mov	r16, r24
    17cc:	19 2f       	mov	r17, r25
    17ce:	c8 e0       	ldi	r28, 0x08	; 8
    17d0:	d0 e0       	ldi	r29, 0x00	; 0
    17d2:	f8 01       	movw	r30, r16
    17d4:	61 91       	ld	r22, Z+
    17d6:	8f 01       	movw	r16, r30
    17d8:	ce 01       	movw	r24, r28
    17da:	0e 94 c5 31 	call	0x638a	; 0x638a <__eewr_byte_m128rfa1>
    17de:	21 96       	adiw	r28, 0x01	; 1
    17e0:	c8 31       	cpi	r28, 0x18	; 24
    17e2:	d1 05       	cpc	r29, r1
    17e4:	b1 f7       	brne	.-20     	; 0x17d2 <write_eeprom_aes_key+0x10>
    17e6:	81 e0       	ldi	r24, 0x01	; 1
    17e8:	df 91       	pop	r29
    17ea:	cf 91       	pop	r28
    17ec:	1f 91       	pop	r17
    17ee:	0f 91       	pop	r16
    17f0:	08 95       	ret

000017f2 <read_eeprom_current_image_checksum>:
    17f2:	cf 93       	push	r28
    17f4:	df 93       	push	r29
    17f6:	ec 01       	movw	r28, r24
    17f8:	87 e0       	ldi	r24, 0x07	; 7
    17fa:	90 e0       	ldi	r25, 0x00	; 0
    17fc:	0e 94 bd 31 	call	0x637a	; 0x637a <__eerd_byte_m128rfa1>
    1800:	88 83       	st	Y, r24
    1802:	81 e0       	ldi	r24, 0x01	; 1
    1804:	df 91       	pop	r29
    1806:	cf 91       	pop	r28
    1808:	08 95       	ret

0000180a <write_eeprom_current_image_checksum>:
    180a:	fc 01       	movw	r30, r24
    180c:	87 e0       	ldi	r24, 0x07	; 7
    180e:	90 e0       	ldi	r25, 0x00	; 0
    1810:	60 81       	ld	r22, Z
    1812:	0e 94 c5 31 	call	0x638a	; 0x638a <__eewr_byte_m128rfa1>
    1816:	81 e0       	ldi	r24, 0x01	; 1
    1818:	08 95       	ret

0000181a <nrk_int_disable>:
    181a:	f8 94       	cli
    181c:	08 95       	ret

0000181e <nrk_int_enable>:
    181e:	78 94       	sei
    1820:	08 95       	ret

00001822 <nrk_halt>:
    1822:	0e 94 0d 0c 	call	0x181a	; 0x181a <nrk_int_disable>
    1826:	ff cf       	rjmp	.-2      	; 0x1826 <nrk_halt+0x4>

00001828 <nrk_init>:
    1828:	0f 93       	push	r16
    182a:	1f 93       	push	r17
    182c:	df 93       	push	r29
    182e:	cf 93       	push	r28
    1830:	cd b7       	in	r28, 0x3d	; 61
    1832:	de b7       	in	r29, 0x3e	; 62
    1834:	a3 97       	sbiw	r28, 0x23	; 35
    1836:	0f b6       	in	r0, 0x3f	; 63
    1838:	f8 94       	cli
    183a:	de bf       	out	0x3e, r29	; 62
    183c:	0f be       	out	0x3f, r0	; 63
    183e:	cd bf       	out	0x3d, r28	; 61
    1840:	0e 94 41 18 	call	0x3082	; 0x3082 <nrk_signal_create>
    1844:	80 93 e9 05 	sts	0x05E9, r24
    1848:	8f 3f       	cpi	r24, 0xFF	; 255
    184a:	21 f4       	brne	.+8      	; 0x1854 <nrk_init+0x2c>
    184c:	8e e0       	ldi	r24, 0x0E	; 14
    184e:	60 e0       	ldi	r22, 0x00	; 0
    1850:	0e 94 c9 16 	call	0x2d92	; 0x2d92 <nrk_kernel_error_add>
    1854:	0e 94 ef 25 	call	0x4bde	; 0x4bde <_nrk_startup_error>
    1858:	80 ff       	sbrs	r24, 0
    185a:	04 c0       	rjmp	.+8      	; 0x1864 <nrk_init+0x3c>
    185c:	86 e0       	ldi	r24, 0x06	; 6
    185e:	60 e0       	ldi	r22, 0x00	; 0
    1860:	0e 94 c9 16 	call	0x2d92	; 0x2d92 <nrk_kernel_error_add>
    1864:	0e 94 a5 27 	call	0x4f4a	; 0x4f4a <nrk_watchdog_check>
    1868:	8f 3f       	cpi	r24, 0xFF	; 255
    186a:	31 f4       	brne	.+12     	; 0x1878 <nrk_init+0x50>
    186c:	0e 94 86 27 	call	0x4f0c	; 0x4f0c <nrk_watchdog_disable>
    1870:	80 e1       	ldi	r24, 0x10	; 16
    1872:	60 e0       	ldi	r22, 0x00	; 0
    1874:	0e 94 c9 16 	call	0x2d92	; 0x2d92 <nrk_kernel_error_add>
    1878:	0e 94 95 27 	call	0x4f2a	; 0x4f2a <nrk_watchdog_enable>
    187c:	10 92 f4 05 	sts	0x05F4, r1
    1880:	10 92 02 06 	sts	0x0602, r1
    1884:	10 92 01 06 	sts	0x0601, r1
    1888:	10 92 eb 05 	sts	0x05EB, r1
    188c:	10 92 ea 05 	sts	0x05EA, r1
    1890:	10 92 03 06 	sts	0x0603, r1
    1894:	0e 94 0c 0e 	call	0x1c18	; 0x1c18 <nrk_stats_reset>
    1898:	10 92 00 06 	sts	0x0600, r1
    189c:	8f ef       	ldi	r24, 0xFF	; 255
    189e:	80 93 e5 05 	sts	0x05E5, r24
    18a2:	80 93 e7 05 	sts	0x05E7, r24
    18a6:	80 93 e6 05 	sts	0x05E6, r24
    18aa:	93 e6       	ldi	r25, 0x63	; 99
    18ac:	90 93 48 05 	sts	0x0548, r25
    18b0:	80 93 46 05 	sts	0x0546, r24
    18b4:	90 93 69 05 	sts	0x0569, r25
    18b8:	80 93 67 05 	sts	0x0567, r24
    18bc:	90 93 8a 05 	sts	0x058A, r25
    18c0:	80 93 88 05 	sts	0x0588, r24
    18c4:	90 93 ab 05 	sts	0x05AB, r25
    18c8:	80 93 a9 05 	sts	0x05A9, r24
    18cc:	90 93 cc 05 	sts	0x05CC, r25
    18d0:	80 93 ca 05 	sts	0x05CA, r24
    18d4:	ed e9       	ldi	r30, 0x9D	; 157
    18d6:	f6 e0       	ldi	r31, 0x06	; 6
    18d8:	20 e0       	ldi	r18, 0x00	; 0
    18da:	30 e0       	ldi	r19, 0x00	; 0
    18dc:	01 c0       	rjmp	.+2      	; 0x18e0 <nrk_init+0xb8>
    18de:	9a 01       	movw	r18, r20
    18e0:	a9 01       	movw	r20, r18
    18e2:	4f 5f       	subi	r20, 0xFF	; 255
    18e4:	5f 4f       	sbci	r21, 0xFF	; 255
    18e6:	ca 01       	movw	r24, r20
    18e8:	88 0f       	add	r24, r24
    18ea:	99 1f       	adc	r25, r25
    18ec:	88 0f       	add	r24, r24
    18ee:	99 1f       	adc	r25, r25
    18f0:	84 0f       	add	r24, r20
    18f2:	95 1f       	adc	r25, r21
    18f4:	86 56       	subi	r24, 0x66	; 102
    18f6:	99 4f       	sbci	r25, 0xF9	; 249
    18f8:	91 83       	std	Z+1, r25	; 0x01
    18fa:	80 83       	st	Z, r24
    18fc:	c9 01       	movw	r24, r18
    18fe:	88 0f       	add	r24, r24
    1900:	99 1f       	adc	r25, r25
    1902:	88 0f       	add	r24, r24
    1904:	99 1f       	adc	r25, r25
    1906:	82 0f       	add	r24, r18
    1908:	93 1f       	adc	r25, r19
    190a:	86 56       	subi	r24, 0x66	; 102
    190c:	99 4f       	sbci	r25, 0xF9	; 249
    190e:	94 83       	std	Z+4, r25	; 0x04
    1910:	83 83       	std	Z+3, r24	; 0x03
    1912:	35 96       	adiw	r30, 0x05	; 5
    1914:	45 30       	cpi	r20, 0x05	; 5
    1916:	51 05       	cpc	r21, r1
    1918:	11 f7       	brne	.-60     	; 0x18de <nrk_init+0xb6>
    191a:	10 92 9c 06 	sts	0x069C, r1
    191e:	10 92 9b 06 	sts	0x069B, r1
    1922:	10 92 b7 06 	sts	0x06B7, r1
    1926:	10 92 b6 06 	sts	0x06B6, r1
    192a:	10 92 f7 05 	sts	0x05F7, r1
    192e:	10 92 f6 05 	sts	0x05F6, r1
    1932:	8a e9       	ldi	r24, 0x9A	; 154
    1934:	96 e0       	ldi	r25, 0x06	; 6
    1936:	90 93 3d 05 	sts	0x053D, r25
    193a:	80 93 3c 05 	sts	0x053C, r24
    193e:	8e 01       	movw	r16, r28
    1940:	0f 5f       	subi	r16, 0xFF	; 255
    1942:	1f 4f       	sbci	r17, 0xFF	; 255
    1944:	c8 01       	movw	r24, r16
    1946:	63 e5       	ldi	r22, 0x53	; 83
    1948:	71 e2       	ldi	r23, 0x21	; 33
    194a:	0e 94 c6 27 	call	0x4f8c	; 0x4f8c <nrk_task_set_entry_function>
    194e:	c8 01       	movw	r24, r16
    1950:	6a e8       	ldi	r22, 0x8A	; 138
    1952:	74 e0       	ldi	r23, 0x04	; 4
    1954:	40 e8       	ldi	r20, 0x80	; 128
    1956:	50 e0       	ldi	r21, 0x00	; 0
    1958:	0e 94 ca 27 	call	0x4f94	; 0x4f94 <nrk_task_set_stk>
    195c:	85 e5       	ldi	r24, 0x55	; 85
    195e:	80 93 8a 04 	sts	0x048A, r24
    1962:	19 86       	std	Y+9, r1	; 0x09
    1964:	1c 86       	std	Y+12, r1	; 0x0c
    1966:	1d 86       	std	Y+13, r1	; 0x0d
    1968:	1e 86       	std	Y+14, r1	; 0x0e
    196a:	1f 86       	std	Y+15, r1	; 0x0f
    196c:	18 8a       	std	Y+16, r1	; 0x10
    196e:	19 8a       	std	Y+17, r1	; 0x11
    1970:	1a 8a       	std	Y+18, r1	; 0x12
    1972:	1b 8a       	std	Y+19, r1	; 0x13
    1974:	1c 8a       	std	Y+20, r1	; 0x14
    1976:	1d 8a       	std	Y+21, r1	; 0x15
    1978:	1e 8a       	std	Y+22, r1	; 0x16
    197a:	1f 8a       	std	Y+23, r1	; 0x17
    197c:	18 8e       	std	Y+24, r1	; 0x18
    197e:	19 8e       	std	Y+25, r1	; 0x19
    1980:	1a 8e       	std	Y+26, r1	; 0x1a
    1982:	1b 8e       	std	Y+27, r1	; 0x1b
    1984:	1c 8e       	std	Y+28, r1	; 0x1c
    1986:	1d 8e       	std	Y+29, r1	; 0x1d
    1988:	1e 8e       	std	Y+30, r1	; 0x1e
    198a:	1f 8e       	std	Y+31, r1	; 0x1f
    198c:	18 a2       	std	Y+32, r1	; 0x20
    198e:	19 a2       	std	Y+33, r1	; 0x21
    1990:	1a a2       	std	Y+34, r1	; 0x22
    1992:	1b a2       	std	Y+35, r1	; 0x23
    1994:	81 e0       	ldi	r24, 0x01	; 1
    1996:	88 87       	std	Y+8, r24	; 0x08
    1998:	92 e0       	ldi	r25, 0x02	; 2
    199a:	9a 87       	std	Y+10, r25	; 0x0a
    199c:	8b 87       	std	Y+11, r24	; 0x0b
    199e:	c8 01       	movw	r24, r16
    19a0:	0e 94 3b 1c 	call	0x3876	; 0x3876 <nrk_activate_task>
    19a4:	a3 96       	adiw	r28, 0x23	; 35
    19a6:	0f b6       	in	r0, 0x3f	; 63
    19a8:	f8 94       	cli
    19aa:	de bf       	out	0x3e, r29	; 62
    19ac:	0f be       	out	0x3f, r0	; 63
    19ae:	cd bf       	out	0x3d, r28	; 61
    19b0:	cf 91       	pop	r28
    19b2:	df 91       	pop	r29
    19b4:	1f 91       	pop	r17
    19b6:	0f 91       	pop	r16
    19b8:	08 95       	ret

000019ba <nrk_start>:
    19ba:	cf 92       	push	r12
    19bc:	df 92       	push	r13
    19be:	ff 92       	push	r15
    19c0:	0f 93       	push	r16
    19c2:	1f 93       	push	r17
    19c4:	df 93       	push	r29
    19c6:	cf 93       	push	r28
    19c8:	00 d0       	rcall	.+0      	; 0x19ca <nrk_start+0x10>
    19ca:	cd b7       	in	r28, 0x3d	; 61
    19cc:	de b7       	in	r29, 0x3e	; 62
    19ce:	b6 e4       	ldi	r27, 0x46	; 70
    19d0:	cb 2e       	mov	r12, r27
    19d2:	b5 e0       	ldi	r27, 0x05	; 5
    19d4:	db 2e       	mov	r13, r27
    19d6:	90 e0       	ldi	r25, 0x00	; 0
    19d8:	f6 01       	movw	r30, r12
    19da:	f0 80       	ld	r15, Z
    19dc:	ff 2d       	mov	r31, r15
    19de:	ff 3f       	cpi	r31, 0xFF	; 255
    19e0:	b1 f0       	breq	.+44     	; 0x1a0e <nrk_start+0x54>
    19e2:	06 e4       	ldi	r16, 0x46	; 70
    19e4:	15 e0       	ldi	r17, 0x05	; 5
    19e6:	20 e0       	ldi	r18, 0x00	; 0
    19e8:	92 17       	cp	r25, r18
    19ea:	61 f0       	breq	.+24     	; 0x1a04 <nrk_start+0x4a>
    19ec:	f8 01       	movw	r30, r16
    19ee:	80 81       	ld	r24, Z
    19f0:	f8 16       	cp	r15, r24
    19f2:	41 f4       	brne	.+16     	; 0x1a04 <nrk_start+0x4a>
    19f4:	85 e0       	ldi	r24, 0x05	; 5
    19f6:	6f 2d       	mov	r22, r15
    19f8:	29 83       	std	Y+1, r18	; 0x01
    19fa:	9a 83       	std	Y+2, r25	; 0x02
    19fc:	0e 94 c9 16 	call	0x2d92	; 0x2d92 <nrk_kernel_error_add>
    1a00:	9a 81       	ldd	r25, Y+2	; 0x02
    1a02:	29 81       	ldd	r18, Y+1	; 0x01
    1a04:	2f 5f       	subi	r18, 0xFF	; 255
    1a06:	0f 5d       	subi	r16, 0xDF	; 223
    1a08:	1f 4f       	sbci	r17, 0xFF	; 255
    1a0a:	25 30       	cpi	r18, 0x05	; 5
    1a0c:	69 f7       	brne	.-38     	; 0x19e8 <nrk_start+0x2e>
    1a0e:	9f 5f       	subi	r25, 0xFF	; 255
    1a10:	21 e2       	ldi	r18, 0x21	; 33
    1a12:	30 e0       	ldi	r19, 0x00	; 0
    1a14:	c2 0e       	add	r12, r18
    1a16:	d3 1e       	adc	r13, r19
    1a18:	95 30       	cpi	r25, 0x05	; 5
    1a1a:	f1 f6       	brne	.-68     	; 0x19d8 <nrk_start+0x1e>
    1a1c:	0e 94 29 1b 	call	0x3652	; 0x3652 <nrk_get_high_ready_task_ID>
    1a20:	99 27       	eor	r25, r25
    1a22:	87 fd       	sbrc	r24, 7
    1a24:	90 95       	com	r25
    1a26:	fc 01       	movw	r30, r24
    1a28:	a5 e0       	ldi	r26, 0x05	; 5
    1a2a:	ee 0f       	add	r30, r30
    1a2c:	ff 1f       	adc	r31, r31
    1a2e:	aa 95       	dec	r26
    1a30:	e1 f7       	brne	.-8      	; 0x1a2a <nrk_start+0x70>
    1a32:	e8 0f       	add	r30, r24
    1a34:	f9 1f       	adc	r31, r25
    1a36:	e2 5c       	subi	r30, 0xC2	; 194
    1a38:	fa 4f       	sbci	r31, 0xFA	; 250
    1a3a:	82 85       	ldd	r24, Z+10	; 0x0a
    1a3c:	80 93 03 06 	sts	0x0603, r24
    1a40:	f0 93 02 06 	sts	0x0602, r31
    1a44:	e0 93 01 06 	sts	0x0601, r30
    1a48:	f0 93 eb 05 	sts	0x05EB, r31
    1a4c:	e0 93 ea 05 	sts	0x05EA, r30
    1a50:	80 93 f4 05 	sts	0x05F4, r24
    1a54:	0e 94 2a 28 	call	0x5054	; 0x5054 <nrk_target_start>
    1a58:	0e 94 14 28 	call	0x5028	; 0x5028 <nrk_stack_pointer_init>
    1a5c:	0e 94 2f 28 	call	0x505e	; 0x505e <nrk_start_high_ready_task>
    1a60:	ff cf       	rjmp	.-2      	; 0x1a60 <nrk_start+0xa6>

00001a62 <nrk_TCB_init>:
    1a62:	ef 92       	push	r14
    1a64:	ff 92       	push	r15
    1a66:	0f 93       	push	r16
    1a68:	1f 93       	push	r17
    1a6a:	cf 93       	push	r28
    1a6c:	df 93       	push	r29
    1a6e:	ec 01       	movw	r28, r24
    1a70:	7b 01       	movw	r14, r22
    1a72:	8a 01       	movw	r16, r20
    1a74:	89 85       	ldd	r24, Y+9	; 0x09
    1a76:	82 30       	cpi	r24, 0x02	; 2
    1a78:	21 f0       	breq	.+8      	; 0x1a82 <nrk_TCB_init+0x20>
    1a7a:	80 91 e8 05 	lds	r24, 0x05E8
    1a7e:	88 83       	st	Y, r24
    1a80:	01 c0       	rjmp	.+2      	; 0x1a84 <nrk_TCB_init+0x22>
    1a82:	18 82       	st	Y, r1
    1a84:	80 91 e8 05 	lds	r24, 0x05E8
    1a88:	85 30       	cpi	r24, 0x05	; 5
    1a8a:	20 f0       	brcs	.+8      	; 0x1a94 <nrk_TCB_init+0x32>
    1a8c:	87 e0       	ldi	r24, 0x07	; 7
    1a8e:	60 e0       	ldi	r22, 0x00	; 0
    1a90:	0e 94 c9 16 	call	0x2d92	; 0x2d92 <nrk_kernel_error_add>
    1a94:	89 85       	ldd	r24, Y+9	; 0x09
    1a96:	82 30       	cpi	r24, 0x02	; 2
    1a98:	29 f0       	breq	.+10     	; 0x1aa4 <nrk_TCB_init+0x42>
    1a9a:	80 91 e8 05 	lds	r24, 0x05E8
    1a9e:	8f 5f       	subi	r24, 0xFF	; 255
    1aa0:	80 93 e8 05 	sts	0x05E8, r24
    1aa4:	80 91 e8 05 	lds	r24, 0x05E8
    1aa8:	88 23       	and	r24, r24
    1aaa:	19 f4       	brne	.+6      	; 0x1ab2 <nrk_TCB_init+0x50>
    1aac:	81 e0       	ldi	r24, 0x01	; 1
    1aae:	80 93 e8 05 	sts	0x05E8, r24
    1ab2:	88 81       	ld	r24, Y
    1ab4:	99 27       	eor	r25, r25
    1ab6:	87 fd       	sbrc	r24, 7
    1ab8:	90 95       	com	r25
    1aba:	fc 01       	movw	r30, r24
    1abc:	a5 e0       	ldi	r26, 0x05	; 5
    1abe:	ee 0f       	add	r30, r30
    1ac0:	ff 1f       	adc	r31, r31
    1ac2:	aa 95       	dec	r26
    1ac4:	e1 f7       	brne	.-8      	; 0x1abe <nrk_TCB_init+0x5c>
    1ac6:	e8 0f       	add	r30, r24
    1ac8:	f9 1f       	adc	r31, r25
    1aca:	e2 5c       	subi	r30, 0xC2	; 194
    1acc:	fa 4f       	sbci	r31, 0xFA	; 250
    1ace:	f1 82       	std	Z+1, r15	; 0x01
    1ad0:	e0 82       	st	Z, r14
    1ad2:	88 85       	ldd	r24, Y+8	; 0x08
    1ad4:	82 87       	std	Z+10, r24	; 0x0a
    1ad6:	88 81       	ld	r24, Y
    1ad8:	99 27       	eor	r25, r25
    1ada:	87 fd       	sbrc	r24, 7
    1adc:	90 95       	com	r25
    1ade:	fc 01       	movw	r30, r24
    1ae0:	75 e0       	ldi	r23, 0x05	; 5
    1ae2:	ee 0f       	add	r30, r30
    1ae4:	ff 1f       	adc	r31, r31
    1ae6:	7a 95       	dec	r23
    1ae8:	e1 f7       	brne	.-8      	; 0x1ae2 <nrk_TCB_init+0x80>
    1aea:	e8 0f       	add	r30, r24
    1aec:	f9 1f       	adc	r31, r25
    1aee:	e2 5c       	subi	r30, 0xC2	; 194
    1af0:	fa 4f       	sbci	r31, 0xFA	; 250
    1af2:	83 e0       	ldi	r24, 0x03	; 3
    1af4:	81 87       	std	Z+9, r24	; 0x09
    1af6:	28 81       	ld	r18, Y
    1af8:	82 2f       	mov	r24, r18
    1afa:	99 27       	eor	r25, r25
    1afc:	87 fd       	sbrc	r24, 7
    1afe:	90 95       	com	r25
    1b00:	fc 01       	movw	r30, r24
    1b02:	65 e0       	ldi	r22, 0x05	; 5
    1b04:	ee 0f       	add	r30, r30
    1b06:	ff 1f       	adc	r31, r31
    1b08:	6a 95       	dec	r22
    1b0a:	e1 f7       	brne	.-8      	; 0x1b04 <nrk_TCB_init+0xa2>
    1b0c:	e8 0f       	add	r30, r24
    1b0e:	f9 1f       	adc	r31, r25
    1b10:	e2 5c       	subi	r30, 0xC2	; 194
    1b12:	fa 4f       	sbci	r31, 0xFA	; 250
    1b14:	20 87       	std	Z+8, r18	; 0x08
    1b16:	88 81       	ld	r24, Y
    1b18:	99 27       	eor	r25, r25
    1b1a:	87 fd       	sbrc	r24, 7
    1b1c:	90 95       	com	r25
    1b1e:	7c 01       	movw	r14, r24
    1b20:	55 e0       	ldi	r21, 0x05	; 5
    1b22:	ee 0c       	add	r14, r14
    1b24:	ff 1c       	adc	r15, r15
    1b26:	5a 95       	dec	r21
    1b28:	e1 f7       	brne	.-8      	; 0x1b22 <nrk_TCB_init+0xc0>
    1b2a:	e8 0e       	add	r14, r24
    1b2c:	f9 1e       	adc	r15, r25
    1b2e:	8e e3       	ldi	r24, 0x3E	; 62
    1b30:	95 e0       	ldi	r25, 0x05	; 5
    1b32:	e8 0e       	add	r14, r24
    1b34:	f9 1e       	adc	r15, r25
    1b36:	f7 01       	movw	r30, r14
    1b38:	15 82       	std	Z+5, r1	; 0x05
    1b3a:	ce 01       	movw	r24, r28
    1b3c:	0b 96       	adiw	r24, 0x0b	; 11
    1b3e:	0e 94 04 20 	call	0x4008	; 0x4008 <_nrk_time_to_ticks>
    1b42:	f7 01       	movw	r30, r14
    1b44:	94 8f       	std	Z+28, r25	; 0x1c
    1b46:	83 8f       	std	Z+27, r24	; 0x1b
    1b48:	8b 85       	ldd	r24, Y+11	; 0x0b
    1b4a:	9c 85       	ldd	r25, Y+12	; 0x0c
    1b4c:	ad 85       	ldd	r26, Y+13	; 0x0d
    1b4e:	be 85       	ldd	r27, Y+14	; 0x0e
    1b50:	8e 33       	cpi	r24, 0x3E	; 62
    1b52:	91 05       	cpc	r25, r1
    1b54:	a1 05       	cpc	r26, r1
    1b56:	b1 05       	cpc	r27, r1
    1b58:	20 f0       	brcs	.+8      	; 0x1b62 <nrk_TCB_init+0x100>
    1b5a:	86 e1       	ldi	r24, 0x16	; 22
    1b5c:	68 81       	ld	r22, Y
    1b5e:	0e 94 c9 16 	call	0x2d92	; 0x2d92 <nrk_kernel_error_add>
    1b62:	e8 80       	ld	r14, Y
    1b64:	ff 24       	eor	r15, r15
    1b66:	e7 fc       	sbrc	r14, 7
    1b68:	f0 94       	com	r15
    1b6a:	ce 01       	movw	r24, r28
    1b6c:	4b 96       	adiw	r24, 0x1b	; 27
    1b6e:	0e 94 04 20 	call	0x4008	; 0x4008 <_nrk_time_to_ticks>
    1b72:	f7 01       	movw	r30, r14
    1b74:	45 e0       	ldi	r20, 0x05	; 5
    1b76:	ee 0f       	add	r30, r30
    1b78:	ff 1f       	adc	r31, r31
    1b7a:	4a 95       	dec	r20
    1b7c:	e1 f7       	brne	.-8      	; 0x1b76 <nrk_TCB_init+0x114>
    1b7e:	ee 0d       	add	r30, r14
    1b80:	ff 1d       	adc	r31, r15
    1b82:	e2 5c       	subi	r30, 0xC2	; 194
    1b84:	fa 4f       	sbci	r31, 0xFA	; 250
    1b86:	96 8b       	std	Z+22, r25	; 0x16
    1b88:	85 8b       	std	Z+21, r24	; 0x15
    1b8a:	88 81       	ld	r24, Y
    1b8c:	99 27       	eor	r25, r25
    1b8e:	87 fd       	sbrc	r24, 7
    1b90:	90 95       	com	r25
    1b92:	7c 01       	movw	r14, r24
    1b94:	35 e0       	ldi	r19, 0x05	; 5
    1b96:	ee 0c       	add	r14, r14
    1b98:	ff 1c       	adc	r15, r15
    1b9a:	3a 95       	dec	r19
    1b9c:	e1 f7       	brne	.-8      	; 0x1b96 <nrk_TCB_init+0x134>
    1b9e:	e8 0e       	add	r14, r24
    1ba0:	f9 1e       	adc	r15, r25
    1ba2:	8e e3       	ldi	r24, 0x3E	; 62
    1ba4:	95 e0       	ldi	r25, 0x05	; 5
    1ba6:	e8 0e       	add	r14, r24
    1ba8:	f9 1e       	adc	r15, r25
    1baa:	f7 01       	movw	r30, r14
    1bac:	85 89       	ldd	r24, Z+21	; 0x15
    1bae:	96 89       	ldd	r25, Z+22	; 0x16
    1bb0:	23 8d       	ldd	r18, Z+27	; 0x1b
    1bb2:	34 8d       	ldd	r19, Z+28	; 0x1c
    1bb4:	82 0f       	add	r24, r18
    1bb6:	93 1f       	adc	r25, r19
    1bb8:	90 8f       	std	Z+24, r25	; 0x18
    1bba:	87 8b       	std	Z+23, r24	; 0x17
    1bbc:	ce 01       	movw	r24, r28
    1bbe:	43 96       	adiw	r24, 0x13	; 19
    1bc0:	0e 94 04 20 	call	0x4008	; 0x4008 <_nrk_time_to_ticks>
    1bc4:	f7 01       	movw	r30, r14
    1bc6:	96 8f       	std	Z+30, r25	; 0x1e
    1bc8:	85 8f       	std	Z+29, r24	; 0x1d
    1bca:	88 81       	ld	r24, Y
    1bcc:	99 27       	eor	r25, r25
    1bce:	87 fd       	sbrc	r24, 7
    1bd0:	90 95       	com	r25
    1bd2:	fc 01       	movw	r30, r24
    1bd4:	25 e0       	ldi	r18, 0x05	; 5
    1bd6:	ee 0f       	add	r30, r30
    1bd8:	ff 1f       	adc	r31, r31
    1bda:	2a 95       	dec	r18
    1bdc:	e1 f7       	brne	.-8      	; 0x1bd6 <nrk_TCB_init+0x174>
    1bde:	e8 0f       	add	r30, r24
    1be0:	f9 1f       	adc	r31, r25
    1be2:	e2 5c       	subi	r30, 0xC2	; 194
    1be4:	fa 4f       	sbci	r31, 0xFA	; 250
    1be6:	85 8d       	ldd	r24, Z+29	; 0x1d
    1be8:	96 8d       	ldd	r25, Z+30	; 0x1e
    1bea:	92 8f       	std	Z+26, r25	; 0x1a
    1bec:	81 8f       	std	Z+25, r24	; 0x19
    1bee:	81 e0       	ldi	r24, 0x01	; 1
    1bf0:	90 e0       	ldi	r25, 0x00	; 0
    1bf2:	90 a3       	std	Z+32, r25	; 0x20
    1bf4:	87 8f       	std	Z+31, r24	; 0x1f
    1bf6:	13 83       	std	Z+3, r17	; 0x03
    1bf8:	02 83       	std	Z+2, r16	; 0x02
    1bfa:	81 e0       	ldi	r24, 0x01	; 1
    1bfc:	84 87       	std	Z+12, r24	; 0x0c
    1bfe:	df 91       	pop	r29
    1c00:	cf 91       	pop	r28
    1c02:	1f 91       	pop	r17
    1c04:	0f 91       	pop	r16
    1c06:	ff 90       	pop	r15
    1c08:	ef 90       	pop	r14
    1c0a:	08 95       	ret

00001c0c <_nrk_timer_tick>:
    1c0c:	0e 94 79 21 	call	0x42f2	; 0x42f2 <_nrk_scheduler>
    1c10:	08 95       	ret

00001c12 <nrk_version>:
    1c12:	85 e6       	ldi	r24, 0x65	; 101
    1c14:	90 e0       	ldi	r25, 0x00	; 0
    1c16:	08 95       	ret

00001c18 <nrk_stats_reset>:
    1c18:	10 92 ec 05 	sts	0x05EC, r1
    1c1c:	10 92 ed 05 	sts	0x05ED, r1
    1c20:	10 92 ee 05 	sts	0x05EE, r1
    1c24:	10 92 ef 05 	sts	0x05EF, r1
    1c28:	10 92 f0 05 	sts	0x05F0, r1
    1c2c:	10 92 f1 05 	sts	0x05F1, r1
    1c30:	10 92 f2 05 	sts	0x05F2, r1
    1c34:	10 92 f3 05 	sts	0x05F3, r1
    1c38:	e4 e0       	ldi	r30, 0x04	; 4
    1c3a:	f6 e0       	ldi	r31, 0x06	; 6
    1c3c:	10 82       	st	Z, r1
    1c3e:	11 82       	std	Z+1, r1	; 0x01
    1c40:	12 82       	std	Z+2, r1	; 0x02
    1c42:	13 82       	std	Z+3, r1	; 0x03
    1c44:	10 86       	std	Z+8, r1	; 0x08
    1c46:	11 86       	std	Z+9, r1	; 0x09
    1c48:	12 86       	std	Z+10, r1	; 0x0a
    1c4a:	13 86       	std	Z+11, r1	; 0x0b
    1c4c:	14 82       	std	Z+4, r1	; 0x04
    1c4e:	15 82       	std	Z+5, r1	; 0x05
    1c50:	16 82       	std	Z+6, r1	; 0x06
    1c52:	17 82       	std	Z+7, r1	; 0x07
    1c54:	14 86       	std	Z+12, r1	; 0x0c
    1c56:	15 86       	std	Z+13, r1	; 0x0d
    1c58:	16 86       	std	Z+14, r1	; 0x0e
    1c5a:	17 86       	std	Z+15, r1	; 0x0f
    1c5c:	10 8a       	std	Z+16, r1	; 0x10
    1c5e:	11 8a       	std	Z+17, r1	; 0x11
    1c60:	12 8a       	std	Z+18, r1	; 0x12
    1c62:	13 8a       	std	Z+19, r1	; 0x13
    1c64:	10 8e       	std	Z+24, r1	; 0x18
    1c66:	11 8e       	std	Z+25, r1	; 0x19
    1c68:	12 8e       	std	Z+26, r1	; 0x1a
    1c6a:	13 8e       	std	Z+27, r1	; 0x1b
    1c6c:	14 8e       	std	Z+28, r1	; 0x1c
    1c6e:	15 8e       	std	Z+29, r1	; 0x1d
    1c70:	7e 96       	adiw	r30, 0x1e	; 30
    1c72:	86 e0       	ldi	r24, 0x06	; 6
    1c74:	ea 39       	cpi	r30, 0x9A	; 154
    1c76:	f8 07       	cpc	r31, r24
    1c78:	09 f7       	brne	.-62     	; 0x1c3c <nrk_stats_reset+0x24>
    1c7a:	08 95       	ret

00001c7c <_nrk_stats_sleep>:
    1c7c:	68 2f       	mov	r22, r24
    1c7e:	70 e0       	ldi	r23, 0x00	; 0
    1c80:	80 e0       	ldi	r24, 0x00	; 0
    1c82:	90 e0       	ldi	r25, 0x00	; 0
    1c84:	23 eb       	ldi	r18, 0xB3	; 179
    1c86:	36 ee       	ldi	r19, 0xE6	; 230
    1c88:	4e e0       	ldi	r20, 0x0E	; 14
    1c8a:	50 e0       	ldi	r21, 0x00	; 0
    1c8c:	0e 94 06 30 	call	0x600c	; 0x600c <__mulsi3>
    1c90:	20 91 f0 05 	lds	r18, 0x05F0
    1c94:	30 91 f1 05 	lds	r19, 0x05F1
    1c98:	40 91 f2 05 	lds	r20, 0x05F2
    1c9c:	50 91 f3 05 	lds	r21, 0x05F3
    1ca0:	62 0f       	add	r22, r18
    1ca2:	73 1f       	adc	r23, r19
    1ca4:	84 1f       	adc	r24, r20
    1ca6:	95 1f       	adc	r25, r21
    1ca8:	60 93 f0 05 	sts	0x05F0, r22
    1cac:	70 93 f1 05 	sts	0x05F1, r23
    1cb0:	80 93 f2 05 	sts	0x05F2, r24
    1cb4:	90 93 f3 05 	sts	0x05F3, r25
    1cb8:	8c ee       	ldi	r24, 0xEC	; 236
    1cba:	95 e0       	ldi	r25, 0x05	; 5
    1cbc:	0e 94 75 1f 	call	0x3eea	; 0x3eea <nrk_time_compact_nanos>
    1cc0:	08 95       	ret

00001cc2 <nrk_stats_get_deep_sleep>:
    1cc2:	fc 01       	movw	r30, r24
    1cc4:	20 91 ec 05 	lds	r18, 0x05EC
    1cc8:	30 91 ed 05 	lds	r19, 0x05ED
    1ccc:	40 91 ee 05 	lds	r20, 0x05EE
    1cd0:	50 91 ef 05 	lds	r21, 0x05EF
    1cd4:	20 83       	st	Z, r18
    1cd6:	31 83       	std	Z+1, r19	; 0x01
    1cd8:	42 83       	std	Z+2, r20	; 0x02
    1cda:	53 83       	std	Z+3, r21	; 0x03
    1cdc:	20 91 f0 05 	lds	r18, 0x05F0
    1ce0:	30 91 f1 05 	lds	r19, 0x05F1
    1ce4:	40 91 f2 05 	lds	r20, 0x05F2
    1ce8:	50 91 f3 05 	lds	r21, 0x05F3
    1cec:	24 83       	std	Z+4, r18	; 0x04
    1cee:	35 83       	std	Z+5, r19	; 0x05
    1cf0:	46 83       	std	Z+6, r20	; 0x06
    1cf2:	57 83       	std	Z+7, r21	; 0x07
    1cf4:	08 95       	ret

00001cf6 <_nrk_stats_add_violation>:
    1cf6:	e8 2f       	mov	r30, r24
    1cf8:	f0 e0       	ldi	r31, 0x00	; 0
    1cfa:	9f 01       	movw	r18, r30
    1cfc:	22 0f       	add	r18, r18
    1cfe:	33 1f       	adc	r19, r19
    1d00:	a5 e0       	ldi	r26, 0x05	; 5
    1d02:	ee 0f       	add	r30, r30
    1d04:	ff 1f       	adc	r31, r31
    1d06:	aa 95       	dec	r26
    1d08:	e1 f7       	brne	.-8      	; 0x1d02 <_nrk_stats_add_violation+0xc>
    1d0a:	e2 1b       	sub	r30, r18
    1d0c:	f3 0b       	sbc	r31, r19
    1d0e:	ec 5f       	subi	r30, 0xFC	; 252
    1d10:	f9 4f       	sbci	r31, 0xF9	; 249
    1d12:	95 8d       	ldd	r25, Z+29	; 0x1d
    1d14:	91 30       	cpi	r25, 0x01	; 1
    1d16:	89 f1       	breq	.+98     	; 0x1d7a <_nrk_stats_add_violation+0x84>
    1d18:	e8 2f       	mov	r30, r24
    1d1a:	f0 e0       	ldi	r31, 0x00	; 0
    1d1c:	9f 01       	movw	r18, r30
    1d1e:	22 0f       	add	r18, r18
    1d20:	33 1f       	adc	r19, r19
    1d22:	65 e0       	ldi	r22, 0x05	; 5
    1d24:	ee 0f       	add	r30, r30
    1d26:	ff 1f       	adc	r31, r31
    1d28:	6a 95       	dec	r22
    1d2a:	e1 f7       	brne	.-8      	; 0x1d24 <_nrk_stats_add_violation+0x2e>
    1d2c:	e2 1b       	sub	r30, r18
    1d2e:	f3 0b       	sbc	r31, r19
    1d30:	ec 5f       	subi	r30, 0xFC	; 252
    1d32:	f9 4f       	sbci	r31, 0xF9	; 249
    1d34:	94 8d       	ldd	r25, Z+28	; 0x1c
    1d36:	9f 5f       	subi	r25, 0xFF	; 255
    1d38:	e8 2f       	mov	r30, r24
    1d3a:	f0 e0       	ldi	r31, 0x00	; 0
    1d3c:	9f 01       	movw	r18, r30
    1d3e:	22 0f       	add	r18, r18
    1d40:	33 1f       	adc	r19, r19
    1d42:	45 e0       	ldi	r20, 0x05	; 5
    1d44:	ee 0f       	add	r30, r30
    1d46:	ff 1f       	adc	r31, r31
    1d48:	4a 95       	dec	r20
    1d4a:	e1 f7       	brne	.-8      	; 0x1d44 <_nrk_stats_add_violation+0x4e>
    1d4c:	e2 1b       	sub	r30, r18
    1d4e:	f3 0b       	sbc	r31, r19
    1d50:	ec 5f       	subi	r30, 0xFC	; 252
    1d52:	f9 4f       	sbci	r31, 0xF9	; 249
    1d54:	94 8f       	std	Z+28, r25	; 0x1c
    1d56:	9f 3f       	cpi	r25, 0xFF	; 255
    1d58:	81 f4       	brne	.+32     	; 0x1d7a <_nrk_stats_add_violation+0x84>
    1d5a:	e8 2f       	mov	r30, r24
    1d5c:	f0 e0       	ldi	r31, 0x00	; 0
    1d5e:	cf 01       	movw	r24, r30
    1d60:	88 0f       	add	r24, r24
    1d62:	99 1f       	adc	r25, r25
    1d64:	25 e0       	ldi	r18, 0x05	; 5
    1d66:	ee 0f       	add	r30, r30
    1d68:	ff 1f       	adc	r31, r31
    1d6a:	2a 95       	dec	r18
    1d6c:	e1 f7       	brne	.-8      	; 0x1d66 <_nrk_stats_add_violation+0x70>
    1d6e:	e8 1b       	sub	r30, r24
    1d70:	f9 0b       	sbc	r31, r25
    1d72:	ec 5f       	subi	r30, 0xFC	; 252
    1d74:	f9 4f       	sbci	r31, 0xF9	; 249
    1d76:	81 e0       	ldi	r24, 0x01	; 1
    1d78:	85 8f       	std	Z+29, r24	; 0x1d
    1d7a:	08 95       	ret

00001d7c <_nrk_stats_task_start>:
    1d7c:	e8 2f       	mov	r30, r24
    1d7e:	f0 e0       	ldi	r31, 0x00	; 0
    1d80:	9f 01       	movw	r18, r30
    1d82:	22 0f       	add	r18, r18
    1d84:	33 1f       	adc	r19, r19
    1d86:	75 e0       	ldi	r23, 0x05	; 5
    1d88:	ee 0f       	add	r30, r30
    1d8a:	ff 1f       	adc	r31, r31
    1d8c:	7a 95       	dec	r23
    1d8e:	e1 f7       	brne	.-8      	; 0x1d88 <_nrk_stats_task_start+0xc>
    1d90:	e2 1b       	sub	r30, r18
    1d92:	f3 0b       	sbc	r31, r19
    1d94:	ec 5f       	subi	r30, 0xFC	; 252
    1d96:	f9 4f       	sbci	r31, 0xF9	; 249
    1d98:	95 8d       	ldd	r25, Z+29	; 0x1d
    1d9a:	91 30       	cpi	r25, 0x01	; 1
    1d9c:	09 f4       	brne	.+2      	; 0x1da0 <_nrk_stats_task_start+0x24>
    1d9e:	52 c0       	rjmp	.+164    	; 0x1e44 <_nrk_stats_task_start+0xc8>
    1da0:	e8 2f       	mov	r30, r24
    1da2:	f0 e0       	ldi	r31, 0x00	; 0
    1da4:	9f 01       	movw	r18, r30
    1da6:	22 0f       	add	r18, r18
    1da8:	33 1f       	adc	r19, r19
    1daa:	55 e0       	ldi	r21, 0x05	; 5
    1dac:	ee 0f       	add	r30, r30
    1dae:	ff 1f       	adc	r31, r31
    1db0:	5a 95       	dec	r21
    1db2:	e1 f7       	brne	.-8      	; 0x1dac <_nrk_stats_task_start+0x30>
    1db4:	e2 1b       	sub	r30, r18
    1db6:	f3 0b       	sbc	r31, r19
    1db8:	ec 5f       	subi	r30, 0xFC	; 252
    1dba:	f9 4f       	sbci	r31, 0xF9	; 249
    1dbc:	14 8a       	std	Z+20, r1	; 0x14
    1dbe:	15 8a       	std	Z+21, r1	; 0x15
    1dc0:	16 8a       	std	Z+22, r1	; 0x16
    1dc2:	17 8a       	std	Z+23, r1	; 0x17
    1dc4:	e8 2f       	mov	r30, r24
    1dc6:	f0 e0       	ldi	r31, 0x00	; 0
    1dc8:	9f 01       	movw	r18, r30
    1dca:	22 0f       	add	r18, r18
    1dcc:	33 1f       	adc	r19, r19
    1dce:	95 e0       	ldi	r25, 0x05	; 5
    1dd0:	ee 0f       	add	r30, r30
    1dd2:	ff 1f       	adc	r31, r31
    1dd4:	9a 95       	dec	r25
    1dd6:	e1 f7       	brne	.-8      	; 0x1dd0 <_nrk_stats_task_start+0x54>
    1dd8:	e2 1b       	sub	r30, r18
    1dda:	f3 0b       	sbc	r31, r19
    1ddc:	ec 5f       	subi	r30, 0xFC	; 252
    1dde:	f9 4f       	sbci	r31, 0xF9	; 249
    1de0:	20 89       	ldd	r18, Z+16	; 0x10
    1de2:	31 89       	ldd	r19, Z+17	; 0x11
    1de4:	42 89       	ldd	r20, Z+18	; 0x12
    1de6:	53 89       	ldd	r21, Z+19	; 0x13
    1de8:	2f 5f       	subi	r18, 0xFF	; 255
    1dea:	3f 4f       	sbci	r19, 0xFF	; 255
    1dec:	4f 4f       	sbci	r20, 0xFF	; 255
    1dee:	5f 4f       	sbci	r21, 0xFF	; 255
    1df0:	e8 2f       	mov	r30, r24
    1df2:	f0 e0       	ldi	r31, 0x00	; 0
    1df4:	bf 01       	movw	r22, r30
    1df6:	66 0f       	add	r22, r22
    1df8:	77 1f       	adc	r23, r23
    1dfa:	a5 e0       	ldi	r26, 0x05	; 5
    1dfc:	ee 0f       	add	r30, r30
    1dfe:	ff 1f       	adc	r31, r31
    1e00:	aa 95       	dec	r26
    1e02:	e1 f7       	brne	.-8      	; 0x1dfc <_nrk_stats_task_start+0x80>
    1e04:	e6 1b       	sub	r30, r22
    1e06:	f7 0b       	sbc	r31, r23
    1e08:	ec 5f       	subi	r30, 0xFC	; 252
    1e0a:	f9 4f       	sbci	r31, 0xF9	; 249
    1e0c:	20 8b       	std	Z+16, r18	; 0x10
    1e0e:	31 8b       	std	Z+17, r19	; 0x11
    1e10:	42 8b       	std	Z+18, r20	; 0x12
    1e12:	53 8b       	std	Z+19, r21	; 0x13
    1e14:	2e 3f       	cpi	r18, 0xFE	; 254
    1e16:	9f ef       	ldi	r25, 0xFF	; 255
    1e18:	39 07       	cpc	r19, r25
    1e1a:	9f ef       	ldi	r25, 0xFF	; 255
    1e1c:	49 07       	cpc	r20, r25
    1e1e:	9f ef       	ldi	r25, 0xFF	; 255
    1e20:	59 07       	cpc	r21, r25
    1e22:	81 f4       	brne	.+32     	; 0x1e44 <_nrk_stats_task_start+0xc8>
    1e24:	e8 2f       	mov	r30, r24
    1e26:	f0 e0       	ldi	r31, 0x00	; 0
    1e28:	cf 01       	movw	r24, r30
    1e2a:	88 0f       	add	r24, r24
    1e2c:	99 1f       	adc	r25, r25
    1e2e:	25 e0       	ldi	r18, 0x05	; 5
    1e30:	ee 0f       	add	r30, r30
    1e32:	ff 1f       	adc	r31, r31
    1e34:	2a 95       	dec	r18
    1e36:	e1 f7       	brne	.-8      	; 0x1e30 <_nrk_stats_task_start+0xb4>
    1e38:	e8 1b       	sub	r30, r24
    1e3a:	f9 0b       	sbc	r31, r25
    1e3c:	ec 5f       	subi	r30, 0xFC	; 252
    1e3e:	f9 4f       	sbci	r31, 0xF9	; 249
    1e40:	81 e0       	ldi	r24, 0x01	; 1
    1e42:	85 8f       	std	Z+29, r24	; 0x1d
    1e44:	08 95       	ret

00001e46 <_nrk_stats_task_preempted>:
    1e46:	ef 92       	push	r14
    1e48:	ff 92       	push	r15
    1e4a:	cf 93       	push	r28
    1e4c:	df 93       	push	r29
    1e4e:	a8 2f       	mov	r26, r24
    1e50:	e8 2f       	mov	r30, r24
    1e52:	f0 e0       	ldi	r31, 0x00	; 0
    1e54:	cf 01       	movw	r24, r30
    1e56:	88 0f       	add	r24, r24
    1e58:	99 1f       	adc	r25, r25
    1e5a:	75 e0       	ldi	r23, 0x05	; 5
    1e5c:	ee 0f       	add	r30, r30
    1e5e:	ff 1f       	adc	r31, r31
    1e60:	7a 95       	dec	r23
    1e62:	e1 f7       	brne	.-8      	; 0x1e5c <_nrk_stats_task_preempted+0x16>
    1e64:	e8 1b       	sub	r30, r24
    1e66:	f9 0b       	sbc	r31, r25
    1e68:	ec 5f       	subi	r30, 0xFC	; 252
    1e6a:	f9 4f       	sbci	r31, 0xF9	; 249
    1e6c:	85 8d       	ldd	r24, Z+29	; 0x1d
    1e6e:	81 30       	cpi	r24, 0x01	; 1
    1e70:	09 f4       	brne	.+2      	; 0x1e74 <_nrk_stats_task_preempted+0x2e>
    1e72:	b1 c0       	rjmp	.+354    	; 0x1fd6 <_nrk_stats_task_preempted+0x190>
    1e74:	ea 2f       	mov	r30, r26
    1e76:	f0 e0       	ldi	r31, 0x00	; 0
    1e78:	cf 01       	movw	r24, r30
    1e7a:	88 0f       	add	r24, r24
    1e7c:	99 1f       	adc	r25, r25
    1e7e:	45 e0       	ldi	r20, 0x05	; 5
    1e80:	ee 0f       	add	r30, r30
    1e82:	ff 1f       	adc	r31, r31
    1e84:	4a 95       	dec	r20
    1e86:	e1 f7       	brne	.-8      	; 0x1e80 <_nrk_stats_task_preempted+0x3a>
    1e88:	e8 1b       	sub	r30, r24
    1e8a:	f9 0b       	sbc	r31, r25
    1e8c:	ec 5f       	subi	r30, 0xFC	; 252
    1e8e:	f9 4f       	sbci	r31, 0xF9	; 249
    1e90:	ea 2e       	mov	r14, r26
    1e92:	e7 01       	movw	r28, r14
    1e94:	7e 01       	movw	r14, r28
    1e96:	20 e0       	ldi	r18, 0x00	; 0
    1e98:	f2 2e       	mov	r15, r18
    1e9a:	e7 01       	movw	r28, r14
    1e9c:	c7 01       	movw	r24, r14
    1e9e:	88 0f       	add	r24, r24
    1ea0:	99 1f       	adc	r25, r25
    1ea2:	25 e0       	ldi	r18, 0x05	; 5
    1ea4:	cc 0f       	add	r28, r28
    1ea6:	dd 1f       	adc	r29, r29
    1ea8:	2a 95       	dec	r18
    1eaa:	e1 f7       	brne	.-8      	; 0x1ea4 <_nrk_stats_task_preempted+0x5e>
    1eac:	c8 1b       	sub	r28, r24
    1eae:	d9 0b       	sbc	r29, r25
    1eb0:	cc 5f       	subi	r28, 0xFC	; 252
    1eb2:	d9 4f       	sbci	r29, 0xF9	; 249
    1eb4:	28 8d       	ldd	r18, Y+24	; 0x18
    1eb6:	39 8d       	ldd	r19, Y+25	; 0x19
    1eb8:	4a 8d       	ldd	r20, Y+26	; 0x1a
    1eba:	5b 8d       	ldd	r21, Y+27	; 0x1b
    1ebc:	2f 5f       	subi	r18, 0xFF	; 255
    1ebe:	3f 4f       	sbci	r19, 0xFF	; 255
    1ec0:	4f 4f       	sbci	r20, 0xFF	; 255
    1ec2:	5f 4f       	sbci	r21, 0xFF	; 255
    1ec4:	20 8f       	std	Z+24, r18	; 0x18
    1ec6:	31 8f       	std	Z+25, r19	; 0x19
    1ec8:	42 8f       	std	Z+26, r20	; 0x1a
    1eca:	53 8f       	std	Z+27, r21	; 0x1b
    1ecc:	70 e0       	ldi	r23, 0x00	; 0
    1ece:	80 e0       	ldi	r24, 0x00	; 0
    1ed0:	90 e0       	ldi	r25, 0x00	; 0
    1ed2:	ea 2f       	mov	r30, r26
    1ed4:	f0 e0       	ldi	r31, 0x00	; 0
    1ed6:	9f 01       	movw	r18, r30
    1ed8:	22 0f       	add	r18, r18
    1eda:	33 1f       	adc	r19, r19
    1edc:	55 e0       	ldi	r21, 0x05	; 5
    1ede:	ee 0f       	add	r30, r30
    1ee0:	ff 1f       	adc	r31, r31
    1ee2:	5a 95       	dec	r21
    1ee4:	e1 f7       	brne	.-8      	; 0x1ede <_nrk_stats_task_preempted+0x98>
    1ee6:	e2 1b       	sub	r30, r18
    1ee8:	f3 0b       	sbc	r31, r19
    1eea:	ec 5f       	subi	r30, 0xFC	; 252
    1eec:	f9 4f       	sbci	r31, 0xF9	; 249
    1eee:	ea 2e       	mov	r14, r26
    1ef0:	e7 01       	movw	r28, r14
    1ef2:	7e 01       	movw	r14, r28
    1ef4:	20 e0       	ldi	r18, 0x00	; 0
    1ef6:	f2 2e       	mov	r15, r18
    1ef8:	e7 01       	movw	r28, r14
    1efa:	97 01       	movw	r18, r14
    1efc:	22 0f       	add	r18, r18
    1efe:	33 1f       	adc	r19, r19
    1f00:	b5 e0       	ldi	r27, 0x05	; 5
    1f02:	cc 0f       	add	r28, r28
    1f04:	dd 1f       	adc	r29, r29
    1f06:	ba 95       	dec	r27
    1f08:	e1 f7       	brne	.-8      	; 0x1f02 <_nrk_stats_task_preempted+0xbc>
    1f0a:	c2 1b       	sub	r28, r18
    1f0c:	d3 0b       	sbc	r29, r19
    1f0e:	cc 5f       	subi	r28, 0xFC	; 252
    1f10:	d9 4f       	sbci	r29, 0xF9	; 249
    1f12:	2c 89       	ldd	r18, Y+20	; 0x14
    1f14:	3d 89       	ldd	r19, Y+21	; 0x15
    1f16:	4e 89       	ldd	r20, Y+22	; 0x16
    1f18:	5f 89       	ldd	r21, Y+23	; 0x17
    1f1a:	26 0f       	add	r18, r22
    1f1c:	37 1f       	adc	r19, r23
    1f1e:	48 1f       	adc	r20, r24
    1f20:	59 1f       	adc	r21, r25
    1f22:	24 8b       	std	Z+20, r18	; 0x14
    1f24:	35 8b       	std	Z+21, r19	; 0x15
    1f26:	46 8b       	std	Z+22, r20	; 0x16
    1f28:	57 8b       	std	Z+23, r21	; 0x17
    1f2a:	ea 2f       	mov	r30, r26
    1f2c:	f0 e0       	ldi	r31, 0x00	; 0
    1f2e:	9f 01       	movw	r18, r30
    1f30:	22 0f       	add	r18, r18
    1f32:	33 1f       	adc	r19, r19
    1f34:	45 e0       	ldi	r20, 0x05	; 5
    1f36:	ee 0f       	add	r30, r30
    1f38:	ff 1f       	adc	r31, r31
    1f3a:	4a 95       	dec	r20
    1f3c:	e1 f7       	brne	.-8      	; 0x1f36 <_nrk_stats_task_preempted+0xf0>
    1f3e:	e2 1b       	sub	r30, r18
    1f40:	f3 0b       	sbc	r31, r19
    1f42:	ec 5f       	subi	r30, 0xFC	; 252
    1f44:	f9 4f       	sbci	r31, 0xF9	; 249
    1f46:	ea 2e       	mov	r14, r26
    1f48:	e7 01       	movw	r28, r14
    1f4a:	7e 01       	movw	r14, r28
    1f4c:	20 e0       	ldi	r18, 0x00	; 0
    1f4e:	f2 2e       	mov	r15, r18
    1f50:	e7 01       	movw	r28, r14
    1f52:	97 01       	movw	r18, r14
    1f54:	22 0f       	add	r18, r18
    1f56:	33 1f       	adc	r19, r19
    1f58:	55 e0       	ldi	r21, 0x05	; 5
    1f5a:	cc 0f       	add	r28, r28
    1f5c:	dd 1f       	adc	r29, r29
    1f5e:	5a 95       	dec	r21
    1f60:	e1 f7       	brne	.-8      	; 0x1f5a <_nrk_stats_task_preempted+0x114>
    1f62:	c2 1b       	sub	r28, r18
    1f64:	d3 0b       	sbc	r29, r19
    1f66:	cc 5f       	subi	r28, 0xFC	; 252
    1f68:	d9 4f       	sbci	r29, 0xF9	; 249
    1f6a:	28 81       	ld	r18, Y
    1f6c:	39 81       	ldd	r19, Y+1	; 0x01
    1f6e:	4a 81       	ldd	r20, Y+2	; 0x02
    1f70:	5b 81       	ldd	r21, Y+3	; 0x03
    1f72:	26 0f       	add	r18, r22
    1f74:	37 1f       	adc	r19, r23
    1f76:	48 1f       	adc	r20, r24
    1f78:	59 1f       	adc	r21, r25
    1f7a:	20 83       	st	Z, r18
    1f7c:	31 83       	std	Z+1, r19	; 0x01
    1f7e:	42 83       	std	Z+2, r20	; 0x02
    1f80:	53 83       	std	Z+3, r21	; 0x03
    1f82:	ea 2f       	mov	r30, r26
    1f84:	f0 e0       	ldi	r31, 0x00	; 0
    1f86:	cf 01       	movw	r24, r30
    1f88:	88 0f       	add	r24, r24
    1f8a:	99 1f       	adc	r25, r25
    1f8c:	35 e0       	ldi	r19, 0x05	; 5
    1f8e:	ee 0f       	add	r30, r30
    1f90:	ff 1f       	adc	r31, r31
    1f92:	3a 95       	dec	r19
    1f94:	e1 f7       	brne	.-8      	; 0x1f8e <_nrk_stats_task_preempted+0x148>
    1f96:	e8 1b       	sub	r30, r24
    1f98:	f9 0b       	sbc	r31, r25
    1f9a:	ec 5f       	subi	r30, 0xFC	; 252
    1f9c:	f9 4f       	sbci	r31, 0xF9	; 249
    1f9e:	20 8d       	ldd	r18, Z+24	; 0x18
    1fa0:	31 8d       	ldd	r19, Z+25	; 0x19
    1fa2:	42 8d       	ldd	r20, Z+26	; 0x1a
    1fa4:	53 8d       	ldd	r21, Z+27	; 0x1b
    1fa6:	2e 3f       	cpi	r18, 0xFE	; 254
    1fa8:	8f ef       	ldi	r24, 0xFF	; 255
    1faa:	38 07       	cpc	r19, r24
    1fac:	8f ef       	ldi	r24, 0xFF	; 255
    1fae:	48 07       	cpc	r20, r24
    1fb0:	8f ef       	ldi	r24, 0xFF	; 255
    1fb2:	58 07       	cpc	r21, r24
    1fb4:	81 f4       	brne	.+32     	; 0x1fd6 <_nrk_stats_task_preempted+0x190>
    1fb6:	ea 2f       	mov	r30, r26
    1fb8:	f0 e0       	ldi	r31, 0x00	; 0
    1fba:	cf 01       	movw	r24, r30
    1fbc:	88 0f       	add	r24, r24
    1fbe:	99 1f       	adc	r25, r25
    1fc0:	b5 e0       	ldi	r27, 0x05	; 5
    1fc2:	ee 0f       	add	r30, r30
    1fc4:	ff 1f       	adc	r31, r31
    1fc6:	ba 95       	dec	r27
    1fc8:	e1 f7       	brne	.-8      	; 0x1fc2 <_nrk_stats_task_preempted+0x17c>
    1fca:	e8 1b       	sub	r30, r24
    1fcc:	f9 0b       	sbc	r31, r25
    1fce:	ec 5f       	subi	r30, 0xFC	; 252
    1fd0:	f9 4f       	sbci	r31, 0xF9	; 249
    1fd2:	81 e0       	ldi	r24, 0x01	; 1
    1fd4:	85 8f       	std	Z+29, r24	; 0x1d
    1fd6:	df 91       	pop	r29
    1fd8:	cf 91       	pop	r28
    1fda:	ff 90       	pop	r15
    1fdc:	ef 90       	pop	r14
    1fde:	08 95       	ret

00001fe0 <_nrk_stats_task_suspend>:
    1fe0:	ef 92       	push	r14
    1fe2:	ff 92       	push	r15
    1fe4:	cf 93       	push	r28
    1fe6:	df 93       	push	r29
    1fe8:	e8 2f       	mov	r30, r24
    1fea:	a8 2f       	mov	r26, r24
    1fec:	b0 e0       	ldi	r27, 0x00	; 0
    1fee:	cd 01       	movw	r24, r26
    1ff0:	88 0f       	add	r24, r24
    1ff2:	99 1f       	adc	r25, r25
    1ff4:	75 e0       	ldi	r23, 0x05	; 5
    1ff6:	aa 0f       	add	r26, r26
    1ff8:	bb 1f       	adc	r27, r27
    1ffa:	7a 95       	dec	r23
    1ffc:	e1 f7       	brne	.-8      	; 0x1ff6 <_nrk_stats_task_suspend+0x16>
    1ffe:	a8 1b       	sub	r26, r24
    2000:	b9 0b       	sbc	r27, r25
    2002:	ac 5f       	subi	r26, 0xFC	; 252
    2004:	b9 4f       	sbci	r27, 0xF9	; 249
    2006:	5d 96       	adiw	r26, 0x1d	; 29
    2008:	8c 91       	ld	r24, X
    200a:	5d 97       	sbiw	r26, 0x1d	; 29
    200c:	81 30       	cpi	r24, 0x01	; 1
    200e:	09 f4       	brne	.+2      	; 0x2012 <_nrk_stats_task_suspend+0x32>
    2010:	fa c0       	rjmp	.+500    	; 0x2206 <_nrk_stats_task_suspend+0x226>
    2012:	70 e0       	ldi	r23, 0x00	; 0
    2014:	80 e0       	ldi	r24, 0x00	; 0
    2016:	90 e0       	ldi	r25, 0x00	; 0
    2018:	ae 2f       	mov	r26, r30
    201a:	b0 e0       	ldi	r27, 0x00	; 0
    201c:	9d 01       	movw	r18, r26
    201e:	22 0f       	add	r18, r18
    2020:	33 1f       	adc	r19, r19
    2022:	45 e0       	ldi	r20, 0x05	; 5
    2024:	aa 0f       	add	r26, r26
    2026:	bb 1f       	adc	r27, r27
    2028:	4a 95       	dec	r20
    202a:	e1 f7       	brne	.-8      	; 0x2024 <_nrk_stats_task_suspend+0x44>
    202c:	a2 1b       	sub	r26, r18
    202e:	b3 0b       	sbc	r27, r19
    2030:	ac 5f       	subi	r26, 0xFC	; 252
    2032:	b9 4f       	sbci	r27, 0xF9	; 249
    2034:	ee 2e       	mov	r14, r30
    2036:	e7 01       	movw	r28, r14
    2038:	7e 01       	movw	r14, r28
    203a:	20 e0       	ldi	r18, 0x00	; 0
    203c:	f2 2e       	mov	r15, r18
    203e:	e7 01       	movw	r28, r14
    2040:	97 01       	movw	r18, r14
    2042:	22 0f       	add	r18, r18
    2044:	33 1f       	adc	r19, r19
    2046:	55 e0       	ldi	r21, 0x05	; 5
    2048:	cc 0f       	add	r28, r28
    204a:	dd 1f       	adc	r29, r29
    204c:	5a 95       	dec	r21
    204e:	e1 f7       	brne	.-8      	; 0x2048 <_nrk_stats_task_suspend+0x68>
    2050:	c2 1b       	sub	r28, r18
    2052:	d3 0b       	sbc	r29, r19
    2054:	cc 5f       	subi	r28, 0xFC	; 252
    2056:	d9 4f       	sbci	r29, 0xF9	; 249
    2058:	2c 89       	ldd	r18, Y+20	; 0x14
    205a:	3d 89       	ldd	r19, Y+21	; 0x15
    205c:	4e 89       	ldd	r20, Y+22	; 0x16
    205e:	5f 89       	ldd	r21, Y+23	; 0x17
    2060:	26 0f       	add	r18, r22
    2062:	37 1f       	adc	r19, r23
    2064:	48 1f       	adc	r20, r24
    2066:	59 1f       	adc	r21, r25
    2068:	1c 96       	adiw	r26, 0x0c	; 12
    206a:	2d 93       	st	X+, r18
    206c:	3d 93       	st	X+, r19
    206e:	4d 93       	st	X+, r20
    2070:	5c 93       	st	X, r21
    2072:	1f 97       	sbiw	r26, 0x0f	; 15
    2074:	ae 2f       	mov	r26, r30
    2076:	b0 e0       	ldi	r27, 0x00	; 0
    2078:	9d 01       	movw	r18, r26
    207a:	22 0f       	add	r18, r18
    207c:	33 1f       	adc	r19, r19
    207e:	f5 e0       	ldi	r31, 0x05	; 5
    2080:	aa 0f       	add	r26, r26
    2082:	bb 1f       	adc	r27, r27
    2084:	fa 95       	dec	r31
    2086:	e1 f7       	brne	.-8      	; 0x2080 <_nrk_stats_task_suspend+0xa0>
    2088:	a2 1b       	sub	r26, r18
    208a:	b3 0b       	sbc	r27, r19
    208c:	ac 5f       	subi	r26, 0xFC	; 252
    208e:	b9 4f       	sbci	r27, 0xF9	; 249
    2090:	ee 2e       	mov	r14, r30
    2092:	e7 01       	movw	r28, r14
    2094:	7e 01       	movw	r14, r28
    2096:	20 e0       	ldi	r18, 0x00	; 0
    2098:	f2 2e       	mov	r15, r18
    209a:	e7 01       	movw	r28, r14
    209c:	97 01       	movw	r18, r14
    209e:	22 0f       	add	r18, r18
    20a0:	33 1f       	adc	r19, r19
    20a2:	45 e0       	ldi	r20, 0x05	; 5
    20a4:	cc 0f       	add	r28, r28
    20a6:	dd 1f       	adc	r29, r29
    20a8:	4a 95       	dec	r20
    20aa:	e1 f7       	brne	.-8      	; 0x20a4 <_nrk_stats_task_suspend+0xc4>
    20ac:	c2 1b       	sub	r28, r18
    20ae:	d3 0b       	sbc	r29, r19
    20b0:	cc 5f       	subi	r28, 0xFC	; 252
    20b2:	d9 4f       	sbci	r29, 0xF9	; 249
    20b4:	28 81       	ld	r18, Y
    20b6:	39 81       	ldd	r19, Y+1	; 0x01
    20b8:	4a 81       	ldd	r20, Y+2	; 0x02
    20ba:	5b 81       	ldd	r21, Y+3	; 0x03
    20bc:	26 0f       	add	r18, r22
    20be:	37 1f       	adc	r19, r23
    20c0:	48 1f       	adc	r20, r24
    20c2:	59 1f       	adc	r21, r25
    20c4:	2d 93       	st	X+, r18
    20c6:	3d 93       	st	X+, r19
    20c8:	4d 93       	st	X+, r20
    20ca:	5c 93       	st	X, r21
    20cc:	13 97       	sbiw	r26, 0x03	; 3
    20ce:	ae 2f       	mov	r26, r30
    20d0:	b0 e0       	ldi	r27, 0x00	; 0
    20d2:	cd 01       	movw	r24, r26
    20d4:	88 0f       	add	r24, r24
    20d6:	99 1f       	adc	r25, r25
    20d8:	f5 e0       	ldi	r31, 0x05	; 5
    20da:	aa 0f       	add	r26, r26
    20dc:	bb 1f       	adc	r27, r27
    20de:	fa 95       	dec	r31
    20e0:	e1 f7       	brne	.-8      	; 0x20da <_nrk_stats_task_suspend+0xfa>
    20e2:	a8 1b       	sub	r26, r24
    20e4:	b9 0b       	sbc	r27, r25
    20e6:	ac 5f       	subi	r26, 0xFC	; 252
    20e8:	b9 4f       	sbci	r27, 0xF9	; 249
    20ea:	14 96       	adiw	r26, 0x04	; 4
    20ec:	2d 91       	ld	r18, X+
    20ee:	3d 91       	ld	r19, X+
    20f0:	4d 91       	ld	r20, X+
    20f2:	5c 91       	ld	r21, X
    20f4:	17 97       	sbiw	r26, 0x07	; 7
    20f6:	21 15       	cp	r18, r1
    20f8:	31 05       	cpc	r19, r1
    20fa:	41 05       	cpc	r20, r1
    20fc:	51 05       	cpc	r21, r1
    20fe:	c9 f0       	breq	.+50     	; 0x2132 <_nrk_stats_task_suspend+0x152>
    2100:	ae 2f       	mov	r26, r30
    2102:	b0 e0       	ldi	r27, 0x00	; 0
    2104:	cd 01       	movw	r24, r26
    2106:	88 0f       	add	r24, r24
    2108:	99 1f       	adc	r25, r25
    210a:	65 e0       	ldi	r22, 0x05	; 5
    210c:	aa 0f       	add	r26, r26
    210e:	bb 1f       	adc	r27, r27
    2110:	6a 95       	dec	r22
    2112:	e1 f7       	brne	.-8      	; 0x210c <_nrk_stats_task_suspend+0x12c>
    2114:	a8 1b       	sub	r26, r24
    2116:	b9 0b       	sbc	r27, r25
    2118:	ac 5f       	subi	r26, 0xFC	; 252
    211a:	b9 4f       	sbci	r27, 0xF9	; 249
    211c:	1c 96       	adiw	r26, 0x0c	; 12
    211e:	8d 91       	ld	r24, X+
    2120:	9d 91       	ld	r25, X+
    2122:	0d 90       	ld	r0, X+
    2124:	bc 91       	ld	r27, X
    2126:	a0 2d       	mov	r26, r0
    2128:	82 17       	cp	r24, r18
    212a:	93 07       	cpc	r25, r19
    212c:	a4 07       	cpc	r26, r20
    212e:	b5 07       	cpc	r27, r21
    2130:	50 f5       	brcc	.+84     	; 0x2186 <_nrk_stats_task_suspend+0x1a6>
    2132:	8e 2f       	mov	r24, r30
    2134:	ec 01       	movw	r28, r24
    2136:	7e 01       	movw	r14, r28
    2138:	20 e0       	ldi	r18, 0x00	; 0
    213a:	f2 2e       	mov	r15, r18
    213c:	e7 01       	movw	r28, r14
    213e:	c7 01       	movw	r24, r14
    2140:	88 0f       	add	r24, r24
    2142:	99 1f       	adc	r25, r25
    2144:	45 e0       	ldi	r20, 0x05	; 5
    2146:	cc 0f       	add	r28, r28
    2148:	dd 1f       	adc	r29, r29
    214a:	4a 95       	dec	r20
    214c:	e1 f7       	brne	.-8      	; 0x2146 <_nrk_stats_task_suspend+0x166>
    214e:	c8 1b       	sub	r28, r24
    2150:	d9 0b       	sbc	r29, r25
    2152:	cc 5f       	subi	r28, 0xFC	; 252
    2154:	d9 4f       	sbci	r29, 0xF9	; 249
    2156:	ae 2f       	mov	r26, r30
    2158:	b0 e0       	ldi	r27, 0x00	; 0
    215a:	cd 01       	movw	r24, r26
    215c:	88 0f       	add	r24, r24
    215e:	99 1f       	adc	r25, r25
    2160:	25 e0       	ldi	r18, 0x05	; 5
    2162:	aa 0f       	add	r26, r26
    2164:	bb 1f       	adc	r27, r27
    2166:	2a 95       	dec	r18
    2168:	e1 f7       	brne	.-8      	; 0x2162 <_nrk_stats_task_suspend+0x182>
    216a:	a8 1b       	sub	r26, r24
    216c:	b9 0b       	sbc	r27, r25
    216e:	ac 5f       	subi	r26, 0xFC	; 252
    2170:	b9 4f       	sbci	r27, 0xF9	; 249
    2172:	1c 96       	adiw	r26, 0x0c	; 12
    2174:	8d 91       	ld	r24, X+
    2176:	9d 91       	ld	r25, X+
    2178:	0d 90       	ld	r0, X+
    217a:	bc 91       	ld	r27, X
    217c:	a0 2d       	mov	r26, r0
    217e:	8c 83       	std	Y+4, r24	; 0x04
    2180:	9d 83       	std	Y+5, r25	; 0x05
    2182:	ae 83       	std	Y+6, r26	; 0x06
    2184:	bf 83       	std	Y+7, r27	; 0x07
    2186:	ae 2f       	mov	r26, r30
    2188:	b0 e0       	ldi	r27, 0x00	; 0
    218a:	cd 01       	movw	r24, r26
    218c:	88 0f       	add	r24, r24
    218e:	99 1f       	adc	r25, r25
    2190:	75 e0       	ldi	r23, 0x05	; 5
    2192:	aa 0f       	add	r26, r26
    2194:	bb 1f       	adc	r27, r27
    2196:	7a 95       	dec	r23
    2198:	e1 f7       	brne	.-8      	; 0x2192 <_nrk_stats_task_suspend+0x1b2>
    219a:	a8 1b       	sub	r26, r24
    219c:	b9 0b       	sbc	r27, r25
    219e:	ac 5f       	subi	r26, 0xFC	; 252
    21a0:	b9 4f       	sbci	r27, 0xF9	; 249
    21a2:	1c 96       	adiw	r26, 0x0c	; 12
    21a4:	2d 91       	ld	r18, X+
    21a6:	3d 91       	ld	r19, X+
    21a8:	4d 91       	ld	r20, X+
    21aa:	5c 91       	ld	r21, X
    21ac:	1f 97       	sbiw	r26, 0x0f	; 15
    21ae:	ae 2f       	mov	r26, r30
    21b0:	b0 e0       	ldi	r27, 0x00	; 0
    21b2:	cd 01       	movw	r24, r26
    21b4:	88 0f       	add	r24, r24
    21b6:	99 1f       	adc	r25, r25
    21b8:	f5 e0       	ldi	r31, 0x05	; 5
    21ba:	aa 0f       	add	r26, r26
    21bc:	bb 1f       	adc	r27, r27
    21be:	fa 95       	dec	r31
    21c0:	e1 f7       	brne	.-8      	; 0x21ba <_nrk_stats_task_suspend+0x1da>
    21c2:	a8 1b       	sub	r26, r24
    21c4:	b9 0b       	sbc	r27, r25
    21c6:	ac 5f       	subi	r26, 0xFC	; 252
    21c8:	b9 4f       	sbci	r27, 0xF9	; 249
    21ca:	18 96       	adiw	r26, 0x08	; 8
    21cc:	6d 91       	ld	r22, X+
    21ce:	7d 91       	ld	r23, X+
    21d0:	8d 91       	ld	r24, X+
    21d2:	9c 91       	ld	r25, X
    21d4:	1b 97       	sbiw	r26, 0x0b	; 11
    21d6:	62 17       	cp	r22, r18
    21d8:	73 07       	cpc	r23, r19
    21da:	84 07       	cpc	r24, r20
    21dc:	95 07       	cpc	r25, r21
    21de:	98 f4       	brcc	.+38     	; 0x2206 <_nrk_stats_task_suspend+0x226>
    21e0:	8e 2f       	mov	r24, r30
    21e2:	90 e0       	ldi	r25, 0x00	; 0
    21e4:	bc 01       	movw	r22, r24
    21e6:	66 0f       	add	r22, r22
    21e8:	77 1f       	adc	r23, r23
    21ea:	fc 01       	movw	r30, r24
    21ec:	85 e0       	ldi	r24, 0x05	; 5
    21ee:	ee 0f       	add	r30, r30
    21f0:	ff 1f       	adc	r31, r31
    21f2:	8a 95       	dec	r24
    21f4:	e1 f7       	brne	.-8      	; 0x21ee <_nrk_stats_task_suspend+0x20e>
    21f6:	e6 1b       	sub	r30, r22
    21f8:	f7 0b       	sbc	r31, r23
    21fa:	ec 5f       	subi	r30, 0xFC	; 252
    21fc:	f9 4f       	sbci	r31, 0xF9	; 249
    21fe:	20 87       	std	Z+8, r18	; 0x08
    2200:	31 87       	std	Z+9, r19	; 0x09
    2202:	42 87       	std	Z+10, r20	; 0x0a
    2204:	53 87       	std	Z+11, r21	; 0x0b
    2206:	df 91       	pop	r29
    2208:	cf 91       	pop	r28
    220a:	ff 90       	pop	r15
    220c:	ef 90       	pop	r14
    220e:	08 95       	ret

00002210 <nrk_stats_display_pid>:
    2210:	8f 92       	push	r8
    2212:	9f 92       	push	r9
    2214:	af 92       	push	r10
    2216:	bf 92       	push	r11
    2218:	cf 92       	push	r12
    221a:	df 92       	push	r13
    221c:	ef 92       	push	r14
    221e:	ff 92       	push	r15
    2220:	1f 93       	push	r17
    2222:	df 93       	push	r29
    2224:	cf 93       	push	r28
    2226:	cd b7       	in	r28, 0x3d	; 61
    2228:	de b7       	in	r29, 0x3e	; 62
    222a:	60 97       	sbiw	r28, 0x10	; 16
    222c:	0f b6       	in	r0, 0x3f	; 63
    222e:	f8 94       	cli
    2230:	de bf       	out	0x3e, r29	; 62
    2232:	0f be       	out	0x3f, r0	; 63
    2234:	cd bf       	out	0x3d, r28	; 61
    2236:	18 2f       	mov	r17, r24
    2238:	87 e7       	ldi	r24, 0x77	; 119
    223a:	92 e0       	ldi	r25, 0x02	; 2
    223c:	0e 94 57 07 	call	0xeae	; 0xeae <nrk_kprintf>
    2240:	00 d0       	rcall	.+0      	; 0x2242 <nrk_stats_display_pid+0x32>
    2242:	00 d0       	rcall	.+0      	; 0x2244 <nrk_stats_display_pid+0x34>
    2244:	ed b7       	in	r30, 0x3d	; 61
    2246:	fe b7       	in	r31, 0x3e	; 62
    2248:	31 96       	adiw	r30, 0x01	; 1
    224a:	84 e5       	ldi	r24, 0x54	; 84
    224c:	92 e0       	ldi	r25, 0x02	; 2
    224e:	ad b7       	in	r26, 0x3d	; 61
    2250:	be b7       	in	r27, 0x3e	; 62
    2252:	12 96       	adiw	r26, 0x02	; 2
    2254:	9c 93       	st	X, r25
    2256:	8e 93       	st	-X, r24
    2258:	11 97       	sbiw	r26, 0x01	; 1
    225a:	12 83       	std	Z+2, r17	; 0x02
    225c:	13 82       	std	Z+3, r1	; 0x03
    225e:	0e 94 1d 31 	call	0x623a	; 0x623a <printf>
    2262:	0f 90       	pop	r0
    2264:	0f 90       	pop	r0
    2266:	0f 90       	pop	r0
    2268:	0f 90       	pop	r0
    226a:	11 23       	and	r17, r17
    226c:	09 f0       	breq	.+2      	; 0x2270 <nrk_stats_display_pid+0x60>
    226e:	85 c0       	rjmp	.+266    	; 0x237a <nrk_stats_display_pid+0x16a>
    2270:	8c e5       	ldi	r24, 0x5C	; 92
    2272:	92 e0       	ldi	r25, 0x02	; 2
    2274:	0e 94 57 07 	call	0xeae	; 0xeae <nrk_kprintf>
    2278:	ce 01       	movw	r24, r28
    227a:	01 96       	adiw	r24, 0x01	; 1
    227c:	0e 94 88 1e 	call	0x3d10	; 0x3d10 <nrk_time_get>
    2280:	ed b7       	in	r30, 0x3d	; 61
    2282:	fe b7       	in	r31, 0x3e	; 62
    2284:	3a 97       	sbiw	r30, 0x0a	; 10
    2286:	0f b6       	in	r0, 0x3f	; 63
    2288:	f8 94       	cli
    228a:	fe bf       	out	0x3e, r31	; 62
    228c:	0f be       	out	0x3f, r0	; 63
    228e:	ed bf       	out	0x3d, r30	; 61
    2290:	8d b6       	in	r8, 0x3d	; 61
    2292:	9e b6       	in	r9, 0x3e	; 62
    2294:	08 94       	sec
    2296:	81 1c       	adc	r8, r1
    2298:	91 1c       	adc	r9, r1
    229a:	37 e5       	ldi	r19, 0x57	; 87
    229c:	a3 2e       	mov	r10, r19
    229e:	32 e0       	ldi	r19, 0x02	; 2
    22a0:	b3 2e       	mov	r11, r19
    22a2:	b2 82       	std	Z+2, r11	; 0x02
    22a4:	a1 82       	std	Z+1, r10	; 0x01
    22a6:	89 81       	ldd	r24, Y+1	; 0x01
    22a8:	9a 81       	ldd	r25, Y+2	; 0x02
    22aa:	ab 81       	ldd	r26, Y+3	; 0x03
    22ac:	bc 81       	ldd	r27, Y+4	; 0x04
    22ae:	f4 01       	movw	r30, r8
    22b0:	82 83       	std	Z+2, r24	; 0x02
    22b2:	93 83       	std	Z+3, r25	; 0x03
    22b4:	a4 83       	std	Z+4, r26	; 0x04
    22b6:	b5 83       	std	Z+5, r27	; 0x05
    22b8:	6d 81       	ldd	r22, Y+5	; 0x05
    22ba:	7e 81       	ldd	r23, Y+6	; 0x06
    22bc:	8f 81       	ldd	r24, Y+7	; 0x07
    22be:	98 85       	ldd	r25, Y+8	; 0x08
    22c0:	20 e4       	ldi	r18, 0x40	; 64
    22c2:	c2 2e       	mov	r12, r18
    22c4:	22 e4       	ldi	r18, 0x42	; 66
    22c6:	d2 2e       	mov	r13, r18
    22c8:	2f e0       	ldi	r18, 0x0F	; 15
    22ca:	e2 2e       	mov	r14, r18
    22cc:	f1 2c       	mov	r15, r1
    22ce:	a7 01       	movw	r20, r14
    22d0:	96 01       	movw	r18, r12
    22d2:	0e 94 39 30 	call	0x6072	; 0x6072 <__udivmodsi4>
    22d6:	d4 01       	movw	r26, r8
    22d8:	16 96       	adiw	r26, 0x06	; 6
    22da:	2d 93       	st	X+, r18
    22dc:	3d 93       	st	X+, r19
    22de:	4d 93       	st	X+, r20
    22e0:	5c 93       	st	X, r21
    22e2:	19 97       	sbiw	r26, 0x09	; 9
    22e4:	0e 94 1d 31 	call	0x623a	; 0x623a <printf>
    22e8:	ed b7       	in	r30, 0x3d	; 61
    22ea:	fe b7       	in	r31, 0x3e	; 62
    22ec:	3a 96       	adiw	r30, 0x0a	; 10
    22ee:	0f b6       	in	r0, 0x3f	; 63
    22f0:	f8 94       	cli
    22f2:	fe bf       	out	0x3e, r31	; 62
    22f4:	0f be       	out	0x3f, r0	; 63
    22f6:	ed bf       	out	0x3d, r30	; 61
    22f8:	8b e3       	ldi	r24, 0x3B	; 59
    22fa:	92 e0       	ldi	r25, 0x02	; 2
    22fc:	0e 94 57 07 	call	0xeae	; 0xeae <nrk_kprintf>
    2300:	8d b7       	in	r24, 0x3d	; 61
    2302:	9e b7       	in	r25, 0x3e	; 62
    2304:	0a 97       	sbiw	r24, 0x0a	; 10
    2306:	0f b6       	in	r0, 0x3f	; 63
    2308:	f8 94       	cli
    230a:	9e bf       	out	0x3e, r25	; 62
    230c:	0f be       	out	0x3f, r0	; 63
    230e:	8d bf       	out	0x3d, r24	; 61
    2310:	8d b6       	in	r8, 0x3d	; 61
    2312:	9e b6       	in	r9, 0x3e	; 62
    2314:	08 94       	sec
    2316:	81 1c       	adc	r8, r1
    2318:	91 1c       	adc	r9, r1
    231a:	ad b7       	in	r26, 0x3d	; 61
    231c:	be b7       	in	r27, 0x3e	; 62
    231e:	12 96       	adiw	r26, 0x02	; 2
    2320:	bc 92       	st	X, r11
    2322:	ae 92       	st	-X, r10
    2324:	11 97       	sbiw	r26, 0x01	; 1
    2326:	80 91 ec 05 	lds	r24, 0x05EC
    232a:	90 91 ed 05 	lds	r25, 0x05ED
    232e:	a0 91 ee 05 	lds	r26, 0x05EE
    2332:	b0 91 ef 05 	lds	r27, 0x05EF
    2336:	f4 01       	movw	r30, r8
    2338:	82 83       	std	Z+2, r24	; 0x02
    233a:	93 83       	std	Z+3, r25	; 0x03
    233c:	a4 83       	std	Z+4, r26	; 0x04
    233e:	b5 83       	std	Z+5, r27	; 0x05
    2340:	60 91 f0 05 	lds	r22, 0x05F0
    2344:	70 91 f1 05 	lds	r23, 0x05F1
    2348:	80 91 f2 05 	lds	r24, 0x05F2
    234c:	90 91 f3 05 	lds	r25, 0x05F3
    2350:	a7 01       	movw	r20, r14
    2352:	96 01       	movw	r18, r12
    2354:	0e 94 39 30 	call	0x6072	; 0x6072 <__udivmodsi4>
    2358:	d4 01       	movw	r26, r8
    235a:	16 96       	adiw	r26, 0x06	; 6
    235c:	2d 93       	st	X+, r18
    235e:	3d 93       	st	X+, r19
    2360:	4d 93       	st	X+, r20
    2362:	5c 93       	st	X, r21
    2364:	19 97       	sbiw	r26, 0x09	; 9
    2366:	0e 94 1d 31 	call	0x623a	; 0x623a <printf>
    236a:	ed b7       	in	r30, 0x3d	; 61
    236c:	fe b7       	in	r31, 0x3e	; 62
    236e:	3a 96       	adiw	r30, 0x0a	; 10
    2370:	0f b6       	in	r0, 0x3f	; 63
    2372:	f8 94       	cli
    2374:	fe bf       	out	0x3e, r31	; 62
    2376:	0f be       	out	0x3f, r0	; 63
    2378:	ed bf       	out	0x3d, r30	; 61
    237a:	8a e2       	ldi	r24, 0x2A	; 42
    237c:	92 e0       	ldi	r25, 0x02	; 2
    237e:	0e 94 57 07 	call	0xeae	; 0xeae <nrk_kprintf>
    2382:	e1 2f       	mov	r30, r17
    2384:	f0 e0       	ldi	r31, 0x00	; 0
    2386:	cf 01       	movw	r24, r30
    2388:	88 0f       	add	r24, r24
    238a:	99 1f       	adc	r25, r25
    238c:	a5 e0       	ldi	r26, 0x05	; 5
    238e:	ee 0f       	add	r30, r30
    2390:	ff 1f       	adc	r31, r31
    2392:	aa 95       	dec	r26
    2394:	e1 f7       	brne	.-8      	; 0x238e <nrk_stats_display_pid+0x17e>
    2396:	e8 1b       	sub	r30, r24
    2398:	f9 0b       	sbc	r31, r25
    239a:	ec 5f       	subi	r30, 0xFC	; 252
    239c:	f9 4f       	sbci	r31, 0xF9	; 249
    239e:	60 81       	ld	r22, Z
    23a0:	71 81       	ldd	r23, Z+1	; 0x01
    23a2:	82 81       	ldd	r24, Z+2	; 0x02
    23a4:	93 81       	ldd	r25, Z+3	; 0x03
    23a6:	0e 94 93 20 	call	0x4126	; 0x4126 <_nrk_ticks_to_time>
    23aa:	29 87       	std	Y+9, r18	; 0x09
    23ac:	3a 87       	std	Y+10, r19	; 0x0a
    23ae:	4b 87       	std	Y+11, r20	; 0x0b
    23b0:	5c 87       	std	Y+12, r21	; 0x0c
    23b2:	6d 87       	std	Y+13, r22	; 0x0d
    23b4:	7e 87       	std	Y+14, r23	; 0x0e
    23b6:	8f 87       	std	Y+15, r24	; 0x0f
    23b8:	98 8b       	std	Y+16, r25	; 0x10
    23ba:	de 01       	movw	r26, r28
    23bc:	11 96       	adiw	r26, 0x01	; 1
    23be:	fe 01       	movw	r30, r28
    23c0:	39 96       	adiw	r30, 0x09	; 9
    23c2:	88 e0       	ldi	r24, 0x08	; 8
    23c4:	01 90       	ld	r0, Z+
    23c6:	0d 92       	st	X+, r0
    23c8:	81 50       	subi	r24, 0x01	; 1
    23ca:	e1 f7       	brne	.-8      	; 0x23c4 <nrk_stats_display_pid+0x1b4>
    23cc:	8d b7       	in	r24, 0x3d	; 61
    23ce:	9e b7       	in	r25, 0x3e	; 62
    23d0:	0a 97       	sbiw	r24, 0x0a	; 10
    23d2:	0f b6       	in	r0, 0x3f	; 63
    23d4:	f8 94       	cli
    23d6:	9e bf       	out	0x3e, r25	; 62
    23d8:	0f be       	out	0x3f, r0	; 63
    23da:	8d bf       	out	0x3d, r24	; 61
    23dc:	cd b6       	in	r12, 0x3d	; 61
    23de:	de b6       	in	r13, 0x3e	; 62
    23e0:	08 94       	sec
    23e2:	c1 1c       	adc	r12, r1
    23e4:	d1 1c       	adc	r13, r1
    23e6:	87 e5       	ldi	r24, 0x57	; 87
    23e8:	92 e0       	ldi	r25, 0x02	; 2
    23ea:	ad b7       	in	r26, 0x3d	; 61
    23ec:	be b7       	in	r27, 0x3e	; 62
    23ee:	12 96       	adiw	r26, 0x02	; 2
    23f0:	9c 93       	st	X, r25
    23f2:	8e 93       	st	-X, r24
    23f4:	11 97       	sbiw	r26, 0x01	; 1
    23f6:	89 81       	ldd	r24, Y+1	; 0x01
    23f8:	9a 81       	ldd	r25, Y+2	; 0x02
    23fa:	ab 81       	ldd	r26, Y+3	; 0x03
    23fc:	bc 81       	ldd	r27, Y+4	; 0x04
    23fe:	f6 01       	movw	r30, r12
    2400:	82 83       	std	Z+2, r24	; 0x02
    2402:	93 83       	std	Z+3, r25	; 0x03
    2404:	a4 83       	std	Z+4, r26	; 0x04
    2406:	b5 83       	std	Z+5, r27	; 0x05
    2408:	6d 81       	ldd	r22, Y+5	; 0x05
    240a:	7e 81       	ldd	r23, Y+6	; 0x06
    240c:	8f 81       	ldd	r24, Y+7	; 0x07
    240e:	98 85       	ldd	r25, Y+8	; 0x08
    2410:	20 e4       	ldi	r18, 0x40	; 64
    2412:	32 e4       	ldi	r19, 0x42	; 66
    2414:	4f e0       	ldi	r20, 0x0F	; 15
    2416:	50 e0       	ldi	r21, 0x00	; 0
    2418:	0e 94 39 30 	call	0x6072	; 0x6072 <__udivmodsi4>
    241c:	d6 01       	movw	r26, r12
    241e:	16 96       	adiw	r26, 0x06	; 6
    2420:	2d 93       	st	X+, r18
    2422:	3d 93       	st	X+, r19
    2424:	4d 93       	st	X+, r20
    2426:	5c 93       	st	X, r21
    2428:	19 97       	sbiw	r26, 0x09	; 9
    242a:	0e 94 1d 31 	call	0x623a	; 0x623a <printf>
    242e:	ed b7       	in	r30, 0x3d	; 61
    2430:	fe b7       	in	r31, 0x3e	; 62
    2432:	3a 96       	adiw	r30, 0x0a	; 10
    2434:	0f b6       	in	r0, 0x3f	; 63
    2436:	f8 94       	cli
    2438:	fe bf       	out	0x3e, r31	; 62
    243a:	0f be       	out	0x3f, r0	; 63
    243c:	ed bf       	out	0x3d, r30	; 61
    243e:	8f e0       	ldi	r24, 0x0F	; 15
    2440:	92 e0       	ldi	r25, 0x02	; 2
    2442:	0e 94 57 07 	call	0xeae	; 0xeae <nrk_kprintf>
    2446:	e1 2f       	mov	r30, r17
    2448:	f0 e0       	ldi	r31, 0x00	; 0
    244a:	cf 01       	movw	r24, r30
    244c:	88 0f       	add	r24, r24
    244e:	99 1f       	adc	r25, r25
    2450:	65 e0       	ldi	r22, 0x05	; 5
    2452:	ee 0f       	add	r30, r30
    2454:	ff 1f       	adc	r31, r31
    2456:	6a 95       	dec	r22
    2458:	e1 f7       	brne	.-8      	; 0x2452 <nrk_stats_display_pid+0x242>
    245a:	e8 1b       	sub	r30, r24
    245c:	f9 0b       	sbc	r31, r25
    245e:	ec 5f       	subi	r30, 0xFC	; 252
    2460:	f9 4f       	sbci	r31, 0xF9	; 249
    2462:	64 81       	ldd	r22, Z+4	; 0x04
    2464:	75 81       	ldd	r23, Z+5	; 0x05
    2466:	86 81       	ldd	r24, Z+6	; 0x06
    2468:	97 81       	ldd	r25, Z+7	; 0x07
    246a:	0e 94 93 20 	call	0x4126	; 0x4126 <_nrk_ticks_to_time>
    246e:	29 87       	std	Y+9, r18	; 0x09
    2470:	3a 87       	std	Y+10, r19	; 0x0a
    2472:	4b 87       	std	Y+11, r20	; 0x0b
    2474:	5c 87       	std	Y+12, r21	; 0x0c
    2476:	6d 87       	std	Y+13, r22	; 0x0d
    2478:	7e 87       	std	Y+14, r23	; 0x0e
    247a:	8f 87       	std	Y+15, r24	; 0x0f
    247c:	98 8b       	std	Y+16, r25	; 0x10
    247e:	de 01       	movw	r26, r28
    2480:	11 96       	adiw	r26, 0x01	; 1
    2482:	fe 01       	movw	r30, r28
    2484:	39 96       	adiw	r30, 0x09	; 9
    2486:	88 e0       	ldi	r24, 0x08	; 8
    2488:	01 90       	ld	r0, Z+
    248a:	0d 92       	st	X+, r0
    248c:	81 50       	subi	r24, 0x01	; 1
    248e:	e1 f7       	brne	.-8      	; 0x2488 <nrk_stats_display_pid+0x278>
    2490:	8d b7       	in	r24, 0x3d	; 61
    2492:	9e b7       	in	r25, 0x3e	; 62
    2494:	0a 97       	sbiw	r24, 0x0a	; 10
    2496:	0f b6       	in	r0, 0x3f	; 63
    2498:	f8 94       	cli
    249a:	9e bf       	out	0x3e, r25	; 62
    249c:	0f be       	out	0x3f, r0	; 63
    249e:	8d bf       	out	0x3d, r24	; 61
    24a0:	cd b6       	in	r12, 0x3d	; 61
    24a2:	de b6       	in	r13, 0x3e	; 62
    24a4:	08 94       	sec
    24a6:	c1 1c       	adc	r12, r1
    24a8:	d1 1c       	adc	r13, r1
    24aa:	87 e6       	ldi	r24, 0x67	; 103
    24ac:	92 e0       	ldi	r25, 0x02	; 2
    24ae:	ad b7       	in	r26, 0x3d	; 61
    24b0:	be b7       	in	r27, 0x3e	; 62
    24b2:	12 96       	adiw	r26, 0x02	; 2
    24b4:	9c 93       	st	X, r25
    24b6:	8e 93       	st	-X, r24
    24b8:	11 97       	sbiw	r26, 0x01	; 1
    24ba:	89 81       	ldd	r24, Y+1	; 0x01
    24bc:	9a 81       	ldd	r25, Y+2	; 0x02
    24be:	ab 81       	ldd	r26, Y+3	; 0x03
    24c0:	bc 81       	ldd	r27, Y+4	; 0x04
    24c2:	f6 01       	movw	r30, r12
    24c4:	82 83       	std	Z+2, r24	; 0x02
    24c6:	93 83       	std	Z+3, r25	; 0x03
    24c8:	a4 83       	std	Z+4, r26	; 0x04
    24ca:	b5 83       	std	Z+5, r27	; 0x05
    24cc:	6d 81       	ldd	r22, Y+5	; 0x05
    24ce:	7e 81       	ldd	r23, Y+6	; 0x06
    24d0:	8f 81       	ldd	r24, Y+7	; 0x07
    24d2:	98 85       	ldd	r25, Y+8	; 0x08
    24d4:	20 e4       	ldi	r18, 0x40	; 64
    24d6:	32 e4       	ldi	r19, 0x42	; 66
    24d8:	4f e0       	ldi	r20, 0x0F	; 15
    24da:	50 e0       	ldi	r21, 0x00	; 0
    24dc:	0e 94 39 30 	call	0x6072	; 0x6072 <__udivmodsi4>
    24e0:	d6 01       	movw	r26, r12
    24e2:	16 96       	adiw	r26, 0x06	; 6
    24e4:	2d 93       	st	X+, r18
    24e6:	3d 93       	st	X+, r19
    24e8:	4d 93       	st	X+, r20
    24ea:	5c 93       	st	X, r21
    24ec:	19 97       	sbiw	r26, 0x09	; 9
    24ee:	0e 94 1d 31 	call	0x623a	; 0x623a <printf>
    24f2:	ed b7       	in	r30, 0x3d	; 61
    24f4:	fe b7       	in	r31, 0x3e	; 62
    24f6:	3a 96       	adiw	r30, 0x0a	; 10
    24f8:	0f b6       	in	r0, 0x3f	; 63
    24fa:	f8 94       	cli
    24fc:	fe bf       	out	0x3e, r31	; 62
    24fe:	0f be       	out	0x3f, r0	; 63
    2500:	ed bf       	out	0x3d, r30	; 61
    2502:	e1 2f       	mov	r30, r17
    2504:	f0 e0       	ldi	r31, 0x00	; 0
    2506:	cf 01       	movw	r24, r30
    2508:	88 0f       	add	r24, r24
    250a:	99 1f       	adc	r25, r25
    250c:	45 e0       	ldi	r20, 0x05	; 5
    250e:	ee 0f       	add	r30, r30
    2510:	ff 1f       	adc	r31, r31
    2512:	4a 95       	dec	r20
    2514:	e1 f7       	brne	.-8      	; 0x250e <nrk_stats_display_pid+0x2fe>
    2516:	e8 1b       	sub	r30, r24
    2518:	f9 0b       	sbc	r31, r25
    251a:	ec 5f       	subi	r30, 0xFC	; 252
    251c:	f9 4f       	sbci	r31, 0xF9	; 249
    251e:	64 85       	ldd	r22, Z+12	; 0x0c
    2520:	75 85       	ldd	r23, Z+13	; 0x0d
    2522:	86 85       	ldd	r24, Z+14	; 0x0e
    2524:	97 85       	ldd	r25, Z+15	; 0x0f
    2526:	0e 94 93 20 	call	0x4126	; 0x4126 <_nrk_ticks_to_time>
    252a:	29 87       	std	Y+9, r18	; 0x09
    252c:	3a 87       	std	Y+10, r19	; 0x0a
    252e:	4b 87       	std	Y+11, r20	; 0x0b
    2530:	5c 87       	std	Y+12, r21	; 0x0c
    2532:	6d 87       	std	Y+13, r22	; 0x0d
    2534:	7e 87       	std	Y+14, r23	; 0x0e
    2536:	8f 87       	std	Y+15, r24	; 0x0f
    2538:	98 8b       	std	Y+16, r25	; 0x10
    253a:	de 01       	movw	r26, r28
    253c:	11 96       	adiw	r26, 0x01	; 1
    253e:	fe 01       	movw	r30, r28
    2540:	39 96       	adiw	r30, 0x09	; 9
    2542:	88 e0       	ldi	r24, 0x08	; 8
    2544:	01 90       	ld	r0, Z+
    2546:	0d 92       	st	X+, r0
    2548:	81 50       	subi	r24, 0x01	; 1
    254a:	e1 f7       	brne	.-8      	; 0x2544 <nrk_stats_display_pid+0x334>
    254c:	8d b7       	in	r24, 0x3d	; 61
    254e:	9e b7       	in	r25, 0x3e	; 62
    2550:	0a 97       	sbiw	r24, 0x0a	; 10
    2552:	0f b6       	in	r0, 0x3f	; 63
    2554:	f8 94       	cli
    2556:	9e bf       	out	0x3e, r25	; 62
    2558:	0f be       	out	0x3f, r0	; 63
    255a:	8d bf       	out	0x3d, r24	; 61
    255c:	cd b6       	in	r12, 0x3d	; 61
    255e:	de b6       	in	r13, 0x3e	; 62
    2560:	08 94       	sec
    2562:	c1 1c       	adc	r12, r1
    2564:	d1 1c       	adc	r13, r1
    2566:	87 e6       	ldi	r24, 0x67	; 103
    2568:	92 e0       	ldi	r25, 0x02	; 2
    256a:	ad b7       	in	r26, 0x3d	; 61
    256c:	be b7       	in	r27, 0x3e	; 62
    256e:	12 96       	adiw	r26, 0x02	; 2
    2570:	9c 93       	st	X, r25
    2572:	8e 93       	st	-X, r24
    2574:	11 97       	sbiw	r26, 0x01	; 1
    2576:	89 81       	ldd	r24, Y+1	; 0x01
    2578:	9a 81       	ldd	r25, Y+2	; 0x02
    257a:	ab 81       	ldd	r26, Y+3	; 0x03
    257c:	bc 81       	ldd	r27, Y+4	; 0x04
    257e:	f6 01       	movw	r30, r12
    2580:	82 83       	std	Z+2, r24	; 0x02
    2582:	93 83       	std	Z+3, r25	; 0x03
    2584:	a4 83       	std	Z+4, r26	; 0x04
    2586:	b5 83       	std	Z+5, r27	; 0x05
    2588:	6d 81       	ldd	r22, Y+5	; 0x05
    258a:	7e 81       	ldd	r23, Y+6	; 0x06
    258c:	8f 81       	ldd	r24, Y+7	; 0x07
    258e:	98 85       	ldd	r25, Y+8	; 0x08
    2590:	20 e4       	ldi	r18, 0x40	; 64
    2592:	32 e4       	ldi	r19, 0x42	; 66
    2594:	4f e0       	ldi	r20, 0x0F	; 15
    2596:	50 e0       	ldi	r21, 0x00	; 0
    2598:	0e 94 39 30 	call	0x6072	; 0x6072 <__udivmodsi4>
    259c:	d6 01       	movw	r26, r12
    259e:	16 96       	adiw	r26, 0x06	; 6
    25a0:	2d 93       	st	X+, r18
    25a2:	3d 93       	st	X+, r19
    25a4:	4d 93       	st	X+, r20
    25a6:	5c 93       	st	X, r21
    25a8:	19 97       	sbiw	r26, 0x09	; 9
    25aa:	0e 94 1d 31 	call	0x623a	; 0x623a <printf>
    25ae:	ed b7       	in	r30, 0x3d	; 61
    25b0:	fe b7       	in	r31, 0x3e	; 62
    25b2:	3a 96       	adiw	r30, 0x0a	; 10
    25b4:	0f b6       	in	r0, 0x3f	; 63
    25b6:	f8 94       	cli
    25b8:	fe bf       	out	0x3e, r31	; 62
    25ba:	0f be       	out	0x3f, r0	; 63
    25bc:	ed bf       	out	0x3d, r30	; 61
    25be:	e1 2f       	mov	r30, r17
    25c0:	f0 e0       	ldi	r31, 0x00	; 0
    25c2:	cf 01       	movw	r24, r30
    25c4:	88 0f       	add	r24, r24
    25c6:	99 1f       	adc	r25, r25
    25c8:	25 e0       	ldi	r18, 0x05	; 5
    25ca:	ee 0f       	add	r30, r30
    25cc:	ff 1f       	adc	r31, r31
    25ce:	2a 95       	dec	r18
    25d0:	e1 f7       	brne	.-8      	; 0x25ca <nrk_stats_display_pid+0x3ba>
    25d2:	e8 1b       	sub	r30, r24
    25d4:	f9 0b       	sbc	r31, r25
    25d6:	ec 5f       	subi	r30, 0xFC	; 252
    25d8:	f9 4f       	sbci	r31, 0xF9	; 249
    25da:	60 85       	ldd	r22, Z+8	; 0x08
    25dc:	71 85       	ldd	r23, Z+9	; 0x09
    25de:	82 85       	ldd	r24, Z+10	; 0x0a
    25e0:	93 85       	ldd	r25, Z+11	; 0x0b
    25e2:	0e 94 93 20 	call	0x4126	; 0x4126 <_nrk_ticks_to_time>
    25e6:	29 87       	std	Y+9, r18	; 0x09
    25e8:	3a 87       	std	Y+10, r19	; 0x0a
    25ea:	4b 87       	std	Y+11, r20	; 0x0b
    25ec:	5c 87       	std	Y+12, r21	; 0x0c
    25ee:	6d 87       	std	Y+13, r22	; 0x0d
    25f0:	7e 87       	std	Y+14, r23	; 0x0e
    25f2:	8f 87       	std	Y+15, r24	; 0x0f
    25f4:	98 8b       	std	Y+16, r25	; 0x10
    25f6:	de 01       	movw	r26, r28
    25f8:	11 96       	adiw	r26, 0x01	; 1
    25fa:	fe 01       	movw	r30, r28
    25fc:	39 96       	adiw	r30, 0x09	; 9
    25fe:	88 e0       	ldi	r24, 0x08	; 8
    2600:	01 90       	ld	r0, Z+
    2602:	0d 92       	st	X+, r0
    2604:	81 50       	subi	r24, 0x01	; 1
    2606:	e1 f7       	brne	.-8      	; 0x2600 <nrk_stats_display_pid+0x3f0>
    2608:	8d b7       	in	r24, 0x3d	; 61
    260a:	9e b7       	in	r25, 0x3e	; 62
    260c:	0a 97       	sbiw	r24, 0x0a	; 10
    260e:	0f b6       	in	r0, 0x3f	; 63
    2610:	f8 94       	cli
    2612:	9e bf       	out	0x3e, r25	; 62
    2614:	0f be       	out	0x3f, r0	; 63
    2616:	8d bf       	out	0x3d, r24	; 61
    2618:	cd b6       	in	r12, 0x3d	; 61
    261a:	de b6       	in	r13, 0x3e	; 62
    261c:	08 94       	sec
    261e:	c1 1c       	adc	r12, r1
    2620:	d1 1c       	adc	r13, r1
    2622:	87 e5       	ldi	r24, 0x57	; 87
    2624:	92 e0       	ldi	r25, 0x02	; 2
    2626:	ad b7       	in	r26, 0x3d	; 61
    2628:	be b7       	in	r27, 0x3e	; 62
    262a:	12 96       	adiw	r26, 0x02	; 2
    262c:	9c 93       	st	X, r25
    262e:	8e 93       	st	-X, r24
    2630:	11 97       	sbiw	r26, 0x01	; 1
    2632:	89 81       	ldd	r24, Y+1	; 0x01
    2634:	9a 81       	ldd	r25, Y+2	; 0x02
    2636:	ab 81       	ldd	r26, Y+3	; 0x03
    2638:	bc 81       	ldd	r27, Y+4	; 0x04
    263a:	f6 01       	movw	r30, r12
    263c:	82 83       	std	Z+2, r24	; 0x02
    263e:	93 83       	std	Z+3, r25	; 0x03
    2640:	a4 83       	std	Z+4, r26	; 0x04
    2642:	b5 83       	std	Z+5, r27	; 0x05
    2644:	6d 81       	ldd	r22, Y+5	; 0x05
    2646:	7e 81       	ldd	r23, Y+6	; 0x06
    2648:	8f 81       	ldd	r24, Y+7	; 0x07
    264a:	98 85       	ldd	r25, Y+8	; 0x08
    264c:	20 e4       	ldi	r18, 0x40	; 64
    264e:	32 e4       	ldi	r19, 0x42	; 66
    2650:	4f e0       	ldi	r20, 0x0F	; 15
    2652:	50 e0       	ldi	r21, 0x00	; 0
    2654:	0e 94 39 30 	call	0x6072	; 0x6072 <__udivmodsi4>
    2658:	d6 01       	movw	r26, r12
    265a:	16 96       	adiw	r26, 0x06	; 6
    265c:	2d 93       	st	X+, r18
    265e:	3d 93       	st	X+, r19
    2660:	4d 93       	st	X+, r20
    2662:	5c 93       	st	X, r21
    2664:	19 97       	sbiw	r26, 0x09	; 9
    2666:	0e 94 1d 31 	call	0x623a	; 0x623a <printf>
    266a:	ed b7       	in	r30, 0x3d	; 61
    266c:	fe b7       	in	r31, 0x3e	; 62
    266e:	3a 96       	adiw	r30, 0x0a	; 10
    2670:	0f b6       	in	r0, 0x3f	; 63
    2672:	f8 94       	cli
    2674:	fe bf       	out	0x3e, r31	; 62
    2676:	0f be       	out	0x3f, r0	; 63
    2678:	ed bf       	out	0x3d, r30	; 61
    267a:	8f ef       	ldi	r24, 0xFF	; 255
    267c:	91 e0       	ldi	r25, 0x01	; 1
    267e:	0e 94 57 07 	call	0xeae	; 0xeae <nrk_kprintf>
    2682:	00 d0       	rcall	.+0      	; 0x2684 <nrk_stats_display_pid+0x474>
    2684:	00 d0       	rcall	.+0      	; 0x2686 <nrk_stats_display_pid+0x476>
    2686:	00 d0       	rcall	.+0      	; 0x2688 <nrk_stats_display_pid+0x478>
    2688:	89 e7       	ldi	r24, 0x79	; 121
    268a:	c8 2e       	mov	r12, r24
    268c:	82 e0       	ldi	r24, 0x02	; 2
    268e:	d8 2e       	mov	r13, r24
    2690:	ad b7       	in	r26, 0x3d	; 61
    2692:	be b7       	in	r27, 0x3e	; 62
    2694:	12 96       	adiw	r26, 0x02	; 2
    2696:	dc 92       	st	X, r13
    2698:	ce 92       	st	-X, r12
    269a:	11 97       	sbiw	r26, 0x01	; 1
    269c:	e1 2f       	mov	r30, r17
    269e:	f0 e0       	ldi	r31, 0x00	; 0
    26a0:	cf 01       	movw	r24, r30
    26a2:	88 0f       	add	r24, r24
    26a4:	99 1f       	adc	r25, r25
    26a6:	a5 e0       	ldi	r26, 0x05	; 5
    26a8:	ee 0f       	add	r30, r30
    26aa:	ff 1f       	adc	r31, r31
    26ac:	aa 95       	dec	r26
    26ae:	e1 f7       	brne	.-8      	; 0x26a8 <nrk_stats_display_pid+0x498>
    26b0:	e8 1b       	sub	r30, r24
    26b2:	f9 0b       	sbc	r31, r25
    26b4:	ec 5f       	subi	r30, 0xFC	; 252
    26b6:	f9 4f       	sbci	r31, 0xF9	; 249
    26b8:	80 89       	ldd	r24, Z+16	; 0x10
    26ba:	91 89       	ldd	r25, Z+17	; 0x11
    26bc:	a2 89       	ldd	r26, Z+18	; 0x12
    26be:	b3 89       	ldd	r27, Z+19	; 0x13
    26c0:	ed b7       	in	r30, 0x3d	; 61
    26c2:	fe b7       	in	r31, 0x3e	; 62
    26c4:	83 83       	std	Z+3, r24	; 0x03
    26c6:	94 83       	std	Z+4, r25	; 0x04
    26c8:	a5 83       	std	Z+5, r26	; 0x05
    26ca:	b6 83       	std	Z+6, r27	; 0x06
    26cc:	0e 94 1d 31 	call	0x623a	; 0x623a <printf>
    26d0:	8d b7       	in	r24, 0x3d	; 61
    26d2:	9e b7       	in	r25, 0x3e	; 62
    26d4:	06 96       	adiw	r24, 0x06	; 6
    26d6:	0f b6       	in	r0, 0x3f	; 63
    26d8:	f8 94       	cli
    26da:	9e bf       	out	0x3e, r25	; 62
    26dc:	0f be       	out	0x3f, r0	; 63
    26de:	8d bf       	out	0x3d, r24	; 61
    26e0:	8c ee       	ldi	r24, 0xEC	; 236
    26e2:	91 e0       	ldi	r25, 0x01	; 1
    26e4:	0e 94 57 07 	call	0xeae	; 0xeae <nrk_kprintf>
    26e8:	00 d0       	rcall	.+0      	; 0x26ea <nrk_stats_display_pid+0x4da>
    26ea:	00 d0       	rcall	.+0      	; 0x26ec <nrk_stats_display_pid+0x4dc>
    26ec:	00 d0       	rcall	.+0      	; 0x26ee <nrk_stats_display_pid+0x4de>
    26ee:	ad b7       	in	r26, 0x3d	; 61
    26f0:	be b7       	in	r27, 0x3e	; 62
    26f2:	12 96       	adiw	r26, 0x02	; 2
    26f4:	dc 92       	st	X, r13
    26f6:	ce 92       	st	-X, r12
    26f8:	11 97       	sbiw	r26, 0x01	; 1
    26fa:	e1 2f       	mov	r30, r17
    26fc:	f0 e0       	ldi	r31, 0x00	; 0
    26fe:	cf 01       	movw	r24, r30
    2700:	88 0f       	add	r24, r24
    2702:	99 1f       	adc	r25, r25
    2704:	65 e0       	ldi	r22, 0x05	; 5
    2706:	ee 0f       	add	r30, r30
    2708:	ff 1f       	adc	r31, r31
    270a:	6a 95       	dec	r22
    270c:	e1 f7       	brne	.-8      	; 0x2706 <nrk_stats_display_pid+0x4f6>
    270e:	e8 1b       	sub	r30, r24
    2710:	f9 0b       	sbc	r31, r25
    2712:	ec 5f       	subi	r30, 0xFC	; 252
    2714:	f9 4f       	sbci	r31, 0xF9	; 249
    2716:	80 8d       	ldd	r24, Z+24	; 0x18
    2718:	91 8d       	ldd	r25, Z+25	; 0x19
    271a:	a2 8d       	ldd	r26, Z+26	; 0x1a
    271c:	b3 8d       	ldd	r27, Z+27	; 0x1b
    271e:	ed b7       	in	r30, 0x3d	; 61
    2720:	fe b7       	in	r31, 0x3e	; 62
    2722:	83 83       	std	Z+3, r24	; 0x03
    2724:	94 83       	std	Z+4, r25	; 0x04
    2726:	a5 83       	std	Z+5, r26	; 0x05
    2728:	b6 83       	std	Z+6, r27	; 0x06
    272a:	0e 94 1d 31 	call	0x623a	; 0x623a <printf>
    272e:	8d b7       	in	r24, 0x3d	; 61
    2730:	9e b7       	in	r25, 0x3e	; 62
    2732:	06 96       	adiw	r24, 0x06	; 6
    2734:	0f b6       	in	r0, 0x3f	; 63
    2736:	f8 94       	cli
    2738:	9e bf       	out	0x3e, r25	; 62
    273a:	0f be       	out	0x3f, r0	; 63
    273c:	8d bf       	out	0x3d, r24	; 61
    273e:	83 ed       	ldi	r24, 0xD3	; 211
    2740:	91 e0       	ldi	r25, 0x01	; 1
    2742:	0e 94 57 07 	call	0xeae	; 0xeae <nrk_kprintf>
    2746:	00 d0       	rcall	.+0      	; 0x2748 <nrk_stats_display_pid+0x538>
    2748:	00 d0       	rcall	.+0      	; 0x274a <nrk_stats_display_pid+0x53a>
    274a:	ad b7       	in	r26, 0x3d	; 61
    274c:	be b7       	in	r27, 0x3e	; 62
    274e:	11 96       	adiw	r26, 0x01	; 1
    2750:	5d e7       	ldi	r21, 0x7D	; 125
    2752:	c5 2e       	mov	r12, r21
    2754:	52 e0       	ldi	r21, 0x02	; 2
    2756:	d5 2e       	mov	r13, r21
    2758:	ed b7       	in	r30, 0x3d	; 61
    275a:	fe b7       	in	r31, 0x3e	; 62
    275c:	d2 82       	std	Z+2, r13	; 0x02
    275e:	c1 82       	std	Z+1, r12	; 0x01
    2760:	e1 2f       	mov	r30, r17
    2762:	f0 e0       	ldi	r31, 0x00	; 0
    2764:	cf 01       	movw	r24, r30
    2766:	88 0f       	add	r24, r24
    2768:	99 1f       	adc	r25, r25
    276a:	35 e0       	ldi	r19, 0x05	; 5
    276c:	ee 0f       	add	r30, r30
    276e:	ff 1f       	adc	r31, r31
    2770:	3a 95       	dec	r19
    2772:	e1 f7       	brne	.-8      	; 0x276c <nrk_stats_display_pid+0x55c>
    2774:	e8 1b       	sub	r30, r24
    2776:	f9 0b       	sbc	r31, r25
    2778:	ec 5f       	subi	r30, 0xFC	; 252
    277a:	f9 4f       	sbci	r31, 0xF9	; 249
    277c:	84 8d       	ldd	r24, Z+28	; 0x1c
    277e:	12 96       	adiw	r26, 0x02	; 2
    2780:	8c 93       	st	X, r24
    2782:	12 97       	sbiw	r26, 0x02	; 2
    2784:	13 96       	adiw	r26, 0x03	; 3
    2786:	1c 92       	st	X, r1
    2788:	0e 94 1d 31 	call	0x623a	; 0x623a <printf>
    278c:	0f 90       	pop	r0
    278e:	0f 90       	pop	r0
    2790:	0f 90       	pop	r0
    2792:	0f 90       	pop	r0
    2794:	86 eb       	ldi	r24, 0xB6	; 182
    2796:	91 e0       	ldi	r25, 0x01	; 1
    2798:	0e 94 57 07 	call	0xeae	; 0xeae <nrk_kprintf>
    279c:	00 d0       	rcall	.+0      	; 0x279e <nrk_stats_display_pid+0x58e>
    279e:	00 d0       	rcall	.+0      	; 0x27a0 <nrk_stats_display_pid+0x590>
    27a0:	ad b7       	in	r26, 0x3d	; 61
    27a2:	be b7       	in	r27, 0x3e	; 62
    27a4:	11 96       	adiw	r26, 0x01	; 1
    27a6:	ed b7       	in	r30, 0x3d	; 61
    27a8:	fe b7       	in	r31, 0x3e	; 62
    27aa:	d2 82       	std	Z+2, r13	; 0x02
    27ac:	c1 82       	std	Z+1, r12	; 0x01
    27ae:	e1 2f       	mov	r30, r17
    27b0:	f0 e0       	ldi	r31, 0x00	; 0
    27b2:	cf 01       	movw	r24, r30
    27b4:	88 0f       	add	r24, r24
    27b6:	99 1f       	adc	r25, r25
    27b8:	15 e0       	ldi	r17, 0x05	; 5
    27ba:	ee 0f       	add	r30, r30
    27bc:	ff 1f       	adc	r31, r31
    27be:	1a 95       	dec	r17
    27c0:	e1 f7       	brne	.-8      	; 0x27ba <nrk_stats_display_pid+0x5aa>
    27c2:	e8 1b       	sub	r30, r24
    27c4:	f9 0b       	sbc	r31, r25
    27c6:	ec 5f       	subi	r30, 0xFC	; 252
    27c8:	f9 4f       	sbci	r31, 0xF9	; 249
    27ca:	85 8d       	ldd	r24, Z+29	; 0x1d
    27cc:	12 96       	adiw	r26, 0x02	; 2
    27ce:	8c 93       	st	X, r24
    27d0:	12 97       	sbiw	r26, 0x02	; 2
    27d2:	13 96       	adiw	r26, 0x03	; 3
    27d4:	1c 92       	st	X, r1
    27d6:	0e 94 1d 31 	call	0x623a	; 0x623a <printf>
    27da:	0f 90       	pop	r0
    27dc:	0f 90       	pop	r0
    27de:	0f 90       	pop	r0
    27e0:	0f 90       	pop	r0
    27e2:	83 eb       	ldi	r24, 0xB3	; 179
    27e4:	91 e0       	ldi	r25, 0x01	; 1
    27e6:	0e 94 57 07 	call	0xeae	; 0xeae <nrk_kprintf>
    27ea:	60 96       	adiw	r28, 0x10	; 16
    27ec:	0f b6       	in	r0, 0x3f	; 63
    27ee:	f8 94       	cli
    27f0:	de bf       	out	0x3e, r29	; 62
    27f2:	0f be       	out	0x3f, r0	; 63
    27f4:	cd bf       	out	0x3d, r28	; 61
    27f6:	cf 91       	pop	r28
    27f8:	df 91       	pop	r29
    27fa:	1f 91       	pop	r17
    27fc:	ff 90       	pop	r15
    27fe:	ef 90       	pop	r14
    2800:	df 90       	pop	r13
    2802:	cf 90       	pop	r12
    2804:	bf 90       	pop	r11
    2806:	af 90       	pop	r10
    2808:	9f 90       	pop	r9
    280a:	8f 90       	pop	r8
    280c:	08 95       	ret

0000280e <nrk_stats_display_all>:
    280e:	86 e9       	ldi	r24, 0x96	; 150
    2810:	91 e0       	ldi	r25, 0x01	; 1
    2812:	0e 94 57 07 	call	0xeae	; 0xeae <nrk_kprintf>
    2816:	80 e0       	ldi	r24, 0x00	; 0
    2818:	0e 94 08 11 	call	0x2210	; 0x2210 <nrk_stats_display_pid>
    281c:	81 e0       	ldi	r24, 0x01	; 1
    281e:	0e 94 08 11 	call	0x2210	; 0x2210 <nrk_stats_display_pid>
    2822:	82 e0       	ldi	r24, 0x02	; 2
    2824:	0e 94 08 11 	call	0x2210	; 0x2210 <nrk_stats_display_pid>
    2828:	83 e0       	ldi	r24, 0x03	; 3
    282a:	0e 94 08 11 	call	0x2210	; 0x2210 <nrk_stats_display_pid>
    282e:	84 e0       	ldi	r24, 0x04	; 4
    2830:	0e 94 08 11 	call	0x2210	; 0x2210 <nrk_stats_display_pid>
    2834:	08 95       	ret

00002836 <nrk_stats_get>:
    2836:	fb 01       	movw	r30, r22
    2838:	85 30       	cpi	r24, 0x05	; 5
    283a:	08 f0       	brcs	.+2      	; 0x283e <nrk_stats_get+0x8>
    283c:	cb c0       	rjmp	.+406    	; 0x29d4 <nrk_stats_get+0x19e>
    283e:	a8 2f       	mov	r26, r24
    2840:	b0 e0       	ldi	r27, 0x00	; 0
    2842:	9d 01       	movw	r18, r26
    2844:	22 0f       	add	r18, r18
    2846:	33 1f       	adc	r19, r19
    2848:	55 e0       	ldi	r21, 0x05	; 5
    284a:	aa 0f       	add	r26, r26
    284c:	bb 1f       	adc	r27, r27
    284e:	5a 95       	dec	r21
    2850:	e1 f7       	brne	.-8      	; 0x284a <nrk_stats_get+0x14>
    2852:	a2 1b       	sub	r26, r18
    2854:	b3 0b       	sbc	r27, r19
    2856:	ac 5f       	subi	r26, 0xFC	; 252
    2858:	b9 4f       	sbci	r27, 0xF9	; 249
    285a:	2d 91       	ld	r18, X+
    285c:	3d 91       	ld	r19, X+
    285e:	4d 91       	ld	r20, X+
    2860:	5c 91       	ld	r21, X
    2862:	20 83       	st	Z, r18
    2864:	31 83       	std	Z+1, r19	; 0x01
    2866:	42 83       	std	Z+2, r20	; 0x02
    2868:	53 83       	std	Z+3, r21	; 0x03
    286a:	a8 2f       	mov	r26, r24
    286c:	b0 e0       	ldi	r27, 0x00	; 0
    286e:	9d 01       	movw	r18, r26
    2870:	22 0f       	add	r18, r18
    2872:	33 1f       	adc	r19, r19
    2874:	95 e0       	ldi	r25, 0x05	; 5
    2876:	aa 0f       	add	r26, r26
    2878:	bb 1f       	adc	r27, r27
    287a:	9a 95       	dec	r25
    287c:	e1 f7       	brne	.-8      	; 0x2876 <nrk_stats_get+0x40>
    287e:	a2 1b       	sub	r26, r18
    2880:	b3 0b       	sbc	r27, r19
    2882:	ac 5f       	subi	r26, 0xFC	; 252
    2884:	b9 4f       	sbci	r27, 0xF9	; 249
    2886:	14 96       	adiw	r26, 0x04	; 4
    2888:	2d 91       	ld	r18, X+
    288a:	3d 91       	ld	r19, X+
    288c:	4d 91       	ld	r20, X+
    288e:	5c 91       	ld	r21, X
    2890:	17 97       	sbiw	r26, 0x07	; 7
    2892:	24 83       	std	Z+4, r18	; 0x04
    2894:	35 83       	std	Z+5, r19	; 0x05
    2896:	46 83       	std	Z+6, r20	; 0x06
    2898:	57 83       	std	Z+7, r21	; 0x07
    289a:	a8 2f       	mov	r26, r24
    289c:	b0 e0       	ldi	r27, 0x00	; 0
    289e:	9d 01       	movw	r18, r26
    28a0:	22 0f       	add	r18, r18
    28a2:	33 1f       	adc	r19, r19
    28a4:	65 e0       	ldi	r22, 0x05	; 5
    28a6:	aa 0f       	add	r26, r26
    28a8:	bb 1f       	adc	r27, r27
    28aa:	6a 95       	dec	r22
    28ac:	e1 f7       	brne	.-8      	; 0x28a6 <nrk_stats_get+0x70>
    28ae:	a2 1b       	sub	r26, r18
    28b0:	b3 0b       	sbc	r27, r19
    28b2:	ac 5f       	subi	r26, 0xFC	; 252
    28b4:	b9 4f       	sbci	r27, 0xF9	; 249
    28b6:	18 96       	adiw	r26, 0x08	; 8
    28b8:	2d 91       	ld	r18, X+
    28ba:	3d 91       	ld	r19, X+
    28bc:	4d 91       	ld	r20, X+
    28be:	5c 91       	ld	r21, X
    28c0:	1b 97       	sbiw	r26, 0x0b	; 11
    28c2:	20 87       	std	Z+8, r18	; 0x08
    28c4:	31 87       	std	Z+9, r19	; 0x09
    28c6:	42 87       	std	Z+10, r20	; 0x0a
    28c8:	53 87       	std	Z+11, r21	; 0x0b
    28ca:	a8 2f       	mov	r26, r24
    28cc:	b0 e0       	ldi	r27, 0x00	; 0
    28ce:	9d 01       	movw	r18, r26
    28d0:	22 0f       	add	r18, r18
    28d2:	33 1f       	adc	r19, r19
    28d4:	45 e0       	ldi	r20, 0x05	; 5
    28d6:	aa 0f       	add	r26, r26
    28d8:	bb 1f       	adc	r27, r27
    28da:	4a 95       	dec	r20
    28dc:	e1 f7       	brne	.-8      	; 0x28d6 <nrk_stats_get+0xa0>
    28de:	a2 1b       	sub	r26, r18
    28e0:	b3 0b       	sbc	r27, r19
    28e2:	ac 5f       	subi	r26, 0xFC	; 252
    28e4:	b9 4f       	sbci	r27, 0xF9	; 249
    28e6:	1c 96       	adiw	r26, 0x0c	; 12
    28e8:	2d 91       	ld	r18, X+
    28ea:	3d 91       	ld	r19, X+
    28ec:	4d 91       	ld	r20, X+
    28ee:	5c 91       	ld	r21, X
    28f0:	1f 97       	sbiw	r26, 0x0f	; 15
    28f2:	24 87       	std	Z+12, r18	; 0x0c
    28f4:	35 87       	std	Z+13, r19	; 0x0d
    28f6:	46 87       	std	Z+14, r20	; 0x0e
    28f8:	57 87       	std	Z+15, r21	; 0x0f
    28fa:	a8 2f       	mov	r26, r24
    28fc:	b0 e0       	ldi	r27, 0x00	; 0
    28fe:	9d 01       	movw	r18, r26
    2900:	22 0f       	add	r18, r18
    2902:	33 1f       	adc	r19, r19
    2904:	75 e0       	ldi	r23, 0x05	; 5
    2906:	aa 0f       	add	r26, r26
    2908:	bb 1f       	adc	r27, r27
    290a:	7a 95       	dec	r23
    290c:	e1 f7       	brne	.-8      	; 0x2906 <nrk_stats_get+0xd0>
    290e:	a2 1b       	sub	r26, r18
    2910:	b3 0b       	sbc	r27, r19
    2912:	ac 5f       	subi	r26, 0xFC	; 252
    2914:	b9 4f       	sbci	r27, 0xF9	; 249
    2916:	50 96       	adiw	r26, 0x10	; 16
    2918:	2d 91       	ld	r18, X+
    291a:	3d 91       	ld	r19, X+
    291c:	4d 91       	ld	r20, X+
    291e:	5c 91       	ld	r21, X
    2920:	53 97       	sbiw	r26, 0x13	; 19
    2922:	20 8b       	std	Z+16, r18	; 0x10
    2924:	31 8b       	std	Z+17, r19	; 0x11
    2926:	42 8b       	std	Z+18, r20	; 0x12
    2928:	53 8b       	std	Z+19, r21	; 0x13
    292a:	a8 2f       	mov	r26, r24
    292c:	b0 e0       	ldi	r27, 0x00	; 0
    292e:	9d 01       	movw	r18, r26
    2930:	22 0f       	add	r18, r18
    2932:	33 1f       	adc	r19, r19
    2934:	55 e0       	ldi	r21, 0x05	; 5
    2936:	aa 0f       	add	r26, r26
    2938:	bb 1f       	adc	r27, r27
    293a:	5a 95       	dec	r21
    293c:	e1 f7       	brne	.-8      	; 0x2936 <nrk_stats_get+0x100>
    293e:	a2 1b       	sub	r26, r18
    2940:	b3 0b       	sbc	r27, r19
    2942:	ac 5f       	subi	r26, 0xFC	; 252
    2944:	b9 4f       	sbci	r27, 0xF9	; 249
    2946:	54 96       	adiw	r26, 0x14	; 20
    2948:	2d 91       	ld	r18, X+
    294a:	3d 91       	ld	r19, X+
    294c:	4d 91       	ld	r20, X+
    294e:	5c 91       	ld	r21, X
    2950:	57 97       	sbiw	r26, 0x17	; 23
    2952:	24 8b       	std	Z+20, r18	; 0x14
    2954:	35 8b       	std	Z+21, r19	; 0x15
    2956:	46 8b       	std	Z+22, r20	; 0x16
    2958:	57 8b       	std	Z+23, r21	; 0x17
    295a:	a8 2f       	mov	r26, r24
    295c:	b0 e0       	ldi	r27, 0x00	; 0
    295e:	9d 01       	movw	r18, r26
    2960:	22 0f       	add	r18, r18
    2962:	33 1f       	adc	r19, r19
    2964:	95 e0       	ldi	r25, 0x05	; 5
    2966:	aa 0f       	add	r26, r26
    2968:	bb 1f       	adc	r27, r27
    296a:	9a 95       	dec	r25
    296c:	e1 f7       	brne	.-8      	; 0x2966 <nrk_stats_get+0x130>
    296e:	a2 1b       	sub	r26, r18
    2970:	b3 0b       	sbc	r27, r19
    2972:	ac 5f       	subi	r26, 0xFC	; 252
    2974:	b9 4f       	sbci	r27, 0xF9	; 249
    2976:	58 96       	adiw	r26, 0x18	; 24
    2978:	2d 91       	ld	r18, X+
    297a:	3d 91       	ld	r19, X+
    297c:	4d 91       	ld	r20, X+
    297e:	5c 91       	ld	r21, X
    2980:	5b 97       	sbiw	r26, 0x1b	; 27
    2982:	20 8f       	std	Z+24, r18	; 0x18
    2984:	31 8f       	std	Z+25, r19	; 0x19
    2986:	42 8f       	std	Z+26, r20	; 0x1a
    2988:	53 8f       	std	Z+27, r21	; 0x1b
    298a:	a8 2f       	mov	r26, r24
    298c:	b0 e0       	ldi	r27, 0x00	; 0
    298e:	9d 01       	movw	r18, r26
    2990:	22 0f       	add	r18, r18
    2992:	33 1f       	adc	r19, r19
    2994:	65 e0       	ldi	r22, 0x05	; 5
    2996:	aa 0f       	add	r26, r26
    2998:	bb 1f       	adc	r27, r27
    299a:	6a 95       	dec	r22
    299c:	e1 f7       	brne	.-8      	; 0x2996 <nrk_stats_get+0x160>
    299e:	a2 1b       	sub	r26, r18
    29a0:	b3 0b       	sbc	r27, r19
    29a2:	ac 5f       	subi	r26, 0xFC	; 252
    29a4:	b9 4f       	sbci	r27, 0xF9	; 249
    29a6:	5c 96       	adiw	r26, 0x1c	; 28
    29a8:	9c 91       	ld	r25, X
    29aa:	94 8f       	std	Z+28, r25	; 0x1c
    29ac:	a8 2f       	mov	r26, r24
    29ae:	b0 e0       	ldi	r27, 0x00	; 0
    29b0:	cd 01       	movw	r24, r26
    29b2:	88 0f       	add	r24, r24
    29b4:	99 1f       	adc	r25, r25
    29b6:	45 e0       	ldi	r20, 0x05	; 5
    29b8:	aa 0f       	add	r26, r26
    29ba:	bb 1f       	adc	r27, r27
    29bc:	4a 95       	dec	r20
    29be:	e1 f7       	brne	.-8      	; 0x29b8 <nrk_stats_get+0x182>
    29c0:	a8 1b       	sub	r26, r24
    29c2:	b9 0b       	sbc	r27, r25
    29c4:	ac 5f       	subi	r26, 0xFC	; 252
    29c6:	b9 4f       	sbci	r27, 0xF9	; 249
    29c8:	5d 96       	adiw	r26, 0x1d	; 29
    29ca:	8c 91       	ld	r24, X
    29cc:	5d 97       	sbiw	r26, 0x1d	; 29
    29ce:	85 8f       	std	Z+29, r24	; 0x1d
    29d0:	81 e0       	ldi	r24, 0x01	; 1
    29d2:	08 95       	ret
    29d4:	8f ef       	ldi	r24, 0xFF	; 255
    29d6:	08 95       	ret

000029d8 <_nrk_errno_set>:
    29d8:	e0 91 01 06 	lds	r30, 0x0601
    29dc:	f0 91 02 06 	lds	r31, 0x0602
    29e0:	84 87       	std	Z+12, r24	; 0x0c
    29e2:	08 95       	ret

000029e4 <nrk_errno_get>:
    29e4:	e0 91 01 06 	lds	r30, 0x0601
    29e8:	f0 91 02 06 	lds	r31, 0x0602
    29ec:	84 85       	ldd	r24, Z+12	; 0x0c
    29ee:	08 95       	ret

000029f0 <nrk_error_get>:
    29f0:	20 91 89 04 	lds	r18, 0x0489
    29f4:	22 23       	and	r18, r18
    29f6:	41 f0       	breq	.+16     	; 0x2a08 <nrk_error_get+0x18>
    29f8:	fb 01       	movw	r30, r22
    29fa:	20 83       	st	Z, r18
    29fc:	20 91 dc 03 	lds	r18, 0x03DC
    2a00:	fc 01       	movw	r30, r24
    2a02:	20 83       	st	Z, r18
    2a04:	81 e0       	ldi	r24, 0x01	; 1
    2a06:	08 95       	ret
    2a08:	80 e0       	ldi	r24, 0x00	; 0
    2a0a:	08 95       	ret

00002a0c <pause>:
    2a0c:	df 93       	push	r29
    2a0e:	cf 93       	push	r28
    2a10:	0f 92       	push	r0
    2a12:	cd b7       	in	r28, 0x3d	; 61
    2a14:	de b7       	in	r29, 0x3e	; 62
    2a16:	19 82       	std	Y+1, r1	; 0x01
    2a18:	07 c0       	rjmp	.+14     	; 0x2a28 <pause+0x1c>
    2a1a:	80 ed       	ldi	r24, 0xD0	; 208
    2a1c:	97 e0       	ldi	r25, 0x07	; 7
    2a1e:	0e 94 1d 24 	call	0x483a	; 0x483a <nrk_spin_wait_us>
    2a22:	89 81       	ldd	r24, Y+1	; 0x01
    2a24:	8f 5f       	subi	r24, 0xFF	; 255
    2a26:	89 83       	std	Y+1, r24	; 0x01
    2a28:	89 81       	ldd	r24, Y+1	; 0x01
    2a2a:	84 36       	cpi	r24, 0x64	; 100
    2a2c:	b0 f3       	brcs	.-20     	; 0x2a1a <pause+0xe>
    2a2e:	0f 90       	pop	r0
    2a30:	cf 91       	pop	r28
    2a32:	df 91       	pop	r29
    2a34:	08 95       	ret

00002a36 <blink_dot>:
    2a36:	82 e0       	ldi	r24, 0x02	; 2
    2a38:	90 e0       	ldi	r25, 0x00	; 0
    2a3a:	0e 94 e8 0a 	call	0x15d0	; 0x15d0 <nrk_led_set>
    2a3e:	0e 94 06 15 	call	0x2a0c	; 0x2a0c <pause>
    2a42:	82 e0       	ldi	r24, 0x02	; 2
    2a44:	90 e0       	ldi	r25, 0x00	; 0
    2a46:	0e 94 d0 0a 	call	0x15a0	; 0x15a0 <nrk_led_clr>
    2a4a:	0e 94 06 15 	call	0x2a0c	; 0x2a0c <pause>
    2a4e:	08 95       	ret

00002a50 <blink_dash>:
    2a50:	82 e0       	ldi	r24, 0x02	; 2
    2a52:	90 e0       	ldi	r25, 0x00	; 0
    2a54:	0e 94 e8 0a 	call	0x15d0	; 0x15d0 <nrk_led_set>
    2a58:	0e 94 06 15 	call	0x2a0c	; 0x2a0c <pause>
    2a5c:	0e 94 06 15 	call	0x2a0c	; 0x2a0c <pause>
    2a60:	0e 94 06 15 	call	0x2a0c	; 0x2a0c <pause>
    2a64:	82 e0       	ldi	r24, 0x02	; 2
    2a66:	90 e0       	ldi	r25, 0x00	; 0
    2a68:	0e 94 d0 0a 	call	0x15a0	; 0x15a0 <nrk_led_clr>
    2a6c:	0e 94 06 15 	call	0x2a0c	; 0x2a0c <pause>
    2a70:	08 95       	ret

00002a72 <blink_morse_code_error>:
    2a72:	ff 92       	push	r15
    2a74:	0f 93       	push	r16
    2a76:	1f 93       	push	r17
    2a78:	df 93       	push	r29
    2a7a:	cf 93       	push	r28
    2a7c:	00 d0       	rcall	.+0      	; 0x2a7e <blink_morse_code_error+0xc>
    2a7e:	0f 92       	push	r0
    2a80:	cd b7       	in	r28, 0x3d	; 61
    2a82:	de b7       	in	r29, 0x3e	; 62
    2a84:	00 d0       	rcall	.+0      	; 0x2a86 <blink_morse_code_error+0x14>
    2a86:	00 d0       	rcall	.+0      	; 0x2a88 <blink_morse_code_error+0x16>
    2a88:	00 d0       	rcall	.+0      	; 0x2a8a <blink_morse_code_error+0x18>
    2a8a:	ed b7       	in	r30, 0x3d	; 61
    2a8c:	fe b7       	in	r31, 0x3e	; 62
    2a8e:	31 96       	adiw	r30, 0x01	; 1
    2a90:	8e 01       	movw	r16, r28
    2a92:	0f 5f       	subi	r16, 0xFF	; 255
    2a94:	1f 4f       	sbci	r17, 0xFF	; 255
    2a96:	ad b7       	in	r26, 0x3d	; 61
    2a98:	be b7       	in	r27, 0x3e	; 62
    2a9a:	12 96       	adiw	r26, 0x02	; 2
    2a9c:	1c 93       	st	X, r17
    2a9e:	0e 93       	st	-X, r16
    2aa0:	11 97       	sbiw	r26, 0x01	; 1
    2aa2:	20 e8       	ldi	r18, 0x80	; 128
    2aa4:	32 e0       	ldi	r19, 0x02	; 2
    2aa6:	33 83       	std	Z+3, r19	; 0x03
    2aa8:	22 83       	std	Z+2, r18	; 0x02
    2aaa:	84 83       	std	Z+4, r24	; 0x04
    2aac:	15 82       	std	Z+5, r1	; 0x05
    2aae:	0e 94 2f 31 	call	0x625e	; 0x625e <sprintf>
    2ab2:	ed b7       	in	r30, 0x3d	; 61
    2ab4:	fe b7       	in	r31, 0x3e	; 62
    2ab6:	36 96       	adiw	r30, 0x06	; 6
    2ab8:	0f b6       	in	r0, 0x3f	; 63
    2aba:	f8 94       	cli
    2abc:	fe bf       	out	0x3e, r31	; 62
    2abe:	0f be       	out	0x3f, r0	; 63
    2ac0:	ed bf       	out	0x3d, r30	; 61
    2ac2:	ff 24       	eor	r15, r15
    2ac4:	72 c0       	rjmp	.+228    	; 0x2baa <blink_morse_code_error+0x138>
    2ac6:	80 0f       	add	r24, r16
    2ac8:	91 1f       	adc	r25, r17
    2aca:	dc 01       	movw	r26, r24
    2acc:	8c 91       	ld	r24, X
    2ace:	84 33       	cpi	r24, 0x34	; 52
    2ad0:	d1 f1       	breq	.+116    	; 0x2b46 <blink_morse_code_error+0xd4>
    2ad2:	85 33       	cpi	r24, 0x35	; 53
    2ad4:	70 f4       	brcc	.+28     	; 0x2af2 <blink_morse_code_error+0x80>
    2ad6:	81 33       	cpi	r24, 0x31	; 49
    2ad8:	f9 f0       	breq	.+62     	; 0x2b18 <blink_morse_code_error+0xa6>
    2ada:	82 33       	cpi	r24, 0x32	; 50
    2adc:	20 f4       	brcc	.+8      	; 0x2ae6 <blink_morse_code_error+0x74>
    2ade:	80 33       	cpi	r24, 0x30	; 48
    2ae0:	09 f0       	breq	.+2      	; 0x2ae4 <blink_morse_code_error+0x72>
    2ae2:	5c c0       	rjmp	.+184    	; 0x2b9c <blink_morse_code_error+0x12a>
    2ae4:	16 c0       	rjmp	.+44     	; 0x2b12 <blink_morse_code_error+0xa0>
    2ae6:	82 33       	cpi	r24, 0x32	; 50
    2ae8:	11 f1       	breq	.+68     	; 0x2b2e <blink_morse_code_error+0xbc>
    2aea:	83 33       	cpi	r24, 0x33	; 51
    2aec:	09 f0       	breq	.+2      	; 0x2af0 <blink_morse_code_error+0x7e>
    2aee:	56 c0       	rjmp	.+172    	; 0x2b9c <blink_morse_code_error+0x12a>
    2af0:	23 c0       	rjmp	.+70     	; 0x2b38 <blink_morse_code_error+0xc6>
    2af2:	87 33       	cpi	r24, 0x37	; 55
    2af4:	c9 f1       	breq	.+114    	; 0x2b68 <blink_morse_code_error+0xf6>
    2af6:	88 33       	cpi	r24, 0x38	; 56
    2af8:	30 f4       	brcc	.+12     	; 0x2b06 <blink_morse_code_error+0x94>
    2afa:	85 33       	cpi	r24, 0x35	; 53
    2afc:	69 f1       	breq	.+90     	; 0x2b58 <blink_morse_code_error+0xe6>
    2afe:	86 33       	cpi	r24, 0x36	; 54
    2b00:	09 f0       	breq	.+2      	; 0x2b04 <blink_morse_code_error+0x92>
    2b02:	4c c0       	rjmp	.+152    	; 0x2b9c <blink_morse_code_error+0x12a>
    2b04:	2c c0       	rjmp	.+88     	; 0x2b5e <blink_morse_code_error+0xec>
    2b06:	88 33       	cpi	r24, 0x38	; 56
    2b08:	b1 f1       	breq	.+108    	; 0x2b76 <blink_morse_code_error+0x104>
    2b0a:	89 33       	cpi	r24, 0x39	; 57
    2b0c:	09 f0       	breq	.+2      	; 0x2b10 <blink_morse_code_error+0x9e>
    2b0e:	46 c0       	rjmp	.+140    	; 0x2b9c <blink_morse_code_error+0x12a>
    2b10:	3b c0       	rjmp	.+118    	; 0x2b88 <blink_morse_code_error+0x116>
    2b12:	0e 94 28 15 	call	0x2a50	; 0x2a50 <blink_dash>
    2b16:	02 c0       	rjmp	.+4      	; 0x2b1c <blink_morse_code_error+0xaa>
    2b18:	0e 94 1b 15 	call	0x2a36	; 0x2a36 <blink_dot>
    2b1c:	0e 94 28 15 	call	0x2a50	; 0x2a50 <blink_dash>
    2b20:	0e 94 28 15 	call	0x2a50	; 0x2a50 <blink_dash>
    2b24:	0e 94 28 15 	call	0x2a50	; 0x2a50 <blink_dash>
    2b28:	0e 94 28 15 	call	0x2a50	; 0x2a50 <blink_dash>
    2b2c:	37 c0       	rjmp	.+110    	; 0x2b9c <blink_morse_code_error+0x12a>
    2b2e:	0e 94 1b 15 	call	0x2a36	; 0x2a36 <blink_dot>
    2b32:	0e 94 1b 15 	call	0x2a36	; 0x2a36 <blink_dot>
    2b36:	f4 cf       	rjmp	.-24     	; 0x2b20 <blink_morse_code_error+0xae>
    2b38:	0e 94 1b 15 	call	0x2a36	; 0x2a36 <blink_dot>
    2b3c:	0e 94 1b 15 	call	0x2a36	; 0x2a36 <blink_dot>
    2b40:	0e 94 1b 15 	call	0x2a36	; 0x2a36 <blink_dot>
    2b44:	ef cf       	rjmp	.-34     	; 0x2b24 <blink_morse_code_error+0xb2>
    2b46:	0e 94 1b 15 	call	0x2a36	; 0x2a36 <blink_dot>
    2b4a:	0e 94 1b 15 	call	0x2a36	; 0x2a36 <blink_dot>
    2b4e:	0e 94 1b 15 	call	0x2a36	; 0x2a36 <blink_dot>
    2b52:	0e 94 1b 15 	call	0x2a36	; 0x2a36 <blink_dot>
    2b56:	e8 cf       	rjmp	.-48     	; 0x2b28 <blink_morse_code_error+0xb6>
    2b58:	0e 94 1b 15 	call	0x2a36	; 0x2a36 <blink_dot>
    2b5c:	02 c0       	rjmp	.+4      	; 0x2b62 <blink_morse_code_error+0xf0>
    2b5e:	0e 94 28 15 	call	0x2a50	; 0x2a50 <blink_dash>
    2b62:	0e 94 1b 15 	call	0x2a36	; 0x2a36 <blink_dot>
    2b66:	04 c0       	rjmp	.+8      	; 0x2b70 <blink_morse_code_error+0xfe>
    2b68:	0e 94 28 15 	call	0x2a50	; 0x2a50 <blink_dash>
    2b6c:	0e 94 28 15 	call	0x2a50	; 0x2a50 <blink_dash>
    2b70:	0e 94 1b 15 	call	0x2a36	; 0x2a36 <blink_dot>
    2b74:	06 c0       	rjmp	.+12     	; 0x2b82 <blink_morse_code_error+0x110>
    2b76:	0e 94 28 15 	call	0x2a50	; 0x2a50 <blink_dash>
    2b7a:	0e 94 28 15 	call	0x2a50	; 0x2a50 <blink_dash>
    2b7e:	0e 94 28 15 	call	0x2a50	; 0x2a50 <blink_dash>
    2b82:	0e 94 1b 15 	call	0x2a36	; 0x2a36 <blink_dot>
    2b86:	08 c0       	rjmp	.+16     	; 0x2b98 <blink_morse_code_error+0x126>
    2b88:	0e 94 28 15 	call	0x2a50	; 0x2a50 <blink_dash>
    2b8c:	0e 94 28 15 	call	0x2a50	; 0x2a50 <blink_dash>
    2b90:	0e 94 28 15 	call	0x2a50	; 0x2a50 <blink_dash>
    2b94:	0e 94 28 15 	call	0x2a50	; 0x2a50 <blink_dash>
    2b98:	0e 94 1b 15 	call	0x2a36	; 0x2a36 <blink_dot>
    2b9c:	0e 94 06 15 	call	0x2a0c	; 0x2a0c <pause>
    2ba0:	0e 94 06 15 	call	0x2a0c	; 0x2a0c <pause>
    2ba4:	0e 94 06 15 	call	0x2a0c	; 0x2a0c <pause>
    2ba8:	f3 94       	inc	r15
    2baa:	f8 01       	movw	r30, r16
    2bac:	01 90       	ld	r0, Z+
    2bae:	00 20       	and	r0, r0
    2bb0:	e9 f7       	brne	.-6      	; 0x2bac <blink_morse_code_error+0x13a>
    2bb2:	31 97       	sbiw	r30, 0x01	; 1
    2bb4:	e0 1b       	sub	r30, r16
    2bb6:	f1 0b       	sbc	r31, r17
    2bb8:	8f 2d       	mov	r24, r15
    2bba:	90 e0       	ldi	r25, 0x00	; 0
    2bbc:	8e 17       	cp	r24, r30
    2bbe:	9f 07       	cpc	r25, r31
    2bc0:	08 f4       	brcc	.+2      	; 0x2bc4 <blink_morse_code_error+0x152>
    2bc2:	81 cf       	rjmp	.-254    	; 0x2ac6 <blink_morse_code_error+0x54>
    2bc4:	0f 90       	pop	r0
    2bc6:	0f 90       	pop	r0
    2bc8:	0f 90       	pop	r0
    2bca:	cf 91       	pop	r28
    2bcc:	df 91       	pop	r29
    2bce:	1f 91       	pop	r17
    2bd0:	0f 91       	pop	r16
    2bd2:	ff 90       	pop	r15
    2bd4:	08 95       	ret

00002bd6 <nrk_error_print>:
    2bd6:	0f 93       	push	r16
    2bd8:	1f 93       	push	r17
    2bda:	80 91 89 04 	lds	r24, 0x0489
    2bde:	88 23       	and	r24, r24
    2be0:	19 f4       	brne	.+6      	; 0x2be8 <nrk_error_print+0x12>
    2be2:	1f 91       	pop	r17
    2be4:	0f 91       	pop	r16
    2be6:	08 95       	ret
    2be8:	0e 94 0d 0c 	call	0x181a	; 0x181a <nrk_int_disable>
    2bec:	0e 94 86 27 	call	0x4f0c	; 0x4f0c <nrk_watchdog_disable>
    2bf0:	0e 94 0d 0c 	call	0x181a	; 0x181a <nrk_int_disable>
    2bf4:	8e ea       	ldi	r24, 0xAE	; 174
    2bf6:	94 e0       	ldi	r25, 0x04	; 4
    2bf8:	0e 94 57 07 	call	0xeae	; 0xeae <nrk_kprintf>
    2bfc:	00 d0       	rcall	.+0      	; 0x2bfe <nrk_error_print+0x28>
    2bfe:	00 d0       	rcall	.+0      	; 0x2c00 <nrk_error_print+0x2a>
    2c00:	ed b7       	in	r30, 0x3d	; 61
    2c02:	fe b7       	in	r31, 0x3e	; 62
    2c04:	31 96       	adiw	r30, 0x01	; 1
    2c06:	80 e8       	ldi	r24, 0x80	; 128
    2c08:	92 e0       	ldi	r25, 0x02	; 2
    2c0a:	ad b7       	in	r26, 0x3d	; 61
    2c0c:	be b7       	in	r27, 0x3e	; 62
    2c0e:	12 96       	adiw	r26, 0x02	; 2
    2c10:	9c 93       	st	X, r25
    2c12:	8e 93       	st	-X, r24
    2c14:	11 97       	sbiw	r26, 0x01	; 1
    2c16:	80 91 dc 03 	lds	r24, 0x03DC
    2c1a:	82 83       	std	Z+2, r24	; 0x02
    2c1c:	13 82       	std	Z+3, r1	; 0x03
    2c1e:	0e 94 1d 31 	call	0x623a	; 0x623a <printf>
    2c22:	0f 90       	pop	r0
    2c24:	0f 90       	pop	r0
    2c26:	0f 90       	pop	r0
    2c28:	0f 90       	pop	r0
    2c2a:	8a ea       	ldi	r24, 0xAA	; 170
    2c2c:	94 e0       	ldi	r25, 0x04	; 4
    2c2e:	0e 94 57 07 	call	0xeae	; 0xeae <nrk_kprintf>
    2c32:	80 91 89 04 	lds	r24, 0x0489
    2c36:	88 31       	cpi	r24, 0x18	; 24
    2c38:	10 f0       	brcs	.+4      	; 0x2c3e <nrk_error_print+0x68>
    2c3a:	10 92 89 04 	sts	0x0489, r1
    2c3e:	80 91 89 04 	lds	r24, 0x0489
    2c42:	90 e0       	ldi	r25, 0x00	; 0
    2c44:	01 97       	sbiw	r24, 0x01	; 1
    2c46:	86 31       	cpi	r24, 0x16	; 22
    2c48:	91 05       	cpc	r25, r1
    2c4a:	08 f0       	brcs	.+2      	; 0x2c4e <nrk_error_print+0x78>
    2c4c:	4b c0       	rjmp	.+150    	; 0x2ce4 <nrk_error_print+0x10e>
    2c4e:	80 57       	subi	r24, 0x70	; 112
    2c50:	9f 4f       	sbci	r25, 0xFF	; 255
    2c52:	fc 01       	movw	r30, r24
    2c54:	ee 0f       	add	r30, r30
    2c56:	ff 1f       	adc	r31, r31
    2c58:	05 90       	lpm	r0, Z+
    2c5a:	f4 91       	lpm	r31, Z+
    2c5c:	e0 2d       	mov	r30, r0
    2c5e:	09 94       	ijmp
    2c60:	8e e6       	ldi	r24, 0x6E	; 110
    2c62:	94 e0       	ldi	r25, 0x04	; 4
    2c64:	41 c0       	rjmp	.+130    	; 0x2ce8 <nrk_error_print+0x112>
    2c66:	87 e4       	ldi	r24, 0x47	; 71
    2c68:	94 e0       	ldi	r25, 0x04	; 4
    2c6a:	3e c0       	rjmp	.+124    	; 0x2ce8 <nrk_error_print+0x112>
    2c6c:	83 e3       	ldi	r24, 0x33	; 51
    2c6e:	94 e0       	ldi	r25, 0x04	; 4
    2c70:	3b c0       	rjmp	.+118    	; 0x2ce8 <nrk_error_print+0x112>
    2c72:	8d e1       	ldi	r24, 0x1D	; 29
    2c74:	94 e0       	ldi	r25, 0x04	; 4
    2c76:	38 c0       	rjmp	.+112    	; 0x2ce8 <nrk_error_print+0x112>
    2c78:	82 e0       	ldi	r24, 0x02	; 2
    2c7a:	94 e0       	ldi	r25, 0x04	; 4
    2c7c:	35 c0       	rjmp	.+106    	; 0x2ce8 <nrk_error_print+0x112>
    2c7e:	8c ee       	ldi	r24, 0xEC	; 236
    2c80:	93 e0       	ldi	r25, 0x03	; 3
    2c82:	32 c0       	rjmp	.+100    	; 0x2ce8 <nrk_error_print+0x112>
    2c84:	84 ed       	ldi	r24, 0xD4	; 212
    2c86:	93 e0       	ldi	r25, 0x03	; 3
    2c88:	2f c0       	rjmp	.+94     	; 0x2ce8 <nrk_error_print+0x112>
    2c8a:	81 ec       	ldi	r24, 0xC1	; 193
    2c8c:	93 e0       	ldi	r25, 0x03	; 3
    2c8e:	2c c0       	rjmp	.+88     	; 0x2ce8 <nrk_error_print+0x112>
    2c90:	8e ea       	ldi	r24, 0xAE	; 174
    2c92:	93 e0       	ldi	r25, 0x03	; 3
    2c94:	29 c0       	rjmp	.+82     	; 0x2ce8 <nrk_error_print+0x112>
    2c96:	80 e9       	ldi	r24, 0x90	; 144
    2c98:	93 e0       	ldi	r25, 0x03	; 3
    2c9a:	26 c0       	rjmp	.+76     	; 0x2ce8 <nrk_error_print+0x112>
    2c9c:	8b e6       	ldi	r24, 0x6B	; 107
    2c9e:	93 e0       	ldi	r25, 0x03	; 3
    2ca0:	23 c0       	rjmp	.+70     	; 0x2ce8 <nrk_error_print+0x112>
    2ca2:	8f e5       	ldi	r24, 0x5F	; 95
    2ca4:	93 e0       	ldi	r25, 0x03	; 3
    2ca6:	20 c0       	rjmp	.+64     	; 0x2ce8 <nrk_error_print+0x112>
    2ca8:	84 e4       	ldi	r24, 0x44	; 68
    2caa:	93 e0       	ldi	r25, 0x03	; 3
    2cac:	1d c0       	rjmp	.+58     	; 0x2ce8 <nrk_error_print+0x112>
    2cae:	85 e3       	ldi	r24, 0x35	; 53
    2cb0:	93 e0       	ldi	r25, 0x03	; 3
    2cb2:	1a c0       	rjmp	.+52     	; 0x2ce8 <nrk_error_print+0x112>
    2cb4:	81 e2       	ldi	r24, 0x21	; 33
    2cb6:	93 e0       	ldi	r25, 0x03	; 3
    2cb8:	17 c0       	rjmp	.+46     	; 0x2ce8 <nrk_error_print+0x112>
    2cba:	80 e1       	ldi	r24, 0x10	; 16
    2cbc:	93 e0       	ldi	r25, 0x03	; 3
    2cbe:	14 c0       	rjmp	.+40     	; 0x2ce8 <nrk_error_print+0x112>
    2cc0:	8c ef       	ldi	r24, 0xFC	; 252
    2cc2:	92 e0       	ldi	r25, 0x02	; 2
    2cc4:	11 c0       	rjmp	.+34     	; 0x2ce8 <nrk_error_print+0x112>
    2cc6:	8c ed       	ldi	r24, 0xDC	; 220
    2cc8:	92 e0       	ldi	r25, 0x02	; 2
    2cca:	0e c0       	rjmp	.+28     	; 0x2ce8 <nrk_error_print+0x112>
    2ccc:	84 ec       	ldi	r24, 0xC4	; 196
    2cce:	92 e0       	ldi	r25, 0x02	; 2
    2cd0:	0b c0       	rjmp	.+22     	; 0x2ce8 <nrk_error_print+0x112>
    2cd2:	89 ea       	ldi	r24, 0xA9	; 169
    2cd4:	92 e0       	ldi	r25, 0x02	; 2
    2cd6:	08 c0       	rjmp	.+16     	; 0x2ce8 <nrk_error_print+0x112>
    2cd8:	88 e9       	ldi	r24, 0x98	; 152
    2cda:	92 e0       	ldi	r25, 0x02	; 2
    2cdc:	05 c0       	rjmp	.+10     	; 0x2ce8 <nrk_error_print+0x112>
    2cde:	89 e8       	ldi	r24, 0x89	; 137
    2ce0:	92 e0       	ldi	r25, 0x02	; 2
    2ce2:	02 c0       	rjmp	.+4      	; 0x2ce8 <nrk_error_print+0x112>
    2ce4:	82 e8       	ldi	r24, 0x82	; 130
    2ce6:	92 e0       	ldi	r25, 0x02	; 2
    2ce8:	0e 94 57 07 	call	0xeae	; 0xeae <nrk_kprintf>
    2cec:	60 91 c3 06 	lds	r22, 0x06C3
    2cf0:	70 91 c4 06 	lds	r23, 0x06C4
    2cf4:	8d e0       	ldi	r24, 0x0D	; 13
    2cf6:	90 e0       	ldi	r25, 0x00	; 0
    2cf8:	0e 94 f1 30 	call	0x61e2	; 0x61e2 <fputc>
    2cfc:	60 91 c3 06 	lds	r22, 0x06C3
    2d00:	70 91 c4 06 	lds	r23, 0x06C4
    2d04:	8a e0       	ldi	r24, 0x0A	; 10
    2d06:	90 e0       	ldi	r25, 0x00	; 0
    2d08:	0e 94 f1 30 	call	0x61e2	; 0x61e2 <fputc>
    2d0c:	10 e0       	ldi	r17, 0x00	; 0
    2d0e:	1f c0       	rjmp	.+62     	; 0x2d4e <nrk_error_print+0x178>
    2d10:	82 e0       	ldi	r24, 0x02	; 2
    2d12:	90 e0       	ldi	r25, 0x00	; 0
    2d14:	0e 94 e8 0a 	call	0x15d0	; 0x15d0 <nrk_led_set>
    2d18:	83 e0       	ldi	r24, 0x03	; 3
    2d1a:	90 e0       	ldi	r25, 0x00	; 0
    2d1c:	0e 94 d0 0a 	call	0x15a0	; 0x15a0 <nrk_led_clr>
    2d20:	04 e6       	ldi	r16, 0x64	; 100
    2d22:	88 ee       	ldi	r24, 0xE8	; 232
    2d24:	93 e0       	ldi	r25, 0x03	; 3
    2d26:	0e 94 1d 24 	call	0x483a	; 0x483a <nrk_spin_wait_us>
    2d2a:	01 50       	subi	r16, 0x01	; 1
    2d2c:	d1 f7       	brne	.-12     	; 0x2d22 <nrk_error_print+0x14c>
    2d2e:	83 e0       	ldi	r24, 0x03	; 3
    2d30:	90 e0       	ldi	r25, 0x00	; 0
    2d32:	0e 94 e8 0a 	call	0x15d0	; 0x15d0 <nrk_led_set>
    2d36:	82 e0       	ldi	r24, 0x02	; 2
    2d38:	90 e0       	ldi	r25, 0x00	; 0
    2d3a:	0e 94 d0 0a 	call	0x15a0	; 0x15a0 <nrk_led_clr>
    2d3e:	04 e6       	ldi	r16, 0x64	; 100
    2d40:	88 ee       	ldi	r24, 0xE8	; 232
    2d42:	93 e0       	ldi	r25, 0x03	; 3
    2d44:	0e 94 1d 24 	call	0x483a	; 0x483a <nrk_spin_wait_us>
    2d48:	01 50       	subi	r16, 0x01	; 1
    2d4a:	d1 f7       	brne	.-12     	; 0x2d40 <nrk_error_print+0x16a>
    2d4c:	1f 5f       	subi	r17, 0xFF	; 255
    2d4e:	14 31       	cpi	r17, 0x14	; 20
    2d50:	fc f2       	brlt	.-66     	; 0x2d10 <nrk_error_print+0x13a>
    2d52:	83 e0       	ldi	r24, 0x03	; 3
    2d54:	90 e0       	ldi	r25, 0x00	; 0
    2d56:	0e 94 d0 0a 	call	0x15a0	; 0x15a0 <nrk_led_clr>
    2d5a:	82 e0       	ldi	r24, 0x02	; 2
    2d5c:	90 e0       	ldi	r25, 0x00	; 0
    2d5e:	0e 94 d0 0a 	call	0x15a0	; 0x15a0 <nrk_led_clr>
    2d62:	80 91 dc 03 	lds	r24, 0x03DC
    2d66:	0e 94 39 15 	call	0x2a72	; 0x2a72 <blink_morse_code_error>
    2d6a:	0e 94 06 15 	call	0x2a0c	; 0x2a0c <pause>
    2d6e:	82 e0       	ldi	r24, 0x02	; 2
    2d70:	90 e0       	ldi	r25, 0x00	; 0
    2d72:	0e 94 e8 0a 	call	0x15d0	; 0x15d0 <nrk_led_set>
    2d76:	0e 94 06 15 	call	0x2a0c	; 0x2a0c <pause>
    2d7a:	82 e0       	ldi	r24, 0x02	; 2
    2d7c:	90 e0       	ldi	r25, 0x00	; 0
    2d7e:	0e 94 d0 0a 	call	0x15a0	; 0x15a0 <nrk_led_clr>
    2d82:	0e 94 06 15 	call	0x2a0c	; 0x2a0c <pause>
    2d86:	80 91 89 04 	lds	r24, 0x0489
    2d8a:	0e 94 39 15 	call	0x2a72	; 0x2a72 <blink_morse_code_error>
    2d8e:	10 e0       	ldi	r17, 0x00	; 0
    2d90:	bf cf       	rjmp	.-130    	; 0x2d10 <nrk_error_print+0x13a>

00002d92 <nrk_kernel_error_add>:
    2d92:	ef 92       	push	r14
    2d94:	ff 92       	push	r15
    2d96:	0f 93       	push	r16
    2d98:	1f 93       	push	r17
    2d9a:	18 2f       	mov	r17, r24
    2d9c:	e6 2e       	mov	r14, r22
    2d9e:	80 93 89 04 	sts	0x0489, r24
    2da2:	60 93 dc 03 	sts	0x03DC, r22
    2da6:	0e 94 eb 15 	call	0x2bd6	; 0x2bd6 <nrk_error_print>
    2daa:	00 e0       	ldi	r16, 0x00	; 0
    2dac:	21 c0       	rjmp	.+66     	; 0x2df0 <nrk_kernel_error_add+0x5e>
    2dae:	82 e0       	ldi	r24, 0x02	; 2
    2db0:	90 e0       	ldi	r25, 0x00	; 0
    2db2:	0e 94 e8 0a 	call	0x15d0	; 0x15d0 <nrk_led_set>
    2db6:	83 e0       	ldi	r24, 0x03	; 3
    2db8:	90 e0       	ldi	r25, 0x00	; 0
    2dba:	0e 94 d0 0a 	call	0x15a0	; 0x15a0 <nrk_led_clr>
    2dbe:	94 e6       	ldi	r25, 0x64	; 100
    2dc0:	f9 2e       	mov	r15, r25
    2dc2:	88 ee       	ldi	r24, 0xE8	; 232
    2dc4:	93 e0       	ldi	r25, 0x03	; 3
    2dc6:	0e 94 1d 24 	call	0x483a	; 0x483a <nrk_spin_wait_us>
    2dca:	fa 94       	dec	r15
    2dcc:	d1 f7       	brne	.-12     	; 0x2dc2 <nrk_kernel_error_add+0x30>
    2dce:	83 e0       	ldi	r24, 0x03	; 3
    2dd0:	90 e0       	ldi	r25, 0x00	; 0
    2dd2:	0e 94 e8 0a 	call	0x15d0	; 0x15d0 <nrk_led_set>
    2dd6:	82 e0       	ldi	r24, 0x02	; 2
    2dd8:	90 e0       	ldi	r25, 0x00	; 0
    2dda:	0e 94 d0 0a 	call	0x15a0	; 0x15a0 <nrk_led_clr>
    2dde:	84 e6       	ldi	r24, 0x64	; 100
    2de0:	f8 2e       	mov	r15, r24
    2de2:	88 ee       	ldi	r24, 0xE8	; 232
    2de4:	93 e0       	ldi	r25, 0x03	; 3
    2de6:	0e 94 1d 24 	call	0x483a	; 0x483a <nrk_spin_wait_us>
    2dea:	fa 94       	dec	r15
    2dec:	d1 f7       	brne	.-12     	; 0x2de2 <nrk_kernel_error_add+0x50>
    2dee:	0f 5f       	subi	r16, 0xFF	; 255
    2df0:	04 31       	cpi	r16, 0x14	; 20
    2df2:	e8 f2       	brcs	.-70     	; 0x2dae <nrk_kernel_error_add+0x1c>
    2df4:	83 e0       	ldi	r24, 0x03	; 3
    2df6:	90 e0       	ldi	r25, 0x00	; 0
    2df8:	0e 94 d0 0a 	call	0x15a0	; 0x15a0 <nrk_led_clr>
    2dfc:	82 e0       	ldi	r24, 0x02	; 2
    2dfe:	90 e0       	ldi	r25, 0x00	; 0
    2e00:	0e 94 d0 0a 	call	0x15a0	; 0x15a0 <nrk_led_clr>
    2e04:	8e 2d       	mov	r24, r14
    2e06:	0e 94 39 15 	call	0x2a72	; 0x2a72 <blink_morse_code_error>
    2e0a:	81 2f       	mov	r24, r17
    2e0c:	0e 94 39 15 	call	0x2a72	; 0x2a72 <blink_morse_code_error>
    2e10:	00 e0       	ldi	r16, 0x00	; 0
    2e12:	cd cf       	rjmp	.-102    	; 0x2dae <nrk_kernel_error_add+0x1c>

00002e14 <nrk_error_add>:
    2e14:	80 93 89 04 	sts	0x0489, r24
    2e18:	e0 91 01 06 	lds	r30, 0x0601
    2e1c:	f0 91 02 06 	lds	r31, 0x0602
    2e20:	80 85       	ldd	r24, Z+8	; 0x08
    2e22:	80 93 dc 03 	sts	0x03DC, r24
    2e26:	0e 94 eb 15 	call	0x2bd6	; 0x2bd6 <nrk_error_print>
    2e2a:	08 95       	ret

00002e2c <dump_stack_info>:
    2e2c:	6f 92       	push	r6
    2e2e:	7f 92       	push	r7
    2e30:	8f 92       	push	r8
    2e32:	9f 92       	push	r9
    2e34:	af 92       	push	r10
    2e36:	bf 92       	push	r11
    2e38:	cf 92       	push	r12
    2e3a:	df 92       	push	r13
    2e3c:	ef 92       	push	r14
    2e3e:	ff 92       	push	r15
    2e40:	0f 93       	push	r16
    2e42:	1f 93       	push	r17
    2e44:	cf 93       	push	r28
    2e46:	df 93       	push	r29
    2e48:	8a eb       	ldi	r24, 0xBA	; 186
    2e4a:	94 e0       	ldi	r25, 0x04	; 4
    2e4c:	0e 94 57 07 	call	0xeae	; 0xeae <nrk_kprintf>
    2e50:	00 d0       	rcall	.+0      	; 0x2e52 <dump_stack_info+0x26>
    2e52:	00 d0       	rcall	.+0      	; 0x2e54 <dump_stack_info+0x28>
    2e54:	83 e8       	ldi	r24, 0x83	; 131
    2e56:	92 e0       	ldi	r25, 0x02	; 2
    2e58:	ad b7       	in	r26, 0x3d	; 61
    2e5a:	be b7       	in	r27, 0x3e	; 62
    2e5c:	12 96       	adiw	r26, 0x02	; 2
    2e5e:	9c 93       	st	X, r25
    2e60:	8e 93       	st	-X, r24
    2e62:	11 97       	sbiw	r26, 0x01	; 1
    2e64:	e0 91 01 06 	lds	r30, 0x0601
    2e68:	f0 91 02 06 	lds	r31, 0x0602
    2e6c:	80 85       	ldd	r24, Z+8	; 0x08
    2e6e:	99 27       	eor	r25, r25
    2e70:	87 fd       	sbrc	r24, 7
    2e72:	90 95       	com	r25
    2e74:	14 96       	adiw	r26, 0x04	; 4
    2e76:	9c 93       	st	X, r25
    2e78:	8e 93       	st	-X, r24
    2e7a:	13 97       	sbiw	r26, 0x03	; 3
    2e7c:	0e 94 1d 31 	call	0x623a	; 0x623a <printf>
    2e80:	e0 91 01 06 	lds	r30, 0x0601
    2e84:	f0 91 02 06 	lds	r31, 0x0602
    2e88:	c2 81       	ldd	r28, Z+2	; 0x02
    2e8a:	d3 81       	ldd	r29, Z+3	; 0x03
    2e8c:	8c e8       	ldi	r24, 0x8C	; 140
    2e8e:	92 e0       	ldi	r25, 0x02	; 2
    2e90:	ed b7       	in	r30, 0x3d	; 61
    2e92:	fe b7       	in	r31, 0x3e	; 62
    2e94:	92 83       	std	Z+2, r25	; 0x02
    2e96:	81 83       	std	Z+1, r24	; 0x01
    2e98:	d4 83       	std	Z+4, r29	; 0x04
    2e9a:	c3 83       	std	Z+3, r28	; 0x03
    2e9c:	0e 94 1d 31 	call	0x623a	; 0x623a <printf>
    2ea0:	ed b7       	in	r30, 0x3d	; 61
    2ea2:	fe b7       	in	r31, 0x3e	; 62
    2ea4:	31 96       	adiw	r30, 0x01	; 1
    2ea6:	69 e9       	ldi	r22, 0x99	; 153
    2ea8:	e6 2e       	mov	r14, r22
    2eaa:	62 e0       	ldi	r22, 0x02	; 2
    2eac:	f6 2e       	mov	r15, r22
    2eae:	ad b7       	in	r26, 0x3d	; 61
    2eb0:	be b7       	in	r27, 0x3e	; 62
    2eb2:	12 96       	adiw	r26, 0x02	; 2
    2eb4:	fc 92       	st	X, r15
    2eb6:	ee 92       	st	-X, r14
    2eb8:	11 97       	sbiw	r26, 0x01	; 1
    2eba:	88 81       	ld	r24, Y
    2ebc:	82 83       	std	Z+2, r24	; 0x02
    2ebe:	13 82       	std	Z+3, r1	; 0x03
    2ec0:	0e 94 1d 31 	call	0x623a	; 0x623a <printf>
    2ec4:	56 ea       	ldi	r21, 0xA6	; 166
    2ec6:	c5 2e       	mov	r12, r21
    2ec8:	52 e0       	ldi	r21, 0x02	; 2
    2eca:	d5 2e       	mov	r13, r21
    2ecc:	ed b7       	in	r30, 0x3d	; 61
    2ece:	fe b7       	in	r31, 0x3e	; 62
    2ed0:	d2 82       	std	Z+2, r13	; 0x02
    2ed2:	c1 82       	std	Z+1, r12	; 0x01
    2ed4:	e0 91 01 06 	lds	r30, 0x0601
    2ed8:	f0 91 02 06 	lds	r31, 0x0602
    2edc:	80 81       	ld	r24, Z
    2ede:	91 81       	ldd	r25, Z+1	; 0x01
    2ee0:	ad b7       	in	r26, 0x3d	; 61
    2ee2:	be b7       	in	r27, 0x3e	; 62
    2ee4:	14 96       	adiw	r26, 0x04	; 4
    2ee6:	9c 93       	st	X, r25
    2ee8:	8e 93       	st	-X, r24
    2eea:	13 97       	sbiw	r26, 0x03	; 3
    2eec:	0e 94 1d 31 	call	0x623a	; 0x623a <printf>
    2ef0:	40 eb       	ldi	r20, 0xB0	; 176
    2ef2:	a4 2e       	mov	r10, r20
    2ef4:	42 e0       	ldi	r20, 0x02	; 2
    2ef6:	b4 2e       	mov	r11, r20
    2ef8:	ed b7       	in	r30, 0x3d	; 61
    2efa:	fe b7       	in	r31, 0x3e	; 62
    2efc:	b2 82       	std	Z+2, r11	; 0x02
    2efe:	a1 82       	std	Z+1, r10	; 0x01
    2f00:	80 91 01 06 	lds	r24, 0x0601
    2f04:	90 91 02 06 	lds	r25, 0x0602
    2f08:	94 83       	std	Z+4, r25	; 0x04
    2f0a:	83 83       	std	Z+3, r24	; 0x03
    2f0c:	0e 94 1d 31 	call	0x623a	; 0x623a <printf>
    2f10:	0e e3       	ldi	r16, 0x3E	; 62
    2f12:	15 e0       	ldi	r17, 0x05	; 5
    2f14:	0f 90       	pop	r0
    2f16:	0f 90       	pop	r0
    2f18:	0f 90       	pop	r0
    2f1a:	0f 90       	pop	r0
    2f1c:	c0 e0       	ldi	r28, 0x00	; 0
    2f1e:	d0 e0       	ldi	r29, 0x00	; 0
    2f20:	30 ec       	ldi	r19, 0xC0	; 192
    2f22:	63 2e       	mov	r6, r19
    2f24:	32 e0       	ldi	r19, 0x02	; 2
    2f26:	73 2e       	mov	r7, r19
    2f28:	47 01       	movw	r8, r14
    2f2a:	c6 01       	movw	r24, r12
    2f2c:	dc 2c       	mov	r13, r12
    2f2e:	c9 2e       	mov	r12, r25
    2f30:	c5 01       	movw	r24, r10
    2f32:	ba 2c       	mov	r11, r10
    2f34:	a9 2e       	mov	r10, r25
    2f36:	d8 01       	movw	r26, r16
    2f38:	12 96       	adiw	r26, 0x02	; 2
    2f3a:	ed 90       	ld	r14, X+
    2f3c:	fc 90       	ld	r15, X
    2f3e:	13 97       	sbiw	r26, 0x03	; 3
    2f40:	00 d0       	rcall	.+0      	; 0x2f42 <dump_stack_info+0x116>
    2f42:	00 d0       	rcall	.+0      	; 0x2f44 <dump_stack_info+0x118>
    2f44:	00 d0       	rcall	.+0      	; 0x2f46 <dump_stack_info+0x11a>
    2f46:	ed b7       	in	r30, 0x3d	; 61
    2f48:	fe b7       	in	r31, 0x3e	; 62
    2f4a:	31 96       	adiw	r30, 0x01	; 1
    2f4c:	ad b7       	in	r26, 0x3d	; 61
    2f4e:	be b7       	in	r27, 0x3e	; 62
    2f50:	12 96       	adiw	r26, 0x02	; 2
    2f52:	7c 92       	st	X, r7
    2f54:	6e 92       	st	-X, r6
    2f56:	11 97       	sbiw	r26, 0x01	; 1
    2f58:	d3 83       	std	Z+3, r29	; 0x03
    2f5a:	c2 83       	std	Z+2, r28	; 0x02
    2f5c:	f5 82       	std	Z+5, r15	; 0x05
    2f5e:	e4 82       	std	Z+4, r14	; 0x04
    2f60:	0e 94 1d 31 	call	0x623a	; 0x623a <printf>
    2f64:	0f 90       	pop	r0
    2f66:	0f 90       	pop	r0
    2f68:	ed b7       	in	r30, 0x3d	; 61
    2f6a:	fe b7       	in	r31, 0x3e	; 62
    2f6c:	31 96       	adiw	r30, 0x01	; 1
    2f6e:	ad b7       	in	r26, 0x3d	; 61
    2f70:	be b7       	in	r27, 0x3e	; 62
    2f72:	11 96       	adiw	r26, 0x01	; 1
    2f74:	8c 92       	st	X, r8
    2f76:	11 97       	sbiw	r26, 0x01	; 1
    2f78:	12 96       	adiw	r26, 0x02	; 2
    2f7a:	9c 92       	st	X, r9
    2f7c:	d7 01       	movw	r26, r14
    2f7e:	8c 91       	ld	r24, X
    2f80:	82 83       	std	Z+2, r24	; 0x02
    2f82:	13 82       	std	Z+3, r1	; 0x03
    2f84:	0e 94 1d 31 	call	0x623a	; 0x623a <printf>
    2f88:	ed b7       	in	r30, 0x3d	; 61
    2f8a:	fe b7       	in	r31, 0x3e	; 62
    2f8c:	d1 82       	std	Z+1, r13	; 0x01
    2f8e:	c2 82       	std	Z+2, r12	; 0x02
    2f90:	d8 01       	movw	r26, r16
    2f92:	8d 91       	ld	r24, X+
    2f94:	9c 91       	ld	r25, X
    2f96:	94 83       	std	Z+4, r25	; 0x04
    2f98:	83 83       	std	Z+3, r24	; 0x03
    2f9a:	0e 94 1d 31 	call	0x623a	; 0x623a <printf>
    2f9e:	ed b7       	in	r30, 0x3d	; 61
    2fa0:	fe b7       	in	r31, 0x3e	; 62
    2fa2:	b1 82       	std	Z+1, r11	; 0x01
    2fa4:	a2 82       	std	Z+2, r10	; 0x02
    2fa6:	ce 01       	movw	r24, r28
    2fa8:	25 e0       	ldi	r18, 0x05	; 5
    2faa:	88 0f       	add	r24, r24
    2fac:	99 1f       	adc	r25, r25
    2fae:	2a 95       	dec	r18
    2fb0:	e1 f7       	brne	.-8      	; 0x2faa <dump_stack_info+0x17e>
    2fb2:	8c 0f       	add	r24, r28
    2fb4:	9d 1f       	adc	r25, r29
    2fb6:	82 5c       	subi	r24, 0xC2	; 194
    2fb8:	9a 4f       	sbci	r25, 0xFA	; 250
    2fba:	94 83       	std	Z+4, r25	; 0x04
    2fbc:	83 83       	std	Z+3, r24	; 0x03
    2fbe:	0e 94 1d 31 	call	0x623a	; 0x623a <printf>
    2fc2:	21 96       	adiw	r28, 0x01	; 1
    2fc4:	0f 5d       	subi	r16, 0xDF	; 223
    2fc6:	1f 4f       	sbci	r17, 0xFF	; 255
    2fc8:	0f 90       	pop	r0
    2fca:	0f 90       	pop	r0
    2fcc:	0f 90       	pop	r0
    2fce:	0f 90       	pop	r0
    2fd0:	c5 30       	cpi	r28, 0x05	; 5
    2fd2:	d1 05       	cpc	r29, r1
    2fd4:	09 f0       	breq	.+2      	; 0x2fd8 <dump_stack_info+0x1ac>
    2fd6:	af cf       	rjmp	.-162    	; 0x2f36 <dump_stack_info+0x10a>
    2fd8:	df 91       	pop	r29
    2fda:	cf 91       	pop	r28
    2fdc:	1f 91       	pop	r17
    2fde:	0f 91       	pop	r16
    2fe0:	ff 90       	pop	r15
    2fe2:	ef 90       	pop	r14
    2fe4:	df 90       	pop	r13
    2fe6:	cf 90       	pop	r12
    2fe8:	bf 90       	pop	r11
    2fea:	af 90       	pop	r10
    2fec:	9f 90       	pop	r9
    2fee:	8f 90       	pop	r8
    2ff0:	7f 90       	pop	r7
    2ff2:	6f 90       	pop	r6
    2ff4:	08 95       	ret

00002ff6 <nrk_stack_check>:
    2ff6:	cf 93       	push	r28
    2ff8:	df 93       	push	r29
    2ffa:	e0 91 01 06 	lds	r30, 0x0601
    2ffe:	f0 91 02 06 	lds	r31, 0x0602
    3002:	c2 81       	ldd	r28, Z+2	; 0x02
    3004:	d3 81       	ldd	r29, Z+3	; 0x03
    3006:	88 81       	ld	r24, Y
    3008:	85 35       	cpi	r24, 0x55	; 85
    300a:	39 f0       	breq	.+14     	; 0x301a <nrk_stack_check+0x24>
    300c:	0e 94 16 17 	call	0x2e2c	; 0x2e2c <dump_stack_info>
    3010:	81 e0       	ldi	r24, 0x01	; 1
    3012:	0e 94 0a 17 	call	0x2e14	; 0x2e14 <nrk_error_add>
    3016:	85 e5       	ldi	r24, 0x55	; 85
    3018:	88 83       	st	Y, r24
    301a:	e0 91 01 06 	lds	r30, 0x0601
    301e:	f0 91 02 06 	lds	r31, 0x0602
    3022:	80 81       	ld	r24, Z
    3024:	91 81       	ldd	r25, Z+1	; 0x01
    3026:	22 e2       	ldi	r18, 0x22	; 34
    3028:	80 30       	cpi	r24, 0x00	; 0
    302a:	92 07       	cpc	r25, r18
    302c:	28 f0       	brcs	.+10     	; 0x3038 <nrk_stack_check+0x42>
    302e:	0e 94 16 17 	call	0x2e2c	; 0x2e2c <dump_stack_info>
    3032:	82 e1       	ldi	r24, 0x12	; 18
    3034:	0e 94 0a 17 	call	0x2e14	; 0x2e14 <nrk_error_add>
    3038:	df 91       	pop	r29
    303a:	cf 91       	pop	r28
    303c:	08 95       	ret

0000303e <nrk_stack_check_pid>:
    303e:	99 27       	eor	r25, r25
    3040:	87 fd       	sbrc	r24, 7
    3042:	90 95       	com	r25
    3044:	fc 01       	movw	r30, r24
    3046:	75 e0       	ldi	r23, 0x05	; 5
    3048:	ee 0f       	add	r30, r30
    304a:	ff 1f       	adc	r31, r31
    304c:	7a 95       	dec	r23
    304e:	e1 f7       	brne	.-8      	; 0x3048 <nrk_stack_check_pid+0xa>
    3050:	e8 0f       	add	r30, r24
    3052:	f9 1f       	adc	r31, r25
    3054:	e2 5c       	subi	r30, 0xC2	; 194
    3056:	fa 4f       	sbci	r31, 0xFA	; 250
    3058:	a2 81       	ldd	r26, Z+2	; 0x02
    305a:	b3 81       	ldd	r27, Z+3	; 0x03
    305c:	8c 91       	ld	r24, X
    305e:	85 35       	cpi	r24, 0x55	; 85
    3060:	19 f0       	breq	.+6      	; 0x3068 <nrk_stack_check_pid+0x2a>
    3062:	85 e5       	ldi	r24, 0x55	; 85
    3064:	8c 93       	st	X, r24
    3066:	09 c0       	rjmp	.+18     	; 0x307a <nrk_stack_check_pid+0x3c>
    3068:	80 81       	ld	r24, Z
    306a:	91 81       	ldd	r25, Z+1	; 0x01
    306c:	22 e2       	ldi	r18, 0x22	; 34
    306e:	80 30       	cpi	r24, 0x00	; 0
    3070:	92 07       	cpc	r25, r18
    3072:	28 f0       	brcs	.+10     	; 0x307e <nrk_stack_check_pid+0x40>
    3074:	82 e1       	ldi	r24, 0x12	; 18
    3076:	0e 94 0a 17 	call	0x2e14	; 0x2e14 <nrk_error_add>
    307a:	8f ef       	ldi	r24, 0xFF	; 255
    307c:	08 95       	ret
    307e:	81 e0       	ldi	r24, 0x01	; 1
    3080:	08 95       	ret

00003082 <nrk_signal_create>:
    3082:	60 91 01 04 	lds	r22, 0x0401
    3086:	70 91 02 04 	lds	r23, 0x0402
    308a:	80 91 03 04 	lds	r24, 0x0403
    308e:	90 91 04 04 	lds	r25, 0x0404
    3092:	e0 e0       	ldi	r30, 0x00	; 0
    3094:	f0 e0       	ldi	r31, 0x00	; 0
    3096:	9b 01       	movw	r18, r22
    3098:	ac 01       	movw	r20, r24
    309a:	0e 2e       	mov	r0, r30
    309c:	04 c0       	rjmp	.+8      	; 0x30a6 <nrk_signal_create+0x24>
    309e:	56 95       	lsr	r21
    30a0:	47 95       	ror	r20
    30a2:	37 95       	ror	r19
    30a4:	27 95       	ror	r18
    30a6:	0a 94       	dec	r0
    30a8:	d2 f7       	brpl	.-12     	; 0x309e <nrk_signal_create+0x1c>
    30aa:	20 fd       	sbrc	r18, 0
    30ac:	1a c0       	rjmp	.+52     	; 0x30e2 <nrk_signal_create+0x60>
    30ae:	21 e0       	ldi	r18, 0x01	; 1
    30b0:	30 e0       	ldi	r19, 0x00	; 0
    30b2:	40 e0       	ldi	r20, 0x00	; 0
    30b4:	50 e0       	ldi	r21, 0x00	; 0
    30b6:	0e 2e       	mov	r0, r30
    30b8:	04 c0       	rjmp	.+8      	; 0x30c2 <nrk_signal_create+0x40>
    30ba:	22 0f       	add	r18, r18
    30bc:	33 1f       	adc	r19, r19
    30be:	44 1f       	adc	r20, r20
    30c0:	55 1f       	adc	r21, r21
    30c2:	0a 94       	dec	r0
    30c4:	d2 f7       	brpl	.-12     	; 0x30ba <nrk_signal_create+0x38>
    30c6:	26 2b       	or	r18, r22
    30c8:	37 2b       	or	r19, r23
    30ca:	48 2b       	or	r20, r24
    30cc:	59 2b       	or	r21, r25
    30ce:	20 93 01 04 	sts	0x0401, r18
    30d2:	30 93 02 04 	sts	0x0402, r19
    30d6:	40 93 03 04 	sts	0x0403, r20
    30da:	50 93 04 04 	sts	0x0404, r21
    30de:	8e 2f       	mov	r24, r30
    30e0:	08 95       	ret
    30e2:	31 96       	adiw	r30, 0x01	; 1
    30e4:	e0 32       	cpi	r30, 0x20	; 32
    30e6:	f1 05       	cpc	r31, r1
    30e8:	b1 f6       	brne	.-84     	; 0x3096 <nrk_signal_create+0x14>
    30ea:	8f ef       	ldi	r24, 0xFF	; 255
    30ec:	08 95       	ret

000030ee <nrk_signal_get_registered_mask>:
    30ee:	e0 91 01 06 	lds	r30, 0x0601
    30f2:	f0 91 02 06 	lds	r31, 0x0602
    30f6:	65 85       	ldd	r22, Z+13	; 0x0d
    30f8:	76 85       	ldd	r23, Z+14	; 0x0e
    30fa:	87 85       	ldd	r24, Z+15	; 0x0f
    30fc:	90 89       	ldd	r25, Z+16	; 0x10
    30fe:	08 95       	ret

00003100 <nrk_signal_delete>:
    3100:	df 92       	push	r13
    3102:	ef 92       	push	r14
    3104:	ff 92       	push	r15
    3106:	0f 93       	push	r16
    3108:	1f 93       	push	r17
    310a:	d8 2e       	mov	r13, r24
    310c:	81 e0       	ldi	r24, 0x01	; 1
    310e:	e8 2e       	mov	r14, r24
    3110:	f1 2c       	mov	r15, r1
    3112:	01 2d       	mov	r16, r1
    3114:	11 2d       	mov	r17, r1
    3116:	0d 2c       	mov	r0, r13
    3118:	04 c0       	rjmp	.+8      	; 0x3122 <nrk_signal_delete+0x22>
    311a:	ee 0c       	add	r14, r14
    311c:	ff 1c       	adc	r15, r15
    311e:	00 1f       	adc	r16, r16
    3120:	11 1f       	adc	r17, r17
    3122:	0a 94       	dec	r0
    3124:	d2 f7       	brpl	.-12     	; 0x311a <nrk_signal_delete+0x1a>
    3126:	80 91 01 04 	lds	r24, 0x0401
    312a:	90 91 02 04 	lds	r25, 0x0402
    312e:	a0 91 03 04 	lds	r26, 0x0403
    3132:	b0 91 04 04 	lds	r27, 0x0404
    3136:	8e 21       	and	r24, r14
    3138:	9f 21       	and	r25, r15
    313a:	a0 23       	and	r26, r16
    313c:	b1 23       	and	r27, r17
    313e:	00 97       	sbiw	r24, 0x00	; 0
    3140:	a1 05       	cpc	r26, r1
    3142:	b1 05       	cpc	r27, r1
    3144:	09 f4       	brne	.+2      	; 0x3148 <nrk_signal_delete+0x48>
    3146:	5d c0       	rjmp	.+186    	; 0x3202 <nrk_signal_delete+0x102>
    3148:	0e 94 0d 0c 	call	0x181a	; 0x181a <nrk_int_disable>
    314c:	e5 e4       	ldi	r30, 0x45	; 69
    314e:	f5 e0       	ldi	r31, 0x05	; 5
    3150:	a8 01       	movw	r20, r16
    3152:	97 01       	movw	r18, r14
    3154:	20 95       	com	r18
    3156:	30 95       	com	r19
    3158:	40 95       	com	r20
    315a:	50 95       	com	r21
    315c:	63 e0       	ldi	r22, 0x03	; 3
    315e:	81 81       	ldd	r24, Z+1	; 0x01
    3160:	8f 3f       	cpi	r24, 0xFF	; 255
    3162:	39 f1       	breq	.+78     	; 0x31b2 <nrk_signal_delete+0xb2>
    3164:	86 81       	ldd	r24, Z+6	; 0x06
    3166:	97 81       	ldd	r25, Z+7	; 0x07
    3168:	a0 85       	ldd	r26, Z+8	; 0x08
    316a:	b1 85       	ldd	r27, Z+9	; 0x09
    316c:	8e 15       	cp	r24, r14
    316e:	9f 05       	cpc	r25, r15
    3170:	a0 07       	cpc	r26, r16
    3172:	b1 07       	cpc	r27, r17
    3174:	31 f4       	brne	.+12     	; 0x3182 <nrk_signal_delete+0x82>
    3176:	12 86       	std	Z+10, r1	; 0x0a
    3178:	13 86       	std	Z+11, r1	; 0x0b
    317a:	14 86       	std	Z+12, r1	; 0x0c
    317c:	15 86       	std	Z+13, r1	; 0x0d
    317e:	10 82       	st	Z, r1
    3180:	62 83       	std	Z+2, r22	; 0x02
    3182:	86 81       	ldd	r24, Z+6	; 0x06
    3184:	97 81       	ldd	r25, Z+7	; 0x07
    3186:	a0 85       	ldd	r26, Z+8	; 0x08
    3188:	b1 85       	ldd	r27, Z+9	; 0x09
    318a:	82 23       	and	r24, r18
    318c:	93 23       	and	r25, r19
    318e:	a4 23       	and	r26, r20
    3190:	b5 23       	and	r27, r21
    3192:	86 83       	std	Z+6, r24	; 0x06
    3194:	97 83       	std	Z+7, r25	; 0x07
    3196:	a0 87       	std	Z+8, r26	; 0x08
    3198:	b1 87       	std	Z+9, r27	; 0x09
    319a:	82 85       	ldd	r24, Z+10	; 0x0a
    319c:	93 85       	ldd	r25, Z+11	; 0x0b
    319e:	a4 85       	ldd	r26, Z+12	; 0x0c
    31a0:	b5 85       	ldd	r27, Z+13	; 0x0d
    31a2:	82 23       	and	r24, r18
    31a4:	93 23       	and	r25, r19
    31a6:	a4 23       	and	r26, r20
    31a8:	b5 23       	and	r27, r21
    31aa:	82 87       	std	Z+10, r24	; 0x0a
    31ac:	93 87       	std	Z+11, r25	; 0x0b
    31ae:	a4 87       	std	Z+12, r26	; 0x0c
    31b0:	b5 87       	std	Z+13, r27	; 0x0d
    31b2:	b1 96       	adiw	r30, 0x21	; 33
    31b4:	85 e0       	ldi	r24, 0x05	; 5
    31b6:	ea 3e       	cpi	r30, 0xEA	; 234
    31b8:	f8 07       	cpc	r31, r24
    31ba:	89 f6       	brne	.-94     	; 0x315e <nrk_signal_delete+0x5e>
    31bc:	2e ef       	ldi	r18, 0xFE	; 254
    31be:	3f ef       	ldi	r19, 0xFF	; 255
    31c0:	4f ef       	ldi	r20, 0xFF	; 255
    31c2:	5f ef       	ldi	r21, 0xFF	; 255
    31c4:	04 c0       	rjmp	.+8      	; 0x31ce <nrk_signal_delete+0xce>
    31c6:	22 0f       	add	r18, r18
    31c8:	33 1f       	adc	r19, r19
    31ca:	44 1f       	adc	r20, r20
    31cc:	55 1f       	adc	r21, r21
    31ce:	da 94       	dec	r13
    31d0:	d2 f7       	brpl	.-12     	; 0x31c6 <nrk_signal_delete+0xc6>
    31d2:	80 91 01 04 	lds	r24, 0x0401
    31d6:	90 91 02 04 	lds	r25, 0x0402
    31da:	a0 91 03 04 	lds	r26, 0x0403
    31de:	b0 91 04 04 	lds	r27, 0x0404
    31e2:	82 23       	and	r24, r18
    31e4:	93 23       	and	r25, r19
    31e6:	a4 23       	and	r26, r20
    31e8:	b5 23       	and	r27, r21
    31ea:	80 93 01 04 	sts	0x0401, r24
    31ee:	90 93 02 04 	sts	0x0402, r25
    31f2:	a0 93 03 04 	sts	0x0403, r26
    31f6:	b0 93 04 04 	sts	0x0404, r27
    31fa:	0e 94 0f 0c 	call	0x181e	; 0x181e <nrk_int_enable>
    31fe:	81 e0       	ldi	r24, 0x01	; 1
    3200:	01 c0       	rjmp	.+2      	; 0x3204 <nrk_signal_delete+0x104>
    3202:	8f ef       	ldi	r24, 0xFF	; 255
    3204:	1f 91       	pop	r17
    3206:	0f 91       	pop	r16
    3208:	ff 90       	pop	r15
    320a:	ef 90       	pop	r14
    320c:	df 90       	pop	r13
    320e:	08 95       	ret

00003210 <nrk_signal_unregister>:
    3210:	ef 92       	push	r14
    3212:	ff 92       	push	r15
    3214:	0f 93       	push	r16
    3216:	1f 93       	push	r17
    3218:	21 e0       	ldi	r18, 0x01	; 1
    321a:	30 e0       	ldi	r19, 0x00	; 0
    321c:	40 e0       	ldi	r20, 0x00	; 0
    321e:	50 e0       	ldi	r21, 0x00	; 0
    3220:	04 c0       	rjmp	.+8      	; 0x322a <nrk_signal_unregister+0x1a>
    3222:	22 0f       	add	r18, r18
    3224:	33 1f       	adc	r19, r19
    3226:	44 1f       	adc	r20, r20
    3228:	55 1f       	adc	r21, r21
    322a:	8a 95       	dec	r24
    322c:	d2 f7       	brpl	.-12     	; 0x3222 <nrk_signal_unregister+0x12>
    322e:	e0 91 01 06 	lds	r30, 0x0601
    3232:	f0 91 02 06 	lds	r31, 0x0602
    3236:	85 85       	ldd	r24, Z+13	; 0x0d
    3238:	96 85       	ldd	r25, Z+14	; 0x0e
    323a:	a7 85       	ldd	r26, Z+15	; 0x0f
    323c:	b0 89       	ldd	r27, Z+16	; 0x10
    323e:	79 01       	movw	r14, r18
