
main.elf:     file format elf32-avr

Sections:
Idx Name          Size      VMA       LMA       File off  Algn
  0 .data         000002e4  00800100  00008c28  00008cbc  2**0
                  CONTENTS, ALLOC, LOAD, DATA
  1 .text         00008c28  00000000  00000000  00000094  2**1
                  CONTENTS, ALLOC, LOAD, READONLY, CODE
  2 .bss          0000042a  008003e4  008003e4  00008fa0  2**0
                  ALLOC
  3 .stab         00019bc0  00000000  00000000  00008fa0  2**2
                  CONTENTS, READONLY, DEBUGGING
  4 .stabstr      00006e0d  00000000  00000000  00022b60  2**0
                  CONTENTS, READONLY, DEBUGGING

Disassembly of section .text:

00000000 <__vectors>:
       0:	0c 94 c9 04 	jmp	0x992	; 0x992 <__ctors_end>
       4:	0c 94 49 27 	jmp	0x4e92	; 0x4e92 <__vector_1>
       8:	0c 94 e8 04 	jmp	0x9d0	; 0x9d0 <__bad_interrupt>
       c:	0c 94 e8 04 	jmp	0x9d0	; 0x9d0 <__bad_interrupt>
      10:	0c 94 e8 04 	jmp	0x9d0	; 0x9d0 <__bad_interrupt>
      14:	0c 94 e8 04 	jmp	0x9d0	; 0x9d0 <__bad_interrupt>
      18:	0c 94 e8 04 	jmp	0x9d0	; 0x9d0 <__bad_interrupt>
      1c:	0c 94 e8 04 	jmp	0x9d0	; 0x9d0 <__bad_interrupt>
      20:	0c 94 e8 04 	jmp	0x9d0	; 0x9d0 <__bad_interrupt>
      24:	0c 94 ec 26 	jmp	0x4dd8	; 0x4dd8 <__vector_9>
      28:	0c 94 e8 04 	jmp	0x9d0	; 0x9d0 <__bad_interrupt>
      2c:	0c 94 e8 04 	jmp	0x9d0	; 0x9d0 <__bad_interrupt>
      30:	0c 94 e8 04 	jmp	0x9d0	; 0x9d0 <__bad_interrupt>
      34:	0c 94 e8 04 	jmp	0x9d0	; 0x9d0 <__bad_interrupt>
      38:	0c 94 e8 04 	jmp	0x9d0	; 0x9d0 <__bad_interrupt>
      3c:	0c 94 68 26 	jmp	0x4cd0	; 0x4cd0 <__vector_15>
      40:	0c 94 68 26 	jmp	0x4cd0	; 0x4cd0 <__vector_15>
      44:	0c 94 e8 04 	jmp	0x9d0	; 0x9d0 <__bad_interrupt>
      48:	0c 94 e8 04 	jmp	0x9d0	; 0x9d0 <__bad_interrupt>
      4c:	0c 94 e8 04 	jmp	0x9d0	; 0x9d0 <__bad_interrupt>
      50:	0c 94 e8 04 	jmp	0x9d0	; 0x9d0 <__bad_interrupt>
      54:	0c 94 e8 04 	jmp	0x9d0	; 0x9d0 <__bad_interrupt>
      58:	0c 94 e8 04 	jmp	0x9d0	; 0x9d0 <__bad_interrupt>
      5c:	0c 94 e8 04 	jmp	0x9d0	; 0x9d0 <__bad_interrupt>
      60:	0c 94 e8 04 	jmp	0x9d0	; 0x9d0 <__bad_interrupt>
      64:	0c 94 e8 04 	jmp	0x9d0	; 0x9d0 <__bad_interrupt>
      68:	0c 94 e8 04 	jmp	0x9d0	; 0x9d0 <__bad_interrupt>
      6c:	0c 94 e8 04 	jmp	0x9d0	; 0x9d0 <__bad_interrupt>
      70:	0c 94 e8 04 	jmp	0x9d0	; 0x9d0 <__bad_interrupt>
      74:	0c 94 e8 04 	jmp	0x9d0	; 0x9d0 <__bad_interrupt>
      78:	0c 94 e8 04 	jmp	0x9d0	; 0x9d0 <__bad_interrupt>
      7c:	0c 94 e8 04 	jmp	0x9d0	; 0x9d0 <__bad_interrupt>
      80:	0c 94 e8 04 	jmp	0x9d0	; 0x9d0 <__bad_interrupt>
      84:	0c 94 e8 04 	jmp	0x9d0	; 0x9d0 <__bad_interrupt>
      88:	0c 94 e8 04 	jmp	0x9d0	; 0x9d0 <__bad_interrupt>
      8c:	cd 16       	cp	r12, r29
      8e:	d3 16       	cp	r13, r19
      90:	d6 16       	cp	r13, r22
      92:	d9 16       	cp	r13, r25
      94:	dc 16       	cp	r13, r28
      96:	df 16       	cp	r13, r31
      98:	e5 16       	cp	r14, r21
      9a:	e2 16       	cp	r14, r18
      9c:	e8 16       	cp	r14, r24
      9e:	eb 16       	cp	r14, r27
      a0:	ee 16       	cp	r14, r30
      a2:	f7 16       	cp	r15, r23
      a4:	fa 16       	cp	r15, r26
      a6:	fd 16       	cp	r15, r29
      a8:	00 17       	cp	r16, r16
      aa:	f4 16       	cp	r15, r20
      ac:	ca 16       	cp	r12, r26
      ae:	d0 16       	cp	r13, r16
      b0:	03 17       	cp	r16, r19
      b2:	06 17       	cp	r16, r22
      b4:	f1 16       	cp	r15, r17
      b6:	c7 16       	cp	r12, r23
      b8:	08 00       	.word	0x0008	; ????
      ba:	00 00       	nop
      bc:	be 92       	st	-X, r11
      be:	24 49       	sbci	r18, 0x94	; 148
      c0:	12 3e       	cpi	r17, 0xE2	; 226
      c2:	ab aa       	std	Y+51, r10	; 0x33
      c4:	aa 2a       	or	r10, r26
      c6:	be cd       	rjmp	.-1156   	; 0xfffffc44 <__eeprom_end+0xff7efc44>
      c8:	cc cc       	rjmp	.-1640   	; 0xfffffa62 <__eeprom_end+0xff7efa62>
      ca:	4c 3e       	cpi	r20, 0xEC	; 236
      cc:	00 00       	nop
      ce:	00 80       	ld	r0, Z
      d0:	be ab       	std	Y+54, r27	; 0x36
      d2:	aa aa       	std	Y+50, r10	; 0x32
      d4:	aa 3e       	cpi	r26, 0xEA	; 234
      d6:	00 00       	nop
      d8:	00 00       	nop
      da:	bf 00       	.word	0x00bf	; ????
      dc:	00 00       	nop
      de:	80 3f       	cpi	r24, 0xF0	; 240
      e0:	00 00       	nop
      e2:	00 00       	nop
      e4:	00 08       	sbc	r0, r0
      e6:	41 78       	andi	r20, 0x81	; 129
      e8:	d3 bb       	out	0x13, r29	; 19
      ea:	43 87       	std	Z+11, r20	; 0x0b
      ec:	d1 13       	cpse	r29, r17
      ee:	3d 19       	sub	r19, r13
      f0:	0e 3c       	cpi	r16, 0xCE	; 206
      f2:	c3 bd       	out	0x23, r28	; 35
      f4:	42 82       	std	Z+2, r4	; 0x02
      f6:	ad 2b       	or	r26, r29
      f8:	3e 68       	ori	r19, 0x8E	; 142
      fa:	ec 82       	std	Y+4, r14	; 0x04
      fc:	76 be       	out	0x36, r7	; 54
      fe:	d9 8f       	std	Y+25, r29	; 0x19
     100:	e1 a9       	ldd	r30, Z+49	; 0x31
     102:	3e 4c       	sbci	r19, 0xCE	; 206
     104:	80 ef       	ldi	r24, 0xF0	; 240
     106:	ff be       	out	0x3f, r15	; 63
     108:	01 c4       	rjmp	.+2050   	; 0x90c <__c.1863+0x78>
     10a:	ff 7f       	andi	r31, 0xFF	; 255
     10c:	3f 00       	.word	0x003f	; ????
     10e:	00 00       	nop
     110:	00 00       	nop
     112:	07 63       	ori	r16, 0x37	; 55
     114:	42 36       	cpi	r20, 0x62	; 98
     116:	b7 9b       	sbis	0x16, 7	; 22
     118:	d8 a7       	std	Y+40, r29	; 0x28
     11a:	1a 39       	cpi	r17, 0x9A	; 154
     11c:	68 56       	subi	r22, 0x68	; 104
     11e:	18 ae       	std	Y+56, r1	; 0x38
     120:	ba ab       	std	Y+50, r27	; 0x32
     122:	55 8c       	ldd	r5, Z+29	; 0x1d
     124:	1d 3c       	cpi	r17, 0xCD	; 205
     126:	b7 cc       	rjmp	.-1682   	; 0xfffffa96 <__eeprom_end+0xff7efa96>
     128:	57 63       	ori	r21, 0x37	; 55
     12a:	bd 6d       	ori	r27, 0xDD	; 221
     12c:	ed fd       	.word	0xfded	; ????
     12e:	75 3e       	cpi	r23, 0xE5	; 229
     130:	f6 17       	cp	r31, r22
     132:	72 31       	cpi	r23, 0x12	; 18
     134:	bf 00       	.word	0x00bf	; ????
     136:	00 00       	nop
     138:	80 3f       	cpi	r24, 0xF0	; 240

0000013a <__c.2206>:
     13a:	55 4e 4b 4f 57 4e 00                                UNKOWN.

00000141 <__c.2203>:
     141:	45 78 74 65 72 6e 61 6c 20 52 65 73 65 74 00        External Reset.

00000150 <__c.2200>:
     150:	42 72 6f 77 6e 20 4f 75 74 20 44 65 74 65 63 74     Brown Out Detect
	...

00000161 <__c.2197>:
     161:	46 61 69 6c 65 64 20 74 6f 20 63 72 65 61 74 65     Failed to create
     171:	20 53 65 6d 61 70 68 6f 72 65 00                     Semaphore.

0000017c <__c.2194>:
     17c:	46 61 69 6c 65 64 20 74 6f 20 63 72 65 61 74 65     Failed to create
     18c:	20 53 69 67 6e 61 6c 00                              Signal.

00000194 <__c.2191>:
     194:	4b 65 72 6e 65 6c 20 66 75 6e 63 74 69 6f 6e 20     Kernel function 
     1a4:	6e 6f 74 20 69 6d 70 6c 65 6d 65 6e 74 65 64 00     not implemented.

000001b4 <__c.2188>:
     1b4:	44 65 76 69 63 65 20 44 72 69 76 65 72 20 45 72     Device Driver Er
     1c4:	72 6f 72 00                                         ror.

000001c8 <__c.2185>:
     1c8:	57 61 74 63 68 64 6f 67 20 52 65 73 74 61 72 74     Watchdog Restart
	...

000001d9 <__c.2182>:
     1d9:	53 57 20 57 61 74 63 68 64 6f 67 20 52 65 73 74     SW Watchdog Rest
     1e9:	61 72 74 00                                         art.

000001ed <__c.2179>:
     1ed:	54 69 6d 65 72 20 4f 76 65 72 66 6c 6f 77 00        Timer Overflow.

000001fc <__c.2176>:
     1fc:	55 6e 68 61 6e 64 6c 65 64 20 49 6e 74 65 72 72     Unhandled Interr
     20c:	75 70 74 20 56 65 63 74 6f 72 00                    upt Vector.

00000217 <__c.2173>:
     217:	4c 6f 77 20 56 6f 6c 74 61 67 65 00                 Low Voltage.

00000223 <__c.2170>:
     223:	45 78 74 72 61 20 54 61 73 6b 20 73 74 61 72 74     Extra Task start
     233:	65 64 2c 20 69 73 20 6e 72 6b 5f 63 66 67 2e 68     ed, is nrk_cfg.h
     243:	20 6f 6b 3f 00                                       ok?.

00000248 <__c.2167>:
     248:	49 64 6c 65 20 6f 72 20 4b 65 72 6e 65 6c 20 53     Idle or Kernel S
     258:	74 61 63 6b 20 4f 76 65 72 66 6c 6f 77 00           tack Overflow.

00000266 <__c.2164>:
     266:	55 6e 65 78 70 65 63 74 65 64 20 52 65 73 74 61     Unexpected Resta
     276:	72 74 00                                            rt.

00000279 <__c.2161>:
     279:	44 75 70 6c 69 63 61 74 65 64 20 54 61 73 6b 20     Duplicated Task 
     289:	49 44 00                                            ID.

0000028c <__c.2158>:
     28c:	53 63 68 65 64 75 6c 65 72 20 4d 69 73 73 65 64     Scheduler Missed
     29c:	20 57 61 6b 65 75 70 00                              Wakeup.

000002a4 <__c.2155>:
     2a4:	54 61 73 6b 20 52 65 73 65 72 76 65 20 56 69 6f     Task Reserve Vio
     2b4:	6c 61 74 65 64 00                                   lated.

000002ba <__c.2152>:
     2ba:	52 65 73 65 72 76 65 20 45 72 72 6f 72 20 69 6e     Reserve Error in
     2ca:	20 53 63 68 65 64 75 6c 65 72 00                     Scheduler.

000002d5 <__c.2149>:
     2d5:	49 6e 76 61 6c 69 64 20 53 74 61 63 6b 20 50 6f     Invalid Stack Po
     2e5:	69 6e 74 65 72 00                                   inter.

000002eb <__c.2146>:
     2eb:	54 61 73 6b 20 53 74 61 63 6b 20 4f 76 65 72 66     Task Stack Overf
     2fb:	6c 6f 77 00                                         low.

000002ff <__c.2143>:
     2ff:	53 74 61 63 6b 20 77 61 73 20 6e 6f 74 20 64 65     Stack was not de
     30f:	66 69 6e 65 64 20 61 73 20 6c 61 72 67 65 20 65     fined as large e
     31f:	6e 6f 75 67 68 21 00                                nough!.

00000326 <__c.2139>:
     326:	54 61 73 6b 20 70 65 72 69 6f 64 20 74 6f 6f 20     Task period too 
     336:	6c 61 72 67 65 2e 20 50 65 72 69 6f 64 20 6d 75     large. Period mu
     346:	73 74 20 62 65 20 6c 65 73 73 20 74 68 61 6e 20     st be less than 
     356:	36 31 20 73 65 63 6f 6e 64 73 2e 00                 61 seconds..

00000362 <__c.2136>:
     362:	29 3a 20 00                                         ): .

00000366 <__c.2134>:
     366:	2a 4e 52 4b 20 45 52 52 4f 52 28 00                 *NRK ERROR(.

00000372 <__c.2059>:
     372:	0d 0a 53 54 41 43 4b 20 44 55 4d 50 0d 0a 00        ..STACK DUMP...

00000381 <__c.2136>:
     381:	0a 0d 00                                            ...

00000384 <__c.2131>:
     384:	6e 72 6b 5f 71 75 65 75 65 3a 20 00                 nrk_queue: .

00000390 <font5x7>:
     390:	08 08 2a 1c 08 08 1c 2a 08 08 40 44 4a 51 40 40     ..*....*..@DJQ@@
     3a0:	51 4a 44 40 14 74 1c 17 14 10 20 7f 01 01 00 00     QJD@.t.... .....
	...
     3b8:	08 1c 2c 08 08 7f 01 01 01 01 01 01 01 01 7f 7f     ..,.............
     3c8:	40 40 40 40 40 40 40 40 7f 00 00 00 00 00 00 00     @@@@@@@@........
	...
     3e0:	79 11 27 11 79 00 00 00 00 00 00 00 00 00 00 00     y.'.y...........
     3f0:	00 00 00 00 7f 01 01 01 03 60 50 48 44 7e 3e 49     .........`PHD~>I
     400:	49 49 3e 70 0c 03 0c 70 63 49 49 49 63 01 7f 01     II>p...pcIIIc...
     410:	7f 01 63 55 49 41 41 06 01 7e 01 06 08 55 7f 55     ..cUIAA..~...U.U
     420:	08 0f 10 7f 10 0f 4e 71 01 71 4e 38 44 44 38 44     ......Nq.qN8DD8D
     430:	00 00 00 00 00 00 00 5f 00 00 03 00 03 00 00 14     ......._........
     440:	3e 14 3e 14 26 49 7f 49 32 62 15 2a 54 23 36 49     >.>.&I.I2b.*T#6I
     450:	56 20 50 00 03 00 00 00 00 1c 22 41 00 00 41 22     V P......."A..A"
     460:	1c 00 00 14 0e 14 00 08 08 3e 08 08 00 60 00 00     .........>...`..
     470:	00 08 08 08 08 00 00 40 00 00 00 60 10 08 04 03     .......@...`....
     480:	3e 41 41 41 3e 04 02 7f 00 00 62 51 49 45 42 22     >AAA>.....bQIEB"
     490:	41 49 49 36 0c 0b 08 7e 08 4f 49 49 49 31 3e 49     AII6...~.OIII1>I
     4a0:	49 49 32 61 11 09 05 03 36 49 49 49 36 26 49 49     II2a....6III6&II
     4b0:	49 3e 00 22 00 00 00 00 61 00 00 00 08 14 14 22     I>."....a......"
     4c0:	22 14 14 14 14 14 22 22 14 14 08 06 01 59 05 02     "....."".....Y..
     4d0:	3e 41 5d 55 5e 7e 09 09 09 7e 7f 49 49 49 36 3e     >A]U^~...~.III6>
     4e0:	41 41 41 22 7f 41 41 41 3e 7f 49 49 49 41 7f 09     AAA".AAA>.IIIA..
     4f0:	09 09 01 3e 41 49 49 32 7f 08 08 08 7f 00 00 7f     ...>AII2........
     500:	00 00 20 40 40 40 3f 7f 08 14 22 41 7f 40 40 40     .. @@@?..."A.@@@
     510:	00 7f 02 04 02 7f 7f 02 1c 20 7f 3e 41 41 41 3e     ......... .>AAA>
     520:	7f 09 09 09 06 3e 41 51 61 7e 7f 09 19 29 46 26     .....>AQa~...)F&
     530:	49 49 49 32 01 01 7f 01 01 3f 40 40 40 3f 1f 20     III2.....?@@@?. 
     540:	40 20 1f 3f 40 30 40 3f 63 14 08 14 63 03 04 78     @ .?@0@?c...c..x
     550:	04 03 61 51 49 45 43 7f 41 00 00 00 00 00 00 00     ..aQIEC.A.......
     560:	00 00 00 00 41 7f 06 01 06 00 00 40 40 40 40 40     ....A......@@@@@
     570:	01 02 00 00 00 20 54 54 54 78 7f 48 48 48 30 38     ..... TTTx.HHH08
     580:	44 44 44 28 38 44 44 44 7f 38 54 54 54 18 08 7e     DDD(8DDD.8TTT..~
     590:	09 09 01 0c 52 52 52 3e 7f 04 04 04 78 04 7d 40     ....RRR>....x.}@
     5a0:	40 20 20 40 40 44 3d 00 7f 10 28 44 20 3e 51 49     @  @@D=...(D >QI
     5b0:	46 7c 04 7c 04 78 7c 08 04 04 78 38 44 44 44 38     F|.|.x|...x8DDD8
     5c0:	7e 12 12 12 0c 0c 12 12 12 7e 04 78 04 04 08 48     ~........~.x...H
     5d0:	54 54 54 24 04 3f 44 44 40 3c 40 40 3c 40 1c 20     TTT$.?DD@<@@<@. 
     5e0:	40 20 1c 3c 40 30 40 3c 44 28 10 28 44 26 48 48     @ .<@0@<D(.(D&HH
     5f0:	48 3e 44 64 54 4c 44 00 08 3e 41 00 00 00 7f 00     H>DdTLD..>A.....
     600:	00 00 41 3e 08 00 00 00 00 00 00 00 00 00 00 00     ..A>............
	...
     61c:	00 00 00 20 48 3e 09 02 00 00 00 00 00 00 00 00     ... H>..........
     62c:	00 00 04 04 7f 04 04 00 00 00 00 00 00 00 00 00     ................
	...
     66c:	00 00 00 02 04 01 02 00 00 00 00 00 00 00 18 18     ................
	...
     6b4:	00 00 00 79 00 00 00 00 00 00 00 48 7e 49 49 42     ...y.......H~IIB
     6c4:	00 00 00 00 00 15 16 7c 16 15 00 00 00 00 00 0a     .......|........
     6d4:	55 55 55 28 00 01 00 01 00 3e 63 5d 6b 3e 00 00     UUU(.....>c]k>..
     6e4:	00 00 00 08 14 2a 14 22 00 00 00 00 00 00 00 00     .....*."........
     6f4:	00 00 3e 41 75 4b 3e 01 01 01 01 01 00 02 05 02     ..>AuK>.........
	...
     71c:	00 00 06 0f 7f 01 7f 00 00 00 00 00 00 00 00 00     ................
     72c:	00 00 00 00 00 00 07 05 07 00 00 22 14 2a 14 08     ...........".*..
     73c:	0f 00 3c 20 78 0f 00 48 64 58 00 00 00 00 00 30     ..< x..HdX.....0
     74c:	48 45 40 20 00 00 00 00 00 00 00 00 00 00 00 00     HE@ ............
     75c:	00 00 00 72 29 29 2a 71 78 25 24 25 78 70 2a 25     ...r))*qx%$%xp*%
     76c:	2a 70 7e 09 7f 49 49 0e 51 51 71 11 00 00 00 00     *p~..II.QQq.....
     77c:	00 7c 54 56 55 44 00 00 00 00 00 00 00 00 00 00     .|TVUD..........
	...
     7a4:	00 7a 09 11 22 79 00 00 00 00 00 00 00 00 00 00     .z.."y..........
     7b4:	00 00 00 00 00 3a 45 45 46 39 3d 42 42 42 3d 22     .....:EEF9=BBB="
     7c4:	14 08 14 22 5c 32 2a 26 1d 00 00 00 00 00 00 00     ..."\2*&........
	...
     7dc:	3c 41 40 41 3c 00 00 00 00 00 00 00 00 00 00 00     <A@A<...........
     7ec:	00 00 00 00 20 55 56 54 78 20 54 56 55 78 20 56     .... UVTx TVUx V
     7fc:	55 56 78 22 51 55 56 79 20 55 54 55 78 00 00 00     UVx"QUVy UTUx...
     80c:	00 00 24 54 78 54 58 0c 52 52 72 12 38 55 56 54     ..$TxTX.RRr.8UVT
     81c:	18 38 54 56 55 18 38 56 55 56 18 38 55 54 55 18     .8TVU.8VUV.8UTU.
     82c:	00 49 7a 40 00 00 48 7a 41 00 00 4a 79 42 00 00     .Iz@..HzA..JyB..
     83c:	4a 78 42 00 00 00 00 00 00 7a 11 09 0a 71 30 49     JxB......z...q0I
     84c:	4a 48 30 30 48 4a 49 30 30 4a 49 4a 30 32 49 49     JH00HJI00JIJ02II
     85c:	4a 31 30 4a 48 4a 30 08 08 2a 08 08 18 64 3c 26     J10JHJ0..*...d<&
     86c:	18 38 41 42 20 78 38 40 42 21 78 38 42 41 22 78     .8AB x8@B!x8BA"x
     87c:	38 42 40 22 78 00 00 00 00 00 00 00 00 00 00 0c     8B@"x...........
     88c:	51 50 51 3c                                         QPQ<

00000890 <__c.1865>:
     890:	6e 61 6e 00                                         nan.

00000894 <__c.1863>:
     894:	69 6e 66 00 00 40 7a 10 f3 5a 00 a0 72 4e 18 09     inf..@z..Z..rN..
     8a4:	00 10 a5 d4 e8 00 00 e8 76 48 17 00 00 e4 0b 54     ........vH.....T
     8b4:	02 00 00 ca 9a 3b 00 00 00 e1 f5 05 00 00 80 96     .....;..........
     8c4:	98 00 00 00 40 42 0f 00 00 00 a0 86 01 00 00 00     ....@B..........
     8d4:	10 27 00 00 00 00 e8 03 00 00 00 00 64 00 00 00     .'..........d...
     8e4:	00 00 0a 00 00 00 00 00 01 00 00 00 00 00 2c 76     ..............,v
     8f4:	d8 88 dc 67 4f 08 23 df c1 df ae 59 e1 b1 b7 96     ...gO.#....Y....
     904:	e5 e3 e4 53 c6 3a e6 51 99 76 96 e8 e6 c2 84 26     ...S.:.Q.v.....&
     914:	eb 89 8c 9b 62 ed 40 7c 6f fc ef bc 9c 9f 40 f2     ....b.@|o.....@.
     924:	ba a5 6f a5 f4 90 05 5a 2a f7 5c 93 6b 6c f9 67     ..o....Z*.\.kl.g
     934:	6d c1 1b fc e0 e4 0d 47 fe f5 20 e6 b5 00 d0 ed     m......G.. .....
     944:	90 2e 03 00 94 35 77 05 00 80 84 1e 08 00 00 20     .....5w........ 
     954:	4e 0a 00 00 00 c8 0c 33 33 33 33 0f 98 6e 12 83     N......3333..n..
     964:	11 41 ef 8d 21 14 89 3b e6 55 16 cf fe e6 db 18     .A..!..;.U......
     974:	d1 84 4b 38 1b f7 7c 1d 90 1d a4 bb e4 24 20 32     ..K8..|......$ 2
     984:	84 72 5e 22 81 00 c9 f1 24 ec a1 e5 3d 27           .r^"....$...='

00000992 <__ctors_end>:
     992:	11 24       	eor	r1, r1
     994:	1f be       	out	0x3f, r1	; 63
     996:	cf ef       	ldi	r28, 0xFF	; 255
     998:	d0 e1       	ldi	r29, 0x10	; 16
     99a:	de bf       	out	0x3e, r29	; 62
     99c:	cd bf       	out	0x3d, r28	; 61

0000099e <__do_copy_data>:
     99e:	13 e0       	ldi	r17, 0x03	; 3
     9a0:	a0 e0       	ldi	r26, 0x00	; 0
     9a2:	b1 e0       	ldi	r27, 0x01	; 1
     9a4:	e8 e2       	ldi	r30, 0x28	; 40
     9a6:	fc e8       	ldi	r31, 0x8C	; 140
     9a8:	00 e0       	ldi	r16, 0x00	; 0
     9aa:	0b bf       	out	0x3b, r16	; 59
     9ac:	02 c0       	rjmp	.+4      	; 0x9b2 <__do_copy_data+0x14>
     9ae:	07 90       	elpm	r0, Z+
     9b0:	0d 92       	st	X+, r0
     9b2:	a4 3e       	cpi	r26, 0xE4	; 228
     9b4:	b1 07       	cpc	r27, r17
     9b6:	d9 f7       	brne	.-10     	; 0x9ae <__do_copy_data+0x10>

000009b8 <__do_clear_bss>:
     9b8:	18 e0       	ldi	r17, 0x08	; 8
     9ba:	a4 ee       	ldi	r26, 0xE4	; 228
     9bc:	b3 e0       	ldi	r27, 0x03	; 3
     9be:	01 c0       	rjmp	.+2      	; 0x9c2 <.do_clear_bss_start>

000009c0 <.do_clear_bss_loop>:
     9c0:	1d 92       	st	X+, r1

000009c2 <.do_clear_bss_start>:
     9c2:	ae 30       	cpi	r26, 0x0E	; 14
     9c4:	b1 07       	cpc	r27, r17
     9c6:	e1 f7       	brne	.-8      	; 0x9c0 <.do_clear_bss_loop>
     9c8:	0e 94 20 06 	call	0xc40	; 0xc40 <main>
     9cc:	0c 94 12 46 	jmp	0x8c24	; 0x8c24 <_exit>

000009d0 <__bad_interrupt>:
     9d0:	0c 94 3e 26 	jmp	0x4c7c	; 0x4c7c <__vector_default>

000009d4 <task_3_func>:
nrk_activate_task(&task_##n)						

//"Instantiate" tasks.
TASK(1, 6, 3);
TASK(2, 5, 1);
TASK(3, 7, 1);
     9d4:	ef 92       	push	r14
     9d6:	ff 92       	push	r15
     9d8:	0f 93       	push	r16
     9da:	1f 93       	push	r17
     9dc:	cf 93       	push	r28
     9de:	df 93       	push	r29
     9e0:	80 e0       	ldi	r24, 0x00	; 0
     9e2:	e8 2e       	mov	r14, r24
     9e4:	81 e0       	ldi	r24, 0x01	; 1
     9e6:	f8 2e       	mov	r15, r24
     9e8:	c3 e0       	ldi	r28, 0x03	; 3
     9ea:	d0 e0       	ldi	r29, 0x00	; 0
     9ec:	00 e3       	ldi	r16, 0x30	; 48
     9ee:	11 e0       	ldi	r17, 0x01	; 1
     9f0:	00 d0       	rcall	.+0      	; 0x9f2 <task_3_func+0x1e>
     9f2:	00 d0       	rcall	.+0      	; 0x9f4 <task_3_func+0x20>
     9f4:	ed b7       	in	r30, 0x3d	; 61
     9f6:	fe b7       	in	r31, 0x3e	; 62
     9f8:	f2 82       	std	Z+2, r15	; 0x02
     9fa:	e1 82       	std	Z+1, r14	; 0x01
     9fc:	d4 83       	std	Z+4, r29	; 0x04
     9fe:	c3 83       	std	Z+3, r28	; 0x03
     a00:	0e 94 ac 43 	call	0x8758	; 0x8758 <printf>
     a04:	0f 90       	pop	r0
     a06:	0f 90       	pop	r0
     a08:	0f 90       	pop	r0
     a0a:	0f 90       	pop	r0
     a0c:	0e 94 f5 41 	call	0x83ea	; 0x83ea <rand>
     a10:	80 e2       	ldi	r24, 0x20	; 32
     a12:	91 e0       	ldi	r25, 0x01	; 1
     a14:	0e 94 be 43 	call	0x877c	; 0x877c <puts>
     a18:	00 d0       	rcall	.+0      	; 0xa1a <task_3_func+0x46>
     a1a:	00 d0       	rcall	.+0      	; 0xa1c <task_3_func+0x48>
     a1c:	ed b7       	in	r30, 0x3d	; 61
     a1e:	fe b7       	in	r31, 0x3e	; 62
     a20:	12 83       	std	Z+2, r17	; 0x02
     a22:	01 83       	std	Z+1, r16	; 0x01
     a24:	d4 83       	std	Z+4, r29	; 0x04
     a26:	c3 83       	std	Z+3, r28	; 0x03
     a28:	0e 94 ac 43 	call	0x8758	; 0x8758 <printf>
     a2c:	0f 90       	pop	r0
     a2e:	0f 90       	pop	r0
     a30:	0f 90       	pop	r0
     a32:	0f 90       	pop	r0
     a34:	0e 94 8e 1f 	call	0x3f1c	; 0x3f1c <nrk_wait_until_next_period>
     a38:	db cf       	rjmp	.-74     	; 0x9f0 <task_3_func+0x1c>

00000a3a <task_2_func>:
nrk_task_set_stk(&task_##n, stack_##n, NRK_APP_STACKSIZE);              \
nrk_activate_task(&task_##n)						

//"Instantiate" tasks.
TASK(1, 6, 3);
TASK(2, 5, 1);
     a3a:	2f 92       	push	r2
     a3c:	3f 92       	push	r3
     a3e:	4f 92       	push	r4
     a40:	5f 92       	push	r5
     a42:	6f 92       	push	r6
     a44:	7f 92       	push	r7
     a46:	8f 92       	push	r8
     a48:	9f 92       	push	r9
     a4a:	af 92       	push	r10
     a4c:	bf 92       	push	r11
     a4e:	cf 92       	push	r12
     a50:	df 92       	push	r13
     a52:	ef 92       	push	r14
     a54:	ff 92       	push	r15
     a56:	0f 93       	push	r16
     a58:	1f 93       	push	r17
     a5a:	cf 93       	push	r28
     a5c:	df 93       	push	r29
     a5e:	e0 91 d5 07 	lds	r30, 0x07D5
     a62:	f0 91 d6 07 	lds	r31, 0x07D6
     a66:	80 85       	ldd	r24, Z+8	; 0x08
     a68:	99 27       	eor	r25, r25
     a6a:	87 fd       	sbrc	r24, 7
     a6c:	90 95       	com	r25
     a6e:	e0 e0       	ldi	r30, 0x00	; 0
     a70:	8e 2e       	mov	r8, r30
     a72:	e1 e0       	ldi	r30, 0x01	; 1
     a74:	9e 2e       	mov	r9, r30
     a76:	72 e0       	ldi	r23, 0x02	; 2
     a78:	a7 2e       	mov	r10, r23
     a7a:	b1 2c       	mov	r11, r1
     a7c:	6f e4       	ldi	r22, 0x4F	; 79
     a7e:	66 2e       	mov	r6, r22
     a80:	61 e0       	ldi	r22, 0x01	; 1
     a82:	76 2e       	mov	r7, r22
     a84:	50 ed       	ldi	r21, 0xD0	; 208
     a86:	45 2e       	mov	r4, r21
     a88:	57 e0       	ldi	r21, 0x07	; 7
     a8a:	55 2e       	mov	r5, r21
     a8c:	42 e6       	ldi	r20, 0x62	; 98
     a8e:	24 2e       	mov	r2, r20
     a90:	41 e0       	ldi	r20, 0x01	; 1
     a92:	34 2e       	mov	r3, r20
     a94:	6c 01       	movw	r12, r24
     a96:	cc 0c       	add	r12, r12
     a98:	dd 1c       	adc	r13, r13
     a9a:	25 e0       	ldi	r18, 0x05	; 5
     a9c:	88 0f       	add	r24, r24
     a9e:	99 1f       	adc	r25, r25
     aa0:	2a 95       	dec	r18
     aa2:	e1 f7       	brne	.-8      	; 0xa9c <task_2_func+0x62>
     aa4:	c8 0e       	add	r12, r24
     aa6:	d9 1e       	adc	r13, r25
     aa8:	81 e2       	ldi	r24, 0x21	; 33
     aaa:	97 e0       	ldi	r25, 0x07	; 7
     aac:	c8 0e       	add	r12, r24
     aae:	d9 1e       	adc	r13, r25
     ab0:	00 d0       	rcall	.+0      	; 0xab2 <task_2_func+0x78>
     ab2:	00 d0       	rcall	.+0      	; 0xab4 <task_2_func+0x7a>
     ab4:	ad b7       	in	r26, 0x3d	; 61
     ab6:	be b7       	in	r27, 0x3e	; 62
     ab8:	12 96       	adiw	r26, 0x02	; 2
     aba:	9c 92       	st	X, r9
     abc:	8e 92       	st	-X, r8
     abe:	11 97       	sbiw	r26, 0x01	; 1
     ac0:	14 96       	adiw	r26, 0x04	; 4
     ac2:	bc 92       	st	X, r11
     ac4:	ae 92       	st	-X, r10
     ac6:	13 97       	sbiw	r26, 0x03	; 3
     ac8:	0e 94 ac 43 	call	0x8758	; 0x8758 <printf>
     acc:	0f 90       	pop	r0
     ace:	0f 90       	pop	r0
     ad0:	0f 90       	pop	r0
     ad2:	0f 90       	pop	r0
     ad4:	0e 94 f5 41 	call	0x83ea	; 0x83ea <rand>
     ad8:	7c 01       	movw	r14, r24
     ada:	ee 0c       	add	r14, r14
     adc:	ff 1c       	adc	r15, r15
     ade:	ee 0c       	add	r14, r14
     ae0:	ff 1c       	adc	r15, r15
     ae2:	00 27       	eor	r16, r16
     ae4:	f7 fc       	sbrc	r15, 7
     ae6:	00 95       	com	r16
     ae8:	10 2f       	mov	r17, r16
     aea:	17 ff       	sbrs	r17, 7
     aec:	08 c0       	rjmp	.+16     	; 0xafe <task_2_func+0xc4>
     aee:	10 95       	com	r17
     af0:	00 95       	com	r16
     af2:	f0 94       	com	r15
     af4:	e0 94       	com	r14
     af6:	e1 1c       	adc	r14, r1
     af8:	f1 1c       	adc	r15, r1
     afa:	01 1d       	adc	r16, r1
     afc:	11 1d       	adc	r17, r1
     afe:	00 d0       	rcall	.+0      	; 0xb00 <task_2_func+0xc6>
     b00:	00 d0       	rcall	.+0      	; 0xb02 <task_2_func+0xc8>
     b02:	00 d0       	rcall	.+0      	; 0xb04 <task_2_func+0xca>
     b04:	ed b7       	in	r30, 0x3d	; 61
     b06:	fe b7       	in	r31, 0x3e	; 62
     b08:	72 82       	std	Z+2, r7	; 0x02
     b0a:	61 82       	std	Z+1, r6	; 0x01
     b0c:	ad b7       	in	r26, 0x3d	; 61
     b0e:	be b7       	in	r27, 0x3e	; 62
     b10:	13 96       	adiw	r26, 0x03	; 3
     b12:	ed 92       	st	X+, r14
     b14:	fd 92       	st	X+, r15
     b16:	0d 93       	st	X+, r16
     b18:	1c 93       	st	X, r17
     b1a:	16 97       	sbiw	r26, 0x06	; 6
     b1c:	0e 94 ac 43 	call	0x8758	; 0x8758 <printf>
     b20:	ed b7       	in	r30, 0x3d	; 61
     b22:	fe b7       	in	r31, 0x3e	; 62
     b24:	36 96       	adiw	r30, 0x06	; 6
     b26:	0f b6       	in	r0, 0x3f	; 63
     b28:	f8 94       	cli
     b2a:	fe bf       	out	0x3e, r31	; 62
     b2c:	0f be       	out	0x3f, r0	; 63
     b2e:	ed bf       	out	0x3d, r30	; 61
     b30:	c0 e0       	ldi	r28, 0x00	; 0
     b32:	d0 e0       	ldi	r29, 0x00	; 0
     b34:	35 c0       	rjmp	.+106    	; 0xba0 <task_2_func+0x166>
     b36:	ce 01       	movw	r24, r28
     b38:	b2 01       	movw	r22, r4
     b3a:	0e 94 3b 41 	call	0x8276	; 0x8276 <__divmodhi4>
     b3e:	00 97       	sbiw	r24, 0x00	; 0
     b40:	71 f5       	brne	.+92     	; 0xb9e <task_2_func+0x164>
     b42:	00 d0       	rcall	.+0      	; 0xb44 <task_2_func+0x10a>
     b44:	00 d0       	rcall	.+0      	; 0xb46 <task_2_func+0x10c>
     b46:	ad b7       	in	r26, 0x3d	; 61
     b48:	be b7       	in	r27, 0x3e	; 62
     b4a:	12 96       	adiw	r26, 0x02	; 2
     b4c:	3c 92       	st	X, r3
     b4e:	2e 92       	st	-X, r2
     b50:	11 97       	sbiw	r26, 0x01	; 1
     b52:	f6 01       	movw	r30, r12
     b54:	80 81       	ld	r24, Z
     b56:	91 81       	ldd	r25, Z+1	; 0x01
     b58:	14 96       	adiw	r26, 0x04	; 4
     b5a:	9c 93       	st	X, r25
     b5c:	8e 93       	st	-X, r24
     b5e:	13 97       	sbiw	r26, 0x03	; 3
     b60:	0e 94 ac 43 	call	0x8758	; 0x8758 <printf>
     b64:	00 d0       	rcall	.+0      	; 0xb66 <task_2_func+0x12c>
     b66:	00 d0       	rcall	.+0      	; 0xb68 <task_2_func+0x12e>
     b68:	ed b7       	in	r30, 0x3d	; 61
     b6a:	fe b7       	in	r31, 0x3e	; 62
     b6c:	31 96       	adiw	r30, 0x01	; 1
     b6e:	84 e7       	ldi	r24, 0x74	; 116
     b70:	91 e0       	ldi	r25, 0x01	; 1
     b72:	ad b7       	in	r26, 0x3d	; 61
     b74:	be b7       	in	r27, 0x3e	; 62
     b76:	12 96       	adiw	r26, 0x02	; 2
     b78:	9c 93       	st	X, r25
     b7a:	8e 93       	st	-X, r24
     b7c:	11 97       	sbiw	r26, 0x01	; 1
     b7e:	d3 83       	std	Z+3, r29	; 0x03
     b80:	c2 83       	std	Z+2, r28	; 0x02
     b82:	e4 82       	std	Z+4, r14	; 0x04
     b84:	f5 82       	std	Z+5, r15	; 0x05
     b86:	06 83       	std	Z+6, r16	; 0x06
     b88:	17 83       	std	Z+7, r17	; 0x07
     b8a:	0e 94 ac 43 	call	0x8758	; 0x8758 <printf>
     b8e:	ad b7       	in	r26, 0x3d	; 61
     b90:	be b7       	in	r27, 0x3e	; 62
     b92:	18 96       	adiw	r26, 0x08	; 8
     b94:	0f b6       	in	r0, 0x3f	; 63
     b96:	f8 94       	cli
     b98:	be bf       	out	0x3e, r27	; 62
     b9a:	0f be       	out	0x3f, r0	; 63
     b9c:	ad bf       	out	0x3d, r26	; 61
     b9e:	21 96       	adiw	r28, 0x01	; 1
     ba0:	ce 01       	movw	r24, r28
     ba2:	aa 27       	eor	r26, r26
     ba4:	97 fd       	sbrc	r25, 7
     ba6:	a0 95       	com	r26
     ba8:	ba 2f       	mov	r27, r26
     baa:	e8 16       	cp	r14, r24
     bac:	f9 06       	cpc	r15, r25
     bae:	0a 07       	cpc	r16, r26
     bb0:	1b 07       	cpc	r17, r27
     bb2:	0c f6       	brge	.-126    	; 0xb36 <task_2_func+0xfc>
     bb4:	00 d0       	rcall	.+0      	; 0xbb6 <task_2_func+0x17c>
     bb6:	00 d0       	rcall	.+0      	; 0xbb8 <task_2_func+0x17e>
     bb8:	80 e3       	ldi	r24, 0x30	; 48
     bba:	91 e0       	ldi	r25, 0x01	; 1
     bbc:	ed b7       	in	r30, 0x3d	; 61
     bbe:	fe b7       	in	r31, 0x3e	; 62
     bc0:	92 83       	std	Z+2, r25	; 0x02
     bc2:	81 83       	std	Z+1, r24	; 0x01
     bc4:	b4 82       	std	Z+4, r11	; 0x04
     bc6:	a3 82       	std	Z+3, r10	; 0x03
     bc8:	0e 94 ac 43 	call	0x8758	; 0x8758 <printf>
     bcc:	0f 90       	pop	r0
     bce:	0f 90       	pop	r0
     bd0:	0f 90       	pop	r0
     bd2:	0f 90       	pop	r0
     bd4:	0e 94 8e 1f 	call	0x3f1c	; 0x3f1c <nrk_wait_until_next_period>
     bd8:	6b cf       	rjmp	.-298    	; 0xab0 <task_2_func+0x76>

00000bda <task_1_func>:
nrk_task_set_entry_function(&task_##n, task_##n##_func);            \
nrk_task_set_stk(&task_##n, stack_##n, NRK_APP_STACKSIZE);              \
nrk_activate_task(&task_##n)						

//"Instantiate" tasks.
TASK(1, 6, 3);
     bda:	ef 92       	push	r14
     bdc:	ff 92       	push	r15
     bde:	0f 93       	push	r16
     be0:	1f 93       	push	r17
     be2:	cf 93       	push	r28
     be4:	df 93       	push	r29
     be6:	f0 e0       	ldi	r31, 0x00	; 0
     be8:	ef 2e       	mov	r14, r31
     bea:	f1 e0       	ldi	r31, 0x01	; 1
     bec:	ff 2e       	mov	r15, r31
     bee:	c1 e0       	ldi	r28, 0x01	; 1
     bf0:	d0 e0       	ldi	r29, 0x00	; 0
     bf2:	00 e3       	ldi	r16, 0x30	; 48
     bf4:	11 e0       	ldi	r17, 0x01	; 1
     bf6:	00 d0       	rcall	.+0      	; 0xbf8 <task_1_func+0x1e>
     bf8:	00 d0       	rcall	.+0      	; 0xbfa <task_1_func+0x20>
     bfa:	ed b7       	in	r30, 0x3d	; 61
     bfc:	fe b7       	in	r31, 0x3e	; 62
     bfe:	f2 82       	std	Z+2, r15	; 0x02
     c00:	e1 82       	std	Z+1, r14	; 0x01
     c02:	d4 83       	std	Z+4, r29	; 0x04
     c04:	c3 83       	std	Z+3, r28	; 0x03
     c06:	0e 94 ac 43 	call	0x8758	; 0x8758 <printf>
     c0a:	0f 90       	pop	r0
     c0c:	0f 90       	pop	r0
     c0e:	0f 90       	pop	r0
     c10:	0f 90       	pop	r0
     c12:	0e 94 f5 41 	call	0x83ea	; 0x83ea <rand>
     c16:	80 e2       	ldi	r24, 0x20	; 32
     c18:	91 e0       	ldi	r25, 0x01	; 1
     c1a:	0e 94 be 43 	call	0x877c	; 0x877c <puts>
     c1e:	00 d0       	rcall	.+0      	; 0xc20 <task_1_func+0x46>
     c20:	00 d0       	rcall	.+0      	; 0xc22 <task_1_func+0x48>
     c22:	ed b7       	in	r30, 0x3d	; 61
     c24:	fe b7       	in	r31, 0x3e	; 62
     c26:	12 83       	std	Z+2, r17	; 0x02
     c28:	01 83       	std	Z+1, r16	; 0x01
     c2a:	d4 83       	std	Z+4, r29	; 0x04
     c2c:	c3 83       	std	Z+3, r28	; 0x03
     c2e:	0e 94 ac 43 	call	0x8758	; 0x8758 <printf>
     c32:	0f 90       	pop	r0
     c34:	0f 90       	pop	r0
     c36:	0f 90       	pop	r0
     c38:	0f 90       	pop	r0
     c3a:	0e 94 8e 1f 	call	0x3f1c	; 0x3f1c <nrk_wait_until_next_period>
     c3e:	db cf       	rjmp	.-74     	; 0xbf6 <task_1_func+0x1c>

00000c40 <main>:
TASK(3, 7, 1);

nrk_time_t *seed;

int main ()
{
     c40:	0f 93       	push	r16
     c42:	1f 93       	push	r17
     c44:	cf 93       	push	r28
     c46:	df 93       	push	r29
    nrk_setup_ports();
     c48:	0e 94 29 12 	call	0x2452	; 0x2452 <nrk_setup_ports>
    nrk_setup_uart(UART_BAUDRATE_115K2);
     c4c:	87 e0       	ldi	r24, 0x07	; 7
     c4e:	90 e0       	ldi	r25, 0x00	; 0
     c50:	0e 94 78 12 	call	0x24f0	; 0x24f0 <nrk_setup_uart>

    nrk_init();
     c54:	0e 94 67 13 	call	0x26ce	; 0x26ce <nrk_init>

    nrk_time_set(0,0);
     c58:	60 e0       	ldi	r22, 0x00	; 0
     c5a:	70 e0       	ldi	r23, 0x00	; 0
     c5c:	cb 01       	movw	r24, r22
     c5e:	20 e0       	ldi	r18, 0x00	; 0
     c60:	30 e0       	ldi	r19, 0x00	; 0
     c62:	a9 01       	movw	r20, r18
     c64:	0e 94 92 21 	call	0x4324	; 0x4324 <nrk_time_set>

    nrk_time_get(seed);
     c68:	80 91 9e 05 	lds	r24, 0x059E
     c6c:	90 91 9f 05 	lds	r25, 0x059F
     c70:	0e 94 27 20 	call	0x404e	; 0x404e <nrk_time_get>
    srand(seed->nano_secs);
     c74:	e0 91 9e 05 	lds	r30, 0x059E
     c78:	f0 91 9f 05 	lds	r31, 0x059F
     c7c:	64 81       	ldd	r22, Z+4	; 0x04
     c7e:	75 81       	ldd	r23, Z+5	; 0x05
     c80:	86 81       	ldd	r24, Z+6	; 0x06
     c82:	97 81       	ldd	r25, Z+7	; 0x07
     c84:	0e 94 fa 41 	call	0x83f4	; 0x83f4 <srand>

    //Initialize tasks 
    //Higher value higher priority`
    INITIALIZE_TASK(1, BASIC_TASK);
     c88:	11 e0       	ldi	r17, 0x01	; 1
     c8a:	10 93 4f 06 	sts	0x064F, r17
     c8e:	10 93 50 06 	sts	0x0650, r17
     c92:	10 93 51 06 	sts	0x0651, r17
     c96:	10 93 52 06 	sts	0x0652, r17
     c9a:	80 91 9b 01 	lds	r24, 0x019B
     c9e:	90 91 9c 01 	lds	r25, 0x019C
     ca2:	a0 91 9d 01 	lds	r26, 0x019D
     ca6:	b0 91 9e 01 	lds	r27, 0x019E
     caa:	80 93 53 06 	sts	0x0653, r24
     cae:	90 93 54 06 	sts	0x0654, r25
     cb2:	a0 93 55 06 	sts	0x0655, r26
     cb6:	b0 93 56 06 	sts	0x0656, r27
     cba:	10 92 57 06 	sts	0x0657, r1
     cbe:	10 92 58 06 	sts	0x0658, r1
     cc2:	10 92 59 06 	sts	0x0659, r1
     cc6:	10 92 5a 06 	sts	0x065A, r1
     cca:	80 91 9f 01 	lds	r24, 0x019F
     cce:	90 91 a0 01 	lds	r25, 0x01A0
     cd2:	a0 91 a1 01 	lds	r26, 0x01A1
     cd6:	b0 91 a2 01 	lds	r27, 0x01A2
     cda:	80 93 5b 06 	sts	0x065B, r24
     cde:	90 93 5c 06 	sts	0x065C, r25
     ce2:	a0 93 5d 06 	sts	0x065D, r26
     ce6:	b0 93 5e 06 	sts	0x065E, r27
     cea:	10 92 5f 06 	sts	0x065F, r1
     cee:	10 92 60 06 	sts	0x0660, r1
     cf2:	10 92 61 06 	sts	0x0661, r1
     cf6:	10 92 62 06 	sts	0x0662, r1
     cfa:	10 92 63 06 	sts	0x0663, r1
     cfe:	10 92 64 06 	sts	0x0664, r1
     d02:	10 92 65 06 	sts	0x0665, r1
     d06:	10 92 66 06 	sts	0x0666, r1
     d0a:	10 92 67 06 	sts	0x0667, r1
     d0e:	10 92 68 06 	sts	0x0668, r1
     d12:	10 92 69 06 	sts	0x0669, r1
     d16:	10 92 6a 06 	sts	0x066A, r1
     d1a:	c8 e4       	ldi	r28, 0x48	; 72
     d1c:	d6 e0       	ldi	r29, 0x06	; 6
     d1e:	ce 01       	movw	r24, r28
     d20:	6d ee       	ldi	r22, 0xED	; 237
     d22:	75 e0       	ldi	r23, 0x05	; 5
     d24:	0e 94 98 27 	call	0x4f30	; 0x4f30 <nrk_task_set_entry_function>
     d28:	ce 01       	movw	r24, r28
     d2a:	65 ef       	ldi	r22, 0xF5	; 245
     d2c:	73 e0       	ldi	r23, 0x03	; 3
     d2e:	40 e8       	ldi	r20, 0x80	; 128
     d30:	50 e0       	ldi	r21, 0x00	; 0
     d32:	0e 94 de 27 	call	0x4fbc	; 0x4fbc <nrk_task_set_stk>
     d36:	ce 01       	movw	r24, r28
     d38:	0e 94 d6 1d 	call	0x3bac	; 0x3bac <nrk_activate_task>
    INITIALIZE_TASK(2, CBS_TASK);
     d3c:	10 93 fe 04 	sts	0x04FE, r17
     d40:	82 e0       	ldi	r24, 0x02	; 2
     d42:	80 93 ff 04 	sts	0x04FF, r24
     d46:	03 e0       	ldi	r16, 0x03	; 3
     d48:	00 93 00 05 	sts	0x0500, r16
     d4c:	10 93 01 05 	sts	0x0501, r17
     d50:	80 91 a3 01 	lds	r24, 0x01A3
     d54:	90 91 a4 01 	lds	r25, 0x01A4
     d58:	a0 91 a5 01 	lds	r26, 0x01A5
     d5c:	b0 91 a6 01 	lds	r27, 0x01A6
     d60:	80 93 02 05 	sts	0x0502, r24
     d64:	90 93 03 05 	sts	0x0503, r25
     d68:	a0 93 04 05 	sts	0x0504, r26
     d6c:	b0 93 05 05 	sts	0x0505, r27
     d70:	10 92 06 05 	sts	0x0506, r1
     d74:	10 92 07 05 	sts	0x0507, r1
     d78:	10 92 08 05 	sts	0x0508, r1
     d7c:	10 92 09 05 	sts	0x0509, r1
     d80:	80 91 a7 01 	lds	r24, 0x01A7
     d84:	90 91 a8 01 	lds	r25, 0x01A8
     d88:	a0 91 a9 01 	lds	r26, 0x01A9
     d8c:	b0 91 aa 01 	lds	r27, 0x01AA
     d90:	80 93 0a 05 	sts	0x050A, r24
     d94:	90 93 0b 05 	sts	0x050B, r25
     d98:	a0 93 0c 05 	sts	0x050C, r26
     d9c:	b0 93 0d 05 	sts	0x050D, r27
     da0:	10 92 0e 05 	sts	0x050E, r1
     da4:	10 92 0f 05 	sts	0x050F, r1
     da8:	10 92 10 05 	sts	0x0510, r1
     dac:	10 92 11 05 	sts	0x0511, r1
     db0:	10 92 12 05 	sts	0x0512, r1
     db4:	10 92 13 05 	sts	0x0513, r1
     db8:	10 92 14 05 	sts	0x0514, r1
     dbc:	10 92 15 05 	sts	0x0515, r1
     dc0:	10 92 16 05 	sts	0x0516, r1
     dc4:	10 92 17 05 	sts	0x0517, r1
     dc8:	10 92 18 05 	sts	0x0518, r1
     dcc:	10 92 19 05 	sts	0x0519, r1
     dd0:	c7 ef       	ldi	r28, 0xF7	; 247
     dd2:	d4 e0       	ldi	r29, 0x04	; 4
     dd4:	ce 01       	movw	r24, r28
     dd6:	6d e1       	ldi	r22, 0x1D	; 29
     dd8:	75 e0       	ldi	r23, 0x05	; 5
     dda:	0e 94 98 27 	call	0x4f30	; 0x4f30 <nrk_task_set_entry_function>
     dde:	ce 01       	movw	r24, r28
     de0:	60 ea       	ldi	r22, 0xA0	; 160
     de2:	75 e0       	ldi	r23, 0x05	; 5
     de4:	40 e8       	ldi	r20, 0x80	; 128
     de6:	50 e0       	ldi	r21, 0x00	; 0
     de8:	0e 94 de 27 	call	0x4fbc	; 0x4fbc <nrk_task_set_stk>
     dec:	ce 01       	movw	r24, r28
     dee:	0e 94 d6 1d 	call	0x3bac	; 0x3bac <nrk_activate_task>
    INITIALIZE_TASK(3, BASIC_TASK);
     df2:	10 93 29 06 	sts	0x0629, r17
     df6:	00 93 2a 06 	sts	0x062A, r16
     dfa:	10 93 2b 06 	sts	0x062B, r17
     dfe:	10 93 2c 06 	sts	0x062C, r17
     e02:	80 91 ab 01 	lds	r24, 0x01AB
     e06:	90 91 ac 01 	lds	r25, 0x01AC
     e0a:	a0 91 ad 01 	lds	r26, 0x01AD
     e0e:	b0 91 ae 01 	lds	r27, 0x01AE
     e12:	80 93 2d 06 	sts	0x062D, r24
     e16:	90 93 2e 06 	sts	0x062E, r25
     e1a:	a0 93 2f 06 	sts	0x062F, r26
     e1e:	b0 93 30 06 	sts	0x0630, r27
     e22:	10 92 31 06 	sts	0x0631, r1
     e26:	10 92 32 06 	sts	0x0632, r1
     e2a:	10 92 33 06 	sts	0x0633, r1
     e2e:	10 92 34 06 	sts	0x0634, r1
     e32:	80 91 af 01 	lds	r24, 0x01AF
     e36:	90 91 b0 01 	lds	r25, 0x01B0
     e3a:	a0 91 b1 01 	lds	r26, 0x01B1
     e3e:	b0 91 b2 01 	lds	r27, 0x01B2
     e42:	80 93 35 06 	sts	0x0635, r24
     e46:	90 93 36 06 	sts	0x0636, r25
     e4a:	a0 93 37 06 	sts	0x0637, r26
     e4e:	b0 93 38 06 	sts	0x0638, r27
     e52:	10 92 39 06 	sts	0x0639, r1
     e56:	10 92 3a 06 	sts	0x063A, r1
     e5a:	10 92 3b 06 	sts	0x063B, r1
     e5e:	10 92 3c 06 	sts	0x063C, r1
     e62:	10 92 3d 06 	sts	0x063D, r1
     e66:	10 92 3e 06 	sts	0x063E, r1
     e6a:	10 92 3f 06 	sts	0x063F, r1
     e6e:	10 92 40 06 	sts	0x0640, r1
     e72:	10 92 41 06 	sts	0x0641, r1
     e76:	10 92 42 06 	sts	0x0642, r1
     e7a:	10 92 43 06 	sts	0x0643, r1
     e7e:	10 92 44 06 	sts	0x0644, r1
     e82:	c2 e2       	ldi	r28, 0x22	; 34
     e84:	d6 e0       	ldi	r29, 0x06	; 6
     e86:	ce 01       	movw	r24, r28
     e88:	6a ee       	ldi	r22, 0xEA	; 234
     e8a:	74 e0       	ldi	r23, 0x04	; 4
     e8c:	0e 94 98 27 	call	0x4f30	; 0x4f30 <nrk_task_set_entry_function>
     e90:	ce 01       	movw	r24, r28
     e92:	66 e7       	ldi	r22, 0x76	; 118
     e94:	74 e0       	ldi	r23, 0x04	; 4
     e96:	40 e8       	ldi	r20, 0x80	; 128
     e98:	50 e0       	ldi	r21, 0x00	; 0
     e9a:	0e 94 de 27 	call	0x4fbc	; 0x4fbc <nrk_task_set_stk>
     e9e:	ce 01       	movw	r24, r28
     ea0:	0e 94 d6 1d 	call	0x3bac	; 0x3bac <nrk_activate_task>

    nrk_start();
     ea4:	0e 94 2d 14 	call	0x285a	; 0x285a <nrk_start>

    return 0;
}
     ea8:	80 e0       	ldi	r24, 0x00	; 0
     eaa:	90 e0       	ldi	r25, 0x00	; 0
     eac:	df 91       	pop	r29
     eae:	cf 91       	pop	r28
     eb0:	1f 91       	pop	r17
     eb2:	0f 91       	pop	r16
     eb4:	08 95       	ret

00000eb6 <halRfSetChannel>:
void halRfSetChannel(uint8_t channel)
{
    uint16_t f;

    // Derive frequency programming from the given channel number
    f = (uint16_t) (channel - 11); // Subtract the base channel
     eb6:	90 e0       	ldi	r25, 0x00	; 0
     eb8:	9c 01       	movw	r18, r24
     eba:	2b 50       	subi	r18, 0x0B	; 11
     ebc:	30 40       	sbci	r19, 0x00	; 0
    f = f + (f << 2);    		 // Multiply with 5, which is the channel spacing
     ebe:	22 0f       	add	r18, r18
     ec0:	33 1f       	adc	r19, r19
     ec2:	22 0f       	add	r18, r18
     ec4:	33 1f       	adc	r19, r19
     ec6:	86 5a       	subi	r24, 0xA6	; 166
     ec8:	9e 4b       	sbci	r25, 0xBE	; 190
    f = f + 357 + 0x4000;		 // 357 is 2405-2048, 0x4000 is LOCK_THR = 1
     eca:	82 0f       	add	r24, r18
     ecc:	93 1f       	adc	r25, r19

    // Write it to the CC2420
    DISABLE_GLOBAL_INT();
     ece:	f8 94       	cli
    FASTSPI_SETREG(CC2420_FSCTRL, f);
     ed0:	c0 98       	cbi	0x18, 0	; 24
     ed2:	28 e1       	ldi	r18, 0x18	; 24
     ed4:	2f b9       	out	0x0f, r18	; 15
     ed6:	77 9b       	sbis	0x0e, 7	; 14
     ed8:	fe cf       	rjmp	.-4      	; 0xed6 <halRfSetChannel+0x20>
     eda:	9f b9       	out	0x0f, r25	; 15
     edc:	77 9b       	sbis	0x0e, 7	; 14
     ede:	fe cf       	rjmp	.-4      	; 0xedc <halRfSetChannel+0x26>
     ee0:	8f b9       	out	0x0f, r24	; 15
     ee2:	77 9b       	sbis	0x0e, 7	; 14
     ee4:	fe cf       	rjmp	.-4      	; 0xee2 <halRfSetChannel+0x2c>
     ee6:	c0 9a       	sbi	0x18, 0	; 24
    ENABLE_GLOBAL_INT();
     ee8:	78 94       	sei

} // rfSetChannel
     eea:	08 95       	ret

00000eec <halRfWaitForCrystalOscillator>:
    uint8_t spiStatusByte;

    // Poll the SPI status byte until the crystal oscillator is stable
    do
    {
        DISABLE_GLOBAL_INT();
     eec:	f8 94       	cli
        FASTSPI_UPD_STATUS(spiStatusByte);
     eee:	c0 98       	cbi	0x18, 0	; 24
     ef0:	1f b8       	out	0x0f, r1	; 15
     ef2:	77 9b       	sbis	0x0e, 7	; 14
     ef4:	fe cf       	rjmp	.-4      	; 0xef2 <halRfWaitForCrystalOscillator+0x6>
     ef6:	8f b1       	in	r24, 0x0f	; 15
     ef8:	c0 9a       	sbi	0x18, 0	; 24
        ENABLE_GLOBAL_INT();
     efa:	78 94       	sei
    }
    while (!(spiStatusByte & (BM(CC2420_XOSC16M_STABLE))));
     efc:	86 ff       	sbrs	r24, 6
     efe:	f6 cf       	rjmp	.-20     	; 0xeec <halRfWaitForCrystalOscillator>

} // halRfWaitForCrystalOscillator
     f00:	08 95       	ret

00000f02 <cc259x_rx>:

#define OSC_STARTUP_DELAY	1000

void cc259x_rx()
{
    nrk_gpio_set(NRK_DEBUG_1);
     f02:	80 91 cd 01 	lds	r24, 0x01CD
     f06:	0e 94 5b 10 	call	0x20b6	; 0x20b6 <nrk_gpio_set>
    nrk_gpio_clr(NRK_DEBUG_0);
     f0a:	80 91 cc 01 	lds	r24, 0x01CC
     f0e:	0e 94 a1 10 	call	0x2142	; 0x2142 <nrk_gpio_clr>
}
     f12:	08 95       	ret

00000f14 <cc259x_tx>:


void cc259x_tx()
{
    nrk_gpio_set(NRK_DEBUG_1);
     f14:	80 91 cd 01 	lds	r24, 0x01CD
     f18:	0e 94 5b 10 	call	0x20b6	; 0x20b6 <nrk_gpio_set>
    nrk_gpio_set(NRK_DEBUG_0);
     f1c:	80 91 cc 01 	lds	r24, 0x01CC
     f20:	0e 94 5b 10 	call	0x20b6	; 0x20b6 <nrk_gpio_set>
}
     f24:	08 95       	ret

00000f26 <rf_power_down>:
uint8_t tx_ctr[4];
uint8_t rx_ctr[4];

void rf_power_down()
{
    DISABLE_GLOBAL_INT();
     f26:	f8 94       	cli
    FASTSPI_STROBE(CC2420_SXOSCOFF);
     f28:	c0 98       	cbi	0x18, 0	; 24
     f2a:	87 e0       	ldi	r24, 0x07	; 7
     f2c:	8f b9       	out	0x0f, r24	; 15
     f2e:	77 9b       	sbis	0x0e, 7	; 14
     f30:	fe cf       	rjmp	.-4      	; 0xf2e <rf_power_down+0x8>
     f32:	c0 9a       	sbi	0x18, 0	; 24
    FASTSPI_STROBE(CC2420_SRFOFF);  // shut off radio
     f34:	c0 98       	cbi	0x18, 0	; 24
     f36:	86 e0       	ldi	r24, 0x06	; 6
     f38:	8f b9       	out	0x0f, r24	; 15
     f3a:	77 9b       	sbis	0x0e, 7	; 14
     f3c:	fe cf       	rjmp	.-4      	; 0xf3a <rf_power_down+0x14>
     f3e:	c0 9a       	sbi	0x18, 0	; 24
    ENABLE_GLOBAL_INT();
     f40:	78 94       	sei
}
     f42:	08 95       	ret

00000f44 <rf_power_up>:

void rf_power_up()
{

    DISABLE_GLOBAL_INT();
     f44:	f8 94       	cli
    FASTSPI_STROBE(CC2420_SXOSCON);
     f46:	c0 98       	cbi	0x18, 0	; 24
     f48:	81 e0       	ldi	r24, 0x01	; 1
     f4a:	8f b9       	out	0x0f, r24	; 15
     f4c:	77 9b       	sbis	0x0e, 7	; 14
     f4e:	fe cf       	rjmp	.-4      	; 0xf4c <rf_power_up+0x8>
     f50:	c0 9a       	sbi	0x18, 0	; 24
    nrk_spin_wait_us(OSC_STARTUP_DELAY);
     f52:	88 ee       	ldi	r24, 0xE8	; 232
     f54:	93 e0       	ldi	r25, 0x03	; 3
     f56:	0e 94 a5 25 	call	0x4b4a	; 0x4b4a <nrk_spin_wait_us>
    ENABLE_GLOBAL_INT();
     f5a:	78 94       	sei

}
     f5c:	08 95       	ret

00000f5e <rf_security_last_pkt_status>:

// Returns 1 if the last packet was encrypted, 0 otherwise
uint8_t rf_security_last_pkt_status()
{
    return last_pkt_encrypted;
}
     f5e:	80 91 00 07 	lds	r24, 0x0700
     f62:	08 95       	ret

00000f64 <rf_security_set_ctr_counter>:


void rf_security_set_ctr_counter(uint8_t *counter)
{
     f64:	fc 01       	movw	r30, r24
    uint8_t n;
// CTR counter value
    FASTSPI_WRITE_RAM(&counter[0],(CC2420RAM_TXNONCE+9),2,n);
     f66:	c0 98       	cbi	0x18, 0	; 24
     f68:	89 ec       	ldi	r24, 0xC9	; 201
     f6a:	8f b9       	out	0x0f, r24	; 15
     f6c:	77 9b       	sbis	0x0e, 7	; 14
     f6e:	fe cf       	rjmp	.-4      	; 0xf6c <rf_security_set_ctr_counter+0x8>
     f70:	80 e8       	ldi	r24, 0x80	; 128
     f72:	8f b9       	out	0x0f, r24	; 15
     f74:	77 9b       	sbis	0x0e, 7	; 14
     f76:	fe cf       	rjmp	.-4      	; 0xf74 <rf_security_set_ctr_counter+0x10>
     f78:	82 e0       	ldi	r24, 0x02	; 2
     f7a:	81 50       	subi	r24, 0x01	; 1
     f7c:	df 01       	movw	r26, r30
     f7e:	a8 0f       	add	r26, r24
     f80:	b1 1d       	adc	r27, r1
     f82:	9c 91       	ld	r25, X
     f84:	9f b9       	out	0x0f, r25	; 15
     f86:	77 9b       	sbis	0x0e, 7	; 14
     f88:	fe cf       	rjmp	.-4      	; 0xf86 <rf_security_set_ctr_counter+0x22>
     f8a:	88 23       	and	r24, r24
     f8c:	b1 f7       	brne	.-20     	; 0xf7a <rf_security_set_ctr_counter+0x16>
     f8e:	c0 9a       	sbi	0x18, 0	; 24
    FASTSPI_WRITE_RAM(&counter[2],(CC2420RAM_TXNONCE+11),2,n);
     f90:	c0 98       	cbi	0x18, 0	; 24
     f92:	8b ec       	ldi	r24, 0xCB	; 203
     f94:	8f b9       	out	0x0f, r24	; 15
     f96:	77 9b       	sbis	0x0e, 7	; 14
     f98:	fe cf       	rjmp	.-4      	; 0xf96 <rf_security_set_ctr_counter+0x32>
     f9a:	80 e8       	ldi	r24, 0x80	; 128
     f9c:	8f b9       	out	0x0f, r24	; 15
     f9e:	77 9b       	sbis	0x0e, 7	; 14
     fa0:	fe cf       	rjmp	.-4      	; 0xf9e <rf_security_set_ctr_counter+0x3a>
     fa2:	82 e0       	ldi	r24, 0x02	; 2
     fa4:	81 50       	subi	r24, 0x01	; 1
     fa6:	df 01       	movw	r26, r30
     fa8:	a8 0f       	add	r26, r24
     faa:	b1 1d       	adc	r27, r1
     fac:	12 96       	adiw	r26, 0x02	; 2
     fae:	9c 91       	ld	r25, X
     fb0:	12 97       	sbiw	r26, 0x02	; 2
     fb2:	9f b9       	out	0x0f, r25	; 15
     fb4:	77 9b       	sbis	0x0e, 7	; 14
     fb6:	fe cf       	rjmp	.-4      	; 0xfb4 <rf_security_set_ctr_counter+0x50>
     fb8:	88 23       	and	r24, r24
     fba:	a1 f7       	brne	.-24     	; 0xfa4 <rf_security_set_ctr_counter+0x40>
     fbc:	c0 9a       	sbi	0x18, 0	; 24
    tx_ctr[0]=counter[0];
     fbe:	80 81       	ld	r24, Z
     fc0:	80 93 01 07 	sts	0x0701, r24
    tx_ctr[1]=counter[1];
     fc4:	81 81       	ldd	r24, Z+1	; 0x01
     fc6:	80 93 02 07 	sts	0x0702, r24
    tx_ctr[2]=counter[2];
     fca:	82 81       	ldd	r24, Z+2	; 0x02
     fcc:	80 93 03 07 	sts	0x0703, r24
    tx_ctr[3]=counter[3];
     fd0:	83 81       	ldd	r24, Z+3	; 0x03
     fd2:	80 93 04 07 	sts	0x0704, r24
}
     fd6:	08 95       	ret

00000fd8 <rf_security_set_key>:


void rf_security_set_key(uint8_t *key)
{
     fd8:	8f 92       	push	r8
     fda:	9f 92       	push	r9
     fdc:	af 92       	push	r10
     fde:	bf 92       	push	r11
     fe0:	cf 92       	push	r12
     fe2:	df 92       	push	r13
     fe4:	ef 92       	push	r14
     fe6:	ff 92       	push	r15
     fe8:	0f 93       	push	r16
     fea:	1f 93       	push	r17
     fec:	df 93       	push	r29
     fee:	cf 93       	push	r28
     ff0:	00 d0       	rcall	.+0      	; 0xff2 <rf_security_set_key+0x1a>
     ff2:	00 d0       	rcall	.+0      	; 0xff4 <rf_security_set_key+0x1c>
     ff4:	cd b7       	in	r28, 0x3d	; 61
     ff6:	de b7       	in	r29, 0x3e	; 62
     ff8:	e8 2e       	mov	r14, r24
     ffa:	09 2f       	mov	r16, r25
    uint8_t n,i;
    uint16_t key_buf;

// Set AES key
    nrk_spin_wait_us(100);
     ffc:	84 e6       	ldi	r24, 0x64	; 100
     ffe:	90 e0       	ldi	r25, 0x00	; 0
    1000:	0e 94 a5 25 	call	0x4b4a	; 0x4b4a <nrk_spin_wait_us>
    1004:	f0 2e       	mov	r15, r16
    1006:	20 e0       	ldi	r18, 0x00	; 0
    1008:	31 e0       	ldi	r19, 0x01	; 1
    for(i=0; i<8; i++ )
    {
        key_buf=(key[i]<<8)|key[i+1];
        nrk_spin_wait_us(100);
        FASTSPI_WRITE_RAM_LE(&key_buf,(CC2420RAM_KEY0+(i*2)),2,n);
    100a:	8e 01       	movw	r16, r28
    100c:	0f 5f       	subi	r16, 0xFF	; 255
    100e:	1f 4f       	sbci	r17, 0xFF	; 255
    tx_ctr[2]=counter[2];
    tx_ctr[3]=counter[3];
}


void rf_security_set_key(uint8_t *key)
    1010:	f3 e0       	ldi	r31, 0x03	; 3
    1012:	cf 2e       	mov	r12, r31
    1014:	d1 2c       	mov	r13, r1
    1016:	cc 0e       	add	r12, r28
    1018:	dd 1e       	adc	r13, r29

// Set AES key
    nrk_spin_wait_us(100);
    for(i=0; i<8; i++ )
    {
        key_buf=(key[i]<<8)|key[i+1];
    101a:	f7 01       	movw	r30, r14
    101c:	91 90       	ld	r9, Z+
    101e:	7f 01       	movw	r14, r30
    1020:	88 24       	eor	r8, r8
    1022:	80 81       	ld	r24, Z
    1024:	90 e0       	ldi	r25, 0x00	; 0
    1026:	88 29       	or	r24, r8
    1028:	99 29       	or	r25, r9
    102a:	9a 83       	std	Y+2, r25	; 0x02
    102c:	89 83       	std	Y+1, r24	; 0x01
        nrk_spin_wait_us(100);
    102e:	84 e6       	ldi	r24, 0x64	; 100
    1030:	90 e0       	ldi	r25, 0x00	; 0
    1032:	2b 83       	std	Y+3, r18	; 0x03
    1034:	3c 83       	std	Y+4, r19	; 0x04
    1036:	0e 94 a5 25 	call	0x4b4a	; 0x4b4a <nrk_spin_wait_us>
        FASTSPI_WRITE_RAM_LE(&key_buf,(CC2420RAM_KEY0+(i*2)),2,n);
    103a:	c0 98       	cbi	0x18, 0	; 24
    103c:	2b 81       	ldd	r18, Y+3	; 0x03
    103e:	3c 81       	ldd	r19, Y+4	; 0x04
    1040:	82 2f       	mov	r24, r18
    1042:	80 68       	ori	r24, 0x80	; 128
    1044:	8f b9       	out	0x0f, r24	; 15
    1046:	77 9b       	sbis	0x0e, 7	; 14
    1048:	fe cf       	rjmp	.-4      	; 0x1046 <rf_security_set_key+0x6e>
    104a:	c9 01       	movw	r24, r18
    104c:	95 95       	asr	r25
    104e:	87 95       	ror	r24
    1050:	80 7c       	andi	r24, 0xC0	; 192
    1052:	8f b9       	out	0x0f, r24	; 15
    1054:	77 9b       	sbis	0x0e, 7	; 14
    1056:	fe cf       	rjmp	.-4      	; 0x1054 <rf_security_set_key+0x7c>
    1058:	58 01       	movw	r10, r16
    tx_ctr[2]=counter[2];
    tx_ctr[3]=counter[3];
}


void rf_security_set_key(uint8_t *key)
    105a:	f8 01       	movw	r30, r16
    nrk_spin_wait_us(100);
    for(i=0; i<8; i++ )
    {
        key_buf=(key[i]<<8)|key[i+1];
        nrk_spin_wait_us(100);
        FASTSPI_WRITE_RAM_LE(&key_buf,(CC2420RAM_KEY0+(i*2)),2,n);
    105c:	81 91       	ld	r24, Z+
    105e:	8f b9       	out	0x0f, r24	; 15
    1060:	77 9b       	sbis	0x0e, 7	; 14
    1062:	fe cf       	rjmp	.-4      	; 0x1060 <rf_security_set_key+0x88>
    1064:	ec 15       	cp	r30, r12
    1066:	fd 05       	cpc	r31, r13
    1068:	c9 f7       	brne	.-14     	; 0x105c <rf_security_set_key+0x84>
    106a:	c0 9a       	sbi	0x18, 0	; 24
    106c:	2e 5f       	subi	r18, 0xFE	; 254
    106e:	3f 4f       	sbci	r19, 0xFF	; 255
    uint8_t n,i;
    uint16_t key_buf;

// Set AES key
    nrk_spin_wait_us(100);
    for(i=0; i<8; i++ )
    1070:	f1 e0       	ldi	r31, 0x01	; 1
    1072:	20 31       	cpi	r18, 0x10	; 16
    1074:	3f 07       	cpc	r19, r31
    1076:	89 f6       	brne	.-94     	; 0x101a <rf_security_set_key+0x42>
        nrk_spin_wait_us(100);
        FASTSPI_WRITE_RAM_LE(&key_buf,(CC2420RAM_KEY0+(i*2)),2,n);
    }

// Set AES nonce to all zeros
    nrk_spin_wait_us(100);
    1078:	84 e6       	ldi	r24, 0x64	; 100
    107a:	90 e0       	ldi	r25, 0x00	; 0
    107c:	0e 94 a5 25 	call	0x4b4a	; 0x4b4a <nrk_spin_wait_us>
    1080:	20 e4       	ldi	r18, 0x40	; 64
    1082:	31 e0       	ldi	r19, 0x01	; 1
    1084:	80 e1       	ldi	r24, 0x10	; 16
    1086:	91 e0       	ldi	r25, 0x01	; 1
    for(i=0; i<7; i++ )
    {
        key_buf=0;
    1088:	1a 82       	std	Y+2, r1	; 0x02
    108a:	19 82       	std	Y+1, r1	; 0x01
        FASTSPI_WRITE_RAM_LE(&key_buf,(CC2420RAM_TXNONCE+(i*2)),2,n);
    108c:	c0 98       	cbi	0x18, 0	; 24
    108e:	42 2f       	mov	r20, r18
    1090:	40 68       	ori	r20, 0x80	; 128
    1092:	4f b9       	out	0x0f, r20	; 15
    1094:	77 9b       	sbis	0x0e, 7	; 14
    1096:	fe cf       	rjmp	.-4      	; 0x1094 <rf_security_set_key+0xbc>
    1098:	a9 01       	movw	r20, r18
    109a:	55 95       	asr	r21
    109c:	47 95       	ror	r20
    109e:	40 7c       	andi	r20, 0xC0	; 192
    10a0:	4f b9       	out	0x0f, r20	; 15
    10a2:	77 9b       	sbis	0x0e, 7	; 14
    10a4:	fe cf       	rjmp	.-4      	; 0x10a2 <rf_security_set_key+0xca>
    10a6:	f8 01       	movw	r30, r16
    10a8:	41 91       	ld	r20, Z+
    10aa:	4f b9       	out	0x0f, r20	; 15
    10ac:	77 9b       	sbis	0x0e, 7	; 14
    10ae:	fe cf       	rjmp	.-4      	; 0x10ac <rf_security_set_key+0xd4>
    10b0:	ec 15       	cp	r30, r12
    10b2:	fd 05       	cpc	r31, r13
    10b4:	c9 f7       	brne	.-14     	; 0x10a8 <rf_security_set_key+0xd0>
    10b6:	c0 9a       	sbi	0x18, 0	; 24
        FASTSPI_WRITE_RAM_LE(&key_buf,(CC2420RAM_RXNONCE+(i*2)),2,n);
    10b8:	c0 98       	cbi	0x18, 0	; 24
    10ba:	48 2f       	mov	r20, r24
    10bc:	40 68       	ori	r20, 0x80	; 128
    10be:	4f b9       	out	0x0f, r20	; 15
    10c0:	77 9b       	sbis	0x0e, 7	; 14
    10c2:	fe cf       	rjmp	.-4      	; 0x10c0 <rf_security_set_key+0xe8>
    10c4:	ac 01       	movw	r20, r24
    10c6:	55 95       	asr	r21
    10c8:	47 95       	ror	r20
    10ca:	40 7c       	andi	r20, 0xC0	; 192
    10cc:	4f b9       	out	0x0f, r20	; 15
    10ce:	77 9b       	sbis	0x0e, 7	; 14
    10d0:	fe cf       	rjmp	.-4      	; 0x10ce <rf_security_set_key+0xf6>
    10d2:	f8 01       	movw	r30, r16
    10d4:	41 91       	ld	r20, Z+
    10d6:	4f b9       	out	0x0f, r20	; 15
    10d8:	77 9b       	sbis	0x0e, 7	; 14
    10da:	fe cf       	rjmp	.-4      	; 0x10d8 <rf_security_set_key+0x100>
    10dc:	ec 15       	cp	r30, r12
    10de:	fd 05       	cpc	r31, r13
    10e0:	c9 f7       	brne	.-14     	; 0x10d4 <rf_security_set_key+0xfc>
    10e2:	c0 9a       	sbi	0x18, 0	; 24
    10e4:	02 96       	adiw	r24, 0x02	; 2
    10e6:	2e 5f       	subi	r18, 0xFE	; 254
    10e8:	3f 4f       	sbci	r19, 0xFF	; 255
        FASTSPI_WRITE_RAM_LE(&key_buf,(CC2420RAM_KEY0+(i*2)),2,n);
    }

// Set AES nonce to all zeros
    nrk_spin_wait_us(100);
    for(i=0; i<7; i++ )
    10ea:	41 e0       	ldi	r20, 0x01	; 1
    10ec:	8e 31       	cpi	r24, 0x1E	; 30
    10ee:	94 07       	cpc	r25, r20
    10f0:	59 f6       	brne	.-106    	; 0x1088 <rf_security_set_key+0xb0>
        key_buf=0;
        FASTSPI_WRITE_RAM_LE(&key_buf,(CC2420RAM_TXNONCE+(i*2)),2,n);
        FASTSPI_WRITE_RAM_LE(&key_buf,(CC2420RAM_RXNONCE+(i*2)),2,n);
    }
    // block counter set 1
    key_buf=1;
    10f2:	81 e0       	ldi	r24, 0x01	; 1
    10f4:	90 e0       	ldi	r25, 0x00	; 0
    10f6:	9a 83       	std	Y+2, r25	; 0x02
    10f8:	89 83       	std	Y+1, r24	; 0x01
    FASTSPI_WRITE_RAM_LE(&key_buf,(CC2420RAM_TXNONCE+14),2,n);
    10fa:	c0 98       	cbi	0x18, 0	; 24
    10fc:	8e ec       	ldi	r24, 0xCE	; 206
    10fe:	8f b9       	out	0x0f, r24	; 15
    1100:	77 9b       	sbis	0x0e, 7	; 14
    1102:	fe cf       	rjmp	.-4      	; 0x1100 <__stack+0x1>
    1104:	80 e8       	ldi	r24, 0x80	; 128
    1106:	8f b9       	out	0x0f, r24	; 15
    1108:	77 9b       	sbis	0x0e, 7	; 14
    110a:	fe cf       	rjmp	.-4      	; 0x1108 <__stack+0x9>
    tx_ctr[2]=counter[2];
    tx_ctr[3]=counter[3];
}


void rf_security_set_key(uint8_t *key)
    110c:	c8 01       	movw	r24, r16
    110e:	02 96       	adiw	r24, 0x02	; 2
    1110:	f8 01       	movw	r30, r16
        FASTSPI_WRITE_RAM_LE(&key_buf,(CC2420RAM_TXNONCE+(i*2)),2,n);
        FASTSPI_WRITE_RAM_LE(&key_buf,(CC2420RAM_RXNONCE+(i*2)),2,n);
    }
    // block counter set 1
    key_buf=1;
    FASTSPI_WRITE_RAM_LE(&key_buf,(CC2420RAM_TXNONCE+14),2,n);
    1112:	21 91       	ld	r18, Z+
    1114:	2f b9       	out	0x0f, r18	; 15
    1116:	77 9b       	sbis	0x0e, 7	; 14
    1118:	fe cf       	rjmp	.-4      	; 0x1116 <__stack+0x17>
    111a:	e8 17       	cp	r30, r24
    111c:	f9 07       	cpc	r31, r25
    111e:	c9 f7       	brne	.-14     	; 0x1112 <__stack+0x13>
    1120:	c0 9a       	sbi	0x18, 0	; 24
    FASTSPI_WRITE_RAM_LE(&key_buf,(CC2420RAM_RXNONCE+14),2,n);
    1122:	c0 98       	cbi	0x18, 0	; 24
    1124:	8e e9       	ldi	r24, 0x9E	; 158
    1126:	8f b9       	out	0x0f, r24	; 15
    1128:	77 9b       	sbis	0x0e, 7	; 14
    112a:	fe cf       	rjmp	.-4      	; 0x1128 <__stack+0x29>
    112c:	80 e8       	ldi	r24, 0x80	; 128
    112e:	8f b9       	out	0x0f, r24	; 15
    1130:	77 9b       	sbis	0x0e, 7	; 14
    1132:	fe cf       	rjmp	.-4      	; 0x1130 <__stack+0x31>
    tx_ctr[2]=counter[2];
    tx_ctr[3]=counter[3];
}


void rf_security_set_key(uint8_t *key)
    1134:	0e 5f       	subi	r16, 0xFE	; 254
    1136:	1f 4f       	sbci	r17, 0xFF	; 255
        FASTSPI_WRITE_RAM_LE(&key_buf,(CC2420RAM_RXNONCE+(i*2)),2,n);
    }
    // block counter set 1
    key_buf=1;
    FASTSPI_WRITE_RAM_LE(&key_buf,(CC2420RAM_TXNONCE+14),2,n);
    FASTSPI_WRITE_RAM_LE(&key_buf,(CC2420RAM_RXNONCE+14),2,n);
    1138:	f5 01       	movw	r30, r10
    113a:	81 91       	ld	r24, Z+
    113c:	5f 01       	movw	r10, r30
    113e:	8f b9       	out	0x0f, r24	; 15
    1140:	77 9b       	sbis	0x0e, 7	; 14
    1142:	fe cf       	rjmp	.-4      	; 0x1140 <__stack+0x41>
    1144:	a0 16       	cp	r10, r16
    1146:	b1 06       	cpc	r11, r17
    1148:	b9 f7       	brne	.-18     	; 0x1138 <__stack+0x39>
    114a:	c0 9a       	sbi	0x18, 0	; 24
}
    114c:	0f 90       	pop	r0
    114e:	0f 90       	pop	r0
    1150:	0f 90       	pop	r0
    1152:	0f 90       	pop	r0
    1154:	cf 91       	pop	r28
    1156:	df 91       	pop	r29
    1158:	1f 91       	pop	r17
    115a:	0f 91       	pop	r16
    115c:	ff 90       	pop	r15
    115e:	ef 90       	pop	r14
    1160:	df 90       	pop	r13
    1162:	cf 90       	pop	r12
    1164:	bf 90       	pop	r11
    1166:	af 90       	pop	r10
    1168:	9f 90       	pop	r9
    116a:	8f 90       	pop	r8
    116c:	08 95       	ret

0000116e <rf_security_enable>:

void rf_security_enable(uint8_t *key)
{
    FASTSPI_SETREG(CC2420_SECCTRL0, 0x0306); // Enable CTR encryption with key 0
    116e:	c0 98       	cbi	0x18, 0	; 24
    1170:	89 e1       	ldi	r24, 0x19	; 25
    1172:	8f b9       	out	0x0f, r24	; 15
    1174:	77 9b       	sbis	0x0e, 7	; 14
    1176:	fe cf       	rjmp	.-4      	; 0x1174 <rf_security_enable+0x6>
    1178:	83 e0       	ldi	r24, 0x03	; 3
    117a:	8f b9       	out	0x0f, r24	; 15
    117c:	77 9b       	sbis	0x0e, 7	; 14
    117e:	fe cf       	rjmp	.-4      	; 0x117c <rf_security_enable+0xe>
    1180:	86 e0       	ldi	r24, 0x06	; 6
    1182:	8f b9       	out	0x0f, r24	; 15
    1184:	77 9b       	sbis	0x0e, 7	; 14
    1186:	fe cf       	rjmp	.-4      	; 0x1184 <rf_security_enable+0x16>
    1188:	c0 9a       	sbi	0x18, 0	; 24
    FASTSPI_SETREG(CC2420_SECCTRL1, 0x0e0e); // Encrypt / Decrypt 18 bytes into header
    118a:	c0 98       	cbi	0x18, 0	; 24
    118c:	8a e1       	ldi	r24, 0x1A	; 26
    118e:	8f b9       	out	0x0f, r24	; 15
    1190:	77 9b       	sbis	0x0e, 7	; 14
    1192:	fe cf       	rjmp	.-4      	; 0x1190 <rf_security_enable+0x22>
    1194:	8e e0       	ldi	r24, 0x0E	; 14
    1196:	8f b9       	out	0x0f, r24	; 15
    1198:	77 9b       	sbis	0x0e, 7	; 14
    119a:	fe cf       	rjmp	.-4      	; 0x1198 <rf_security_enable+0x2a>
    119c:	8e e0       	ldi	r24, 0x0E	; 14
    119e:	8f b9       	out	0x0f, r24	; 15
    11a0:	77 9b       	sbis	0x0e, 7	; 14
    11a2:	fe cf       	rjmp	.-4      	; 0x11a0 <rf_security_enable+0x32>
    11a4:	c0 9a       	sbi	0x18, 0	; 24

    security_enable=1;
    11a6:	81 e0       	ldi	r24, 0x01	; 1
    11a8:	80 93 f1 06 	sts	0x06F1, r24
}
    11ac:	08 95       	ret

000011ae <rf_security_disable>:



void rf_security_disable()
{
    FASTSPI_SETREG(CC2420_SECCTRL0, 0x01C4); // Turn off "Security enable"
    11ae:	c0 98       	cbi	0x18, 0	; 24
    11b0:	89 e1       	ldi	r24, 0x19	; 25
    11b2:	8f b9       	out	0x0f, r24	; 15
    11b4:	77 9b       	sbis	0x0e, 7	; 14
    11b6:	fe cf       	rjmp	.-4      	; 0x11b4 <rf_security_disable+0x6>
    11b8:	81 e0       	ldi	r24, 0x01	; 1
    11ba:	8f b9       	out	0x0f, r24	; 15
    11bc:	77 9b       	sbis	0x0e, 7	; 14
    11be:	fe cf       	rjmp	.-4      	; 0x11bc <rf_security_disable+0xe>
    11c0:	84 ec       	ldi	r24, 0xC4	; 196
    11c2:	8f b9       	out	0x0f, r24	; 15
    11c4:	77 9b       	sbis	0x0e, 7	; 14
    11c6:	fe cf       	rjmp	.-4      	; 0x11c4 <rf_security_disable+0x16>
    11c8:	c0 9a       	sbi	0x18, 0	; 24
    security_enable=0;
    11ca:	10 92 f1 06 	sts	0x06F1, r1
}
    11ce:	08 95       	ret

000011d0 <rf_get_sem>:
volatile uint8_t rx_ready;
//-------------------------------------------------------------------------------------------------------
nrk_sem_t* rf_get_sem()
{
    return radio_sem;
}
    11d0:	80 91 ef 06 	lds	r24, 0x06EF
    11d4:	90 91 f0 06 	lds	r25, 0x06F0
    11d8:	08 95       	ret

000011da <rf_tx_power>:
    //tmp=0x5070;
#ifdef RADIO_PRIORITY_CEILING
    nrk_sem_pend (radio_sem);
#endif
    tmp=0xA0E0;
    tmp=tmp | (pwr&0x1F);
    11da:	90 e0       	ldi	r25, 0x00	; 0
    11dc:	8f 71       	andi	r24, 0x1F	; 31
    11de:	90 70       	andi	r25, 0x00	; 0
    11e0:	80 6e       	ori	r24, 0xE0	; 224
    11e2:	90 6a       	ori	r25, 0xA0	; 160
    FASTSPI_SETREG(CC2420_TXCTRL, tmp);   // Set the FIFOP threshold to maximum
    11e4:	c0 98       	cbi	0x18, 0	; 24
    11e6:	25 e1       	ldi	r18, 0x15	; 21
    11e8:	2f b9       	out	0x0f, r18	; 15
    11ea:	77 9b       	sbis	0x0e, 7	; 14
    11ec:	fe cf       	rjmp	.-4      	; 0x11ea <rf_tx_power+0x10>
    11ee:	9f b9       	out	0x0f, r25	; 15
    11f0:	77 9b       	sbis	0x0e, 7	; 14
    11f2:	fe cf       	rjmp	.-4      	; 0x11f0 <rf_tx_power+0x16>
    11f4:	8f b9       	out	0x0f, r24	; 15
    11f6:	77 9b       	sbis	0x0e, 7	; 14
    11f8:	fe cf       	rjmp	.-4      	; 0x11f6 <rf_tx_power+0x1c>
    11fa:	c0 9a       	sbi	0x18, 0	; 24
#ifdef RADIO_PRIORITY_CEILING
    nrk_sem_post(radio_sem);
#endif
}
    11fc:	08 95       	ret

000011fe <rf_set_channel>:
void rf_set_channel( uint8_t channel )
{
#ifdef RADIO_PRIORITY_CEILING
    nrk_sem_pend (radio_sem);
#endif
    halRfSetChannel(channel);
    11fe:	0e 94 5b 07 	call	0xeb6	; 0xeb6 <halRfSetChannel>
#ifdef RADIO_PRIORITY_CEILING
    nrk_sem_post(radio_sem);
#endif
}
    1202:	08 95       	ret

00001204 <rf_addr_decode_enable>:


void rf_addr_decode_enable()
{
    mdmctrl0 |= 0x0800;
    1204:	80 91 f2 06 	lds	r24, 0x06F2
    1208:	90 91 f3 06 	lds	r25, 0x06F3
    120c:	98 60       	ori	r25, 0x08	; 8
    120e:	90 93 f3 06 	sts	0x06F3, r25
    1212:	80 93 f2 06 	sts	0x06F2, r24
    FASTSPI_SETREG(CC2420_MDMCTRL0, mdmctrl0);
    1216:	c0 98       	cbi	0x18, 0	; 24
    1218:	81 e1       	ldi	r24, 0x11	; 17
    121a:	8f b9       	out	0x0f, r24	; 15
    121c:	77 9b       	sbis	0x0e, 7	; 14
    121e:	fe cf       	rjmp	.-4      	; 0x121c <rf_addr_decode_enable+0x18>
    1220:	80 91 f3 06 	lds	r24, 0x06F3
    1224:	8f b9       	out	0x0f, r24	; 15
    1226:	77 9b       	sbis	0x0e, 7	; 14
    1228:	fe cf       	rjmp	.-4      	; 0x1226 <rf_addr_decode_enable+0x22>
    122a:	80 91 f2 06 	lds	r24, 0x06F2
    122e:	8f b9       	out	0x0f, r24	; 15
    1230:	77 9b       	sbis	0x0e, 7	; 14
    1232:	fe cf       	rjmp	.-4      	; 0x1230 <rf_addr_decode_enable+0x2c>
    1234:	c0 9a       	sbi	0x18, 0	; 24
}
    1236:	08 95       	ret

00001238 <rf_addr_decode_disable>:

void rf_addr_decode_disable()
{
    mdmctrl0 &= (~0x0800);
    1238:	80 91 f2 06 	lds	r24, 0x06F2
    123c:	90 91 f3 06 	lds	r25, 0x06F3
    1240:	97 7f       	andi	r25, 0xF7	; 247
    1242:	90 93 f3 06 	sts	0x06F3, r25
    1246:	80 93 f2 06 	sts	0x06F2, r24
    FASTSPI_SETREG(CC2420_MDMCTRL0, mdmctrl0);
    124a:	c0 98       	cbi	0x18, 0	; 24
    124c:	81 e1       	ldi	r24, 0x11	; 17
    124e:	8f b9       	out	0x0f, r24	; 15
    1250:	77 9b       	sbis	0x0e, 7	; 14
    1252:	fe cf       	rjmp	.-4      	; 0x1250 <rf_addr_decode_disable+0x18>
    1254:	80 91 f3 06 	lds	r24, 0x06F3
    1258:	8f b9       	out	0x0f, r24	; 15
    125a:	77 9b       	sbis	0x0e, 7	; 14
    125c:	fe cf       	rjmp	.-4      	; 0x125a <rf_addr_decode_disable+0x22>
    125e:	80 91 f2 06 	lds	r24, 0x06F2
    1262:	8f b9       	out	0x0f, r24	; 15
    1264:	77 9b       	sbis	0x0e, 7	; 14
    1266:	fe cf       	rjmp	.-4      	; 0x1264 <rf_addr_decode_disable+0x2c>
    1268:	c0 9a       	sbi	0x18, 0	; 24
}
    126a:	08 95       	ret

0000126c <rf_auto_ack_enable>:


void rf_auto_ack_enable()
{
    auto_ack_enable=1;
    126c:	81 e0       	ldi	r24, 0x01	; 1
    126e:	80 93 ff 06 	sts	0x06FF, r24
    mdmctrl0 |= 0x0010;
    1272:	80 91 f2 06 	lds	r24, 0x06F2
    1276:	90 91 f3 06 	lds	r25, 0x06F3
    127a:	80 61       	ori	r24, 0x10	; 16
    127c:	90 93 f3 06 	sts	0x06F3, r25
    1280:	80 93 f2 06 	sts	0x06F2, r24
    FASTSPI_SETREG(CC2420_MDMCTRL0, mdmctrl0);
    1284:	c0 98       	cbi	0x18, 0	; 24
    1286:	81 e1       	ldi	r24, 0x11	; 17
    1288:	8f b9       	out	0x0f, r24	; 15
    128a:	77 9b       	sbis	0x0e, 7	; 14
    128c:	fe cf       	rjmp	.-4      	; 0x128a <rf_auto_ack_enable+0x1e>
    128e:	80 91 f3 06 	lds	r24, 0x06F3
    1292:	8f b9       	out	0x0f, r24	; 15
    1294:	77 9b       	sbis	0x0e, 7	; 14
    1296:	fe cf       	rjmp	.-4      	; 0x1294 <rf_auto_ack_enable+0x28>
    1298:	80 91 f2 06 	lds	r24, 0x06F2
    129c:	8f b9       	out	0x0f, r24	; 15
    129e:	77 9b       	sbis	0x0e, 7	; 14
    12a0:	fe cf       	rjmp	.-4      	; 0x129e <rf_auto_ack_enable+0x32>
    12a2:	c0 9a       	sbi	0x18, 0	; 24
}
    12a4:	08 95       	ret

000012a6 <rf_auto_ack_disable>:

void rf_auto_ack_disable()
{
    auto_ack_enable=0;
    12a6:	10 92 ff 06 	sts	0x06FF, r1
    mdmctrl0 &= (~0x0010);
    12aa:	80 91 f2 06 	lds	r24, 0x06F2
    12ae:	90 91 f3 06 	lds	r25, 0x06F3
    12b2:	8f 7e       	andi	r24, 0xEF	; 239
    12b4:	90 93 f3 06 	sts	0x06F3, r25
    12b8:	80 93 f2 06 	sts	0x06F2, r24
    FASTSPI_SETREG(CC2420_MDMCTRL0, mdmctrl0);
    12bc:	c0 98       	cbi	0x18, 0	; 24
    12be:	81 e1       	ldi	r24, 0x11	; 17
    12c0:	8f b9       	out	0x0f, r24	; 15
    12c2:	77 9b       	sbis	0x0e, 7	; 14
    12c4:	fe cf       	rjmp	.-4      	; 0x12c2 <rf_auto_ack_disable+0x1c>
    12c6:	80 91 f3 06 	lds	r24, 0x06F3
    12ca:	8f b9       	out	0x0f, r24	; 15
    12cc:	77 9b       	sbis	0x0e, 7	; 14
    12ce:	fe cf       	rjmp	.-4      	; 0x12cc <rf_auto_ack_disable+0x26>
    12d0:	80 91 f2 06 	lds	r24, 0x06F2
    12d4:	8f b9       	out	0x0f, r24	; 15
    12d6:	77 9b       	sbis	0x0e, 7	; 14
    12d8:	fe cf       	rjmp	.-4      	; 0x12d6 <rf_auto_ack_disable+0x30>
    12da:	c0 9a       	sbi	0x18, 0	; 24
}
    12dc:	08 95       	ret

000012de <rf_addr_decode_set_my_mac>:


void rf_addr_decode_set_my_mac(uint16_t my_mac)
{
    12de:	df 93       	push	r29
    12e0:	cf 93       	push	r28
    12e2:	00 d0       	rcall	.+0      	; 0x12e4 <rf_addr_decode_set_my_mac+0x6>
    12e4:	cd b7       	in	r28, 0x3d	; 61
    12e6:	de b7       	in	r29, 0x3e	; 62
    12e8:	9a 83       	std	Y+2, r25	; 0x02
    12ea:	89 83       	std	Y+1, r24	; 0x01
    uint8_t n;
    rfSettings.myAddr = my_mac;
    12ec:	90 93 fb 06 	sts	0x06FB, r25
    12f0:	80 93 fa 06 	sts	0x06FA, r24
    nrk_spin_wait_us(500);
    12f4:	84 ef       	ldi	r24, 0xF4	; 244
    12f6:	91 e0       	ldi	r25, 0x01	; 1
    12f8:	0e 94 a5 25 	call	0x4b4a	; 0x4b4a <nrk_spin_wait_us>
    FASTSPI_WRITE_RAM_LE(&my_mac, CC2420RAM_SHORTADDR, 2, n);
    12fc:	c0 98       	cbi	0x18, 0	; 24
    12fe:	8a ee       	ldi	r24, 0xEA	; 234
    1300:	8f b9       	out	0x0f, r24	; 15
    1302:	77 9b       	sbis	0x0e, 7	; 14
    1304:	fe cf       	rjmp	.-4      	; 0x1302 <rf_addr_decode_set_my_mac+0x24>
    1306:	80 e8       	ldi	r24, 0x80	; 128
    1308:	8f b9       	out	0x0f, r24	; 15
    130a:	77 9b       	sbis	0x0e, 7	; 14
    130c:	fe cf       	rjmp	.-4      	; 0x130a <rf_addr_decode_set_my_mac+0x2c>
    130e:	fe 01       	movw	r30, r28
    1310:	31 96       	adiw	r30, 0x01	; 1
    mdmctrl0 &= (~0x0010);
    FASTSPI_SETREG(CC2420_MDMCTRL0, mdmctrl0);
}


void rf_addr_decode_set_my_mac(uint16_t my_mac)
    1312:	ce 01       	movw	r24, r28
    1314:	03 96       	adiw	r24, 0x03	; 3
{
    uint8_t n;
    rfSettings.myAddr = my_mac;
    nrk_spin_wait_us(500);
    FASTSPI_WRITE_RAM_LE(&my_mac, CC2420RAM_SHORTADDR, 2, n);
    1316:	21 91       	ld	r18, Z+
    1318:	2f b9       	out	0x0f, r18	; 15
    131a:	77 9b       	sbis	0x0e, 7	; 14
    131c:	fe cf       	rjmp	.-4      	; 0x131a <rf_addr_decode_set_my_mac+0x3c>
    131e:	e8 17       	cp	r30, r24
    1320:	f9 07       	cpc	r31, r25
    1322:	c9 f7       	brne	.-14     	; 0x1316 <rf_addr_decode_set_my_mac+0x38>
    1324:	c0 9a       	sbi	0x18, 0	; 24
    nrk_spin_wait_us(500);
    1326:	84 ef       	ldi	r24, 0xF4	; 244
    1328:	91 e0       	ldi	r25, 0x01	; 1
    132a:	0e 94 a5 25 	call	0x4b4a	; 0x4b4a <nrk_spin_wait_us>
}
    132e:	0f 90       	pop	r0
    1330:	0f 90       	pop	r0
    1332:	cf 91       	pop	r28
    1334:	df 91       	pop	r29
    1336:	08 95       	ret

00001338 <rf_set_rx>:



void rf_set_rx(RF_RX_INFO *pRRI, uint8_t channel )
{
    1338:	cf 93       	push	r28
    133a:	df 93       	push	r29
    133c:	ec 01       	movw	r28, r24
    133e:	86 2f       	mov	r24, r22

#ifdef RADIO_PRIORITY_CEILING
    nrk_sem_pend (radio_sem);
#endif

    FASTSPI_STROBE(CC2420_SFLUSHRX);
    1340:	c0 98       	cbi	0x18, 0	; 24
    1342:	98 e0       	ldi	r25, 0x08	; 8
    1344:	9f b9       	out	0x0f, r25	; 15
    1346:	77 9b       	sbis	0x0e, 7	; 14
    1348:	fe cf       	rjmp	.-4      	; 0x1346 <rf_set_rx+0xe>
    134a:	c0 9a       	sbi	0x18, 0	; 24
    FASTSPI_STROBE(CC2420_SFLUSHRX);
    134c:	c0 98       	cbi	0x18, 0	; 24
    134e:	98 e0       	ldi	r25, 0x08	; 8
    1350:	9f b9       	out	0x0f, r25	; 15
    1352:	77 9b       	sbis	0x0e, 7	; 14
    1354:	fe cf       	rjmp	.-4      	; 0x1352 <rf_set_rx+0x1a>
    1356:	c0 9a       	sbi	0x18, 0	; 24
    halRfSetChannel(channel);
    1358:	0e 94 5b 07 	call	0xeb6	; 0xeb6 <halRfSetChannel>
    rfSettings.pRxInfo = pRRI;
    135c:	d0 93 f5 06 	sts	0x06F5, r29
    1360:	c0 93 f4 06 	sts	0x06F4, r28

#ifdef RADIO_PRIORITY_CEILING
    nrk_sem_post(radio_sem);
#endif
}
    1364:	df 91       	pop	r29
    1366:	cf 91       	pop	r28
    1368:	08 95       	ret

0000136a <rf_init>:
//          The 16-bit short address which is used by this node. Must together with the PAN ID form a
//			unique 32-bit identifier to avoid addressing conflicts. Normally, in a 802.15.4 network, the
//			short address will be given to associated nodes by the PAN coordinator.
//-------------------------------------------------------------------------------------------------------
void rf_init(RF_RX_INFO *pRRI, uint8_t channel, uint16_t panId, uint16_t myAddr)
{
    136a:	df 92       	push	r13
    136c:	ef 92       	push	r14
    136e:	ff 92       	push	r15
    1370:	0f 93       	push	r16
    1372:	1f 93       	push	r17
    1374:	df 93       	push	r29
    1376:	cf 93       	push	r28
    1378:	00 d0       	rcall	.+0      	; 0x137a <rf_init+0x10>
    137a:	cd b7       	in	r28, 0x3d	; 61
    137c:	de b7       	in	r29, 0x3e	; 62
    137e:	8c 01       	movw	r16, r24
    1380:	d6 2e       	mov	r13, r22
    1382:	5a 83       	std	Y+2, r21	; 0x02
    1384:	49 83       	std	Y+1, r20	; 0x01
    1386:	79 01       	movw	r14, r18
        nrk_kprintf (PSTR ("CC2420 ERROR:  Access to semaphore failed\r\n"));
    }
#endif

    // Make sure that the voltage regulator is on, and that the reset pin is inactive
    SET_VREG_ACTIVE();
    1388:	dd 9a       	sbi	0x1b, 5	; 27
    halWait(1000);
    138a:	88 ee       	ldi	r24, 0xE8	; 232
    138c:	93 e0       	ldi	r25, 0x03	; 3
    138e:	0e 94 b8 12 	call	0x2570	; 0x2570 <halWait>
    SET_RESET_ACTIVE();
    1392:	de 98       	cbi	0x1b, 6	; 27
    halWait(1);
    1394:	81 e0       	ldi	r24, 0x01	; 1
    1396:	90 e0       	ldi	r25, 0x00	; 0
    1398:	0e 94 b8 12 	call	0x2570	; 0x2570 <halWait>
    SET_RESET_INACTIVE();
    139c:	de 9a       	sbi	0x1b, 6	; 27
    halWait(100);
    139e:	84 e6       	ldi	r24, 0x64	; 100
    13a0:	90 e0       	ldi	r25, 0x00	; 0
    13a2:	0e 94 b8 12 	call	0x2570	; 0x2570 <halWait>
    // Initialize the FIFOP external interrupt
    //FIFOP_INT_INIT();
    //ENABLE_FIFOP_INT();

    // Turn off all interrupts while we're accessing the CC2420 registers
    DISABLE_GLOBAL_INT();
    13a6:	f8 94       	cli

    FASTSPI_STROBE(CC2420_SXOSCON);
    13a8:	c0 98       	cbi	0x18, 0	; 24
    13aa:	81 e0       	ldi	r24, 0x01	; 1
    13ac:	8f b9       	out	0x0f, r24	; 15
    13ae:	77 9b       	sbis	0x0e, 7	; 14
    13b0:	fe cf       	rjmp	.-4      	; 0x13ae <rf_init+0x44>
    13b2:	c0 9a       	sbi	0x18, 0	; 24
    mdmctrl0=0x02E2;
    13b4:	82 ee       	ldi	r24, 0xE2	; 226
    13b6:	92 e0       	ldi	r25, 0x02	; 2
    13b8:	90 93 f3 06 	sts	0x06F3, r25
    13bc:	80 93 f2 06 	sts	0x06F2, r24
    FASTSPI_SETREG(CC2420_MDMCTRL0, mdmctrl0);  // Std Preamble, CRC, no auto ack, no hw addr decoding
    13c0:	c0 98       	cbi	0x18, 0	; 24
    13c2:	81 e1       	ldi	r24, 0x11	; 17
    13c4:	8f b9       	out	0x0f, r24	; 15
    13c6:	77 9b       	sbis	0x0e, 7	; 14
    13c8:	fe cf       	rjmp	.-4      	; 0x13c6 <rf_init+0x5c>
    13ca:	80 91 f3 06 	lds	r24, 0x06F3
    13ce:	8f b9       	out	0x0f, r24	; 15
    13d0:	77 9b       	sbis	0x0e, 7	; 14
    13d2:	fe cf       	rjmp	.-4      	; 0x13d0 <rf_init+0x66>
    13d4:	80 91 f2 06 	lds	r24, 0x06F2
    13d8:	8f b9       	out	0x0f, r24	; 15
    13da:	77 9b       	sbis	0x0e, 7	; 14
    13dc:	fe cf       	rjmp	.-4      	; 0x13da <rf_init+0x70>
    13de:	c0 9a       	sbi	0x18, 0	; 24
    //FASTSPI_SETREG(CC2420_MDMCTRL0, 0x0AF2);  // Turn on automatic packet acknowledgment
    // Turn on hw addre decoding
    FASTSPI_SETREG(CC2420_MDMCTRL1, 0x0500); // Set the correlation threshold = 20
    13e0:	c0 98       	cbi	0x18, 0	; 24
    13e2:	82 e1       	ldi	r24, 0x12	; 18
    13e4:	8f b9       	out	0x0f, r24	; 15
    13e6:	77 9b       	sbis	0x0e, 7	; 14
    13e8:	fe cf       	rjmp	.-4      	; 0x13e6 <rf_init+0x7c>
    13ea:	85 e0       	ldi	r24, 0x05	; 5
    13ec:	8f b9       	out	0x0f, r24	; 15
    13ee:	77 9b       	sbis	0x0e, 7	; 14
    13f0:	fe cf       	rjmp	.-4      	; 0x13ee <rf_init+0x84>
    13f2:	1f b8       	out	0x0f, r1	; 15
    13f4:	77 9b       	sbis	0x0e, 7	; 14
    13f6:	fe cf       	rjmp	.-4      	; 0x13f4 <rf_init+0x8a>
    13f8:	c0 9a       	sbi	0x18, 0	; 24
    FASTSPI_SETREG(CC2420_IOCFG0, 0x007F);   // Set the FIFOP threshold to maximum
    13fa:	c0 98       	cbi	0x18, 0	; 24
    13fc:	8c e1       	ldi	r24, 0x1C	; 28
    13fe:	8f b9       	out	0x0f, r24	; 15
    1400:	77 9b       	sbis	0x0e, 7	; 14
    1402:	fe cf       	rjmp	.-4      	; 0x1400 <rf_init+0x96>
    1404:	1f b8       	out	0x0f, r1	; 15
    1406:	77 9b       	sbis	0x0e, 7	; 14
    1408:	fe cf       	rjmp	.-4      	; 0x1406 <rf_init+0x9c>
    140a:	8f e7       	ldi	r24, 0x7F	; 127
    140c:	8f b9       	out	0x0f, r24	; 15
    140e:	77 9b       	sbis	0x0e, 7	; 14
    1410:	fe cf       	rjmp	.-4      	; 0x140e <rf_init+0xa4>
    1412:	c0 9a       	sbi	0x18, 0	; 24
    FASTSPI_SETREG(CC2420_SECCTRL0, 0x01C4); // Turn off "Security"
    1414:	c0 98       	cbi	0x18, 0	; 24
    1416:	89 e1       	ldi	r24, 0x19	; 25
    1418:	8f b9       	out	0x0f, r24	; 15
    141a:	77 9b       	sbis	0x0e, 7	; 14
    141c:	fe cf       	rjmp	.-4      	; 0x141a <rf_init+0xb0>
    141e:	81 e0       	ldi	r24, 0x01	; 1
    1420:	8f b9       	out	0x0f, r24	; 15
    1422:	77 9b       	sbis	0x0e, 7	; 14
    1424:	fe cf       	rjmp	.-4      	; 0x1422 <rf_init+0xb8>
    1426:	84 ec       	ldi	r24, 0xC4	; 196
    1428:	8f b9       	out	0x0f, r24	; 15
    142a:	77 9b       	sbis	0x0e, 7	; 14
    142c:	fe cf       	rjmp	.-4      	; 0x142a <rf_init+0xc0>
    142e:	c0 9a       	sbi	0x18, 0	; 24
    FASTSPI_SETREG(CC2420_RXCTRL1, 0x1A56); // All default except
    1430:	c0 98       	cbi	0x18, 0	; 24
    1432:	87 e1       	ldi	r24, 0x17	; 23
    1434:	8f b9       	out	0x0f, r24	; 15
    1436:	77 9b       	sbis	0x0e, 7	; 14
    1438:	fe cf       	rjmp	.-4      	; 0x1436 <rf_init+0xcc>
    143a:	8a e1       	ldi	r24, 0x1A	; 26
    143c:	8f b9       	out	0x0f, r24	; 15
    143e:	77 9b       	sbis	0x0e, 7	; 14
    1440:	fe cf       	rjmp	.-4      	; 0x143e <rf_init+0xd4>
    1442:	86 e5       	ldi	r24, 0x56	; 86
    1444:	8f b9       	out	0x0f, r24	; 15
    1446:	77 9b       	sbis	0x0e, 7	; 14
    1448:	fe cf       	rjmp	.-4      	; 0x1446 <rf_init+0xdc>
    144a:	c0 9a       	sbi	0x18, 0	; 24
        nrk_spin_wait_us(500);

       printf( "myAddr=%d\r\n",myAddr );
    */

    nrk_spin_wait_us(500);
    144c:	84 ef       	ldi	r24, 0xF4	; 244
    144e:	91 e0       	ldi	r25, 0x01	; 1
    1450:	0e 94 a5 25 	call	0x4b4a	; 0x4b4a <nrk_spin_wait_us>
    FASTSPI_WRITE_RAM_LE(&panId, CC2420RAM_PANID, 2, n);
    1454:	c0 98       	cbi	0x18, 0	; 24
    1456:	88 ee       	ldi	r24, 0xE8	; 232
    1458:	8f b9       	out	0x0f, r24	; 15
    145a:	77 9b       	sbis	0x0e, 7	; 14
    145c:	fe cf       	rjmp	.-4      	; 0x145a <rf_init+0xf0>
    145e:	80 e8       	ldi	r24, 0x80	; 128
    1460:	8f b9       	out	0x0f, r24	; 15
    1462:	77 9b       	sbis	0x0e, 7	; 14
    1464:	fe cf       	rjmp	.-4      	; 0x1462 <rf_init+0xf8>
    1466:	fe 01       	movw	r30, r28
    1468:	31 96       	adiw	r30, 0x01	; 1
//      WORD myAddr
//          The 16-bit short address which is used by this node. Must together with the PAN ID form a
//			unique 32-bit identifier to avoid addressing conflicts. Normally, in a 802.15.4 network, the
//			short address will be given to associated nodes by the PAN coordinator.
//-------------------------------------------------------------------------------------------------------
void rf_init(RF_RX_INFO *pRRI, uint8_t channel, uint16_t panId, uint16_t myAddr)
    146a:	ce 01       	movw	r24, r28
    146c:	03 96       	adiw	r24, 0x03	; 3

       printf( "myAddr=%d\r\n",myAddr );
    */

    nrk_spin_wait_us(500);
    FASTSPI_WRITE_RAM_LE(&panId, CC2420RAM_PANID, 2, n);
    146e:	21 91       	ld	r18, Z+
    1470:	2f b9       	out	0x0f, r18	; 15
    1472:	77 9b       	sbis	0x0e, 7	; 14
    1474:	fe cf       	rjmp	.-4      	; 0x1472 <rf_init+0x108>
    1476:	e8 17       	cp	r30, r24
    1478:	f9 07       	cpc	r31, r25
    147a:	c9 f7       	brne	.-14     	; 0x146e <rf_init+0x104>
    147c:	c0 9a       	sbi	0x18, 0	; 24
    nrk_spin_wait_us(500);
    147e:	84 ef       	ldi	r24, 0xF4	; 244
    1480:	91 e0       	ldi	r25, 0x01	; 1
    1482:	0e 94 a5 25 	call	0x4b4a	; 0x4b4a <nrk_spin_wait_us>

    ENABLE_GLOBAL_INT();
    1486:	78 94       	sei

    // Set the RF channel
    halRfSetChannel(channel);
    1488:	8d 2d       	mov	r24, r13
    148a:	0e 94 5b 07 	call	0xeb6	; 0xeb6 <halRfSetChannel>

    // Turn interrupts back on
    ENABLE_GLOBAL_INT();
    148e:	78 94       	sei

    // Set the protocol configuration
    rfSettings.pRxInfo = pRRI;
    1490:	10 93 f5 06 	sts	0x06F5, r17
    1494:	00 93 f4 06 	sts	0x06F4, r16
    rfSettings.panId = panId;
    1498:	89 81       	ldd	r24, Y+1	; 0x01
    149a:	9a 81       	ldd	r25, Y+2	; 0x02
    149c:	90 93 f9 06 	sts	0x06F9, r25
    14a0:	80 93 f8 06 	sts	0x06F8, r24
    rfSettings.myAddr = myAddr;
    14a4:	f0 92 fb 06 	sts	0x06FB, r15
    14a8:	e0 92 fa 06 	sts	0x06FA, r14
    rfSettings.txSeqNumber = 0;
    14ac:	10 92 f6 06 	sts	0x06F6, r1
    rfSettings.receiveOn = FALSE;
    14b0:	10 92 fc 06 	sts	0x06FC, r1

    // Wait for the crystal oscillator to become stable
    halRfWaitForCrystalOscillator();
    14b4:	0e 94 76 07 	call	0xeec	; 0xeec <halRfWaitForCrystalOscillator>
        nrk_kprintf (PSTR ("CC2420 ERROR:  Release of semaphore failed\r\n"));
        _nrk_errno_set (2);
    }
#endif

    auto_ack_enable=0;
    14b8:	10 92 ff 06 	sts	0x06FF, r1
    security_enable=0;
    14bc:	10 92 f1 06 	sts	0x06F1, r1
    last_pkt_encrypted=0;
    14c0:	10 92 00 07 	sts	0x0700, r1
} // rf_init()
    14c4:	0f 90       	pop	r0
    14c6:	0f 90       	pop	r0
    14c8:	cf 91       	pop	r28
    14ca:	df 91       	pop	r29
    14cc:	1f 91       	pop	r17
    14ce:	0f 91       	pop	r16
    14d0:	ff 90       	pop	r15
    14d2:	ef 90       	pop	r14
    14d4:	df 90       	pop	r13
    14d6:	08 95       	ret

000014d8 <rf_rx_on>:
void rf_rx_on(void)
{
#ifdef RADIO_PRIORITY_CEILING
    nrk_sem_pend (radio_sem);
#endif
    rfSettings.receiveOn = TRUE;
    14d8:	81 e0       	ldi	r24, 0x01	; 1
    14da:	80 93 fc 06 	sts	0x06FC, r24

#ifdef CC2420_OSC_OPT
    FASTSPI_STROBE(CC2420_SXOSCON);
    nrk_spin_wait_us(OSC_STARTUP_DELAY);
#endif
    FASTSPI_STROBE(CC2420_SRXON);
    14de:	c0 98       	cbi	0x18, 0	; 24
    14e0:	83 e0       	ldi	r24, 0x03	; 3
    14e2:	8f b9       	out	0x0f, r24	; 15
    14e4:	77 9b       	sbis	0x0e, 7	; 14
    14e6:	fe cf       	rjmp	.-4      	; 0x14e4 <rf_rx_on+0xc>
    14e8:	c0 9a       	sbi	0x18, 0	; 24
    FASTSPI_STROBE(CC2420_SFLUSHRX);
    14ea:	c0 98       	cbi	0x18, 0	; 24
    14ec:	88 e0       	ldi	r24, 0x08	; 8
    14ee:	8f b9       	out	0x0f, r24	; 15
    14f0:	77 9b       	sbis	0x0e, 7	; 14
    14f2:	fe cf       	rjmp	.-4      	; 0x14f0 <rf_rx_on+0x18>
    14f4:	c0 9a       	sbi	0x18, 0	; 24
    rx_ready=0;
    14f6:	10 92 05 07 	sts	0x0705, r1
#ifdef RADIO_PRIORITY_CEILING
    nrk_sem_post(radio_sem);
#endif
    //	ENABLE_FIFOP_INT();
} // rf_rx_on()
    14fa:	08 95       	ret

000014fc <rf_polling_rx_on>:
void rf_polling_rx_on(void)
{
#ifdef RADIO_PRIORITY_CEILING
    nrk_sem_pend (radio_sem);
#endif
    rfSettings.receiveOn = TRUE;
    14fc:	81 e0       	ldi	r24, 0x01	; 1
    14fe:	80 93 fc 06 	sts	0x06FC, r24
#ifdef CC2420_OSC_OPT
    FASTSPI_STROBE(CC2420_SXOSCON);
    nrk_spin_wait_us(OSC_STARTUP_DELAY);
#endif
    FASTSPI_STROBE(CC2420_SRXON);
    1502:	c0 98       	cbi	0x18, 0	; 24
    1504:	83 e0       	ldi	r24, 0x03	; 3
    1506:	8f b9       	out	0x0f, r24	; 15
    1508:	77 9b       	sbis	0x0e, 7	; 14
    150a:	fe cf       	rjmp	.-4      	; 0x1508 <rf_polling_rx_on+0xc>
    150c:	c0 9a       	sbi	0x18, 0	; 24
    FASTSPI_STROBE(CC2420_SFLUSHRX);
    150e:	c0 98       	cbi	0x18, 0	; 24
    1510:	88 e0       	ldi	r24, 0x08	; 8
    1512:	8f b9       	out	0x0f, r24	; 15
    1514:	77 9b       	sbis	0x0e, 7	; 14
    1516:	fe cf       	rjmp	.-4      	; 0x1514 <rf_polling_rx_on+0x18>
    1518:	c0 9a       	sbi	0x18, 0	; 24
    rx_ready=0;
    151a:	10 92 05 07 	sts	0x0705, r1
#ifdef RADIO_PRIORITY_CEILING
    nrk_sem_post(radio_sem);
#endif
} // rf_rx_on()
    151e:	08 95       	ret

00001520 <rf_rx_off>:
#ifdef RADIO_PRIORITY_CEILING
    nrk_sem_pend (radio_sem);
#endif
    // XXX
    //SET_VREG_INACTIVE();
    rfSettings.receiveOn = FALSE;
    1520:	10 92 fc 06 	sts	0x06FC, r1
    FASTSPI_STROBE(CC2420_SRFOFF);
    1524:	c0 98       	cbi	0x18, 0	; 24
    1526:	86 e0       	ldi	r24, 0x06	; 6
    1528:	8f b9       	out	0x0f, r24	; 15
    152a:	77 9b       	sbis	0x0e, 7	; 14
    152c:	fe cf       	rjmp	.-4      	; 0x152a <rf_rx_off+0xa>
    152e:	c0 9a       	sbi	0x18, 0	; 24
#ifdef CC2420_OSC_OPT
    FASTSPI_STROBE(CC2420_SXOSCOFF);
#endif
    rx_ready=0;
    1530:	10 92 05 07 	sts	0x0705, r1
#ifdef RADIO_PRIORITY_CEILING
    nrk_sem_post(radio_sem);
#endif
    //	DISABLE_FIFOP_INT();
} // rf_rx_off()
    1534:	08 95       	ret

00001536 <rf_tx_tdma_packet>:
This function is the same as normal TX, only it waits until the last
second to send the duty out with the high speed timer.  And by duty, I mean
the packet BIATCH...
**************************************************************************/
uint8_t rf_tx_tdma_packet(RF_TX_INFO *pRTI, uint16_t slot_start_time, uint16_t tx_guard_time)
{
    1536:	bf 92       	push	r11
    1538:	cf 92       	push	r12
    153a:	df 92       	push	r13
    153c:	ef 92       	push	r14
    153e:	ff 92       	push	r15
    1540:	0f 93       	push	r16
    1542:	1f 93       	push	r17
    1544:	df 93       	push	r29
    1546:	cf 93       	push	r28
    1548:	00 d0       	rcall	.+0      	; 0x154a <rf_tx_tdma_packet+0x14>
    154a:	0f 92       	push	r0
    154c:	cd b7       	in	r28, 0x3d	; 61
    154e:	de b7       	in	r29, 0x3e	; 62
    1550:	8c 01       	movw	r16, r24
    1552:	6b 01       	movw	r12, r22
    1554:	7a 01       	movw	r14, r20
    uint8_t timestamp;

#ifdef RADIO_PRIORITY_CEILING
    nrk_sem_pend (radio_sem);
#endif
    timestamp=_nrk_os_timer_get();
    1556:	0e 94 3c 26 	call	0x4c78	; 0x4c78 <_nrk_os_timer_get>
    // XXX 2 below are hacks...
#ifdef CC2420_OSC_OPT
    FASTSPI_STROBE(CC2420_SXOSCON);
    nrk_spin_wait_us(OSC_STARTUP_DELAY);
#endif
    FASTSPI_STROBE(CC2420_SFLUSHRX);
    155a:	c0 98       	cbi	0x18, 0	; 24
    155c:	88 e0       	ldi	r24, 0x08	; 8
    155e:	8f b9       	out	0x0f, r24	; 15
    1560:	77 9b       	sbis	0x0e, 7	; 14
    1562:	fe cf       	rjmp	.-4      	; 0x1560 <rf_tx_tdma_packet+0x2a>
    1564:	c0 9a       	sbi	0x18, 0	; 24
    FASTSPI_STROBE(CC2420_SFLUSHRX);
    1566:	c0 98       	cbi	0x18, 0	; 24
    1568:	88 e0       	ldi	r24, 0x08	; 8
    156a:	8f b9       	out	0x0f, r24	; 15
    156c:	77 9b       	sbis	0x0e, 7	; 14
    156e:	fe cf       	rjmp	.-4      	; 0x156c <rf_tx_tdma_packet+0x36>
    1570:	c0 9a       	sbi	0x18, 0	; 24
    // Wait until the transceiver is idle
    while (FIFOP_IS_1 || SFD_IS_1);
    1572:	0e 99       	sbic	0x01, 6	; 1
    1574:	fe cf       	rjmp	.-4      	; 0x1572 <rf_tx_tdma_packet+0x3c>
    1576:	84 99       	sbic	0x10, 4	; 16
    1578:	fc cf       	rjmp	.-8      	; 0x1572 <rf_tx_tdma_packet+0x3c>
    // Turn off global interrupts to avoid interference on the SPI interface
    DISABLE_GLOBAL_INT();
    157a:	f8 94       	cli
    // Flush the TX FIFO just in case...
    FASTSPI_STROBE(CC2420_SFLUSHTX);
    157c:	c0 98       	cbi	0x18, 0	; 24
    157e:	89 e0       	ldi	r24, 0x09	; 9
    1580:	8f b9       	out	0x0f, r24	; 15
    1582:	77 9b       	sbis	0x0e, 7	; 14
    1584:	fe cf       	rjmp	.-4      	; 0x1582 <rf_tx_tdma_packet+0x4c>
    1586:	c0 9a       	sbi	0x18, 0	; 24
    FASTSPI_STROBE(CC2420_SFLUSHTX);
    1588:	c0 98       	cbi	0x18, 0	; 24
    158a:	89 e0       	ldi	r24, 0x09	; 9
    158c:	8f b9       	out	0x0f, r24	; 15
    158e:	77 9b       	sbis	0x0e, 7	; 14
    1590:	fe cf       	rjmp	.-4      	; 0x158e <rf_tx_tdma_packet+0x58>
    1592:	c0 9a       	sbi	0x18, 0	; 24

    checksum=0;
    for(i=0; i<pRTI->length; i++ )
    1594:	d8 01       	movw	r26, r16
    1596:	12 96       	adiw	r26, 0x02	; 2
    1598:	5c 91       	ld	r21, X
    159a:	12 97       	sbiw	r26, 0x02	; 2
    159c:	25 2f       	mov	r18, r21
    159e:	33 27       	eor	r19, r19
    15a0:	27 fd       	sbrc	r18, 7
    15a2:	30 95       	com	r19
    DISABLE_GLOBAL_INT();
    // Flush the TX FIFO just in case...
    FASTSPI_STROBE(CC2420_SFLUSHTX);
    FASTSPI_STROBE(CC2420_SFLUSHTX);

    checksum=0;
    15a4:	bb 24       	eor	r11, r11
    for(i=0; i<pRTI->length; i++ )
    15a6:	40 e0       	ldi	r20, 0x00	; 0
    15a8:	0a c0       	rjmp	.+20     	; 0x15be <rf_tx_tdma_packet+0x88>
    {
        // lets do our own payload checksum because we don't trust the CRC
        checksum+=pRTI->pPayload[i];
    15aa:	d8 01       	movw	r26, r16
    15ac:	13 96       	adiw	r26, 0x03	; 3
    15ae:	ed 91       	ld	r30, X+
    15b0:	fc 91       	ld	r31, X
    15b2:	14 97       	sbiw	r26, 0x04	; 4
    15b4:	e8 0f       	add	r30, r24
    15b6:	f9 1f       	adc	r31, r25
    15b8:	80 81       	ld	r24, Z
    15ba:	b8 0e       	add	r11, r24
    // Flush the TX FIFO just in case...
    FASTSPI_STROBE(CC2420_SFLUSHTX);
    FASTSPI_STROBE(CC2420_SFLUSHTX);

    checksum=0;
    for(i=0; i<pRTI->length; i++ )
    15bc:	4f 5f       	subi	r20, 0xFF	; 255
    15be:	84 2f       	mov	r24, r20
    15c0:	90 e0       	ldi	r25, 0x00	; 0
    15c2:	82 17       	cp	r24, r18
    15c4:	93 07       	cpc	r25, r19
    15c6:	8c f3       	brlt	.-30     	; 0x15aa <rf_tx_tdma_packet+0x74>
    {
        // lets do our own payload checksum because we don't trust the CRC
        checksum+=pRTI->pPayload[i];
    }
    packetLength = pRTI->length + RF_PACKET_OVERHEAD_SIZE + CHECKSUM_OVERHEAD;
    15c8:	54 5f       	subi	r21, 0xF4	; 244

    // Write the packet to the TX FIFO (the FCS is appended automatically when AUTOCRC is enabled)
    // These are only the MAC AGNOSTIC parameters...
    // Slots for example are at a higher layer since they assume TDMA

    FASTSPI_WRITE_FIFO((uint8_t*)&packetLength, 1);               // Packet length
    15ca:	c0 98       	cbi	0x18, 0	; 24
    15cc:	8e e3       	ldi	r24, 0x3E	; 62
    15ce:	8f b9       	out	0x0f, r24	; 15
    15d0:	77 9b       	sbis	0x0e, 7	; 14
    15d2:	fe cf       	rjmp	.-4      	; 0x15d0 <rf_tx_tdma_packet+0x9a>
    15d4:	5f b9       	out	0x0f, r21	; 15
    15d6:	77 9b       	sbis	0x0e, 7	; 14
    15d8:	fe cf       	rjmp	.-4      	; 0x15d6 <rf_tx_tdma_packet+0xa0>
    15da:	c0 9a       	sbi	0x18, 0	; 24
    frameControlField = pRTI->ackRequest ? RF_FCF_ACK : RF_FCF_NOACK;
    15dc:	f8 01       	movw	r30, r16
    15de:	86 81       	ldd	r24, Z+6	; 0x06
    15e0:	88 23       	and	r24, r24
    15e2:	19 f0       	breq	.+6      	; 0x15ea <rf_tx_tdma_packet+0xb4>
    15e4:	81 e6       	ldi	r24, 0x61	; 97
    15e6:	98 e8       	ldi	r25, 0x88	; 136
    15e8:	02 c0       	rjmp	.+4      	; 0x15ee <rf_tx_tdma_packet+0xb8>
    15ea:	81 e4       	ldi	r24, 0x41	; 65
    15ec:	98 e8       	ldi	r25, 0x88	; 136
    15ee:	9a 83       	std	Y+2, r25	; 0x02
    15f0:	89 83       	std	Y+1, r24	; 0x01
    FASTSPI_WRITE_FIFO((uint8_t*) &frameControlField, 2);         // Frame control field
    15f2:	c0 98       	cbi	0x18, 0	; 24
    15f4:	8e e3       	ldi	r24, 0x3E	; 62
    15f6:	8f b9       	out	0x0f, r24	; 15
    15f8:	77 9b       	sbis	0x0e, 7	; 14
    15fa:	fe cf       	rjmp	.-4      	; 0x15f8 <rf_tx_tdma_packet+0xc2>
    15fc:	fe 01       	movw	r30, r28
    15fe:	31 96       	adiw	r30, 0x01	; 1
/**************************************************************************
This function is the same as normal TX, only it waits until the last
second to send the duty out with the high speed timer.  And by duty, I mean
the packet BIATCH...
**************************************************************************/
uint8_t rf_tx_tdma_packet(RF_TX_INFO *pRTI, uint16_t slot_start_time, uint16_t tx_guard_time)
    1600:	ce 01       	movw	r24, r28
    1602:	03 96       	adiw	r24, 0x03	; 3
    // These are only the MAC AGNOSTIC parameters...
    // Slots for example are at a higher layer since they assume TDMA

    FASTSPI_WRITE_FIFO((uint8_t*)&packetLength, 1);               // Packet length
    frameControlField = pRTI->ackRequest ? RF_FCF_ACK : RF_FCF_NOACK;
    FASTSPI_WRITE_FIFO((uint8_t*) &frameControlField, 2);         // Frame control field
    1604:	21 91       	ld	r18, Z+
    1606:	2f b9       	out	0x0f, r18	; 15
    1608:	77 9b       	sbis	0x0e, 7	; 14
    160a:	fe cf       	rjmp	.-4      	; 0x1608 <rf_tx_tdma_packet+0xd2>
    160c:	e8 17       	cp	r30, r24
    160e:	f9 07       	cpc	r31, r25
    1610:	c9 f7       	brne	.-14     	; 0x1604 <rf_tx_tdma_packet+0xce>
    1612:	c0 9a       	sbi	0x18, 0	; 24
    FASTSPI_WRITE_FIFO((uint8_t*) &rfSettings.txSeqNumber, 1);    // Sequence number
    1614:	c0 98       	cbi	0x18, 0	; 24
    1616:	8e e3       	ldi	r24, 0x3E	; 62
    1618:	8f b9       	out	0x0f, r24	; 15
    161a:	77 9b       	sbis	0x0e, 7	; 14
    161c:	fe cf       	rjmp	.-4      	; 0x161a <rf_tx_tdma_packet+0xe4>
    161e:	80 91 f6 06 	lds	r24, 0x06F6
    1622:	8f b9       	out	0x0f, r24	; 15
    1624:	77 9b       	sbis	0x0e, 7	; 14
    1626:	fe cf       	rjmp	.-4      	; 0x1624 <rf_tx_tdma_packet+0xee>
    1628:	c0 9a       	sbi	0x18, 0	; 24
    FASTSPI_WRITE_FIFO((uint8_t*) &rfSettings.panId, 2);          // Dest. PAN ID
    162a:	c0 98       	cbi	0x18, 0	; 24
    162c:	8e e3       	ldi	r24, 0x3E	; 62
    162e:	8f b9       	out	0x0f, r24	; 15
    1630:	77 9b       	sbis	0x0e, 7	; 14
    1632:	fe cf       	rjmp	.-4      	; 0x1630 <rf_tx_tdma_packet+0xfa>
    1634:	80 e0       	ldi	r24, 0x00	; 0
    1636:	90 e0       	ldi	r25, 0x00	; 0
/**************************************************************************
This function is the same as normal TX, only it waits until the last
second to send the duty out with the high speed timer.  And by duty, I mean
the packet BIATCH...
**************************************************************************/
uint8_t rf_tx_tdma_packet(RF_TX_INFO *pRTI, uint16_t slot_start_time, uint16_t tx_guard_time)
    1638:	fc 01       	movw	r30, r24
    163a:	ec 50       	subi	r30, 0x0C	; 12
    163c:	f9 4f       	sbci	r31, 0xF9	; 249

    FASTSPI_WRITE_FIFO((uint8_t*)&packetLength, 1);               // Packet length
    frameControlField = pRTI->ackRequest ? RF_FCF_ACK : RF_FCF_NOACK;
    FASTSPI_WRITE_FIFO((uint8_t*) &frameControlField, 2);         // Frame control field
    FASTSPI_WRITE_FIFO((uint8_t*) &rfSettings.txSeqNumber, 1);    // Sequence number
    FASTSPI_WRITE_FIFO((uint8_t*) &rfSettings.panId, 2);          // Dest. PAN ID
    163e:	24 81       	ldd	r18, Z+4	; 0x04
    1640:	2f b9       	out	0x0f, r18	; 15
    1642:	77 9b       	sbis	0x0e, 7	; 14
    1644:	fe cf       	rjmp	.-4      	; 0x1642 <rf_tx_tdma_packet+0x10c>
    1646:	01 96       	adiw	r24, 0x01	; 1
    1648:	82 30       	cpi	r24, 0x02	; 2
    164a:	91 05       	cpc	r25, r1
    164c:	a9 f7       	brne	.-22     	; 0x1638 <rf_tx_tdma_packet+0x102>
    164e:	c0 9a       	sbi	0x18, 0	; 24
    FASTSPI_WRITE_FIFO((uint8_t*) &pRTI->destAddr, 2);            // Dest. address
    1650:	c0 98       	cbi	0x18, 0	; 24
    1652:	8e e3       	ldi	r24, 0x3E	; 62
    1654:	8f b9       	out	0x0f, r24	; 15
    1656:	77 9b       	sbis	0x0e, 7	; 14
    1658:	fe cf       	rjmp	.-4      	; 0x1656 <rf_tx_tdma_packet+0x120>
    165a:	80 e0       	ldi	r24, 0x00	; 0
    165c:	90 e0       	ldi	r25, 0x00	; 0
    165e:	f8 01       	movw	r30, r16
    1660:	e8 0f       	add	r30, r24
    1662:	f9 1f       	adc	r31, r25
    1664:	20 81       	ld	r18, Z
    1666:	2f b9       	out	0x0f, r18	; 15
    1668:	77 9b       	sbis	0x0e, 7	; 14
    166a:	fe cf       	rjmp	.-4      	; 0x1668 <rf_tx_tdma_packet+0x132>
    166c:	01 96       	adiw	r24, 0x01	; 1
    166e:	82 30       	cpi	r24, 0x02	; 2
    1670:	91 05       	cpc	r25, r1
    1672:	a9 f7       	brne	.-22     	; 0x165e <rf_tx_tdma_packet+0x128>
    1674:	c0 9a       	sbi	0x18, 0	; 24
    FASTSPI_WRITE_FIFO((uint8_t*) &rfSettings.myAddr, 2);         // Source address
    1676:	c0 98       	cbi	0x18, 0	; 24
    1678:	8e e3       	ldi	r24, 0x3E	; 62
    167a:	8f b9       	out	0x0f, r24	; 15
    167c:	77 9b       	sbis	0x0e, 7	; 14
    167e:	fe cf       	rjmp	.-4      	; 0x167c <rf_tx_tdma_packet+0x146>
    1680:	80 e0       	ldi	r24, 0x00	; 0
    1682:	90 e0       	ldi	r25, 0x00	; 0
/**************************************************************************
This function is the same as normal TX, only it waits until the last
second to send the duty out with the high speed timer.  And by duty, I mean
the packet BIATCH...
**************************************************************************/
uint8_t rf_tx_tdma_packet(RF_TX_INFO *pRTI, uint16_t slot_start_time, uint16_t tx_guard_time)
    1684:	fc 01       	movw	r30, r24
    1686:	ec 50       	subi	r30, 0x0C	; 12
    1688:	f9 4f       	sbci	r31, 0xF9	; 249
    frameControlField = pRTI->ackRequest ? RF_FCF_ACK : RF_FCF_NOACK;
    FASTSPI_WRITE_FIFO((uint8_t*) &frameControlField, 2);         // Frame control field
    FASTSPI_WRITE_FIFO((uint8_t*) &rfSettings.txSeqNumber, 1);    // Sequence number
    FASTSPI_WRITE_FIFO((uint8_t*) &rfSettings.panId, 2);          // Dest. PAN ID
    FASTSPI_WRITE_FIFO((uint8_t*) &pRTI->destAddr, 2);            // Dest. address
    FASTSPI_WRITE_FIFO((uint8_t*) &rfSettings.myAddr, 2);         // Source address
    168a:	26 81       	ldd	r18, Z+6	; 0x06
    168c:	2f b9       	out	0x0f, r18	; 15
    168e:	77 9b       	sbis	0x0e, 7	; 14
    1690:	fe cf       	rjmp	.-4      	; 0x168e <rf_tx_tdma_packet+0x158>
    1692:	01 96       	adiw	r24, 0x01	; 1
    1694:	82 30       	cpi	r24, 0x02	; 2
    1696:	91 05       	cpc	r25, r1
    1698:	a9 f7       	brne	.-22     	; 0x1684 <rf_tx_tdma_packet+0x14e>
    169a:	c0 9a       	sbi	0x18, 0	; 24

    nrk_high_speed_timer_wait(slot_start_time,tx_guard_time);
    169c:	c6 01       	movw	r24, r12
    169e:	b7 01       	movw	r22, r14
    16a0:	0e 94 c8 25 	call	0x4b90	; 0x4b90 <nrk_high_speed_timer_wait>
    		FASTSPI_STROBE(CC2420_STXONCCA);
    		FASTSPI_UPD_STATUS(spiStatusByte);
    		halWait(100);
        } while (!(spiStatusByte & BM(CC2420_TX_ACTIVE)));
    */
    if (pRTI->cca == TRUE)
    16a4:	d8 01       	movw	r26, r16
    16a6:	15 96       	adiw	r26, 0x05	; 5
    16a8:	8c 91       	ld	r24, X
    16aa:	15 97       	sbiw	r26, 0x05	; 5
    16ac:	88 23       	and	r24, r24
    16ae:	a9 f1       	breq	.+106    	; 0x171a <rf_tx_tdma_packet+0x1e4>
    {
        uint8_t cnt;
        if (!rfSettings.receiveOn)
    16b0:	80 91 fc 06 	lds	r24, 0x06FC
    16b4:	88 23       	and	r24, r24
    16b6:	31 f4       	brne	.+12     	; 0x16c4 <rf_tx_tdma_packet+0x18e>
        {
            FASTSPI_STROBE (CC2420_SRXON);
    16b8:	c0 98       	cbi	0x18, 0	; 24
    16ba:	83 e0       	ldi	r24, 0x03	; 3
    16bc:	8f b9       	out	0x0f, r24	; 15
    16be:	77 9b       	sbis	0x0e, 7	; 14
    16c0:	fe cf       	rjmp	.-4      	; 0x16be <rf_tx_tdma_packet+0x188>
    16c2:	c0 9a       	sbi	0x18, 0	; 24
        }

        // Wait for the RSSI value to become valid
        do
        {
            FASTSPI_UPD_STATUS (spiStatusByte);
    16c4:	c0 98       	cbi	0x18, 0	; 24
    16c6:	1f b8       	out	0x0f, r1	; 15
    16c8:	77 9b       	sbis	0x0e, 7	; 14
    16ca:	fe cf       	rjmp	.-4      	; 0x16c8 <rf_tx_tdma_packet+0x192>
    16cc:	8f b1       	in	r24, 0x0f	; 15
    16ce:	c0 9a       	sbi	0x18, 0	; 24
        }
        while (!(spiStatusByte & BM (CC2420_RSSI_VALID)));
    16d0:	81 ff       	sbrs	r24, 1
    16d2:	f8 cf       	rjmp	.-16     	; 0x16c4 <rf_tx_tdma_packet+0x18e>
    16d4:	20 e0       	ldi	r18, 0x00	; 0

        // TX begins after the CCA check has passed
        cnt = 0;
        do
        {
            FASTSPI_STROBE (CC2420_STXONCCA);
    16d6:	a5 e0       	ldi	r26, 0x05	; 5
    16d8:	ea 2e       	mov	r14, r26
    16da:	c0 98       	cbi	0x18, 0	; 24
    16dc:	ef b8       	out	0x0f, r14	; 15
    16de:	77 9b       	sbis	0x0e, 7	; 14
    16e0:	fe cf       	rjmp	.-4      	; 0x16de <rf_tx_tdma_packet+0x1a8>
    16e2:	c0 9a       	sbi	0x18, 0	; 24
            FASTSPI_UPD_STATUS (spiStatusByte);
    16e4:	c0 98       	cbi	0x18, 0	; 24
    16e6:	1f b8       	out	0x0f, r1	; 15
    16e8:	77 9b       	sbis	0x0e, 7	; 14
    16ea:	fe cf       	rjmp	.-4      	; 0x16e8 <rf_tx_tdma_packet+0x1b2>
    16ec:	cf b0       	in	r12, 0x0f	; 15
    16ee:	c0 9a       	sbi	0x18, 0	; 24
            cnt++;
    16f0:	2f 5f       	subi	r18, 0xFF	; 255
            if (cnt > 100)
    16f2:	25 36       	cpi	r18, 0x65	; 101
    16f4:	49 f4       	brne	.+18     	; 0x1708 <rf_tx_tdma_packet+0x1d2>
            {
                ENABLE_GLOBAL_INT ();
    16f6:	78 94       	sei
                nrk_sem_post(radio_sem);
    16f8:	80 91 ef 06 	lds	r24, 0x06EF
    16fc:	90 91 f0 06 	lds	r25, 0x06F0
    1700:	0e 94 1e 1b 	call	0x363c	; 0x363c <nrk_sem_post>
                return FALSE;
    1704:	80 e0       	ldi	r24, 0x00	; 0
    1706:	60 c0       	rjmp	.+192    	; 0x17c8 <rf_tx_tdma_packet+0x292>
            }
            halWait (100);
    1708:	84 e6       	ldi	r24, 0x64	; 100
    170a:	90 e0       	ldi	r25, 0x00	; 0
    170c:	2b 83       	std	Y+3, r18	; 0x03
    170e:	0e 94 b8 12 	call	0x2570	; 0x2570 <halWait>
        }
        while (!(spiStatusByte & BM (CC2420_TX_ACTIVE)));
    1712:	2b 81       	ldd	r18, Y+3	; 0x03
    1714:	c3 fe       	sbrs	r12, 3
    1716:	e1 cf       	rjmp	.-62     	; 0x16da <rf_tx_tdma_packet+0x1a4>
    1718:	06 c0       	rjmp	.+12     	; 0x1726 <rf_tx_tdma_packet+0x1f0>
    }
    else
        FASTSPI_STROBE (CC2420_STXON);
    171a:	c0 98       	cbi	0x18, 0	; 24
    171c:	84 e0       	ldi	r24, 0x04	; 4
    171e:	8f b9       	out	0x0f, r24	; 15
    1720:	77 9b       	sbis	0x0e, 7	; 14
    1722:	fe cf       	rjmp	.-4      	; 0x1720 <rf_tx_tdma_packet+0x1ea>
    1724:	c0 9a       	sbi	0x18, 0	; 24
    //nrk_gpio_set(DEBUG_0);


    // Fill in the rest of the packet now
    FASTSPI_WRITE_FIFO((uint8_t*) pRTI->pPayload, pRTI->length);  // Payload
    1726:	c0 98       	cbi	0x18, 0	; 24
    1728:	8e e3       	ldi	r24, 0x3E	; 62
    172a:	8f b9       	out	0x0f, r24	; 15
    172c:	77 9b       	sbis	0x0e, 7	; 14
    172e:	fe cf       	rjmp	.-4      	; 0x172c <rf_tx_tdma_packet+0x1f6>
    1730:	40 e0       	ldi	r20, 0x00	; 0
    1732:	0c c0       	rjmp	.+24     	; 0x174c <rf_tx_tdma_packet+0x216>
    1734:	d8 01       	movw	r26, r16
    1736:	13 96       	adiw	r26, 0x03	; 3
    1738:	ed 91       	ld	r30, X+
    173a:	fc 91       	ld	r31, X
    173c:	14 97       	sbiw	r26, 0x04	; 4
    173e:	e8 0f       	add	r30, r24
    1740:	f9 1f       	adc	r31, r25
    1742:	80 81       	ld	r24, Z
    1744:	8f b9       	out	0x0f, r24	; 15
    1746:	77 9b       	sbis	0x0e, 7	; 14
    1748:	fe cf       	rjmp	.-4      	; 0x1746 <rf_tx_tdma_packet+0x210>
    174a:	4f 5f       	subi	r20, 0xFF	; 255
    174c:	84 2f       	mov	r24, r20
    174e:	90 e0       	ldi	r25, 0x00	; 0
    1750:	f8 01       	movw	r30, r16
    1752:	22 81       	ldd	r18, Z+2	; 0x02
    1754:	33 27       	eor	r19, r19
    1756:	27 fd       	sbrc	r18, 7
    1758:	30 95       	com	r19
    175a:	82 17       	cp	r24, r18
    175c:	93 07       	cpc	r25, r19
    175e:	54 f3       	brlt	.-44     	; 0x1734 <rf_tx_tdma_packet+0x1fe>
    1760:	c0 9a       	sbi	0x18, 0	; 24
    FASTSPI_WRITE_FIFO((uint8_t*) &checksum, 1);         // Checksum
    1762:	c0 98       	cbi	0x18, 0	; 24
    1764:	8e e3       	ldi	r24, 0x3E	; 62
    1766:	8f b9       	out	0x0f, r24	; 15
    1768:	77 9b       	sbis	0x0e, 7	; 14
    176a:	fe cf       	rjmp	.-4      	; 0x1768 <rf_tx_tdma_packet+0x232>
    176c:	bf b8       	out	0x0f, r11	; 15
    176e:	77 9b       	sbis	0x0e, 7	; 14
    1770:	fe cf       	rjmp	.-4      	; 0x176e <rf_tx_tdma_packet+0x238>
    1772:	c0 9a       	sbi	0x18, 0	; 24

    //nrk_spin_wait_us(200);
//  FASTSPI_STROBE(CC2420_STXON);
    // Wait for the transmission to begin before exiting (makes sure that this function cannot be called
    // a second time, and thereby cancelling the first transmission (observe the FIFOP + SFD test above).
    while (!SFD_IS_1);
    1774:	84 9b       	sbis	0x10, 4	; 16
    1776:	fe cf       	rjmp	.-4      	; 0x1774 <rf_tx_tdma_packet+0x23e>
    	success = rfSettings.ackReceived;
    }*/


    // Turn off the receiver if it should not continue to be enabled
    DISABLE_GLOBAL_INT();
    1778:	f8 94       	cli
    // XXX hack, temp out
    //if (!rfSettings.receiveOn) { while (SFD_IS_1); /*FASTSPI_STROBE(CC2420_SRFOFF);*/ }
    // while (SFD_IS_1);
    while (SFD_IS_1); // wait for packet to finish
    177a:	84 99       	sbic	0x10, 4	; 16
    177c:	fe cf       	rjmp	.-4      	; 0x177a <rf_tx_tdma_packet+0x244>

    FASTSPI_STROBE(CC2420_SFLUSHRX);
    177e:	c0 98       	cbi	0x18, 0	; 24
    1780:	88 e0       	ldi	r24, 0x08	; 8
    1782:	8f b9       	out	0x0f, r24	; 15
    1784:	77 9b       	sbis	0x0e, 7	; 14
    1786:	fe cf       	rjmp	.-4      	; 0x1784 <rf_tx_tdma_packet+0x24e>
    1788:	c0 9a       	sbi	0x18, 0	; 24
    FASTSPI_STROBE(CC2420_SFLUSHRX);
    178a:	c0 98       	cbi	0x18, 0	; 24
    178c:	88 e0       	ldi	r24, 0x08	; 8
    178e:	8f b9       	out	0x0f, r24	; 15
    1790:	77 9b       	sbis	0x0e, 7	; 14
    1792:	fe cf       	rjmp	.-4      	; 0x1790 <rf_tx_tdma_packet+0x25a>
    1794:	c0 9a       	sbi	0x18, 0	; 24
    FASTSPI_STROBE(CC2420_SFLUSHTX);
    1796:	c0 98       	cbi	0x18, 0	; 24
    1798:	89 e0       	ldi	r24, 0x09	; 9
    179a:	8f b9       	out	0x0f, r24	; 15
    179c:	77 9b       	sbis	0x0e, 7	; 14
    179e:	fe cf       	rjmp	.-4      	; 0x179c <rf_tx_tdma_packet+0x266>
    17a0:	c0 9a       	sbi	0x18, 0	; 24
    FASTSPI_STROBE(CC2420_SFLUSHTX);
    17a2:	c0 98       	cbi	0x18, 0	; 24
    17a4:	89 e0       	ldi	r24, 0x09	; 9
    17a6:	8f b9       	out	0x0f, r24	; 15
    17a8:	77 9b       	sbis	0x0e, 7	; 14
    17aa:	fe cf       	rjmp	.-4      	; 0x17a8 <rf_tx_tdma_packet+0x272>
    17ac:	c0 9a       	sbi	0x18, 0	; 24

#ifdef CC2420_OSC_OPT
    FASTSPI_STROBE(CC2420_SXOSCOFF);
#endif
    FASTSPI_STROBE(CC2420_SRFOFF);  // shut off radio
    17ae:	c0 98       	cbi	0x18, 0	; 24
    17b0:	86 e0       	ldi	r24, 0x06	; 6
    17b2:	8f b9       	out	0x0f, r24	; 15
    17b4:	77 9b       	sbis	0x0e, 7	; 14
    17b6:	fe cf       	rjmp	.-4      	; 0x17b4 <rf_tx_tdma_packet+0x27e>
    17b8:	c0 9a       	sbi	0x18, 0	; 24
    ENABLE_GLOBAL_INT();
    17ba:	78 94       	sei


    // Increment the sequence number, and return the result
    rfSettings.txSeqNumber++;
    17bc:	80 91 f6 06 	lds	r24, 0x06F6
    17c0:	8f 5f       	subi	r24, 0xFF	; 255
    17c2:	80 93 f6 06 	sts	0x06F6, r24
//	while (SFD_IS_1);
#ifdef RADIO_PRIORITY_CEILING
    nrk_sem_post(radio_sem);
#endif

    return success;
    17c6:	81 e0       	ldi	r24, 0x01	; 1

}
    17c8:	0f 90       	pop	r0
    17ca:	0f 90       	pop	r0
    17cc:	0f 90       	pop	r0
    17ce:	cf 91       	pop	r28
    17d0:	df 91       	pop	r29
    17d2:	1f 91       	pop	r17
    17d4:	0f 91       	pop	r16
    17d6:	ff 90       	pop	r15
    17d8:	ef 90       	pop	r14
    17da:	df 90       	pop	r13
    17dc:	cf 90       	pop	r12
    17de:	bf 90       	pop	r11
    17e0:	08 95       	ret

000017e2 <rf_tx_packet>:
//  RETURN VALUE:
//		uint8_t
//			Successful transmission (acknowledgment received)
//-------------------------------------------------------------------------------------------------------
uint8_t rf_tx_packet(RF_TX_INFO *pRTI)
{
    17e2:	ff 92       	push	r15
    17e4:	0f 93       	push	r16
    17e6:	1f 93       	push	r17
    17e8:	df 93       	push	r29
    17ea:	cf 93       	push	r28
    17ec:	00 d0       	rcall	.+0      	; 0x17ee <rf_tx_packet+0xc>
    17ee:	cd b7       	in	r28, 0x3d	; 61
    17f0:	de b7       	in	r29, 0x3e	; 62
    17f2:	fc 01       	movw	r30, r24

#ifdef CC2420_OSC_OPT
    FASTSPI_STROBE(CC2420_SXOSCON);
    nrk_spin_wait_us(OSC_STARTUP_DELAY);
#endif
    if(security_enable)
    17f4:	80 91 f1 06 	lds	r24, 0x06F1
    17f8:	88 23       	and	r24, r24
    17fa:	31 f0       	breq	.+12     	; 0x1808 <rf_tx_packet+0x26>
        FASTSPI_STROBE(CC2420_STXENC);
    17fc:	c0 98       	cbi	0x18, 0	; 24
    17fe:	8d e0       	ldi	r24, 0x0D	; 13
    1800:	8f b9       	out	0x0f, r24	; 15
    1802:	77 9b       	sbis	0x0e, 7	; 14
    1804:	fe cf       	rjmp	.-4      	; 0x1802 <rf_tx_packet+0x20>
    1806:	c0 9a       	sbi	0x18, 0	; 24

    checksum=0;
    for(i=0; i<pRTI->length; i++ )
    1808:	32 81       	ldd	r19, Z+2	; 0x02
    180a:	43 2f       	mov	r20, r19
    180c:	55 27       	eor	r21, r21
    180e:	47 fd       	sbrc	r20, 7
    1810:	50 95       	com	r21
    nrk_spin_wait_us(OSC_STARTUP_DELAY);
#endif
    if(security_enable)
        FASTSPI_STROBE(CC2420_STXENC);

    checksum=0;
    1812:	20 e0       	ldi	r18, 0x00	; 0
    for(i=0; i<pRTI->length; i++ )
    1814:	60 e0       	ldi	r22, 0x00	; 0
    1816:	07 c0       	rjmp	.+14     	; 0x1826 <rf_tx_packet+0x44>
    {
        // lets do our own payload checksum because we don't trust the CRC
        checksum+=pRTI->pPayload[i];
    1818:	a3 81       	ldd	r26, Z+3	; 0x03
    181a:	b4 81       	ldd	r27, Z+4	; 0x04
    181c:	a8 0f       	add	r26, r24
    181e:	b9 1f       	adc	r27, r25
    1820:	8c 91       	ld	r24, X
    1822:	28 0f       	add	r18, r24
#endif
    if(security_enable)
        FASTSPI_STROBE(CC2420_STXENC);

    checksum=0;
    for(i=0; i<pRTI->length; i++ )
    1824:	6f 5f       	subi	r22, 0xFF	; 255
    1826:	86 2f       	mov	r24, r22
    1828:	90 e0       	ldi	r25, 0x00	; 0
    182a:	84 17       	cp	r24, r20
    182c:	95 07       	cpc	r25, r21
    182e:	a4 f3       	brlt	.-24     	; 0x1818 <rf_tx_packet+0x36>
    }
    // Write the packet to the TX FIFO (the FCS is appended automatically when AUTOCRC is enabled)

    // These are only the MAC AGNOSTIC parameters...
    // Slots for example are at a slighly higher later since they assume TDMA
    packetLength = pRTI->length + RF_PACKET_OVERHEAD_SIZE + CHECKSUM_OVERHEAD;
    1830:	83 2f       	mov	r24, r19
    1832:	84 5f       	subi	r24, 0xF4	; 244
    if(security_enable) packetLength+=4;  // for CTR counter
    1834:	90 91 f1 06 	lds	r25, 0x06F1
    1838:	91 11       	cpse	r25, r1
    183a:	8c 5f       	subi	r24, 0xFC	; 252


    // XXX 2 below are hacks...
    FASTSPI_STROBE(CC2420_SFLUSHRX);
    183c:	c0 98       	cbi	0x18, 0	; 24
    183e:	98 e0       	ldi	r25, 0x08	; 8
    1840:	9f b9       	out	0x0f, r25	; 15
    1842:	77 9b       	sbis	0x0e, 7	; 14
    1844:	fe cf       	rjmp	.-4      	; 0x1842 <rf_tx_packet+0x60>
    1846:	c0 9a       	sbi	0x18, 0	; 24
    FASTSPI_STROBE(CC2420_SFLUSHRX);
    1848:	c0 98       	cbi	0x18, 0	; 24
    184a:	98 e0       	ldi	r25, 0x08	; 8
    184c:	9f b9       	out	0x0f, r25	; 15
    184e:	77 9b       	sbis	0x0e, 7	; 14
    1850:	fe cf       	rjmp	.-4      	; 0x184e <rf_tx_packet+0x6c>
    1852:	c0 9a       	sbi	0x18, 0	; 24
    // Wait until the transceiver is idle
    while (FIFOP_IS_1 || SFD_IS_1);
    1854:	0e 99       	sbic	0x01, 6	; 1
    1856:	fe cf       	rjmp	.-4      	; 0x1854 <rf_tx_packet+0x72>
    1858:	84 99       	sbic	0x10, 4	; 16
    185a:	fc cf       	rjmp	.-8      	; 0x1854 <rf_tx_packet+0x72>
    // Turn off global interrupts to avoid interference on the SPI interface
    DISABLE_GLOBAL_INT();
    185c:	f8 94       	cli
    // Flush the TX FIFO just in case...
    FASTSPI_STROBE(CC2420_SFLUSHTX);
    185e:	c0 98       	cbi	0x18, 0	; 24
    1860:	99 e0       	ldi	r25, 0x09	; 9
    1862:	9f b9       	out	0x0f, r25	; 15
    1864:	77 9b       	sbis	0x0e, 7	; 14
    1866:	fe cf       	rjmp	.-4      	; 0x1864 <rf_tx_packet+0x82>
    1868:	c0 9a       	sbi	0x18, 0	; 24
    FASTSPI_STROBE(CC2420_SFLUSHTX);
    186a:	c0 98       	cbi	0x18, 0	; 24
    186c:	99 e0       	ldi	r25, 0x09	; 9
    186e:	9f b9       	out	0x0f, r25	; 15
    1870:	77 9b       	sbis	0x0e, 7	; 14
    1872:	fe cf       	rjmp	.-4      	; 0x1870 <rf_tx_packet+0x8e>
    1874:	c0 9a       	sbi	0x18, 0	; 24
    		FASTSPI_STROBE(CC2420_STXONCCA);
    		FASTSPI_UPD_STATUS(spiStatusByte);
    		halWait(100);
        } while (!(spiStatusByte & BM(CC2420_TX_ACTIVE)));
    */
    FASTSPI_WRITE_FIFO((uint8_t*)&packetLength, 1);               // Packet length
    1876:	c0 98       	cbi	0x18, 0	; 24
    1878:	9e e3       	ldi	r25, 0x3E	; 62
    187a:	9f b9       	out	0x0f, r25	; 15
    187c:	77 9b       	sbis	0x0e, 7	; 14
    187e:	fe cf       	rjmp	.-4      	; 0x187c <rf_tx_packet+0x9a>
    1880:	8f b9       	out	0x0f, r24	; 15
    1882:	77 9b       	sbis	0x0e, 7	; 14
    1884:	fe cf       	rjmp	.-4      	; 0x1882 <rf_tx_packet+0xa0>
    1886:	c0 9a       	sbi	0x18, 0	; 24
    frameControlField = RF_FCF_NOACK;   // default
    1888:	81 e4       	ldi	r24, 0x41	; 65
    188a:	98 e8       	ldi	r25, 0x88	; 136
    188c:	9a 83       	std	Y+2, r25	; 0x02
    188e:	89 83       	std	Y+1, r24	; 0x01
    if(auto_ack_enable) frameControlField |= RF_ACK_BM;
    1890:	80 91 ff 06 	lds	r24, 0x06FF
    1894:	88 23       	and	r24, r24
    1896:	21 f0       	breq	.+8      	; 0x18a0 <rf_tx_packet+0xbe>
    1898:	81 e6       	ldi	r24, 0x61	; 97
    189a:	98 e8       	ldi	r25, 0x88	; 136
    189c:	9a 83       	std	Y+2, r25	; 0x02
    189e:	89 83       	std	Y+1, r24	; 0x01
    if(security_enable) frameControlField |= RF_SEC_BM;
    18a0:	80 91 f1 06 	lds	r24, 0x06F1
    18a4:	88 23       	and	r24, r24
    18a6:	29 f0       	breq	.+10     	; 0x18b2 <rf_tx_packet+0xd0>
    18a8:	89 81       	ldd	r24, Y+1	; 0x01
    18aa:	9a 81       	ldd	r25, Y+2	; 0x02
    18ac:	88 60       	ori	r24, 0x08	; 8
    18ae:	9a 83       	std	Y+2, r25	; 0x02
    18b0:	89 83       	std	Y+1, r24	; 0x01
    FASTSPI_WRITE_FIFO((uint8_t*) &frameControlField, 2);         // Frame control field
    18b2:	c0 98       	cbi	0x18, 0	; 24
    18b4:	8e e3       	ldi	r24, 0x3E	; 62
    18b6:	8f b9       	out	0x0f, r24	; 15
    18b8:	77 9b       	sbis	0x0e, 7	; 14
    18ba:	fe cf       	rjmp	.-4      	; 0x18b8 <rf_tx_packet+0xd6>
    18bc:	de 01       	movw	r26, r28
    18be:	11 96       	adiw	r26, 0x01	; 1
//
//  RETURN VALUE:
//		uint8_t
//			Successful transmission (acknowledgment received)
//-------------------------------------------------------------------------------------------------------
uint8_t rf_tx_packet(RF_TX_INFO *pRTI)
    18c0:	ce 01       	movw	r24, r28
    18c2:	03 96       	adiw	r24, 0x03	; 3
    */
    FASTSPI_WRITE_FIFO((uint8_t*)&packetLength, 1);               // Packet length
    frameControlField = RF_FCF_NOACK;   // default
    if(auto_ack_enable) frameControlField |= RF_ACK_BM;
    if(security_enable) frameControlField |= RF_SEC_BM;
    FASTSPI_WRITE_FIFO((uint8_t*) &frameControlField, 2);         // Frame control field
    18c4:	3d 91       	ld	r19, X+
    18c6:	3f b9       	out	0x0f, r19	; 15
    18c8:	77 9b       	sbis	0x0e, 7	; 14
    18ca:	fe cf       	rjmp	.-4      	; 0x18c8 <rf_tx_packet+0xe6>
    18cc:	a8 17       	cp	r26, r24
    18ce:	b9 07       	cpc	r27, r25
    18d0:	c9 f7       	brne	.-14     	; 0x18c4 <rf_tx_packet+0xe2>
    18d2:	c0 9a       	sbi	0x18, 0	; 24
    FASTSPI_WRITE_FIFO((uint8_t*) &rfSettings.txSeqNumber, 1);    // Sequence number
    18d4:	c0 98       	cbi	0x18, 0	; 24
    18d6:	8e e3       	ldi	r24, 0x3E	; 62
    18d8:	8f b9       	out	0x0f, r24	; 15
    18da:	77 9b       	sbis	0x0e, 7	; 14
    18dc:	fe cf       	rjmp	.-4      	; 0x18da <rf_tx_packet+0xf8>
    18de:	80 91 f6 06 	lds	r24, 0x06F6
    18e2:	8f b9       	out	0x0f, r24	; 15
    18e4:	77 9b       	sbis	0x0e, 7	; 14
    18e6:	fe cf       	rjmp	.-4      	; 0x18e4 <rf_tx_packet+0x102>
    18e8:	c0 9a       	sbi	0x18, 0	; 24
    FASTSPI_WRITE_FIFO((uint8_t*) &rfSettings.panId, 2);          // Dest. PAN ID
    18ea:	c0 98       	cbi	0x18, 0	; 24
    18ec:	8e e3       	ldi	r24, 0x3E	; 62
    18ee:	8f b9       	out	0x0f, r24	; 15
    18f0:	77 9b       	sbis	0x0e, 7	; 14
    18f2:	fe cf       	rjmp	.-4      	; 0x18f0 <rf_tx_packet+0x10e>
    18f4:	80 e0       	ldi	r24, 0x00	; 0
    18f6:	90 e0       	ldi	r25, 0x00	; 0
//
//  RETURN VALUE:
//		uint8_t
//			Successful transmission (acknowledgment received)
//-------------------------------------------------------------------------------------------------------
uint8_t rf_tx_packet(RF_TX_INFO *pRTI)
    18f8:	dc 01       	movw	r26, r24
    18fa:	ac 50       	subi	r26, 0x0C	; 12
    18fc:	b9 4f       	sbci	r27, 0xF9	; 249
    frameControlField = RF_FCF_NOACK;   // default
    if(auto_ack_enable) frameControlField |= RF_ACK_BM;
    if(security_enable) frameControlField |= RF_SEC_BM;
    FASTSPI_WRITE_FIFO((uint8_t*) &frameControlField, 2);         // Frame control field
    FASTSPI_WRITE_FIFO((uint8_t*) &rfSettings.txSeqNumber, 1);    // Sequence number
    FASTSPI_WRITE_FIFO((uint8_t*) &rfSettings.panId, 2);          // Dest. PAN ID
    18fe:	14 96       	adiw	r26, 0x04	; 4
    1900:	3c 91       	ld	r19, X
    1902:	14 97       	sbiw	r26, 0x04	; 4
    1904:	3f b9       	out	0x0f, r19	; 15
    1906:	77 9b       	sbis	0x0e, 7	; 14
    1908:	fe cf       	rjmp	.-4      	; 0x1906 <rf_tx_packet+0x124>
    190a:	01 96       	adiw	r24, 0x01	; 1
    190c:	82 30       	cpi	r24, 0x02	; 2
    190e:	91 05       	cpc	r25, r1
    1910:	99 f7       	brne	.-26     	; 0x18f8 <rf_tx_packet+0x116>
    1912:	c0 9a       	sbi	0x18, 0	; 24
    FASTSPI_WRITE_FIFO((uint8_t*) &pRTI->destAddr, 2);            // Dest. address
    1914:	c0 98       	cbi	0x18, 0	; 24
    1916:	8e e3       	ldi	r24, 0x3E	; 62
    1918:	8f b9       	out	0x0f, r24	; 15
    191a:	77 9b       	sbis	0x0e, 7	; 14
    191c:	fe cf       	rjmp	.-4      	; 0x191a <rf_tx_packet+0x138>
    191e:	80 e0       	ldi	r24, 0x00	; 0
    1920:	90 e0       	ldi	r25, 0x00	; 0
    1922:	df 01       	movw	r26, r30
    1924:	a8 0f       	add	r26, r24
    1926:	b9 1f       	adc	r27, r25
    1928:	3c 91       	ld	r19, X
    192a:	3f b9       	out	0x0f, r19	; 15
    192c:	77 9b       	sbis	0x0e, 7	; 14
    192e:	fe cf       	rjmp	.-4      	; 0x192c <rf_tx_packet+0x14a>
    1930:	01 96       	adiw	r24, 0x01	; 1
    1932:	82 30       	cpi	r24, 0x02	; 2
    1934:	91 05       	cpc	r25, r1
    1936:	a9 f7       	brne	.-22     	; 0x1922 <rf_tx_packet+0x140>
    1938:	c0 9a       	sbi	0x18, 0	; 24
    FASTSPI_WRITE_FIFO((uint8_t*) &rfSettings.myAddr, 2);         // Source address
    193a:	c0 98       	cbi	0x18, 0	; 24
    193c:	8e e3       	ldi	r24, 0x3E	; 62
    193e:	8f b9       	out	0x0f, r24	; 15
    1940:	77 9b       	sbis	0x0e, 7	; 14
    1942:	fe cf       	rjmp	.-4      	; 0x1940 <rf_tx_packet+0x15e>
    1944:	80 e0       	ldi	r24, 0x00	; 0
    1946:	90 e0       	ldi	r25, 0x00	; 0
//
//  RETURN VALUE:
//		uint8_t
//			Successful transmission (acknowledgment received)
//-------------------------------------------------------------------------------------------------------
uint8_t rf_tx_packet(RF_TX_INFO *pRTI)
    1948:	dc 01       	movw	r26, r24
    194a:	ac 50       	subi	r26, 0x0C	; 12
    194c:	b9 4f       	sbci	r27, 0xF9	; 249
    if(security_enable) frameControlField |= RF_SEC_BM;
    FASTSPI_WRITE_FIFO((uint8_t*) &frameControlField, 2);         // Frame control field
    FASTSPI_WRITE_FIFO((uint8_t*) &rfSettings.txSeqNumber, 1);    // Sequence number
    FASTSPI_WRITE_FIFO((uint8_t*) &rfSettings.panId, 2);          // Dest. PAN ID
    FASTSPI_WRITE_FIFO((uint8_t*) &pRTI->destAddr, 2);            // Dest. address
    FASTSPI_WRITE_FIFO((uint8_t*) &rfSettings.myAddr, 2);         // Source address
    194e:	16 96       	adiw	r26, 0x06	; 6
    1950:	3c 91       	ld	r19, X
    1952:	16 97       	sbiw	r26, 0x06	; 6
    1954:	3f b9       	out	0x0f, r19	; 15
    1956:	77 9b       	sbis	0x0e, 7	; 14
    1958:	fe cf       	rjmp	.-4      	; 0x1956 <rf_tx_packet+0x174>
    195a:	01 96       	adiw	r24, 0x01	; 1
    195c:	82 30       	cpi	r24, 0x02	; 2
    195e:	91 05       	cpc	r25, r1
    1960:	99 f7       	brne	.-26     	; 0x1948 <rf_tx_packet+0x166>
    1962:	c0 9a       	sbi	0x18, 0	; 24
    if(security_enable)
    1964:	80 91 f1 06 	lds	r24, 0x06F1
    1968:	88 23       	and	r24, r24
    196a:	81 f0       	breq	.+32     	; 0x198c <rf_tx_packet+0x1aa>
        FASTSPI_WRITE_FIFO((uint8_t*) &tx_ctr, 4);         // CTR counter
    196c:	c0 98       	cbi	0x18, 0	; 24
    196e:	8e e3       	ldi	r24, 0x3E	; 62
    1970:	8f b9       	out	0x0f, r24	; 15
    1972:	77 9b       	sbis	0x0e, 7	; 14
    1974:	fe cf       	rjmp	.-4      	; 0x1972 <rf_tx_packet+0x190>
    1976:	a1 e0       	ldi	r26, 0x01	; 1
    1978:	b7 e0       	ldi	r27, 0x07	; 7
    197a:	8d 91       	ld	r24, X+
    197c:	8f b9       	out	0x0f, r24	; 15
    197e:	77 9b       	sbis	0x0e, 7	; 14
    1980:	fe cf       	rjmp	.-4      	; 0x197e <rf_tx_packet+0x19c>
    1982:	87 e0       	ldi	r24, 0x07	; 7
    1984:	a5 30       	cpi	r26, 0x05	; 5
    1986:	b8 07       	cpc	r27, r24
    1988:	c1 f7       	brne	.-16     	; 0x197a <rf_tx_packet+0x198>
    198a:	c0 9a       	sbi	0x18, 0	; 24

    FASTSPI_WRITE_FIFO((uint8_t*) pRTI->pPayload, pRTI->length);  // Payload
    198c:	c0 98       	cbi	0x18, 0	; 24
    198e:	8e e3       	ldi	r24, 0x3E	; 62
    1990:	8f b9       	out	0x0f, r24	; 15
    1992:	77 9b       	sbis	0x0e, 7	; 14
    1994:	fe cf       	rjmp	.-4      	; 0x1992 <rf_tx_packet+0x1b0>
    1996:	30 e0       	ldi	r19, 0x00	; 0
    1998:	09 c0       	rjmp	.+18     	; 0x19ac <rf_tx_packet+0x1ca>
    199a:	a3 81       	ldd	r26, Z+3	; 0x03
    199c:	b4 81       	ldd	r27, Z+4	; 0x04
    199e:	a8 0f       	add	r26, r24
    19a0:	b9 1f       	adc	r27, r25
    19a2:	8c 91       	ld	r24, X
    19a4:	8f b9       	out	0x0f, r24	; 15
    19a6:	77 9b       	sbis	0x0e, 7	; 14
    19a8:	fe cf       	rjmp	.-4      	; 0x19a6 <rf_tx_packet+0x1c4>
    19aa:	3f 5f       	subi	r19, 0xFF	; 255
    19ac:	83 2f       	mov	r24, r19
    19ae:	90 e0       	ldi	r25, 0x00	; 0
    19b0:	42 81       	ldd	r20, Z+2	; 0x02
    19b2:	55 27       	eor	r21, r21
    19b4:	47 fd       	sbrc	r20, 7
    19b6:	50 95       	com	r21
    19b8:	84 17       	cp	r24, r20
    19ba:	95 07       	cpc	r25, r21
    19bc:	74 f3       	brlt	.-36     	; 0x199a <rf_tx_packet+0x1b8>
    19be:	c0 9a       	sbi	0x18, 0	; 24
    FASTSPI_WRITE_FIFO((uint8_t*) &checksum, 1);         // Checksum
    19c0:	c0 98       	cbi	0x18, 0	; 24
    19c2:	8e e3       	ldi	r24, 0x3E	; 62
    19c4:	8f b9       	out	0x0f, r24	; 15
    19c6:	77 9b       	sbis	0x0e, 7	; 14
    19c8:	fe cf       	rjmp	.-4      	; 0x19c6 <rf_tx_packet+0x1e4>
    19ca:	2f b9       	out	0x0f, r18	; 15
    19cc:	77 9b       	sbis	0x0e, 7	; 14
    19ce:	fe cf       	rjmp	.-4      	; 0x19cc <rf_tx_packet+0x1ea>
    19d0:	c0 9a       	sbi	0x18, 0	; 24

    if (pRTI->cca == TRUE)
    19d2:	85 81       	ldd	r24, Z+5	; 0x05
    19d4:	88 23       	and	r24, r24
    19d6:	91 f1       	breq	.+100    	; 0x1a3c <rf_tx_packet+0x25a>
    {
        uint8_t cnt;
        if (!rfSettings.receiveOn)
    19d8:	80 91 fc 06 	lds	r24, 0x06FC
    19dc:	88 23       	and	r24, r24
    19de:	31 f4       	brne	.+12     	; 0x19ec <rf_tx_packet+0x20a>
        {
            FASTSPI_STROBE (CC2420_SRXON);
    19e0:	c0 98       	cbi	0x18, 0	; 24
    19e2:	83 e0       	ldi	r24, 0x03	; 3
    19e4:	8f b9       	out	0x0f, r24	; 15
    19e6:	77 9b       	sbis	0x0e, 7	; 14
    19e8:	fe cf       	rjmp	.-4      	; 0x19e6 <rf_tx_packet+0x204>
    19ea:	c0 9a       	sbi	0x18, 0	; 24
        }

        // Wait for the RSSI value to become valid
        do
        {
            FASTSPI_UPD_STATUS (spiStatusByte);
    19ec:	c0 98       	cbi	0x18, 0	; 24
    19ee:	1f b8       	out	0x0f, r1	; 15
    19f0:	77 9b       	sbis	0x0e, 7	; 14
    19f2:	fe cf       	rjmp	.-4      	; 0x19f0 <rf_tx_packet+0x20e>
    19f4:	8f b1       	in	r24, 0x0f	; 15
    19f6:	c0 9a       	sbi	0x18, 0	; 24
        }
        while (!(spiStatusByte & BM (CC2420_RSSI_VALID)));
    19f8:	81 ff       	sbrs	r24, 1
    19fa:	f8 cf       	rjmp	.-16     	; 0x19ec <rf_tx_packet+0x20a>
    19fc:	10 e0       	ldi	r17, 0x00	; 0
        // TX begins after the CCA check has passed
        cnt = 0;
        do
        {
            FASTSPI_STROBE (CC2420_STXONCCA);
    19fe:	05 e0       	ldi	r16, 0x05	; 5
    1a00:	c0 98       	cbi	0x18, 0	; 24
    1a02:	0f b9       	out	0x0f, r16	; 15
    1a04:	77 9b       	sbis	0x0e, 7	; 14
    1a06:	fe cf       	rjmp	.-4      	; 0x1a04 <rf_tx_packet+0x222>
    1a08:	c0 9a       	sbi	0x18, 0	; 24
            FASTSPI_UPD_STATUS (spiStatusByte);
    1a0a:	c0 98       	cbi	0x18, 0	; 24
    1a0c:	1f b8       	out	0x0f, r1	; 15
    1a0e:	77 9b       	sbis	0x0e, 7	; 14
    1a10:	fe cf       	rjmp	.-4      	; 0x1a0e <rf_tx_packet+0x22c>
    1a12:	ff b0       	in	r15, 0x0f	; 15
    1a14:	c0 9a       	sbi	0x18, 0	; 24
            cnt++;
    1a16:	1f 5f       	subi	r17, 0xFF	; 255
            if (cnt > 100)
    1a18:	15 36       	cpi	r17, 0x65	; 101
    1a1a:	49 f4       	brne	.+18     	; 0x1a2e <rf_tx_packet+0x24c>
            {
                ENABLE_GLOBAL_INT ();
    1a1c:	78 94       	sei
                nrk_sem_post(radio_sem);
    1a1e:	80 91 ef 06 	lds	r24, 0x06EF
    1a22:	90 91 f0 06 	lds	r25, 0x06F0
    1a26:	0e 94 1e 1b 	call	0x363c	; 0x363c <nrk_sem_post>
                return FALSE;
    1a2a:	80 e0       	ldi	r24, 0x00	; 0
    1a2c:	43 c0       	rjmp	.+134    	; 0x1ab4 <rf_tx_packet+0x2d2>
            }
            halWait (100);
    1a2e:	84 e6       	ldi	r24, 0x64	; 100
    1a30:	90 e0       	ldi	r25, 0x00	; 0
    1a32:	0e 94 b8 12 	call	0x2570	; 0x2570 <halWait>
        }
        while (!(spiStatusByte & BM (CC2420_TX_ACTIVE)));
    1a36:	f3 fe       	sbrs	r15, 3
    1a38:	e3 cf       	rjmp	.-58     	; 0x1a00 <rf_tx_packet+0x21e>
    1a3a:	06 c0       	rjmp	.+12     	; 0x1a48 <rf_tx_packet+0x266>
    }
    else
        FASTSPI_STROBE (CC2420_STXON);
    1a3c:	c0 98       	cbi	0x18, 0	; 24
    1a3e:	84 e0       	ldi	r24, 0x04	; 4
    1a40:	8f b9       	out	0x0f, r24	; 15
    1a42:	77 9b       	sbis	0x0e, 7	; 14
    1a44:	fe cf       	rjmp	.-4      	; 0x1a42 <rf_tx_packet+0x260>
    1a46:	c0 9a       	sbi	0x18, 0	; 24

    ENABLE_GLOBAL_INT();
    1a48:	78 94       	sei
    // Wait for the transmission to begin before exiting (makes sure that this function cannot be called
    // a second time, and thereby cancelling the first transmission (observe the FIFOP + SFD test above).
    while (!SFD_IS_1);
    1a4a:	84 9b       	sbis	0x10, 4	; 16
    1a4c:	fe cf       	rjmp	.-4      	; 0x1a4a <rf_tx_packet+0x268>
    success = TRUE;

    // Turn interrupts back on
//	ENABLE_GLOBAL_INT();

    while (SFD_IS_1); // wait for packet to finish
    1a4e:	84 99       	sbic	0x10, 4	; 16
    1a50:	fe cf       	rjmp	.-4      	; 0x1a4e <rf_tx_packet+0x26c>

    // Wait for the acknowledge to be received, if any
    if (auto_ack_enable)
    1a52:	80 91 ff 06 	lds	r24, 0x06FF
    1a56:	88 23       	and	r24, r24
    1a58:	f9 f0       	breq	.+62     	; 0x1a98 <rf_tx_packet+0x2b6>
        //	while (SFD_IS_1);
        // We'll enter RX automatically, so just wait until we can be sure that the
        // ack reception should have finished
        // The timeout consists of a 12-symbol turnaround time, the ack packet duration,
        // and a small margin
        halWait((12 * RF_SYMBOL_DURATION) + (RF_ACK_DURATION) + (2 * RF_SYMBOL_DURATION) + 100);
    1a5a:	84 ea       	ldi	r24, 0xA4	; 164
    1a5c:	92 e0       	ldi	r25, 0x02	; 2
    1a5e:	0e 94 b8 12 	call	0x2570	; 0x2570 <halWait>

        if(FIFO_IS_1)
    1a62:	b7 9b       	sbis	0x16, 7	; 22
    1a64:	0b c0       	rjmp	.+22     	; 0x1a7c <rf_tx_packet+0x29a>
        {
            FASTSPI_READ_FIFO_BYTE(length);
    1a66:	c0 98       	cbi	0x18, 0	; 24
    1a68:	8f e7       	ldi	r24, 0x7F	; 127
    1a6a:	8f b9       	out	0x0f, r24	; 15
    1a6c:	77 9b       	sbis	0x0e, 7	; 14
    1a6e:	fe cf       	rjmp	.-4      	; 0x1a6c <rf_tx_packet+0x28a>
    1a70:	1f b8       	out	0x0f, r1	; 15
    1a72:	77 9b       	sbis	0x0e, 7	; 14
    1a74:	fe cf       	rjmp	.-4      	; 0x1a72 <rf_tx_packet+0x290>
    1a76:	8f b1       	in	r24, 0x0f	; 15
    1a78:	c0 9a       	sbi	0x18, 0	; 24
    1a7a:	0e c0       	rjmp	.+28     	; 0x1a98 <rf_tx_packet+0x2b6>
            success = TRUE;

        }
        else
        {
            FASTSPI_STROBE(CC2420_SFLUSHRX);
    1a7c:	c0 98       	cbi	0x18, 0	; 24
    1a7e:	88 e0       	ldi	r24, 0x08	; 8
    1a80:	8f b9       	out	0x0f, r24	; 15
    1a82:	77 9b       	sbis	0x0e, 7	; 14
    1a84:	fe cf       	rjmp	.-4      	; 0x1a82 <rf_tx_packet+0x2a0>
    1a86:	c0 9a       	sbi	0x18, 0	; 24
            FASTSPI_STROBE(CC2420_SFLUSHRX);
    1a88:	c0 98       	cbi	0x18, 0	; 24
    1a8a:	88 e0       	ldi	r24, 0x08	; 8
    1a8c:	8f b9       	out	0x0f, r24	; 15
    1a8e:	77 9b       	sbis	0x0e, 7	; 14
    1a90:	fe cf       	rjmp	.-4      	; 0x1a8e <rf_tx_packet+0x2ac>
    1a92:	c0 9a       	sbi	0x18, 0	; 24
            success = FALSE;
    1a94:	80 e0       	ldi	r24, 0x00	; 0
    1a96:	01 c0       	rjmp	.+2      	; 0x1a9a <rf_tx_packet+0x2b8>

    ENABLE_GLOBAL_INT();
    // Wait for the transmission to begin before exiting (makes sure that this function cannot be called
    // a second time, and thereby cancelling the first transmission (observe the FIFOP + SFD test above).
    while (!SFD_IS_1);
    success = TRUE;
    1a98:	81 e0       	ldi	r24, 0x01	; 1
    }


    // Turn off the receiver if it should not continue to be enabled

    DISABLE_GLOBAL_INT();
    1a9a:	f8 94       	cli
    //FASTSPI_STROBE(CC2420_SFLUSHTX);

#ifdef CC2420_OSC_OPT
    FASTSPI_STROBE(CC2420_SXOSCOFF);
#endif
    FASTSPI_STROBE(CC2420_SRFOFF);  // shut off radio
    1a9c:	c0 98       	cbi	0x18, 0	; 24
    1a9e:	96 e0       	ldi	r25, 0x06	; 6
    1aa0:	9f b9       	out	0x0f, r25	; 15
    1aa2:	77 9b       	sbis	0x0e, 7	; 14
    1aa4:	fe cf       	rjmp	.-4      	; 0x1aa2 <rf_tx_packet+0x2c0>
    1aa6:	c0 9a       	sbi	0x18, 0	; 24
    ENABLE_GLOBAL_INT();
    1aa8:	78 94       	sei

    // agr XXX hack to test time issue
    //rf_rx_on();

    // Increment the sequence number, and return the result
    rfSettings.txSeqNumber++;
    1aaa:	90 91 f6 06 	lds	r25, 0x06F6
    1aae:	9f 5f       	subi	r25, 0xFF	; 255
    1ab0:	90 93 f6 06 	sts	0x06F6, r25
#ifdef RADIO_PRIORITY_CEILING
    nrk_sem_post(radio_sem);
#endif
    return success;

}
    1ab4:	0f 90       	pop	r0
    1ab6:	0f 90       	pop	r0
    1ab8:	cf 91       	pop	r28
    1aba:	df 91       	pop	r29
    1abc:	1f 91       	pop	r17
    1abe:	0f 91       	pop	r16
    1ac0:	ff 90       	pop	r15
    1ac2:	08 95       	ret

00001ac4 <rf_busy>:

uint8_t rf_busy()
{
    return SFD_IS_1;
    1ac4:	81 e0       	ldi	r24, 0x01	; 1
    1ac6:	84 9b       	sbis	0x10, 4	; 16
    1ac8:	80 e0       	ldi	r24, 0x00	; 0
}
    1aca:	08 95       	ret

00001acc <rf_rx_check_fifop>:

uint8_t rf_rx_check_fifop()
{
    return FIFOP_IS_1;
    1acc:	81 e0       	ldi	r24, 0x01	; 1
    1ace:	0e 9b       	sbis	0x01, 6	; 1
    1ad0:	80 e0       	ldi	r24, 0x00	; 0
}
    1ad2:	08 95       	ret

00001ad4 <rf_rx_check_sfd>:


uint8_t rf_rx_check_sfd()
{
    return SFD_IS_1;
    1ad4:	81 e0       	ldi	r24, 0x01	; 1
    1ad6:	84 9b       	sbis	0x10, 4	; 16
    1ad8:	80 e0       	ldi	r24, 0x00	; 0
}
    1ada:	08 95       	ret

00001adc <rf_polling_rx_packet>:
uint16_t tmp_blah;

int8_t rf_polling_rx_packet()
{
    1adc:	df 93       	push	r29
    1ade:	cf 93       	push	r28
    1ae0:	00 d0       	rcall	.+0      	; 0x1ae2 <rf_polling_rx_packet+0x6>
    1ae2:	00 d0       	rcall	.+0      	; 0x1ae4 <rf_polling_rx_packet+0x8>
    1ae4:	cd b7       	in	r28, 0x3d	; 61
    1ae6:	de b7       	in	r29, 0x3e	; 62

#ifdef RADIO_PRIORITY_CEILING
    nrk_sem_pend(radio_sem);
#endif

    if(FIFOP_IS_1 )
    1ae8:	0e 9b       	sbis	0x01, 6	; 1
    1aea:	c7 c1       	rjmp	.+910    	; 0x1e7a <rf_polling_rx_packet+0x39e>
        uint16_t frameControlField;
        int8_t length;
        uint8_t pFooter[2];
        uint8_t checksum,rx_checksum,i;

        last_pkt_encrypted=0;
    1aec:	10 92 00 07 	sts	0x0700, r1

//	while(!SFD_IS_1);
//  XXX Need to make sure SFD has gone down to be sure packet finished!
//	while(SFD_IS_1);
        // Clean up and exit in case of FIFO overflow, which is indicated by FIFOP = 1 and FIFO = 0
        if((FIFOP_IS_1) && (!(FIFO_IS_1)))
    1af0:	0e 9b       	sbis	0x01, 6	; 1
    1af2:	1a c0       	rjmp	.+52     	; 0x1b28 <rf_polling_rx_packet+0x4c>
    1af4:	b7 99       	sbic	0x16, 7	; 22
    1af6:	18 c0       	rjmp	.+48     	; 0x1b28 <rf_polling_rx_packet+0x4c>
        {
            // always read 1 byte before flush (data sheet pg 62)
            FASTSPI_READ_FIFO_BYTE(tmp);
    1af8:	c0 98       	cbi	0x18, 0	; 24
    1afa:	8f e7       	ldi	r24, 0x7F	; 127
    1afc:	8f b9       	out	0x0f, r24	; 15
    1afe:	77 9b       	sbis	0x0e, 7	; 14
    1b00:	fe cf       	rjmp	.-4      	; 0x1afe <rf_polling_rx_packet+0x22>
    1b02:	1f b8       	out	0x0f, r1	; 15
    1b04:	77 9b       	sbis	0x0e, 7	; 14
    1b06:	fe cf       	rjmp	.-4      	; 0x1b04 <rf_polling_rx_packet+0x28>
    1b08:	8f b1       	in	r24, 0x0f	; 15
    1b0a:	c0 9a       	sbi	0x18, 0	; 24
            FASTSPI_STROBE(CC2420_SFLUSHRX);
    1b0c:	c0 98       	cbi	0x18, 0	; 24
    1b0e:	88 e0       	ldi	r24, 0x08	; 8
    1b10:	8f b9       	out	0x0f, r24	; 15
    1b12:	77 9b       	sbis	0x0e, 7	; 14
    1b14:	fe cf       	rjmp	.-4      	; 0x1b12 <rf_polling_rx_packet+0x36>
    1b16:	c0 9a       	sbi	0x18, 0	; 24
            FASTSPI_STROBE(CC2420_SFLUSHRX);
    1b18:	c0 98       	cbi	0x18, 0	; 24
    1b1a:	88 e0       	ldi	r24, 0x08	; 8
    1b1c:	8f b9       	out	0x0f, r24	; 15
    1b1e:	77 9b       	sbis	0x0e, 7	; 14
    1b20:	fe cf       	rjmp	.-4      	; 0x1b1e <rf_polling_rx_packet+0x42>
    1b22:	c0 9a       	sbi	0x18, 0	; 24
#ifdef RADIO_PRIORITY_CEILING
            nrk_sem_post(radio_sem);
#endif
            return -1;
    1b24:	8f ef       	ldi	r24, 0xFF	; 255
    1b26:	aa c1       	rjmp	.+852    	; 0x1e7c <rf_polling_rx_packet+0x3a0>
        }

        // Payload length
        FASTSPI_READ_FIFO_BYTE(length);
    1b28:	c0 98       	cbi	0x18, 0	; 24
    1b2a:	8f e7       	ldi	r24, 0x7F	; 127
    1b2c:	8f b9       	out	0x0f, r24	; 15
    1b2e:	77 9b       	sbis	0x0e, 7	; 14
    1b30:	fe cf       	rjmp	.-4      	; 0x1b2e <rf_polling_rx_packet+0x52>
    1b32:	1f b8       	out	0x0f, r1	; 15
    1b34:	77 9b       	sbis	0x0e, 7	; 14
    1b36:	fe cf       	rjmp	.-4      	; 0x1b34 <rf_polling_rx_packet+0x58>
    1b38:	4f b1       	in	r20, 0x0f	; 15
    1b3a:	c0 9a       	sbi	0x18, 0	; 24
        length &= RF_LENGTH_MASK; // Ignore MSB
    1b3c:	4f 77       	andi	r20, 0x7F	; 127
        // Ignore the packet if the length is too short
        if(length<=0)
    1b3e:	c1 f4       	brne	.+48     	; 0x1b70 <rf_polling_rx_packet+0x94>
        {
            // always read 1 byte before flush (data sheet pg 62)
            FASTSPI_READ_FIFO_BYTE(tmp);
    1b40:	c0 98       	cbi	0x18, 0	; 24
    1b42:	8f e7       	ldi	r24, 0x7F	; 127
    1b44:	8f b9       	out	0x0f, r24	; 15
    1b46:	77 9b       	sbis	0x0e, 7	; 14
    1b48:	fe cf       	rjmp	.-4      	; 0x1b46 <rf_polling_rx_packet+0x6a>
    1b4a:	1f b8       	out	0x0f, r1	; 15
    1b4c:	77 9b       	sbis	0x0e, 7	; 14
    1b4e:	fe cf       	rjmp	.-4      	; 0x1b4c <rf_polling_rx_packet+0x70>
    1b50:	8f b1       	in	r24, 0x0f	; 15
    1b52:	c0 9a       	sbi	0x18, 0	; 24
            FASTSPI_STROBE(CC2420_SFLUSHRX);
    1b54:	c0 98       	cbi	0x18, 0	; 24
    1b56:	88 e0       	ldi	r24, 0x08	; 8
    1b58:	8f b9       	out	0x0f, r24	; 15
    1b5a:	77 9b       	sbis	0x0e, 7	; 14
    1b5c:	fe cf       	rjmp	.-4      	; 0x1b5a <rf_polling_rx_packet+0x7e>
    1b5e:	c0 9a       	sbi	0x18, 0	; 24
            FASTSPI_STROBE(CC2420_SFLUSHRX);
    1b60:	c0 98       	cbi	0x18, 0	; 24
    1b62:	88 e0       	ldi	r24, 0x08	; 8
    1b64:	8f b9       	out	0x0f, r24	; 15
    1b66:	77 9b       	sbis	0x0e, 7	; 14
    1b68:	fe cf       	rjmp	.-4      	; 0x1b66 <rf_polling_rx_packet+0x8a>
    1b6a:	c0 9a       	sbi	0x18, 0	; 24
#ifdef RADIO_PRIORITY_CEILING
            nrk_sem_post(radio_sem);
#endif
            return -2;
    1b6c:	8e ef       	ldi	r24, 0xFE	; 254
    1b6e:	86 c1       	rjmp	.+780    	; 0x1e7c <rf_polling_rx_packet+0x3a0>
        }
        if (length < (RF_PACKET_OVERHEAD_SIZE + CHECKSUM_OVERHEAD)/*RF_ACK_PACKET_SIZE*/ || (length-RF_PACKET_OVERHEAD_SIZE)> rfSettings.pRxInfo->max_length)
    1b70:	4c 30       	cpi	r20, 0x0C	; 12
    1b72:	84 f0       	brlt	.+32     	; 0x1b94 <rf_polling_rx_packet+0xb8>
    1b74:	e0 91 f4 06 	lds	r30, 0x06F4
    1b78:	f0 91 f5 06 	lds	r31, 0x06F5
    1b7c:	84 2f       	mov	r24, r20
    1b7e:	99 27       	eor	r25, r25
    1b80:	87 fd       	sbrc	r24, 7
    1b82:	90 95       	com	r25
    1b84:	0b 97       	sbiw	r24, 0x0b	; 11
    1b86:	24 81       	ldd	r18, Z+4	; 0x04
    1b88:	33 27       	eor	r19, r19
    1b8a:	27 fd       	sbrc	r18, 7
    1b8c:	30 95       	com	r19
    1b8e:	28 17       	cp	r18, r24
    1b90:	39 07       	cpc	r19, r25
    1b92:	7c f5       	brge	.+94     	; 0x1bf2 <rf_polling_rx_packet+0x116>
        {
            FASTSPI_READ_FIFO_GARBAGE(length);
    1b94:	c0 98       	cbi	0x18, 0	; 24
    1b96:	8f e7       	ldi	r24, 0x7F	; 127
    1b98:	8f b9       	out	0x0f, r24	; 15
    1b9a:	77 9b       	sbis	0x0e, 7	; 14
    1b9c:	fe cf       	rjmp	.-4      	; 0x1b9a <rf_polling_rx_packet+0xbe>
    1b9e:	50 e0       	ldi	r21, 0x00	; 0
    1ba0:	84 2f       	mov	r24, r20
    1ba2:	99 27       	eor	r25, r25
    1ba4:	87 fd       	sbrc	r24, 7
    1ba6:	90 95       	com	r25
    1ba8:	04 c0       	rjmp	.+8      	; 0x1bb2 <rf_polling_rx_packet+0xd6>
    1baa:	1f b8       	out	0x0f, r1	; 15
    1bac:	77 9b       	sbis	0x0e, 7	; 14
    1bae:	fe cf       	rjmp	.-4      	; 0x1bac <rf_polling_rx_packet+0xd0>
    1bb0:	5f 5f       	subi	r21, 0xFF	; 255
    1bb2:	25 2f       	mov	r18, r21
    1bb4:	30 e0       	ldi	r19, 0x00	; 0
    1bb6:	28 17       	cp	r18, r24
    1bb8:	39 07       	cpc	r19, r25
    1bba:	14 f4       	brge	.+4      	; 0x1bc0 <rf_polling_rx_packet+0xe4>
    1bbc:	b7 99       	sbic	0x16, 7	; 22
    1bbe:	f5 cf       	rjmp	.-22     	; 0x1baa <rf_polling_rx_packet+0xce>
    1bc0:	c0 9a       	sbi	0x18, 0	; 24
            FASTSPI_READ_FIFO_BYTE(tmp);
    1bc2:	c0 98       	cbi	0x18, 0	; 24
    1bc4:	8f e7       	ldi	r24, 0x7F	; 127
    1bc6:	8f b9       	out	0x0f, r24	; 15
    1bc8:	77 9b       	sbis	0x0e, 7	; 14
    1bca:	fe cf       	rjmp	.-4      	; 0x1bc8 <rf_polling_rx_packet+0xec>
    1bcc:	1f b8       	out	0x0f, r1	; 15
    1bce:	77 9b       	sbis	0x0e, 7	; 14
    1bd0:	fe cf       	rjmp	.-4      	; 0x1bce <rf_polling_rx_packet+0xf2>
    1bd2:	8f b1       	in	r24, 0x0f	; 15
    1bd4:	c0 9a       	sbi	0x18, 0	; 24
            FASTSPI_STROBE(CC2420_SFLUSHRX);
    1bd6:	c0 98       	cbi	0x18, 0	; 24
    1bd8:	88 e0       	ldi	r24, 0x08	; 8
    1bda:	8f b9       	out	0x0f, r24	; 15
    1bdc:	77 9b       	sbis	0x0e, 7	; 14
    1bde:	fe cf       	rjmp	.-4      	; 0x1bdc <rf_polling_rx_packet+0x100>
    1be0:	c0 9a       	sbi	0x18, 0	; 24
            FASTSPI_STROBE(CC2420_SFLUSHRX);
    1be2:	c0 98       	cbi	0x18, 0	; 24
    1be4:	88 e0       	ldi	r24, 0x08	; 8
    1be6:	8f b9       	out	0x0f, r24	; 15
    1be8:	77 9b       	sbis	0x0e, 7	; 14
    1bea:	fe cf       	rjmp	.-4      	; 0x1be8 <rf_polling_rx_packet+0x10c>
    1bec:	c0 9a       	sbi	0x18, 0	; 24
#ifdef RADIO_PRIORITY_CEILING
            nrk_sem_post(radio_sem);
#endif
            return -3;
    1bee:	8d ef       	ldi	r24, 0xFD	; 253
    1bf0:	45 c1       	rjmp	.+650    	; 0x1e7c <rf_polling_rx_packet+0x3a0>
            // Otherwise, if the length is valid, then proceed with the rest of the packet
        }
        else
        {
            // Register the payload length
            rfSettings.pRxInfo->length = length - RF_PACKET_OVERHEAD_SIZE - CHECKSUM_OVERHEAD;
    1bf2:	e0 91 f4 06 	lds	r30, 0x06F4
    1bf6:	f0 91 f5 06 	lds	r31, 0x06F5
    1bfa:	4c 50       	subi	r20, 0x0C	; 12
    1bfc:	43 83       	std	Z+3, r20	; 0x03
            // Read the frame control field and the data sequence number
            FASTSPI_READ_FIFO_NO_WAIT((uint8_t*) &frameControlField, 2);
    1bfe:	c0 98       	cbi	0x18, 0	; 24
    1c00:	8f e7       	ldi	r24, 0x7F	; 127
    1c02:	8f b9       	out	0x0f, r24	; 15
    1c04:	77 9b       	sbis	0x0e, 7	; 14
    1c06:	fe cf       	rjmp	.-4      	; 0x1c04 <rf_polling_rx_packet+0x128>
    1c08:	fe 01       	movw	r30, r28
    1c0a:	31 96       	adiw	r30, 0x01	; 1
{
    return SFD_IS_1;
}
uint16_t tmp_blah;

int8_t rf_polling_rx_packet()
    1c0c:	ce 01       	movw	r24, r28
    1c0e:	03 96       	adiw	r24, 0x03	; 3
        else
        {
            // Register the payload length
            rfSettings.pRxInfo->length = length - RF_PACKET_OVERHEAD_SIZE - CHECKSUM_OVERHEAD;
            // Read the frame control field and the data sequence number
            FASTSPI_READ_FIFO_NO_WAIT((uint8_t*) &frameControlField, 2);
    1c10:	1f b8       	out	0x0f, r1	; 15
    1c12:	77 9b       	sbis	0x0e, 7	; 14
    1c14:	fe cf       	rjmp	.-4      	; 0x1c12 <rf_polling_rx_packet+0x136>
    1c16:	2f b1       	in	r18, 0x0f	; 15
    1c18:	21 93       	st	Z+, r18
    1c1a:	e8 17       	cp	r30, r24
    1c1c:	f9 07       	cpc	r31, r25
    1c1e:	c1 f7       	brne	.-16     	; 0x1c10 <rf_polling_rx_packet+0x134>
    1c20:	c0 9a       	sbi	0x18, 0	; 24
            rfSettings.pRxInfo->ackRequest = !!(frameControlField & RF_FCF_ACK_BM);
    1c22:	e0 91 f4 06 	lds	r30, 0x06F4
    1c26:	f0 91 f5 06 	lds	r31, 0x06F5
    1c2a:	99 81       	ldd	r25, Y+1	; 0x01
    1c2c:	81 e0       	ldi	r24, 0x01	; 1
    1c2e:	95 ff       	sbrs	r25, 5
    1c30:	80 e0       	ldi	r24, 0x00	; 0
    1c32:	87 83       	std	Z+7, r24	; 0x07
            FASTSPI_READ_FIFO_BYTE(rfSettings.pRxInfo->seqNumber);
    1c34:	c0 98       	cbi	0x18, 0	; 24
    1c36:	8f e7       	ldi	r24, 0x7F	; 127
    1c38:	8f b9       	out	0x0f, r24	; 15
    1c3a:	77 9b       	sbis	0x0e, 7	; 14
    1c3c:	fe cf       	rjmp	.-4      	; 0x1c3a <rf_polling_rx_packet+0x15e>
    1c3e:	1f b8       	out	0x0f, r1	; 15
    1c40:	77 9b       	sbis	0x0e, 7	; 14
    1c42:	fe cf       	rjmp	.-4      	; 0x1c40 <rf_polling_rx_packet+0x164>
    1c44:	e0 91 f4 06 	lds	r30, 0x06F4
    1c48:	f0 91 f5 06 	lds	r31, 0x06F5
    1c4c:	8f b1       	in	r24, 0x0f	; 15
    1c4e:	80 83       	st	Z, r24
    1c50:	c0 9a       	sbi	0x18, 0	; 24

            		// Receive the rest of the packet
            		} else {
            */
            // Skip the destination PAN and address (that's taken care of by harware address recognition!)
            FASTSPI_READ_FIFO_GARBAGE(4);
    1c52:	c0 98       	cbi	0x18, 0	; 24
    1c54:	8f e7       	ldi	r24, 0x7F	; 127
    1c56:	8f b9       	out	0x0f, r24	; 15
    1c58:	77 9b       	sbis	0x0e, 7	; 14
    1c5a:	fe cf       	rjmp	.-4      	; 0x1c58 <rf_polling_rx_packet+0x17c>
    1c5c:	84 e0       	ldi	r24, 0x04	; 4
    1c5e:	05 c0       	rjmp	.+10     	; 0x1c6a <rf_polling_rx_packet+0x18e>
    1c60:	1f b8       	out	0x0f, r1	; 15
    1c62:	77 9b       	sbis	0x0e, 7	; 14
    1c64:	fe cf       	rjmp	.-4      	; 0x1c62 <rf_polling_rx_packet+0x186>
    1c66:	81 50       	subi	r24, 0x01	; 1
    1c68:	11 f0       	breq	.+4      	; 0x1c6e <rf_polling_rx_packet+0x192>
    1c6a:	b7 99       	sbic	0x16, 7	; 22
    1c6c:	f9 cf       	rjmp	.-14     	; 0x1c60 <rf_polling_rx_packet+0x184>
    1c6e:	c0 9a       	sbi	0x18, 0	; 24

            // Read the source address
            FASTSPI_READ_FIFO_NO_WAIT((uint8_t*) &rfSettings.pRxInfo->srcAddr, 2);
    1c70:	c0 98       	cbi	0x18, 0	; 24
    1c72:	8f e7       	ldi	r24, 0x7F	; 127
    1c74:	8f b9       	out	0x0f, r24	; 15
    1c76:	77 9b       	sbis	0x0e, 7	; 14
    1c78:	fe cf       	rjmp	.-4      	; 0x1c76 <rf_polling_rx_packet+0x19a>
    1c7a:	80 e0       	ldi	r24, 0x00	; 0
    1c7c:	90 e0       	ldi	r25, 0x00	; 0
    1c7e:	1f b8       	out	0x0f, r1	; 15
    1c80:	77 9b       	sbis	0x0e, 7	; 14
    1c82:	fe cf       	rjmp	.-4      	; 0x1c80 <rf_polling_rx_packet+0x1a4>
    1c84:	e0 91 f4 06 	lds	r30, 0x06F4
    1c88:	f0 91 f5 06 	lds	r31, 0x06F5
    1c8c:	2f b1       	in	r18, 0x0f	; 15
    1c8e:	e8 0f       	add	r30, r24
    1c90:	f9 1f       	adc	r31, r25
    1c92:	21 83       	std	Z+1, r18	; 0x01
    1c94:	01 96       	adiw	r24, 0x01	; 1
    1c96:	82 30       	cpi	r24, 0x02	; 2
    1c98:	91 05       	cpc	r25, r1
    1c9a:	89 f7       	brne	.-30     	; 0x1c7e <rf_polling_rx_packet+0x1a2>
    1c9c:	c0 9a       	sbi	0x18, 0	; 24

            if(frameControlField & RF_SEC_BM)
    1c9e:	89 81       	ldd	r24, Y+1	; 0x01
    1ca0:	83 ff       	sbrs	r24, 3
    1ca2:	4d c0       	rjmp	.+154    	; 0x1d3e <rf_polling_rx_packet+0x262>
            {
                uint8_t n;
                // READ rx_ctr and set it
                FASTSPI_READ_FIFO_NO_WAIT((uint8_t*) &rx_ctr, 4);
    1ca4:	c0 98       	cbi	0x18, 0	; 24
    1ca6:	8f e7       	ldi	r24, 0x7F	; 127
    1ca8:	8f b9       	out	0x0f, r24	; 15
    1caa:	77 9b       	sbis	0x0e, 7	; 14
    1cac:	fe cf       	rjmp	.-4      	; 0x1caa <rf_polling_rx_packet+0x1ce>
    1cae:	eb ee       	ldi	r30, 0xEB	; 235
    1cb0:	f6 e0       	ldi	r31, 0x06	; 6
    1cb2:	1f b8       	out	0x0f, r1	; 15
    1cb4:	77 9b       	sbis	0x0e, 7	; 14
    1cb6:	fe cf       	rjmp	.-4      	; 0x1cb4 <rf_polling_rx_packet+0x1d8>
    1cb8:	8f b1       	in	r24, 0x0f	; 15
    1cba:	81 93       	st	Z+, r24
    1cbc:	86 e0       	ldi	r24, 0x06	; 6
    1cbe:	ef 3e       	cpi	r30, 0xEF	; 239
    1cc0:	f8 07       	cpc	r31, r24
    1cc2:	b9 f7       	brne	.-18     	; 0x1cb2 <rf_polling_rx_packet+0x1d6>
    1cc4:	c0 9a       	sbi	0x18, 0	; 24
                FASTSPI_WRITE_RAM(&rx_ctr[0],(CC2420RAM_RXNONCE+9),2,n);
    1cc6:	c0 98       	cbi	0x18, 0	; 24
    1cc8:	89 e9       	ldi	r24, 0x99	; 153
    1cca:	8f b9       	out	0x0f, r24	; 15
    1ccc:	77 9b       	sbis	0x0e, 7	; 14
    1cce:	fe cf       	rjmp	.-4      	; 0x1ccc <rf_polling_rx_packet+0x1f0>
    1cd0:	80 e8       	ldi	r24, 0x80	; 128
    1cd2:	8f b9       	out	0x0f, r24	; 15
    1cd4:	77 9b       	sbis	0x0e, 7	; 14
    1cd6:	fe cf       	rjmp	.-4      	; 0x1cd4 <rf_polling_rx_packet+0x1f8>
    1cd8:	82 e0       	ldi	r24, 0x02	; 2
    1cda:	81 50       	subi	r24, 0x01	; 1
    1cdc:	e8 2f       	mov	r30, r24
    1cde:	f0 e0       	ldi	r31, 0x00	; 0
    1ce0:	e5 51       	subi	r30, 0x15	; 21
    1ce2:	f9 4f       	sbci	r31, 0xF9	; 249
    1ce4:	90 81       	ld	r25, Z
    1ce6:	9f b9       	out	0x0f, r25	; 15
    1ce8:	77 9b       	sbis	0x0e, 7	; 14
    1cea:	fe cf       	rjmp	.-4      	; 0x1ce8 <rf_polling_rx_packet+0x20c>
    1cec:	88 23       	and	r24, r24
    1cee:	a9 f7       	brne	.-22     	; 0x1cda <rf_polling_rx_packet+0x1fe>
    1cf0:	c0 9a       	sbi	0x18, 0	; 24
                FASTSPI_WRITE_RAM(&rx_ctr[2],(CC2420RAM_RXNONCE+11),2,n);
    1cf2:	c0 98       	cbi	0x18, 0	; 24
    1cf4:	8b e9       	ldi	r24, 0x9B	; 155
    1cf6:	8f b9       	out	0x0f, r24	; 15
    1cf8:	77 9b       	sbis	0x0e, 7	; 14
    1cfa:	fe cf       	rjmp	.-4      	; 0x1cf8 <rf_polling_rx_packet+0x21c>
    1cfc:	80 e8       	ldi	r24, 0x80	; 128
    1cfe:	8f b9       	out	0x0f, r24	; 15
    1d00:	77 9b       	sbis	0x0e, 7	; 14
    1d02:	fe cf       	rjmp	.-4      	; 0x1d00 <rf_polling_rx_packet+0x224>
    1d04:	82 e0       	ldi	r24, 0x02	; 2
    1d06:	81 50       	subi	r24, 0x01	; 1
    1d08:	e8 2f       	mov	r30, r24
    1d0a:	f0 e0       	ldi	r31, 0x00	; 0
    1d0c:	e3 51       	subi	r30, 0x13	; 19
    1d0e:	f9 4f       	sbci	r31, 0xF9	; 249
    1d10:	90 81       	ld	r25, Z
    1d12:	9f b9       	out	0x0f, r25	; 15
    1d14:	77 9b       	sbis	0x0e, 7	; 14
    1d16:	fe cf       	rjmp	.-4      	; 0x1d14 <rf_polling_rx_packet+0x238>
    1d18:	88 23       	and	r24, r24
    1d1a:	a9 f7       	brne	.-22     	; 0x1d06 <rf_polling_rx_packet+0x22a>
    1d1c:	c0 9a       	sbi	0x18, 0	; 24
                FASTSPI_STROBE(CC2420_SRXDEC);  // if packet is encrypted then decrypt
    1d1e:	c0 98       	cbi	0x18, 0	; 24
    1d20:	8c e0       	ldi	r24, 0x0C	; 12
    1d22:	8f b9       	out	0x0f, r24	; 15
    1d24:	77 9b       	sbis	0x0e, 7	; 14
    1d26:	fe cf       	rjmp	.-4      	; 0x1d24 <rf_polling_rx_packet+0x248>
    1d28:	c0 9a       	sbi	0x18, 0	; 24
                last_pkt_encrypted=1;
    1d2a:	81 e0       	ldi	r24, 0x01	; 1
    1d2c:	80 93 00 07 	sts	0x0700, r24
                rfSettings.pRxInfo->length -= 4;
    1d30:	e0 91 f4 06 	lds	r30, 0x06F4
    1d34:	f0 91 f5 06 	lds	r31, 0x06F5
    1d38:	83 81       	ldd	r24, Z+3	; 0x03
    1d3a:	84 50       	subi	r24, 0x04	; 4
    1d3c:	83 83       	std	Z+3, r24	; 0x03
            }

            // Read the packet payload
            FASTSPI_READ_FIFO_NO_WAIT(rfSettings.pRxInfo->pPayload, rfSettings.pRxInfo->length);
    1d3e:	c0 98       	cbi	0x18, 0	; 24
    1d40:	8f e7       	ldi	r24, 0x7F	; 127
    1d42:	8f b9       	out	0x0f, r24	; 15
    1d44:	77 9b       	sbis	0x0e, 7	; 14
    1d46:	fe cf       	rjmp	.-4      	; 0x1d44 <rf_polling_rx_packet+0x268>
    1d48:	40 e0       	ldi	r20, 0x00	; 0
    1d4a:	0f c0       	rjmp	.+30     	; 0x1d6a <rf_polling_rx_packet+0x28e>
    1d4c:	1f b8       	out	0x0f, r1	; 15
    1d4e:	77 9b       	sbis	0x0e, 7	; 14
    1d50:	fe cf       	rjmp	.-4      	; 0x1d4e <rf_polling_rx_packet+0x272>
    1d52:	e0 91 f4 06 	lds	r30, 0x06F4
    1d56:	f0 91 f5 06 	lds	r31, 0x06F5
    1d5a:	8f b1       	in	r24, 0x0f	; 15
    1d5c:	05 80       	ldd	r0, Z+5	; 0x05
    1d5e:	f6 81       	ldd	r31, Z+6	; 0x06
    1d60:	e0 2d       	mov	r30, r0
    1d62:	e4 0f       	add	r30, r20
    1d64:	f1 1d       	adc	r31, r1
    1d66:	80 83       	st	Z, r24
    1d68:	4f 5f       	subi	r20, 0xFF	; 255
    1d6a:	e0 91 f4 06 	lds	r30, 0x06F4
    1d6e:	f0 91 f5 06 	lds	r31, 0x06F5
    1d72:	24 2f       	mov	r18, r20
    1d74:	30 e0       	ldi	r19, 0x00	; 0
    1d76:	83 81       	ldd	r24, Z+3	; 0x03
    1d78:	99 27       	eor	r25, r25
    1d7a:	87 fd       	sbrc	r24, 7
    1d7c:	90 95       	com	r25
    1d7e:	28 17       	cp	r18, r24
    1d80:	39 07       	cpc	r19, r25
    1d82:	24 f3       	brlt	.-56     	; 0x1d4c <rf_polling_rx_packet+0x270>
    1d84:	c0 9a       	sbi	0x18, 0	; 24
            FASTSPI_READ_FIFO_NO_WAIT(&rx_checksum, 1 );
    1d86:	c0 98       	cbi	0x18, 0	; 24
    1d88:	8f e7       	ldi	r24, 0x7F	; 127
    1d8a:	8f b9       	out	0x0f, r24	; 15
    1d8c:	77 9b       	sbis	0x0e, 7	; 14
    1d8e:	fe cf       	rjmp	.-4      	; 0x1d8c <rf_polling_rx_packet+0x2b0>
    1d90:	1f b8       	out	0x0f, r1	; 15
    1d92:	77 9b       	sbis	0x0e, 7	; 14
    1d94:	fe cf       	rjmp	.-4      	; 0x1d92 <rf_polling_rx_packet+0x2b6>
    1d96:	6f b1       	in	r22, 0x0f	; 15
    1d98:	c0 9a       	sbi	0x18, 0	; 24

            // Read the footer to get the RSSI value
            FASTSPI_READ_FIFO_NO_WAIT((uint8_t*) pFooter, 2);
    1d9a:	c0 98       	cbi	0x18, 0	; 24
    1d9c:	8f e7       	ldi	r24, 0x7F	; 127
    1d9e:	8f b9       	out	0x0f, r24	; 15
    1da0:	77 9b       	sbis	0x0e, 7	; 14
    1da2:	fe cf       	rjmp	.-4      	; 0x1da0 <rf_polling_rx_packet+0x2c4>
    1da4:	fe 01       	movw	r30, r28
    1da6:	33 96       	adiw	r30, 0x03	; 3
{
    return SFD_IS_1;
}
uint16_t tmp_blah;

int8_t rf_polling_rx_packet()
    1da8:	ce 01       	movw	r24, r28
    1daa:	05 96       	adiw	r24, 0x05	; 5
            // Read the packet payload
            FASTSPI_READ_FIFO_NO_WAIT(rfSettings.pRxInfo->pPayload, rfSettings.pRxInfo->length);
            FASTSPI_READ_FIFO_NO_WAIT(&rx_checksum, 1 );

            // Read the footer to get the RSSI value
            FASTSPI_READ_FIFO_NO_WAIT((uint8_t*) pFooter, 2);
    1dac:	1f b8       	out	0x0f, r1	; 15
    1dae:	77 9b       	sbis	0x0e, 7	; 14
    1db0:	fe cf       	rjmp	.-4      	; 0x1dae <rf_polling_rx_packet+0x2d2>
    1db2:	2f b1       	in	r18, 0x0f	; 15
    1db4:	21 93       	st	Z+, r18
    1db6:	e8 17       	cp	r30, r24
    1db8:	f9 07       	cpc	r31, r25
    1dba:	c1 f7       	brne	.-16     	; 0x1dac <rf_polling_rx_packet+0x2d0>
    1dbc:	c0 9a       	sbi	0x18, 0	; 24
            rfSettings.pRxInfo->rssi = pFooter[0];
    1dbe:	e0 91 f4 06 	lds	r30, 0x06F4
    1dc2:	f0 91 f5 06 	lds	r31, 0x06F5
    1dc6:	8b 81       	ldd	r24, Y+3	; 0x03
    1dc8:	80 87       	std	Z+8, r24	; 0x08
            checksum=0;
            for(i=0; i<rfSettings.pRxInfo->length; i++ )
    1dca:	50 e0       	ldi	r21, 0x00	; 0
            FASTSPI_READ_FIFO_NO_WAIT(&rx_checksum, 1 );

            // Read the footer to get the RSSI value
            FASTSPI_READ_FIFO_NO_WAIT((uint8_t*) pFooter, 2);
            rfSettings.pRxInfo->rssi = pFooter[0];
            checksum=0;
    1dcc:	40 e0       	ldi	r20, 0x00	; 0
            for(i=0; i<rfSettings.pRxInfo->length; i++ )
    1dce:	0c c0       	rjmp	.+24     	; 0x1de8 <rf_polling_rx_packet+0x30c>
            {
                checksum+=rfSettings.pRxInfo->pPayload[i];
    1dd0:	e0 91 f4 06 	lds	r30, 0x06F4
    1dd4:	f0 91 f5 06 	lds	r31, 0x06F5
    1dd8:	05 80       	ldd	r0, Z+5	; 0x05
    1dda:	f6 81       	ldd	r31, Z+6	; 0x06
    1ddc:	e0 2d       	mov	r30, r0
    1dde:	e8 0f       	add	r30, r24
    1de0:	f9 1f       	adc	r31, r25
    1de2:	80 81       	ld	r24, Z
    1de4:	48 0f       	add	r20, r24

            // Read the footer to get the RSSI value
            FASTSPI_READ_FIFO_NO_WAIT((uint8_t*) pFooter, 2);
            rfSettings.pRxInfo->rssi = pFooter[0];
            checksum=0;
            for(i=0; i<rfSettings.pRxInfo->length; i++ )
    1de6:	5f 5f       	subi	r21, 0xFF	; 255
    1de8:	e0 91 f4 06 	lds	r30, 0x06F4
    1dec:	f0 91 f5 06 	lds	r31, 0x06F5
    1df0:	85 2f       	mov	r24, r21
    1df2:	90 e0       	ldi	r25, 0x00	; 0
    1df4:	23 81       	ldd	r18, Z+3	; 0x03
    1df6:	33 27       	eor	r19, r19
    1df8:	27 fd       	sbrc	r18, 7
    1dfa:	30 95       	com	r19
    1dfc:	82 17       	cp	r24, r18
    1dfe:	93 07       	cpc	r25, r19
    1e00:	3c f3       	brlt	.-50     	; 0x1dd0 <rf_polling_rx_packet+0x2f4>
            {
                checksum+=rfSettings.pRxInfo->pPayload[i];
                //printf( "%d ", rfSettings.pRxInfo->pPayload[i]);
            }

            if(checksum!=rx_checksum)
    1e02:	46 17       	cp	r20, r22
    1e04:	c1 f0       	breq	.+48     	; 0x1e36 <rf_polling_rx_packet+0x35a>
            {
                //printf( "Checksum failed %d %d\r",rx_checksum, checksum );
                // always read 1 byte before flush (data sheet pg 62)
                FASTSPI_READ_FIFO_BYTE(tmp);
    1e06:	c0 98       	cbi	0x18, 0	; 24
    1e08:	8f e7       	ldi	r24, 0x7F	; 127
    1e0a:	8f b9       	out	0x0f, r24	; 15
    1e0c:	77 9b       	sbis	0x0e, 7	; 14
    1e0e:	fe cf       	rjmp	.-4      	; 0x1e0c <rf_polling_rx_packet+0x330>
    1e10:	1f b8       	out	0x0f, r1	; 15
    1e12:	77 9b       	sbis	0x0e, 7	; 14
    1e14:	fe cf       	rjmp	.-4      	; 0x1e12 <rf_polling_rx_packet+0x336>
    1e16:	8f b1       	in	r24, 0x0f	; 15
    1e18:	c0 9a       	sbi	0x18, 0	; 24
                FASTSPI_STROBE(CC2420_SFLUSHRX);
    1e1a:	c0 98       	cbi	0x18, 0	; 24
    1e1c:	88 e0       	ldi	r24, 0x08	; 8
    1e1e:	8f b9       	out	0x0f, r24	; 15
    1e20:	77 9b       	sbis	0x0e, 7	; 14
    1e22:	fe cf       	rjmp	.-4      	; 0x1e20 <rf_polling_rx_packet+0x344>
    1e24:	c0 9a       	sbi	0x18, 0	; 24
                FASTSPI_STROBE(CC2420_SFLUSHRX);
    1e26:	c0 98       	cbi	0x18, 0	; 24
    1e28:	88 e0       	ldi	r24, 0x08	; 8
    1e2a:	8f b9       	out	0x0f, r24	; 15
    1e2c:	77 9b       	sbis	0x0e, 7	; 14
    1e2e:	fe cf       	rjmp	.-4      	; 0x1e2c <rf_polling_rx_packet+0x350>
    1e30:	c0 9a       	sbi	0x18, 0	; 24
#ifdef RADIO_PRIORITY_CEILING
                nrk_sem_post(radio_sem);
#endif
                return -4;
    1e32:	8c ef       	ldi	r24, 0xFC	; 252
    1e34:	23 c0       	rjmp	.+70     	; 0x1e7c <rf_polling_rx_packet+0x3a0>
            }
            if (pFooter[1] & RF_CRC_OK_BM)
    1e36:	8c 81       	ldd	r24, Y+4	; 0x04
    1e38:	87 ff       	sbrs	r24, 7
    1e3a:	07 c0       	rjmp	.+14     	; 0x1e4a <rf_polling_rx_packet+0x36e>
            {
                //rfSettings.pRxInfo = rf_rx_callback(rfSettings.pRxInfo);
                rx_ready++;
    1e3c:	80 91 05 07 	lds	r24, 0x0705
    1e40:	8f 5f       	subi	r24, 0xFF	; 255
    1e42:	80 93 05 07 	sts	0x0705, r24
#ifdef RADIO_PRIORITY_CEILING
                nrk_sem_post(radio_sem);
#endif
                return 1;
    1e46:	81 e0       	ldi	r24, 0x01	; 1
    1e48:	19 c0       	rjmp	.+50     	; 0x1e7c <rf_polling_rx_packet+0x3a0>
            }
            else
            {
                // always read 1 byte before flush (data sheet pg 62)
                FASTSPI_READ_FIFO_BYTE(tmp);
    1e4a:	c0 98       	cbi	0x18, 0	; 24
    1e4c:	8f e7       	ldi	r24, 0x7F	; 127
    1e4e:	8f b9       	out	0x0f, r24	; 15
    1e50:	77 9b       	sbis	0x0e, 7	; 14
    1e52:	fe cf       	rjmp	.-4      	; 0x1e50 <rf_polling_rx_packet+0x374>
    1e54:	1f b8       	out	0x0f, r1	; 15
    1e56:	77 9b       	sbis	0x0e, 7	; 14
    1e58:	fe cf       	rjmp	.-4      	; 0x1e56 <rf_polling_rx_packet+0x37a>
    1e5a:	8f b1       	in	r24, 0x0f	; 15
    1e5c:	c0 9a       	sbi	0x18, 0	; 24
                FASTSPI_STROBE(CC2420_SFLUSHRX);
    1e5e:	c0 98       	cbi	0x18, 0	; 24
    1e60:	88 e0       	ldi	r24, 0x08	; 8
    1e62:	8f b9       	out	0x0f, r24	; 15
    1e64:	77 9b       	sbis	0x0e, 7	; 14
    1e66:	fe cf       	rjmp	.-4      	; 0x1e64 <rf_polling_rx_packet+0x388>
    1e68:	c0 9a       	sbi	0x18, 0	; 24
                FASTSPI_STROBE(CC2420_SFLUSHRX);
    1e6a:	c0 98       	cbi	0x18, 0	; 24
    1e6c:	88 e0       	ldi	r24, 0x08	; 8
    1e6e:	8f b9       	out	0x0f, r24	; 15
    1e70:	77 9b       	sbis	0x0e, 7	; 14
    1e72:	fe cf       	rjmp	.-4      	; 0x1e70 <rf_polling_rx_packet+0x394>
    1e74:	c0 9a       	sbi	0x18, 0	; 24
#ifdef RADIO_PRIORITY_CEILING
                nrk_sem_post(radio_sem);
#endif
                return -5;
    1e76:	8b ef       	ldi	r24, 0xFB	; 251
    1e78:	01 c0       	rjmp	.+2      	; 0x1e7c <rf_polling_rx_packet+0x3a0>

    }
#ifdef RADIO_PRIORITY_CEILING
    nrk_sem_post(radio_sem);
#endif
    return 0;
    1e7a:	80 e0       	ldi	r24, 0x00	; 0
}
    1e7c:	0f 90       	pop	r0
    1e7e:	0f 90       	pop	r0
    1e80:	0f 90       	pop	r0
    1e82:	0f 90       	pop	r0
    1e84:	cf 91       	pop	r28
    1e86:	df 91       	pop	r29
    1e88:	08 95       	ret

00001e8a <rf_rx_packet>:

int8_t rf_rx_packet()
{
    int8_t tmp;
    if(rx_ready>0)
    1e8a:	80 91 05 07 	lds	r24, 0x0705
    1e8e:	88 23       	and	r24, r24
    1e90:	29 f0       	breq	.+10     	; 0x1e9c <rf_rx_packet+0x12>
    {
        tmp=rx_ready;
    1e92:	80 91 05 07 	lds	r24, 0x0705
        rx_ready=0;
    1e96:	10 92 05 07 	sts	0x0705, r1
        return tmp;
    1e9a:	08 95       	ret
    }
    return 0;
    1e9c:	80 e0       	ldi	r24, 0x00	; 0
}
    1e9e:	08 95       	ret

00001ea0 <rf_flush_rx_fifo>:


inline void rf_flush_rx_fifo()
{
    FASTSPI_STROBE(CC2420_SFLUSHRX);
    1ea0:	c0 98       	cbi	0x18, 0	; 24
    1ea2:	88 e0       	ldi	r24, 0x08	; 8
    1ea4:	8f b9       	out	0x0f, r24	; 15
    1ea6:	77 9b       	sbis	0x0e, 7	; 14
    1ea8:	fe cf       	rjmp	.-4      	; 0x1ea6 <rf_flush_rx_fifo+0x6>
    1eaa:	c0 9a       	sbi	0x18, 0	; 24
    FASTSPI_STROBE(CC2420_SFLUSHRX);
    1eac:	c0 98       	cbi	0x18, 0	; 24
    1eae:	88 e0       	ldi	r24, 0x08	; 8
    1eb0:	8f b9       	out	0x0f, r24	; 15
    1eb2:	77 9b       	sbis	0x0e, 7	; 14
    1eb4:	fe cf       	rjmp	.-4      	; 0x1eb2 <rf_flush_rx_fifo+0x12>
    1eb6:	c0 9a       	sbi	0x18, 0	; 24
}
    1eb8:	08 95       	ret

00001eba <rf_set_cca_thresh>:
    uint16_t val;
#ifdef RADIO_PRIORITY_CEILING
    nrk_sem_pend(radio_sem);
#endif

    val=(t<<8) | 0x80;
    1eba:	99 27       	eor	r25, r25
    1ebc:	87 fd       	sbrc	r24, 7
    1ebe:	90 95       	com	r25
    1ec0:	98 2f       	mov	r25, r24
    1ec2:	88 27       	eor	r24, r24
    1ec4:	80 68       	ori	r24, 0x80	; 128
    FASTSPI_SETREG(CC2420_RSSI, val);
    1ec6:	c0 98       	cbi	0x18, 0	; 24
    1ec8:	23 e1       	ldi	r18, 0x13	; 19
    1eca:	2f b9       	out	0x0f, r18	; 15
    1ecc:	77 9b       	sbis	0x0e, 7	; 14
    1ece:	fe cf       	rjmp	.-4      	; 0x1ecc <rf_set_cca_thresh+0x12>
    1ed0:	9f b9       	out	0x0f, r25	; 15
    1ed2:	77 9b       	sbis	0x0e, 7	; 14
    1ed4:	fe cf       	rjmp	.-4      	; 0x1ed2 <rf_set_cca_thresh+0x18>
    1ed6:	8f b9       	out	0x0f, r24	; 15
    1ed8:	77 9b       	sbis	0x0e, 7	; 14
    1eda:	fe cf       	rjmp	.-4      	; 0x1ed8 <rf_set_cca_thresh+0x1e>
    1edc:	c0 9a       	sbi	0x18, 0	; 24

#ifdef RADIO_PRIORITY_CEILING
    nrk_sem_post(radio_sem);
#endif
}
    1ede:	08 95       	ret

00001ee0 <rf_test_mode>:
{

#ifdef RADIO_PRIORITY_CEILING
    nrk_sem_pend(radio_sem);
#endif
    FASTSPI_STROBE(CC2420_SRFOFF); //stop radio
    1ee0:	c0 98       	cbi	0x18, 0	; 24
    1ee2:	86 e0       	ldi	r24, 0x06	; 6
    1ee4:	8f b9       	out	0x0f, r24	; 15
    1ee6:	77 9b       	sbis	0x0e, 7	; 14
    1ee8:	fe cf       	rjmp	.-4      	; 0x1ee6 <rf_test_mode+0x6>
    1eea:	c0 9a       	sbi	0x18, 0	; 24
    // RF studio" uses TX_MODE=3 (CC2420_MDMCTRL1=0x050C)
    // to send an unmodulated carrier; data sheet says TX_MODE
    // can be 2 or 3. So it should not matter...
    // HOWEVER, using (TX_MODE=3) sometimes causes problems when
    // going back to "data" mode!
    FASTSPI_SETREG(CC2420_MDMCTRL1, 0x0508); // MDMCTRL1 with TX_MODE=2
    1eec:	c0 98       	cbi	0x18, 0	; 24
    1eee:	82 e1       	ldi	r24, 0x12	; 18
    1ef0:	8f b9       	out	0x0f, r24	; 15
    1ef2:	77 9b       	sbis	0x0e, 7	; 14
    1ef4:	fe cf       	rjmp	.-4      	; 0x1ef2 <rf_test_mode+0x12>
    1ef6:	85 e0       	ldi	r24, 0x05	; 5
    1ef8:	8f b9       	out	0x0f, r24	; 15
    1efa:	77 9b       	sbis	0x0e, 7	; 14
    1efc:	fe cf       	rjmp	.-4      	; 0x1efa <rf_test_mode+0x1a>
    1efe:	88 e0       	ldi	r24, 0x08	; 8
    1f00:	8f b9       	out	0x0f, r24	; 15
    1f02:	77 9b       	sbis	0x0e, 7	; 14
    1f04:	fe cf       	rjmp	.-4      	; 0x1f02 <rf_test_mode+0x22>
    1f06:	c0 9a       	sbi	0x18, 0	; 24
    FASTSPI_SETREG(CC2420_DACTST, 0x1800); // send unmodulated carrier
    1f08:	c0 98       	cbi	0x18, 0	; 24
    1f0a:	8e e2       	ldi	r24, 0x2E	; 46
    1f0c:	8f b9       	out	0x0f, r24	; 15
    1f0e:	77 9b       	sbis	0x0e, 7	; 14
    1f10:	fe cf       	rjmp	.-4      	; 0x1f0e <rf_test_mode+0x2e>
    1f12:	88 e1       	ldi	r24, 0x18	; 24
    1f14:	8f b9       	out	0x0f, r24	; 15
    1f16:	77 9b       	sbis	0x0e, 7	; 14
    1f18:	fe cf       	rjmp	.-4      	; 0x1f16 <rf_test_mode+0x36>
    1f1a:	1f b8       	out	0x0f, r1	; 15
    1f1c:	77 9b       	sbis	0x0e, 7	; 14
    1f1e:	fe cf       	rjmp	.-4      	; 0x1f1c <rf_test_mode+0x3c>
    1f20:	c0 9a       	sbi	0x18, 0	; 24
    rf_flush_rx_fifo();
    1f22:	0e 94 50 0f 	call	0x1ea0	; 0x1ea0 <rf_flush_rx_fifo>

#ifdef RADIO_PRIORITY_CEILING
    nrk_sem_post(radio_sem);
#endif
}
    1f26:	08 95       	ret

00001f28 <rf_data_mode>:
#ifdef RADIO_PRIORITY_CEILING
    nrk_sem_pend(radio_sem);
#endif


    FASTSPI_STROBE(CC2420_SRFOFF); //stop radio
    1f28:	c0 98       	cbi	0x18, 0	; 24
    1f2a:	86 e0       	ldi	r24, 0x06	; 6
    1f2c:	8f b9       	out	0x0f, r24	; 15
    1f2e:	77 9b       	sbis	0x0e, 7	; 14
    1f30:	fe cf       	rjmp	.-4      	; 0x1f2e <rf_data_mode+0x6>
    1f32:	c0 9a       	sbi	0x18, 0	; 24
    FASTSPI_SETREG(CC2420_MDMCTRL1, 0x0500); // default MDMCTRL1 value
    1f34:	c0 98       	cbi	0x18, 0	; 24
    1f36:	82 e1       	ldi	r24, 0x12	; 18
    1f38:	8f b9       	out	0x0f, r24	; 15
    1f3a:	77 9b       	sbis	0x0e, 7	; 14
    1f3c:	fe cf       	rjmp	.-4      	; 0x1f3a <rf_data_mode+0x12>
    1f3e:	85 e0       	ldi	r24, 0x05	; 5
    1f40:	8f b9       	out	0x0f, r24	; 15
    1f42:	77 9b       	sbis	0x0e, 7	; 14
    1f44:	fe cf       	rjmp	.-4      	; 0x1f42 <rf_data_mode+0x1a>
    1f46:	1f b8       	out	0x0f, r1	; 15
    1f48:	77 9b       	sbis	0x0e, 7	; 14
    1f4a:	fe cf       	rjmp	.-4      	; 0x1f48 <rf_data_mode+0x20>
    1f4c:	c0 9a       	sbi	0x18, 0	; 24
    FASTSPI_SETREG(CC2420_DACTST, 0); // default value
    1f4e:	c0 98       	cbi	0x18, 0	; 24
    1f50:	8e e2       	ldi	r24, 0x2E	; 46
    1f52:	8f b9       	out	0x0f, r24	; 15
    1f54:	77 9b       	sbis	0x0e, 7	; 14
    1f56:	fe cf       	rjmp	.-4      	; 0x1f54 <rf_data_mode+0x2c>
    1f58:	1f b8       	out	0x0f, r1	; 15
    1f5a:	77 9b       	sbis	0x0e, 7	; 14
    1f5c:	fe cf       	rjmp	.-4      	; 0x1f5a <rf_data_mode+0x32>
    1f5e:	1f b8       	out	0x0f, r1	; 15
    1f60:	77 9b       	sbis	0x0e, 7	; 14
    1f62:	fe cf       	rjmp	.-4      	; 0x1f60 <rf_data_mode+0x38>
    1f64:	c0 9a       	sbi	0x18, 0	; 24
    rf_flush_rx_fifo();
    1f66:	0e 94 50 0f 	call	0x1ea0	; 0x1ea0 <rf_flush_rx_fifo>
#ifdef RADIO_PRIORITY_CEILING
    nrk_sem_post(radio_sem);
#endif
}
    1f6a:	08 95       	ret

00001f6c <rf_rx_set_serial>:
 * Use rf_rx_on() to start rcv, then wait for SFD / FIFOP. Sample during each high edge of FIFOP
 * This can be undone by using rf_data_mode()
 */
void rf_rx_set_serial()
{
    FASTSPI_STROBE(CC2420_SRFOFF);           // stop radio
    1f6c:	c0 98       	cbi	0x18, 0	; 24
    1f6e:	86 e0       	ldi	r24, 0x06	; 6
    1f70:	8f b9       	out	0x0f, r24	; 15
    1f72:	77 9b       	sbis	0x0e, 7	; 14
    1f74:	fe cf       	rjmp	.-4      	; 0x1f72 <rf_rx_set_serial+0x6>
    1f76:	c0 9a       	sbi	0x18, 0	; 24
    FASTSPI_SETREG(CC2420_MDMCTRL1, 0x0501); // Set RX_MODE to 1
    1f78:	c0 98       	cbi	0x18, 0	; 24
    1f7a:	82 e1       	ldi	r24, 0x12	; 18
    1f7c:	8f b9       	out	0x0f, r24	; 15
    1f7e:	77 9b       	sbis	0x0e, 7	; 14
    1f80:	fe cf       	rjmp	.-4      	; 0x1f7e <rf_rx_set_serial+0x12>
    1f82:	85 e0       	ldi	r24, 0x05	; 5
    1f84:	8f b9       	out	0x0f, r24	; 15
    1f86:	77 9b       	sbis	0x0e, 7	; 14
    1f88:	fe cf       	rjmp	.-4      	; 0x1f86 <rf_rx_set_serial+0x1a>
    1f8a:	81 e0       	ldi	r24, 0x01	; 1
    1f8c:	8f b9       	out	0x0f, r24	; 15
    1f8e:	77 9b       	sbis	0x0e, 7	; 14
    1f90:	fe cf       	rjmp	.-4      	; 0x1f8e <rf_rx_set_serial+0x22>
    1f92:	c0 9a       	sbi	0x18, 0	; 24
    rf_flush_rx_fifo();
    1f94:	0e 94 50 0f 	call	0x1ea0	; 0x1ea0 <rf_flush_rx_fifo>
}
    1f98:	08 95       	ret

00001f9a <rf_tx_set_serial>:
 * NOTE: You must set the FIFO pin to output mode in order to do this!
 * This can be undone by calling rf_data_mode()
 */
void rf_tx_set_serial()
{
    FASTSPI_SETREG(CC2420_MDMCTRL1, 0x0504); // set TXMODE to 1
    1f9a:	c0 98       	cbi	0x18, 0	; 24
    1f9c:	82 e1       	ldi	r24, 0x12	; 18
    1f9e:	8f b9       	out	0x0f, r24	; 15
    1fa0:	77 9b       	sbis	0x0e, 7	; 14
    1fa2:	fe cf       	rjmp	.-4      	; 0x1fa0 <rf_tx_set_serial+0x6>
    1fa4:	85 e0       	ldi	r24, 0x05	; 5
    1fa6:	8f b9       	out	0x0f, r24	; 15
    1fa8:	77 9b       	sbis	0x0e, 7	; 14
    1faa:	fe cf       	rjmp	.-4      	; 0x1fa8 <rf_tx_set_serial+0xe>
    1fac:	84 e0       	ldi	r24, 0x04	; 4
    1fae:	8f b9       	out	0x0f, r24	; 15
    1fb0:	77 9b       	sbis	0x0e, 7	; 14
    1fb2:	fe cf       	rjmp	.-4      	; 0x1fb0 <rf_tx_set_serial+0x16>
    1fb4:	c0 9a       	sbi	0x18, 0	; 24
    rf_flush_rx_fifo();
    1fb6:	0e 94 50 0f 	call	0x1ea0	; 0x1ea0 <rf_flush_rx_fifo>
}
    1fba:	08 95       	ret

00001fbc <rf_set_preamble_length>:
 * Length arg supports values 0 to 15. See the datasheet of course for more details
 */
void rf_set_preamble_length(uint8_t length)
{
    mdmctrl0 &= (0xFFF0);
    mdmctrl0 |= (length & 0x000F);
    1fbc:	90 e0       	ldi	r25, 0x00	; 0
    1fbe:	8f 70       	andi	r24, 0x0F	; 15
    1fc0:	90 70       	andi	r25, 0x00	; 0
 * (3 bytes is 802.15.4 compliant, so length arg would be 2)
 * Length arg supports values 0 to 15. See the datasheet of course for more details
 */
void rf_set_preamble_length(uint8_t length)
{
    mdmctrl0 &= (0xFFF0);
    1fc2:	20 91 f2 06 	lds	r18, 0x06F2
    1fc6:	30 91 f3 06 	lds	r19, 0x06F3
    1fca:	20 7f       	andi	r18, 0xF0	; 240
    mdmctrl0 |= (length & 0x000F);
    1fcc:	82 2b       	or	r24, r18
    1fce:	93 2b       	or	r25, r19
    1fd0:	90 93 f3 06 	sts	0x06F3, r25
    1fd4:	80 93 f2 06 	sts	0x06F2, r24
    FASTSPI_SETREG(CC2420_MDMCTRL0, mdmctrl0);
    1fd8:	c0 98       	cbi	0x18, 0	; 24
    1fda:	81 e1       	ldi	r24, 0x11	; 17
    1fdc:	8f b9       	out	0x0f, r24	; 15
    1fde:	77 9b       	sbis	0x0e, 7	; 14
    1fe0:	fe cf       	rjmp	.-4      	; 0x1fde <rf_set_preamble_length+0x22>
    1fe2:	80 91 f3 06 	lds	r24, 0x06F3
    1fe6:	8f b9       	out	0x0f, r24	; 15
    1fe8:	77 9b       	sbis	0x0e, 7	; 14
    1fea:	fe cf       	rjmp	.-4      	; 0x1fe8 <rf_set_preamble_length+0x2c>
    1fec:	80 91 f2 06 	lds	r24, 0x06F2
    1ff0:	8f b9       	out	0x0f, r24	; 15
    1ff2:	77 9b       	sbis	0x0e, 7	; 14
    1ff4:	fe cf       	rjmp	.-4      	; 0x1ff2 <rf_set_preamble_length+0x36>
    1ff6:	c0 9a       	sbi	0x18, 0	; 24
}
    1ff8:	08 95       	ret

00001ffa <rf_set_cca_mode>:
 * Accept 1-3 as argument
 */
void rf_set_cca_mode(uint8_t mode)
{
    mdmctrl0 &= (0xFF3F);
    mdmctrl0 |= ((mode & 0x3) << 6);
    1ffa:	90 e0       	ldi	r25, 0x00	; 0
    1ffc:	26 e0       	ldi	r18, 0x06	; 6
    1ffe:	88 0f       	add	r24, r24
    2000:	99 1f       	adc	r25, r25
    2002:	2a 95       	dec	r18
    2004:	e1 f7       	brne	.-8      	; 0x1ffe <rf_set_cca_mode+0x4>
    2006:	90 70       	andi	r25, 0x00	; 0
 * Set the CCA mode
 * Accept 1-3 as argument
 */
void rf_set_cca_mode(uint8_t mode)
{
    mdmctrl0 &= (0xFF3F);
    2008:	20 91 f2 06 	lds	r18, 0x06F2
    200c:	30 91 f3 06 	lds	r19, 0x06F3
    2010:	2f 73       	andi	r18, 0x3F	; 63
    mdmctrl0 |= ((mode & 0x3) << 6);
    2012:	82 2b       	or	r24, r18
    2014:	93 2b       	or	r25, r19
    2016:	90 93 f3 06 	sts	0x06F3, r25
    201a:	80 93 f2 06 	sts	0x06F2, r24
    FASTSPI_SETREG(CC2420_MDMCTRL0, mdmctrl0);
    201e:	c0 98       	cbi	0x18, 0	; 24
    2020:	81 e1       	ldi	r24, 0x11	; 17
    2022:	8f b9       	out	0x0f, r24	; 15
    2024:	77 9b       	sbis	0x0e, 7	; 14
    2026:	fe cf       	rjmp	.-4      	; 0x2024 <rf_set_cca_mode+0x2a>
    2028:	80 91 f3 06 	lds	r24, 0x06F3
    202c:	8f b9       	out	0x0f, r24	; 15
    202e:	77 9b       	sbis	0x0e, 7	; 14
    2030:	fe cf       	rjmp	.-4      	; 0x202e <rf_set_cca_mode+0x34>
    2032:	80 91 f2 06 	lds	r24, 0x06F2
    2036:	8f b9       	out	0x0f, r24	; 15
    2038:	77 9b       	sbis	0x0e, 7	; 14
    203a:	fe cf       	rjmp	.-4      	; 0x2038 <rf_set_cca_mode+0x3e>
    203c:	c0 9a       	sbi	0x18, 0	; 24
}
    203e:	08 95       	ret

00002040 <rf_carrier_on>:
    nrk_spin_wait_us(OSC_STARTUP_DELAY);
#endif



    FASTSPI_STROBE(CC2420_STXON); // tell radio to start sending
    2040:	c0 98       	cbi	0x18, 0	; 24
    2042:	84 e0       	ldi	r24, 0x04	; 4
    2044:	8f b9       	out	0x0f, r24	; 15
    2046:	77 9b       	sbis	0x0e, 7	; 14
    2048:	fe cf       	rjmp	.-4      	; 0x2046 <rf_carrier_on+0x6>
    204a:	c0 9a       	sbi	0x18, 0	; 24
#ifdef RADIO_PRIORITY_CEILING
    nrk_sem_post(radio_sem);
#endif
}
    204c:	08 95       	ret

0000204e <rf_carrier_off>:
#ifdef CC2420_OSC_OPT
    FASTSPI_STROBE(CC2420_SXOSCOFF);
#endif


    FASTSPI_STROBE(CC2420_SRFOFF); // stop radio
    204e:	c0 98       	cbi	0x18, 0	; 24
    2050:	86 e0       	ldi	r24, 0x06	; 6
    2052:	8f b9       	out	0x0f, r24	; 15
    2054:	77 9b       	sbis	0x0e, 7	; 14
    2056:	fe cf       	rjmp	.-4      	; 0x2054 <rf_carrier_off+0x6>
    2058:	c0 9a       	sbi	0x18, 0	; 24
#ifdef RADIO_PRIORITY_CEILING
    nrk_sem_post(radio_sem);
#endif
}
    205a:	08 95       	ret

0000205c <getc0>:
}

char getc0(void)
{
    unsigned char tmp;
    UART0_WAIT_AND_RECEIVE(tmp);
    205c:	5f 9b       	sbis	0x0b, 7	; 11
    205e:	fe cf       	rjmp	.-4      	; 0x205c <getc0>
    2060:	5f 98       	cbi	0x0b, 7	; 11
    2062:	8c b1       	in	r24, 0x0c	; 12
    return tmp;
}
    2064:	08 95       	ret

00002066 <putc0>:
}
*/

void putc0(char x)
{
    UART0_WAIT_AND_SEND(x);
    2066:	5d 9b       	sbis	0x0b, 5	; 11
    2068:	fe cf       	rjmp	.-4      	; 0x2066 <putc0>
    206a:	5d 98       	cbi	0x0b, 5	; 11
    206c:	8c b9       	out	0x0c, r24	; 12
}
    206e:	08 95       	ret

00002070 <nrk_uart_rx_signal_get>:
#else

nrk_sig_t nrk_uart_rx_signal_get()
{
    return NRK_ERROR;
}
    2070:	8f ef       	ldi	r24, 0xFF	; 255
    2072:	08 95       	ret

00002074 <nrk_uart_data_ready>:


uint8_t nrk_uart_data_ready(uint8_t uart_num)
{
    if(uart_num==0)
    2074:	88 23       	and	r24, r24
    2076:	11 f4       	brne	.+4      	; 0x207c <nrk_uart_data_ready+0x8>
    {
        if( UCSR0A & BM(RXC0) ) return 1;
    2078:	8b b1       	in	r24, 0x0b	; 11
    207a:	04 c0       	rjmp	.+8      	; 0x2084 <nrk_uart_data_ready+0x10>
    }
    if(uart_num==1)
    207c:	81 30       	cpi	r24, 0x01	; 1
    207e:	31 f4       	brne	.+12     	; 0x208c <nrk_uart_data_ready+0x18>
    {
        if( UCSR1A & BM(RXC1) ) return 1;
    2080:	80 91 9b 00 	lds	r24, 0x009B
{
    return NRK_ERROR;
}


uint8_t nrk_uart_data_ready(uint8_t uart_num)
    2084:	88 1f       	adc	r24, r24
    2086:	88 27       	eor	r24, r24
    2088:	88 1f       	adc	r24, r24
    208a:	08 95       	ret
    }
    if(uart_num==1)
    {
        if( UCSR1A & BM(RXC1) ) return 1;
    }
    return 0;
    208c:	80 e0       	ldi	r24, 0x00	; 0
}
    208e:	08 95       	ret

00002090 <nrk_kprintf>:
}

#endif

void nrk_kprintf( const char *addr)
{
    2090:	cf 93       	push	r28
    2092:	df 93       	push	r29
    2094:	ec 01       	movw	r28, r24
    char c;
    while((c=pgm_read_byte(addr++)))
    2096:	07 c0       	rjmp	.+14     	; 0x20a6 <nrk_kprintf+0x16>
        putchar(c);
    2098:	60 91 06 08 	lds	r22, 0x0806
    209c:	70 91 07 08 	lds	r23, 0x0807
    20a0:	90 e0       	ldi	r25, 0x00	; 0
    20a2:	0e 94 80 43 	call	0x8700	; 0x8700 <fputc>
    20a6:	fe 01       	movw	r30, r28
#endif

void nrk_kprintf( const char *addr)
{
    char c;
    while((c=pgm_read_byte(addr++)))
    20a8:	21 96       	adiw	r28, 0x01	; 1
    20aa:	84 91       	lpm	r24, Z+
    20ac:	88 23       	and	r24, r24
    20ae:	a1 f7       	brne	.-24     	; 0x2098 <nrk_kprintf+0x8>
        putchar(c);
}
    20b0:	df 91       	pop	r29
    20b2:	cf 91       	pop	r28
    20b4:	08 95       	ret

000020b6 <nrk_gpio_set>:
int8_t nrk_gpio_set(uint8_t pin)
{
    // pdiener: Readability optimization
    uint8_t bitvalue = BM((pin & 0xF8) >> 3);

    if (pin == NRK_INVALID_PIN_VAL) return -1;
    20b6:	8f 3f       	cpi	r24, 0xFF	; 255
    20b8:	09 f4       	brne	.+2      	; 0x20bc <nrk_gpio_set+0x6>
    20ba:	3f c0       	rjmp	.+126    	; 0x213a <nrk_gpio_set+0x84>
//-------------------------------
// GPIO handling functions
int8_t nrk_gpio_set(uint8_t pin)
{
    // pdiener: Readability optimization
    uint8_t bitvalue = BM((pin & 0xF8) >> 3);
    20bc:	98 2f       	mov	r25, r24
    20be:	96 95       	lsr	r25
    20c0:	96 95       	lsr	r25
    20c2:	96 95       	lsr	r25
    20c4:	21 e0       	ldi	r18, 0x01	; 1
    20c6:	30 e0       	ldi	r19, 0x00	; 0
    20c8:	02 c0       	rjmp	.+4      	; 0x20ce <nrk_gpio_set+0x18>
    20ca:	22 0f       	add	r18, r18
    20cc:	33 1f       	adc	r19, r19
    20ce:	9a 95       	dec	r25
    20d0:	e2 f7       	brpl	.-8      	; 0x20ca <nrk_gpio_set+0x14>

    if (pin == NRK_INVALID_PIN_VAL) return -1;
    switch (pin & 0x07)
    20d2:	90 e0       	ldi	r25, 0x00	; 0
    20d4:	87 70       	andi	r24, 0x07	; 7
    20d6:	90 70       	andi	r25, 0x00	; 0
    20d8:	82 30       	cpi	r24, 0x02	; 2
    20da:	91 05       	cpc	r25, r1
    20dc:	d9 f0       	breq	.+54     	; 0x2114 <nrk_gpio_set+0x5e>
    20de:	83 30       	cpi	r24, 0x03	; 3
    20e0:	91 05       	cpc	r25, r1
    20e2:	34 f4       	brge	.+12     	; 0x20f0 <nrk_gpio_set+0x3a>
    20e4:	00 97       	sbiw	r24, 0x00	; 0
    20e6:	71 f0       	breq	.+28     	; 0x2104 <nrk_gpio_set+0x4e>
    20e8:	81 30       	cpi	r24, 0x01	; 1
    20ea:	91 05       	cpc	r25, r1
    20ec:	41 f5       	brne	.+80     	; 0x213e <nrk_gpio_set+0x88>
    20ee:	0e c0       	rjmp	.+28     	; 0x210c <nrk_gpio_set+0x56>
    20f0:	84 30       	cpi	r24, 0x04	; 4
    20f2:	91 05       	cpc	r25, r1
    20f4:	c1 f0       	breq	.+48     	; 0x2126 <nrk_gpio_set+0x70>
    20f6:	84 30       	cpi	r24, 0x04	; 4
    20f8:	91 05       	cpc	r25, r1
    20fa:	8c f0       	brlt	.+34     	; 0x211e <nrk_gpio_set+0x68>
    20fc:	85 30       	cpi	r24, 0x05	; 5
    20fe:	91 05       	cpc	r25, r1
    2100:	f1 f4       	brne	.+60     	; 0x213e <nrk_gpio_set+0x88>
    2102:	15 c0       	rjmp	.+42     	; 0x212e <nrk_gpio_set+0x78>
    {
        case NRK_PORTA: PORTA |= bitvalue;
    2104:	8b b3       	in	r24, 0x1b	; 27
    2106:	82 2b       	or	r24, r18
    2108:	8b bb       	out	0x1b, r24	; 27
    210a:	07 c0       	rjmp	.+14     	; 0x211a <nrk_gpio_set+0x64>
            break;
        case NRK_PORTB: PORTB |= bitvalue;
    210c:	88 b3       	in	r24, 0x18	; 24
    210e:	82 2b       	or	r24, r18
    2110:	88 bb       	out	0x18, r24	; 24
    2112:	03 c0       	rjmp	.+6      	; 0x211a <nrk_gpio_set+0x64>
            break;
        case NRK_PORTC: PORTC |= bitvalue;
    2114:	85 b3       	in	r24, 0x15	; 21
    2116:	82 2b       	or	r24, r18
    2118:	85 bb       	out	0x15, r24	; 21
        case NRK_PORTF: PORTF |= bitvalue;
            break;
        default:
            return -1;
    }
    return 1;
    211a:	81 e0       	ldi	r24, 0x01	; 1
        case NRK_PORTA: PORTA |= bitvalue;
            break;
        case NRK_PORTB: PORTB |= bitvalue;
            break;
        case NRK_PORTC: PORTC |= bitvalue;
            break;
    211c:	08 95       	ret
        case NRK_PORTD: PORTD |= bitvalue;
    211e:	82 b3       	in	r24, 0x12	; 18
    2120:	82 2b       	or	r24, r18
    2122:	82 bb       	out	0x12, r24	; 18
    2124:	fa cf       	rjmp	.-12     	; 0x211a <nrk_gpio_set+0x64>
            break;
        case NRK_PORTE: PORTE |= bitvalue;
    2126:	83 b1       	in	r24, 0x03	; 3
    2128:	82 2b       	or	r24, r18
    212a:	83 b9       	out	0x03, r24	; 3
    212c:	f6 cf       	rjmp	.-20     	; 0x211a <nrk_gpio_set+0x64>
            break;
        case NRK_PORTF: PORTF |= bitvalue;
    212e:	80 91 62 00 	lds	r24, 0x0062
    2132:	82 2b       	or	r24, r18
    2134:	80 93 62 00 	sts	0x0062, r24
    2138:	f0 cf       	rjmp	.-32     	; 0x211a <nrk_gpio_set+0x64>
int8_t nrk_gpio_set(uint8_t pin)
{
    // pdiener: Readability optimization
    uint8_t bitvalue = BM((pin & 0xF8) >> 3);

    if (pin == NRK_INVALID_PIN_VAL) return -1;
    213a:	8f ef       	ldi	r24, 0xFF	; 255
    213c:	08 95       	ret
        case NRK_PORTE: PORTE |= bitvalue;
            break;
        case NRK_PORTF: PORTF |= bitvalue;
            break;
        default:
            return -1;
    213e:	8f ef       	ldi	r24, 0xFF	; 255
    }
    return 1;
}
    2140:	08 95       	ret

00002142 <nrk_gpio_clr>:
int8_t nrk_gpio_clr(uint8_t pin)
{
    // pdiener: Readability optimization
    uint8_t bitvalue = ~BM((pin & 0xF8) >> 3);

    if (pin == NRK_INVALID_PIN_VAL) return -1;
    2142:	8f 3f       	cpi	r24, 0xFF	; 255
    2144:	09 f4       	brne	.+2      	; 0x2148 <nrk_gpio_clr+0x6>
    2146:	40 c0       	rjmp	.+128    	; 0x21c8 <nrk_gpio_clr+0x86>
}

int8_t nrk_gpio_clr(uint8_t pin)
{
    // pdiener: Readability optimization
    uint8_t bitvalue = ~BM((pin & 0xF8) >> 3);
    2148:	98 2f       	mov	r25, r24
    214a:	96 95       	lsr	r25
    214c:	96 95       	lsr	r25
    214e:	96 95       	lsr	r25
    2150:	21 e0       	ldi	r18, 0x01	; 1
    2152:	30 e0       	ldi	r19, 0x00	; 0
    2154:	02 c0       	rjmp	.+4      	; 0x215a <nrk_gpio_clr+0x18>
    2156:	22 0f       	add	r18, r18
    2158:	33 1f       	adc	r19, r19
    215a:	9a 95       	dec	r25
    215c:	e2 f7       	brpl	.-8      	; 0x2156 <nrk_gpio_clr+0x14>
    215e:	20 95       	com	r18

    if (pin == NRK_INVALID_PIN_VAL) return -1;
    switch (pin & 0x07)
    2160:	90 e0       	ldi	r25, 0x00	; 0
    2162:	87 70       	andi	r24, 0x07	; 7
    2164:	90 70       	andi	r25, 0x00	; 0
    2166:	82 30       	cpi	r24, 0x02	; 2
    2168:	91 05       	cpc	r25, r1
    216a:	d9 f0       	breq	.+54     	; 0x21a2 <nrk_gpio_clr+0x60>
    216c:	83 30       	cpi	r24, 0x03	; 3
    216e:	91 05       	cpc	r25, r1
    2170:	34 f4       	brge	.+12     	; 0x217e <nrk_gpio_clr+0x3c>
    2172:	00 97       	sbiw	r24, 0x00	; 0
    2174:	71 f0       	breq	.+28     	; 0x2192 <nrk_gpio_clr+0x50>
    2176:	81 30       	cpi	r24, 0x01	; 1
    2178:	91 05       	cpc	r25, r1
    217a:	41 f5       	brne	.+80     	; 0x21cc <nrk_gpio_clr+0x8a>
    217c:	0e c0       	rjmp	.+28     	; 0x219a <nrk_gpio_clr+0x58>
    217e:	84 30       	cpi	r24, 0x04	; 4
    2180:	91 05       	cpc	r25, r1
    2182:	c1 f0       	breq	.+48     	; 0x21b4 <nrk_gpio_clr+0x72>
    2184:	84 30       	cpi	r24, 0x04	; 4
    2186:	91 05       	cpc	r25, r1
    2188:	8c f0       	brlt	.+34     	; 0x21ac <nrk_gpio_clr+0x6a>
    218a:	85 30       	cpi	r24, 0x05	; 5
    218c:	91 05       	cpc	r25, r1
    218e:	f1 f4       	brne	.+60     	; 0x21cc <nrk_gpio_clr+0x8a>
    2190:	15 c0       	rjmp	.+42     	; 0x21bc <nrk_gpio_clr+0x7a>
    {
        case NRK_PORTA: PORTA &= bitvalue;
    2192:	8b b3       	in	r24, 0x1b	; 27
    2194:	82 23       	and	r24, r18
    2196:	8b bb       	out	0x1b, r24	; 27
    2198:	07 c0       	rjmp	.+14     	; 0x21a8 <nrk_gpio_clr+0x66>
            break;
        case NRK_PORTB: PORTB &= bitvalue;
    219a:	88 b3       	in	r24, 0x18	; 24
    219c:	82 23       	and	r24, r18
    219e:	88 bb       	out	0x18, r24	; 24
    21a0:	03 c0       	rjmp	.+6      	; 0x21a8 <nrk_gpio_clr+0x66>
            break;
        case NRK_PORTC: PORTC &= bitvalue;
    21a2:	85 b3       	in	r24, 0x15	; 21
    21a4:	82 23       	and	r24, r18
    21a6:	85 bb       	out	0x15, r24	; 21
        case NRK_PORTF: PORTF &= bitvalue;
            break;
        default:
            return -1;
    }
    return 1;
    21a8:	81 e0       	ldi	r24, 0x01	; 1
        case NRK_PORTA: PORTA &= bitvalue;
            break;
        case NRK_PORTB: PORTB &= bitvalue;
            break;
        case NRK_PORTC: PORTC &= bitvalue;
            break;
    21aa:	08 95       	ret
        case NRK_PORTD: PORTD &= bitvalue;
    21ac:	82 b3       	in	r24, 0x12	; 18
    21ae:	82 23       	and	r24, r18
    21b0:	82 bb       	out	0x12, r24	; 18
    21b2:	fa cf       	rjmp	.-12     	; 0x21a8 <nrk_gpio_clr+0x66>
            break;
        case NRK_PORTE: PORTE &= bitvalue;
    21b4:	83 b1       	in	r24, 0x03	; 3
    21b6:	82 23       	and	r24, r18
    21b8:	83 b9       	out	0x03, r24	; 3
    21ba:	f6 cf       	rjmp	.-20     	; 0x21a8 <nrk_gpio_clr+0x66>
            break;
        case NRK_PORTF: PORTF &= bitvalue;
    21bc:	80 91 62 00 	lds	r24, 0x0062
    21c0:	82 23       	and	r24, r18
    21c2:	80 93 62 00 	sts	0x0062, r24
    21c6:	f0 cf       	rjmp	.-32     	; 0x21a8 <nrk_gpio_clr+0x66>
int8_t nrk_gpio_clr(uint8_t pin)
{
    // pdiener: Readability optimization
    uint8_t bitvalue = ~BM((pin & 0xF8) >> 3);

    if (pin == NRK_INVALID_PIN_VAL) return -1;
    21c8:	8f ef       	ldi	r24, 0xFF	; 255
    21ca:	08 95       	ret
        case NRK_PORTE: PORTE &= bitvalue;
            break;
        case NRK_PORTF: PORTF &= bitvalue;
            break;
        default:
            return -1;
    21cc:	8f ef       	ldi	r24, 0xFF	; 255
    }
    return 1;
}
    21ce:	08 95       	ret

000021d0 <nrk_gpio_get>:

int8_t nrk_gpio_get(uint8_t pin)
{
    if (pin == NRK_INVALID_PIN_VAL) return -1;
    21d0:	8f 3f       	cpi	r24, 0xFF	; 255
    21d2:	89 f1       	breq	.+98     	; 0x2236 <nrk_gpio_get+0x66>
    switch (pin & 0x07)
    21d4:	28 2f       	mov	r18, r24
    21d6:	30 e0       	ldi	r19, 0x00	; 0
    21d8:	27 70       	andi	r18, 0x07	; 7
    21da:	30 70       	andi	r19, 0x00	; 0
    21dc:	22 30       	cpi	r18, 0x02	; 2
    21de:	31 05       	cpc	r19, r1
    21e0:	c1 f0       	breq	.+48     	; 0x2212 <nrk_gpio_get+0x42>
    21e2:	23 30       	cpi	r18, 0x03	; 3
    21e4:	31 05       	cpc	r19, r1
    21e6:	3c f4       	brge	.+14     	; 0x21f6 <nrk_gpio_get+0x26>
    21e8:	21 15       	cp	r18, r1
    21ea:	31 05       	cpc	r19, r1
    21ec:	71 f0       	breq	.+28     	; 0x220a <nrk_gpio_get+0x3a>
    21ee:	21 30       	cpi	r18, 0x01	; 1
    21f0:	31 05       	cpc	r19, r1
    21f2:	09 f5       	brne	.+66     	; 0x2236 <nrk_gpio_get+0x66>
    21f4:	0c c0       	rjmp	.+24     	; 0x220e <nrk_gpio_get+0x3e>
    21f6:	24 30       	cpi	r18, 0x04	; 4
    21f8:	31 05       	cpc	r19, r1
    21fa:	79 f0       	breq	.+30     	; 0x221a <nrk_gpio_get+0x4a>
    21fc:	24 30       	cpi	r18, 0x04	; 4
    21fe:	31 05       	cpc	r19, r1
    2200:	54 f0       	brlt	.+20     	; 0x2216 <nrk_gpio_get+0x46>
    2202:	25 30       	cpi	r18, 0x05	; 5
    2204:	31 05       	cpc	r19, r1
    2206:	b9 f4       	brne	.+46     	; 0x2236 <nrk_gpio_get+0x66>
    2208:	0a c0       	rjmp	.+20     	; 0x221e <nrk_gpio_get+0x4e>
    {
        case NRK_PORTA:
            return !!(PINA & BM((pin & 0xF8) >> 3));
    220a:	29 b3       	in	r18, 0x19	; 25
    220c:	09 c0       	rjmp	.+18     	; 0x2220 <nrk_gpio_get+0x50>
        case NRK_PORTB:
            return !!(PINB & BM((pin & 0xF8) >> 3));
    220e:	26 b3       	in	r18, 0x16	; 22
    2210:	07 c0       	rjmp	.+14     	; 0x2220 <nrk_gpio_get+0x50>
        case NRK_PORTC:
            return !!(PINC & BM((pin & 0xF8) >> 3));
    2212:	23 b3       	in	r18, 0x13	; 19
    2214:	05 c0       	rjmp	.+10     	; 0x2220 <nrk_gpio_get+0x50>
        case NRK_PORTD:
            return !!(PIND & BM((pin & 0xF8) >> 3));
    2216:	20 b3       	in	r18, 0x10	; 16
    2218:	03 c0       	rjmp	.+6      	; 0x2220 <nrk_gpio_get+0x50>
        case NRK_PORTE:
            return !!(PINE & BM((pin & 0xF8) >> 3));
    221a:	21 b1       	in	r18, 0x01	; 1
    221c:	01 c0       	rjmp	.+2      	; 0x2220 <nrk_gpio_get+0x50>
        case NRK_PORTF:
            return !!(PINF & BM((pin & 0xF8) >> 3));
    221e:	20 b1       	in	r18, 0x00	; 0
    2220:	30 e0       	ldi	r19, 0x00	; 0
    2222:	86 95       	lsr	r24
    2224:	86 95       	lsr	r24
    2226:	86 95       	lsr	r24
    2228:	02 c0       	rjmp	.+4      	; 0x222e <nrk_gpio_get+0x5e>
    222a:	35 95       	asr	r19
    222c:	27 95       	ror	r18
    222e:	8a 95       	dec	r24
    2230:	e2 f7       	brpl	.-8      	; 0x222a <nrk_gpio_get+0x5a>
    2232:	21 70       	andi	r18, 0x01	; 1
    2234:	01 c0       	rjmp	.+2      	; 0x2238 <nrk_gpio_get+0x68>
        default:
            return -1;
    2236:	2f ef       	ldi	r18, 0xFF	; 255
    }
    return -1;
}
    2238:	82 2f       	mov	r24, r18
    223a:	08 95       	ret

0000223c <nrk_gpio_pullups>:

int8_t nrk_gpio_pullups(uint8_t enable)
{
    if(enable) SFIOR &= ~BM(PUD);
    223c:	88 23       	and	r24, r24
    223e:	19 f0       	breq	.+6      	; 0x2246 <nrk_gpio_pullups+0xa>
    2240:	80 b5       	in	r24, 0x20	; 32
    2242:	8b 7f       	andi	r24, 0xFB	; 251
    2244:	02 c0       	rjmp	.+4      	; 0x224a <nrk_gpio_pullups+0xe>
    else SFIOR |= BM(PUD);
    2246:	80 b5       	in	r24, 0x20	; 32
    2248:	84 60       	ori	r24, 0x04	; 4
    224a:	80 bd       	out	0x20, r24	; 32
    return NRK_OK;
}
    224c:	81 e0       	ldi	r24, 0x01	; 1
    224e:	08 95       	ret

00002250 <nrk_gpio_toggle>:
int8_t nrk_gpio_toggle(uint8_t pin)
{
    // pdiener: Readability and execution time optimization
    uint8_t bitvalue = BM((pin & 0xF8) >> 3);

    if (pin == NRK_INVALID_PIN_VAL) return -1;
    2250:	8f 3f       	cpi	r24, 0xFF	; 255
    2252:	09 f4       	brne	.+2      	; 0x2256 <nrk_gpio_toggle+0x6>
    2254:	3f c0       	rjmp	.+126    	; 0x22d4 <nrk_gpio_toggle+0x84>
}

int8_t nrk_gpio_toggle(uint8_t pin)
{
    // pdiener: Readability and execution time optimization
    uint8_t bitvalue = BM((pin & 0xF8) >> 3);
    2256:	98 2f       	mov	r25, r24
    2258:	96 95       	lsr	r25
    225a:	96 95       	lsr	r25
    225c:	96 95       	lsr	r25
    225e:	21 e0       	ldi	r18, 0x01	; 1
    2260:	30 e0       	ldi	r19, 0x00	; 0
    2262:	02 c0       	rjmp	.+4      	; 0x2268 <nrk_gpio_toggle+0x18>
    2264:	22 0f       	add	r18, r18
    2266:	33 1f       	adc	r19, r19
    2268:	9a 95       	dec	r25
    226a:	e2 f7       	brpl	.-8      	; 0x2264 <nrk_gpio_toggle+0x14>

    if (pin == NRK_INVALID_PIN_VAL) return -1;
    switch (pin & 0x07)
    226c:	90 e0       	ldi	r25, 0x00	; 0
    226e:	87 70       	andi	r24, 0x07	; 7
    2270:	90 70       	andi	r25, 0x00	; 0
    2272:	82 30       	cpi	r24, 0x02	; 2
    2274:	91 05       	cpc	r25, r1
    2276:	d9 f0       	breq	.+54     	; 0x22ae <nrk_gpio_toggle+0x5e>
    2278:	83 30       	cpi	r24, 0x03	; 3
    227a:	91 05       	cpc	r25, r1
    227c:	34 f4       	brge	.+12     	; 0x228a <nrk_gpio_toggle+0x3a>
    227e:	00 97       	sbiw	r24, 0x00	; 0
    2280:	71 f0       	breq	.+28     	; 0x229e <nrk_gpio_toggle+0x4e>
    2282:	81 30       	cpi	r24, 0x01	; 1
    2284:	91 05       	cpc	r25, r1
    2286:	41 f5       	brne	.+80     	; 0x22d8 <nrk_gpio_toggle+0x88>
    2288:	0e c0       	rjmp	.+28     	; 0x22a6 <nrk_gpio_toggle+0x56>
    228a:	84 30       	cpi	r24, 0x04	; 4
    228c:	91 05       	cpc	r25, r1
    228e:	c1 f0       	breq	.+48     	; 0x22c0 <nrk_gpio_toggle+0x70>
    2290:	84 30       	cpi	r24, 0x04	; 4
    2292:	91 05       	cpc	r25, r1
    2294:	8c f0       	brlt	.+34     	; 0x22b8 <nrk_gpio_toggle+0x68>
    2296:	85 30       	cpi	r24, 0x05	; 5
    2298:	91 05       	cpc	r25, r1
    229a:	f1 f4       	brne	.+60     	; 0x22d8 <nrk_gpio_toggle+0x88>
    229c:	15 c0       	rjmp	.+42     	; 0x22c8 <nrk_gpio_toggle+0x78>
    {
        case NRK_PORTA: PORTA ^= bitvalue;
    229e:	8b b3       	in	r24, 0x1b	; 27
    22a0:	82 27       	eor	r24, r18
    22a2:	8b bb       	out	0x1b, r24	; 27
    22a4:	07 c0       	rjmp	.+14     	; 0x22b4 <nrk_gpio_toggle+0x64>
            break;
        case NRK_PORTB: PORTB ^= bitvalue;
    22a6:	88 b3       	in	r24, 0x18	; 24
    22a8:	82 27       	eor	r24, r18
    22aa:	88 bb       	out	0x18, r24	; 24
    22ac:	03 c0       	rjmp	.+6      	; 0x22b4 <nrk_gpio_toggle+0x64>
            break;
        case NRK_PORTC: PORTC ^= bitvalue;
    22ae:	85 b3       	in	r24, 0x15	; 21
    22b0:	82 27       	eor	r24, r18
    22b2:	85 bb       	out	0x15, r24	; 21
        case NRK_PORTF: PORTF ^= bitvalue;
            break;
        default:
            return -1;
    }
    return 1;
    22b4:	81 e0       	ldi	r24, 0x01	; 1
        case NRK_PORTA: PORTA ^= bitvalue;
            break;
        case NRK_PORTB: PORTB ^= bitvalue;
            break;
        case NRK_PORTC: PORTC ^= bitvalue;
            break;
    22b6:	08 95       	ret
        case NRK_PORTD: PORTD ^= bitvalue;
    22b8:	82 b3       	in	r24, 0x12	; 18
    22ba:	82 27       	eor	r24, r18
    22bc:	82 bb       	out	0x12, r24	; 18
    22be:	fa cf       	rjmp	.-12     	; 0x22b4 <nrk_gpio_toggle+0x64>
            break;
        case NRK_PORTE: PORTE ^= bitvalue;
    22c0:	83 b1       	in	r24, 0x03	; 3
    22c2:	82 27       	eor	r24, r18
    22c4:	83 b9       	out	0x03, r24	; 3
    22c6:	f6 cf       	rjmp	.-20     	; 0x22b4 <nrk_gpio_toggle+0x64>
            break;
        case NRK_PORTF: PORTF ^= bitvalue;
    22c8:	80 91 62 00 	lds	r24, 0x0062
    22cc:	82 27       	eor	r24, r18
    22ce:	80 93 62 00 	sts	0x0062, r24
    22d2:	f0 cf       	rjmp	.-32     	; 0x22b4 <nrk_gpio_toggle+0x64>
int8_t nrk_gpio_toggle(uint8_t pin)
{
    // pdiener: Readability and execution time optimization
    uint8_t bitvalue = BM((pin & 0xF8) >> 3);

    if (pin == NRK_INVALID_PIN_VAL) return -1;
    22d4:	8f ef       	ldi	r24, 0xFF	; 255
    22d6:	08 95       	ret
        case NRK_PORTE: PORTE ^= bitvalue;
            break;
        case NRK_PORTF: PORTF ^= bitvalue;
            break;
        default:
            return -1;
    22d8:	8f ef       	ldi	r24, 0xFF	; 255
    }
    return 1;
}
    22da:	08 95       	ret

000022dc <nrk_gpio_direction>:
{
    // pdiener: Readability and program space optimization
    uint8_t bitvalue = BM((pin & 0xF8) >> 3);
    uint8_t bitvalue_inv = ~BM((pin & 0xF8) >> 3);

    if (pin == NRK_INVALID_PIN_VAL) return -1;
    22dc:	8f 3f       	cpi	r24, 0xFF	; 255
    22de:	09 f4       	brne	.+2      	; 0x22e2 <nrk_gpio_direction+0x6>
    22e0:	8c c0       	rjmp	.+280    	; 0x23fa <nrk_gpio_direction+0x11e>
}

int8_t nrk_gpio_direction(uint8_t pin, uint8_t pin_direction)
{
    // pdiener: Readability and program space optimization
    uint8_t bitvalue = BM((pin & 0xF8) >> 3);
    22e2:	98 2f       	mov	r25, r24
    22e4:	96 95       	lsr	r25
    22e6:	96 95       	lsr	r25
    22e8:	96 95       	lsr	r25
    22ea:	21 e0       	ldi	r18, 0x01	; 1
    22ec:	30 e0       	ldi	r19, 0x00	; 0
    22ee:	02 c0       	rjmp	.+4      	; 0x22f4 <nrk_gpio_direction+0x18>
    22f0:	22 0f       	add	r18, r18
    22f2:	33 1f       	adc	r19, r19
    22f4:	9a 95       	dec	r25
    22f6:	e2 f7       	brpl	.-8      	; 0x22f0 <nrk_gpio_direction+0x14>
    22f8:	90 e0       	ldi	r25, 0x00	; 0
    uint8_t bitvalue_inv = ~BM((pin & 0xF8) >> 3);

    if (pin == NRK_INVALID_PIN_VAL) return -1;
    if (pin_direction == NRK_PIN_INPUT)
    22fa:	66 23       	and	r22, r22
    22fc:	09 f0       	breq	.+2      	; 0x2300 <nrk_gpio_direction+0x24>
    22fe:	4a c0       	rjmp	.+148    	; 0x2394 <nrk_gpio_direction+0xb8>

int8_t nrk_gpio_direction(uint8_t pin, uint8_t pin_direction)
{
    // pdiener: Readability and program space optimization
    uint8_t bitvalue = BM((pin & 0xF8) >> 3);
    uint8_t bitvalue_inv = ~BM((pin & 0xF8) >> 3);
    2300:	32 2f       	mov	r19, r18
    2302:	30 95       	com	r19

    if (pin == NRK_INVALID_PIN_VAL) return -1;
    if (pin_direction == NRK_PIN_INPUT)
    {
        switch (pin & 0x07)
    2304:	87 70       	andi	r24, 0x07	; 7
    2306:	90 70       	andi	r25, 0x00	; 0
    2308:	82 30       	cpi	r24, 0x02	; 2
    230a:	91 05       	cpc	r25, r1
    230c:	19 f1       	breq	.+70     	; 0x2354 <nrk_gpio_direction+0x78>
    230e:	83 30       	cpi	r24, 0x03	; 3
    2310:	91 05       	cpc	r25, r1
    2312:	3c f4       	brge	.+14     	; 0x2322 <nrk_gpio_direction+0x46>
    2314:	00 97       	sbiw	r24, 0x00	; 0
    2316:	81 f0       	breq	.+32     	; 0x2338 <nrk_gpio_direction+0x5c>
    2318:	81 30       	cpi	r24, 0x01	; 1
    231a:	91 05       	cpc	r25, r1
    231c:	09 f0       	breq	.+2      	; 0x2320 <nrk_gpio_direction+0x44>
    231e:	6d c0       	rjmp	.+218    	; 0x23fa <nrk_gpio_direction+0x11e>
    2320:	12 c0       	rjmp	.+36     	; 0x2346 <nrk_gpio_direction+0x6a>
    2322:	84 30       	cpi	r24, 0x04	; 4
    2324:	91 05       	cpc	r25, r1
    2326:	21 f1       	breq	.+72     	; 0x2370 <nrk_gpio_direction+0x94>
    2328:	84 30       	cpi	r24, 0x04	; 4
    232a:	91 05       	cpc	r25, r1
    232c:	d4 f0       	brlt	.+52     	; 0x2362 <nrk_gpio_direction+0x86>
    232e:	85 30       	cpi	r24, 0x05	; 5
    2330:	91 05       	cpc	r25, r1
    2332:	09 f0       	breq	.+2      	; 0x2336 <nrk_gpio_direction+0x5a>
    2334:	62 c0       	rjmp	.+196    	; 0x23fa <nrk_gpio_direction+0x11e>
    2336:	23 c0       	rjmp	.+70     	; 0x237e <nrk_gpio_direction+0xa2>
        {
        case NRK_PORTA:
            DDRA &= bitvalue_inv;
    2338:	8a b3       	in	r24, 0x1a	; 26
    233a:	83 23       	and	r24, r19
    233c:	8a bb       	out	0x1a, r24	; 26
            PORTA |= bitvalue;
    233e:	8b b3       	in	r24, 0x1b	; 27
    2340:	82 2b       	or	r24, r18
    2342:	8b bb       	out	0x1b, r24	; 27
    2344:	58 c0       	rjmp	.+176    	; 0x23f6 <nrk_gpio_direction+0x11a>
            break;
        case NRK_PORTB:
            DDRB &= bitvalue_inv;
    2346:	87 b3       	in	r24, 0x17	; 23
    2348:	83 23       	and	r24, r19
    234a:	87 bb       	out	0x17, r24	; 23
            PORTB |= bitvalue;
    234c:	88 b3       	in	r24, 0x18	; 24
    234e:	82 2b       	or	r24, r18
    2350:	88 bb       	out	0x18, r24	; 24
    2352:	51 c0       	rjmp	.+162    	; 0x23f6 <nrk_gpio_direction+0x11a>
            break;
        case NRK_PORTC:
            DDRC &= bitvalue_inv;
    2354:	84 b3       	in	r24, 0x14	; 20
    2356:	83 23       	and	r24, r19
    2358:	84 bb       	out	0x14, r24	; 20
            PORTC |= bitvalue;
    235a:	85 b3       	in	r24, 0x15	; 21
    235c:	82 2b       	or	r24, r18
    235e:	85 bb       	out	0x15, r24	; 21
    2360:	4a c0       	rjmp	.+148    	; 0x23f6 <nrk_gpio_direction+0x11a>
            break;
        case NRK_PORTD:
            DDRD &= bitvalue_inv;
    2362:	81 b3       	in	r24, 0x11	; 17
    2364:	83 23       	and	r24, r19
    2366:	81 bb       	out	0x11, r24	; 17
            PORTD |= bitvalue;
    2368:	82 b3       	in	r24, 0x12	; 18
    236a:	82 2b       	or	r24, r18
    236c:	82 bb       	out	0x12, r24	; 18
    236e:	43 c0       	rjmp	.+134    	; 0x23f6 <nrk_gpio_direction+0x11a>
            break;
        case NRK_PORTE:
            DDRE &= bitvalue_inv;
    2370:	82 b1       	in	r24, 0x02	; 2
    2372:	83 23       	and	r24, r19
    2374:	82 b9       	out	0x02, r24	; 2
            PORTE |= bitvalue;
    2376:	83 b1       	in	r24, 0x03	; 3
    2378:	82 2b       	or	r24, r18
    237a:	83 b9       	out	0x03, r24	; 3
    237c:	3c c0       	rjmp	.+120    	; 0x23f6 <nrk_gpio_direction+0x11a>
            break;
        case NRK_PORTF:
            DDRF &= bitvalue_inv;
    237e:	80 91 61 00 	lds	r24, 0x0061
    2382:	83 23       	and	r24, r19
    2384:	80 93 61 00 	sts	0x0061, r24
            PORTF |= bitvalue;
    2388:	80 91 62 00 	lds	r24, 0x0062
    238c:	82 2b       	or	r24, r18
    238e:	80 93 62 00 	sts	0x0062, r24
    2392:	31 c0       	rjmp	.+98     	; 0x23f6 <nrk_gpio_direction+0x11a>
            return -1;
        }
    }
    else
    {
        switch (pin & 0x07)
    2394:	87 70       	andi	r24, 0x07	; 7
    2396:	90 70       	andi	r25, 0x00	; 0
    2398:	82 30       	cpi	r24, 0x02	; 2
    239a:	91 05       	cpc	r25, r1
    239c:	d9 f0       	breq	.+54     	; 0x23d4 <nrk_gpio_direction+0xf8>
    239e:	83 30       	cpi	r24, 0x03	; 3
    23a0:	91 05       	cpc	r25, r1
    23a2:	34 f4       	brge	.+12     	; 0x23b0 <nrk_gpio_direction+0xd4>
    23a4:	00 97       	sbiw	r24, 0x00	; 0
    23a6:	71 f0       	breq	.+28     	; 0x23c4 <nrk_gpio_direction+0xe8>
    23a8:	81 30       	cpi	r24, 0x01	; 1
    23aa:	91 05       	cpc	r25, r1
    23ac:	41 f5       	brne	.+80     	; 0x23fe <nrk_gpio_direction+0x122>
    23ae:	0e c0       	rjmp	.+28     	; 0x23cc <nrk_gpio_direction+0xf0>
    23b0:	84 30       	cpi	r24, 0x04	; 4
    23b2:	91 05       	cpc	r25, r1
    23b4:	b9 f0       	breq	.+46     	; 0x23e4 <nrk_gpio_direction+0x108>
    23b6:	84 30       	cpi	r24, 0x04	; 4
    23b8:	91 05       	cpc	r25, r1
    23ba:	84 f0       	brlt	.+32     	; 0x23dc <nrk_gpio_direction+0x100>
    23bc:	85 30       	cpi	r24, 0x05	; 5
    23be:	91 05       	cpc	r25, r1
    23c0:	f1 f4       	brne	.+60     	; 0x23fe <nrk_gpio_direction+0x122>
    23c2:	14 c0       	rjmp	.+40     	; 0x23ec <nrk_gpio_direction+0x110>
        {
        case NRK_PORTA:
            DDRA |= bitvalue;
    23c4:	8a b3       	in	r24, 0x1a	; 26
    23c6:	82 2b       	or	r24, r18
    23c8:	8a bb       	out	0x1a, r24	; 26
    23ca:	15 c0       	rjmp	.+42     	; 0x23f6 <nrk_gpio_direction+0x11a>
            break;
        case NRK_PORTB:
            DDRB |= bitvalue;
    23cc:	87 b3       	in	r24, 0x17	; 23
    23ce:	82 2b       	or	r24, r18
    23d0:	87 bb       	out	0x17, r24	; 23
    23d2:	11 c0       	rjmp	.+34     	; 0x23f6 <nrk_gpio_direction+0x11a>
            break;
        case NRK_PORTC:
            DDRC |= bitvalue;
    23d4:	84 b3       	in	r24, 0x14	; 20
    23d6:	82 2b       	or	r24, r18
    23d8:	84 bb       	out	0x14, r24	; 20
    23da:	0d c0       	rjmp	.+26     	; 0x23f6 <nrk_gpio_direction+0x11a>
            break;
        case NRK_PORTD:
            DDRD |= bitvalue;
    23dc:	81 b3       	in	r24, 0x11	; 17
    23de:	82 2b       	or	r24, r18
    23e0:	81 bb       	out	0x11, r24	; 17
    23e2:	09 c0       	rjmp	.+18     	; 0x23f6 <nrk_gpio_direction+0x11a>
            break;
        case NRK_PORTE:
            DDRE |= bitvalue;
    23e4:	82 b1       	in	r24, 0x02	; 2
    23e6:	82 2b       	or	r24, r18
    23e8:	82 b9       	out	0x02, r24	; 2
    23ea:	05 c0       	rjmp	.+10     	; 0x23f6 <nrk_gpio_direction+0x11a>
            break;
        case NRK_PORTF:
            DDRF |= bitvalue;
    23ec:	80 91 61 00 	lds	r24, 0x0061
    23f0:	82 2b       	or	r24, r18
    23f2:	80 93 61 00 	sts	0x0061, r24
            break;
        default:
            return -1;
        }
    }
    return 1;
    23f6:	81 e0       	ldi	r24, 0x01	; 1
        case NRK_PORTE:
            DDRE |= bitvalue;
            break;
        case NRK_PORTF:
            DDRF |= bitvalue;
            break;
    23f8:	08 95       	ret
        case NRK_PORTF:
            DDRF &= bitvalue_inv;
            PORTF |= bitvalue;
            break;
        default:
            return -1;
    23fa:	8f ef       	ldi	r24, 0xFF	; 255
    23fc:	08 95       	ret
            break;
        case NRK_PORTF:
            DDRF |= bitvalue;
            break;
        default:
            return -1;
    23fe:	8f ef       	ldi	r24, 0xFF	; 255
        }
    }
    return 1;
}
    2400:	08 95       	ret

00002402 <nrk_get_button>:


int8_t nrk_get_button(uint8_t b)
{
    return NRK_ERROR;
}
    2402:	8f ef       	ldi	r24, 0xFF	; 255
    2404:	08 95       	ret

00002406 <nrk_led_toggle>:

int8_t nrk_led_toggle( int led )
{
    // pdiener: Execution time optimization

    if(led==0)      nrk_gpio_toggle(NRK_LED_0);
    2406:	00 97       	sbiw	r24, 0x00	; 0
    2408:	11 f4       	brne	.+4      	; 0x240e <nrk_led_toggle+0x8>
    240a:	80 e0       	ldi	r24, 0x00	; 0
    240c:	09 c0       	rjmp	.+18     	; 0x2420 <nrk_led_toggle+0x1a>
    else if(led==1) nrk_gpio_toggle(NRK_LED_1);
    240e:	81 30       	cpi	r24, 0x01	; 1
    2410:	91 05       	cpc	r25, r1
    2412:	11 f4       	brne	.+4      	; 0x2418 <nrk_led_toggle+0x12>
    2414:	88 e0       	ldi	r24, 0x08	; 8
    2416:	04 c0       	rjmp	.+8      	; 0x2420 <nrk_led_toggle+0x1a>
    else if(led==2) nrk_gpio_toggle(NRK_LED_2);
    2418:	82 30       	cpi	r24, 0x02	; 2
    241a:	91 05       	cpc	r25, r1
    241c:	29 f4       	brne	.+10     	; 0x2428 <nrk_led_toggle+0x22>
    241e:	80 e1       	ldi	r24, 0x10	; 16
    2420:	0e 94 28 11 	call	0x2250	; 0x2250 <nrk_gpio_toggle>
    else            return -1;

    return 1;
    2424:	81 e0       	ldi	r24, 0x01	; 1
    2426:	08 95       	ret
    // pdiener: Execution time optimization

    if(led==0)      nrk_gpio_toggle(NRK_LED_0);
    else if(led==1) nrk_gpio_toggle(NRK_LED_1);
    else if(led==2) nrk_gpio_toggle(NRK_LED_2);
    else            return -1;
    2428:	8f ef       	ldi	r24, 0xFF	; 255

    return 1;
}
    242a:	08 95       	ret

0000242c <nrk_led_clr>:

int8_t nrk_led_clr( int led )
{
    // pdiener: Execution time optimization

    if(led==0)      nrk_gpio_set(NRK_LED_0);
    242c:	00 97       	sbiw	r24, 0x00	; 0
    242e:	11 f4       	brne	.+4      	; 0x2434 <nrk_led_clr+0x8>
    2430:	80 e0       	ldi	r24, 0x00	; 0
    2432:	09 c0       	rjmp	.+18     	; 0x2446 <nrk_led_clr+0x1a>
    else if(led==1) nrk_gpio_set(NRK_LED_1);
    2434:	81 30       	cpi	r24, 0x01	; 1
    2436:	91 05       	cpc	r25, r1
    2438:	11 f4       	brne	.+4      	; 0x243e <nrk_led_clr+0x12>
    243a:	88 e0       	ldi	r24, 0x08	; 8
    243c:	04 c0       	rjmp	.+8      	; 0x2446 <nrk_led_clr+0x1a>
    else if(led==2) nrk_gpio_set(NRK_LED_2);
    243e:	82 30       	cpi	r24, 0x02	; 2
    2440:	91 05       	cpc	r25, r1
    2442:	29 f4       	brne	.+10     	; 0x244e <nrk_led_clr+0x22>
    2444:	80 e1       	ldi	r24, 0x10	; 16
    2446:	0e 94 5b 10 	call	0x20b6	; 0x20b6 <nrk_gpio_set>
    else            return -1;

    return 1;
    244a:	81 e0       	ldi	r24, 0x01	; 1
    244c:	08 95       	ret
    // pdiener: Execution time optimization

    if(led==0)      nrk_gpio_set(NRK_LED_0);
    else if(led==1) nrk_gpio_set(NRK_LED_1);
    else if(led==2) nrk_gpio_set(NRK_LED_2);
    else            return -1;
    244e:	8f ef       	ldi	r24, 0xFF	; 255

    return 1;
}
    2450:	08 95       	ret

00002452 <nrk_setup_ports>:
}


void nrk_setup_ports()
{
    PORT_INIT();
    2452:	80 b5       	in	r24, 0x20	; 32
    2454:	84 60       	ori	r24, 0x04	; 4
    2456:	80 bd       	out	0x20, r24	; 32
    2458:	87 e0       	ldi	r24, 0x07	; 7
    245a:	87 bb       	out	0x17, r24	; 23
    245c:	88 bb       	out	0x18, r24	; 24
    245e:	8f ef       	ldi	r24, 0xFF	; 255
    2460:	84 bb       	out	0x14, r24	; 20
    2462:	15 ba       	out	0x15, r1	; 21
    2464:	82 e0       	ldi	r24, 0x02	; 2
    2466:	82 b9       	out	0x02, r24	; 2
    2468:	87 e6       	ldi	r24, 0x67	; 103
    246a:	8a bb       	out	0x1a, r24	; 26
    246c:	80 e4       	ldi	r24, 0x40	; 64
    246e:	8b bb       	out	0x1b, r24	; 27
    SPI_INIT();
    2470:	80 e5       	ldi	r24, 0x50	; 80
    2472:	8d b9       	out	0x0d, r24	; 13
    2474:	81 e0       	ldi	r24, 0x01	; 1
    2476:	8e b9       	out	0x0e, r24	; 14
    // pdiener: switch off all LEDs
    nrk_led_clr(0);
    2478:	80 e0       	ldi	r24, 0x00	; 0
    247a:	90 e0       	ldi	r25, 0x00	; 0
    247c:	0e 94 16 12 	call	0x242c	; 0x242c <nrk_led_clr>
    nrk_led_clr(1);
    2480:	81 e0       	ldi	r24, 0x01	; 1
    2482:	90 e0       	ldi	r25, 0x00	; 0
    2484:	0e 94 16 12 	call	0x242c	; 0x242c <nrk_led_clr>
    nrk_led_clr(2);
    2488:	82 e0       	ldi	r24, 0x02	; 2
    248a:	90 e0       	ldi	r25, 0x00	; 0
    248c:	0e 94 16 12 	call	0x242c	; 0x242c <nrk_led_clr>
    nrk_led_clr(3);
    2490:	83 e0       	ldi	r24, 0x03	; 3
    2492:	90 e0       	ldi	r25, 0x00	; 0
    2494:	0e 94 16 12 	call	0x242c	; 0x242c <nrk_led_clr>
}
    2498:	08 95       	ret

0000249a <nrk_led_set>:

int8_t nrk_led_set( int led )
{
    // pdiener: Execution time optimization

    if(led==0)      nrk_gpio_clr(NRK_LED_0);
    249a:	00 97       	sbiw	r24, 0x00	; 0
    249c:	11 f4       	brne	.+4      	; 0x24a2 <nrk_led_set+0x8>
    249e:	80 e0       	ldi	r24, 0x00	; 0
    24a0:	09 c0       	rjmp	.+18     	; 0x24b4 <nrk_led_set+0x1a>
    else if(led==1) nrk_gpio_clr(NRK_LED_1);
    24a2:	81 30       	cpi	r24, 0x01	; 1
    24a4:	91 05       	cpc	r25, r1
    24a6:	11 f4       	brne	.+4      	; 0x24ac <nrk_led_set+0x12>
    24a8:	88 e0       	ldi	r24, 0x08	; 8
    24aa:	04 c0       	rjmp	.+8      	; 0x24b4 <nrk_led_set+0x1a>
    else if(led==2) nrk_gpio_clr(NRK_LED_2);
    24ac:	82 30       	cpi	r24, 0x02	; 2
    24ae:	91 05       	cpc	r25, r1
    24b0:	29 f4       	brne	.+10     	; 0x24bc <nrk_led_set+0x22>
    24b2:	80 e1       	ldi	r24, 0x10	; 16
    24b4:	0e 94 a1 10 	call	0x2142	; 0x2142 <nrk_gpio_clr>
    else            return -1;

    return 1;
    24b8:	81 e0       	ldi	r24, 0x01	; 1
    24ba:	08 95       	ret
    // pdiener: Execution time optimization

    if(led==0)      nrk_gpio_clr(NRK_LED_0);
    else if(led==1) nrk_gpio_clr(NRK_LED_1);
    else if(led==2) nrk_gpio_clr(NRK_LED_2);
    else            return -1;
    24bc:	8f ef       	ldi	r24, 0xFF	; 255

    return 1;
}
    24be:	08 95       	ret

000024c0 <putc1>:
    UART0_WAIT_AND_SEND(x);
}

void putc1(char x)
{
    UART1_WAIT_AND_SEND(x);
    24c0:	90 91 9b 00 	lds	r25, 0x009B
    24c4:	95 ff       	sbrs	r25, 5
    24c6:	fc cf       	rjmp	.-8      	; 0x24c0 <putc1>
    24c8:	90 91 9b 00 	lds	r25, 0x009B
    24cc:	9f 7d       	andi	r25, 0xDF	; 223
    24ce:	90 93 9b 00 	sts	0x009B, r25
    24d2:	80 93 9c 00 	sts	0x009C, r24
}
    24d6:	08 95       	ret

000024d8 <setup_uart0>:
}
*/
void setup_uart0(uint16_t baudrate)
{
//INIT_UART1( UART_BAUDRATE_115K2, (UART_OPT_NO_PARITY|UART_OPT_8_BITS_PER_CHAR|UART_OPT_ONE_STOP_BIT));
    INIT_UART0( baudrate, (UART_OPT_NO_PARITY|UART_OPT_8_BITS_PER_CHAR|UART_OPT_ONE_STOP_BIT));
    24d8:	90 93 90 00 	sts	0x0090, r25
    24dc:	89 b9       	out	0x09, r24	; 9
    24de:	86 e0       	ldi	r24, 0x06	; 6
    24e0:	80 93 95 00 	sts	0x0095, r24
    24e4:	52 98       	cbi	0x0a, 2	; 10
    24e6:	59 9a       	sbi	0x0b, 1	; 11
    ENABLE_UART0();
    24e8:	8a b1       	in	r24, 0x0a	; 10
    24ea:	88 61       	ori	r24, 0x18	; 24
    24ec:	8a b9       	out	0x0a, r24	; 10
}
    24ee:	08 95       	ret

000024f0 <nrk_setup_uart>:
 *
 * More advanced UART usage will require manually
 * setting parameters.
 */
void nrk_setup_uart(uint16_t baudrate)
{
    24f0:	0f 93       	push	r16
    24f2:	1f 93       	push	r17
    24f4:	cf 93       	push	r28
    24f6:	df 93       	push	r29

    //setup_uart1(baudrate);
    setup_uart0(baudrate);
    24f8:	0e 94 6c 12 	call	0x24d8	; 0x24d8 <setup_uart0>

    stdout = fdevopen( putc0, getc0);
    24fc:	c3 e3       	ldi	r28, 0x33	; 51
    24fe:	d0 e1       	ldi	r29, 0x10	; 16
    2500:	0e e2       	ldi	r16, 0x2E	; 46
    2502:	10 e1       	ldi	r17, 0x10	; 16
    2504:	ce 01       	movw	r24, r28
    2506:	b8 01       	movw	r22, r16
    2508:	0e 94 f3 42 	call	0x85e6	; 0x85e6 <fdevopen>
    250c:	90 93 07 08 	sts	0x0807, r25
    2510:	80 93 06 08 	sts	0x0806, r24
    stdin = fdevopen( putc0, getc0);
    2514:	ce 01       	movw	r24, r28
    2516:	b8 01       	movw	r22, r16
    2518:	0e 94 f3 42 	call	0x85e6	; 0x85e6 <fdevopen>
    251c:	90 93 05 08 	sts	0x0805, r25
    2520:	80 93 04 08 	sts	0x0804, r24
    ENABLE_UART0_RX_INT();
#endif



}
    2524:	df 91       	pop	r29
    2526:	cf 91       	pop	r28
    2528:	1f 91       	pop	r17
    252a:	0f 91       	pop	r16
    252c:	08 95       	ret

0000252e <setup_uart1>:

void setup_uart1(uint16_t baudrate)
{
//INIT_UART1( UART_BAUDRATE_115K2, (UART_OPT_NO_PARITY|UART_OPT_8_BITS_PER_CHAR|UART_OPT_ONE_STOP_BIT));
    INIT_UART1( baudrate, (UART_OPT_NO_PARITY|UART_OPT_8_BITS_PER_CHAR|UART_OPT_ONE_STOP_BIT));
    252e:	90 93 98 00 	sts	0x0098, r25
    2532:	80 93 99 00 	sts	0x0099, r24
    2536:	86 e0       	ldi	r24, 0x06	; 6
    2538:	80 93 9d 00 	sts	0x009D, r24
    253c:	ea e9       	ldi	r30, 0x9A	; 154
    253e:	f0 e0       	ldi	r31, 0x00	; 0
    2540:	80 81       	ld	r24, Z
    2542:	8b 7f       	andi	r24, 0xFB	; 251
    2544:	80 83       	st	Z, r24
    2546:	ab e9       	ldi	r26, 0x9B	; 155
    2548:	b0 e0       	ldi	r27, 0x00	; 0
    254a:	8c 91       	ld	r24, X
    254c:	82 60       	ori	r24, 0x02	; 2
    254e:	8c 93       	st	X, r24
    ENABLE_UART1();
    2550:	80 81       	ld	r24, Z
    2552:	88 61       	ori	r24, 0x18	; 24
    2554:	80 83       	st	Z, r24
}
    2556:	08 95       	ret

00002558 <getc1>:


char getc1(void)
{
    unsigned char tmp;
    UART1_WAIT_AND_RECEIVE(tmp);
    2558:	80 91 9b 00 	lds	r24, 0x009B
    255c:	87 ff       	sbrs	r24, 7
    255e:	fc cf       	rjmp	.-8      	; 0x2558 <getc1>
    2560:	80 91 9b 00 	lds	r24, 0x009B
    2564:	8f 77       	andi	r24, 0x7F	; 127
    2566:	80 93 9b 00 	sts	0x009B, r24
    256a:	80 91 9c 00 	lds	r24, 0x009C
    return tmp;
}
    256e:	08 95       	ret

00002570 <halWait>:
	...
        NOP();
        NOP();
        NOP();
        NOP();
    }
    while (--timeout);
    2578:	01 97       	sbiw	r24, 0x01	; 1
    257a:	d1 f7       	brne	.-12     	; 0x2570 <halWait>

} // halWait
    257c:	08 95       	ret

0000257e <nrk_eeprom_read_byte>:

// Some optimizations by pdiener

uint8_t nrk_eeprom_read_byte( uint16_t addr )
{
    return eeprom_read_byte((uint8_t*)addr);
    257e:	0e 94 83 44 	call	0x8906	; 0x8906 <__eerd_byte_m128>
}
    2582:	08 95       	ret

00002584 <nrk_eeprom_write_byte>:

int8_t nrk_eeprom_write_byte( uint16_t addr, uint8_t value )
{
    eeprom_write_byte( (uint8_t*)addr, value );
    2584:	0e 94 8b 44 	call	0x8916	; 0x8916 <__eewr_byte_m128>
    return 0;
}
    2588:	80 e0       	ldi	r24, 0x00	; 0
    258a:	08 95       	ret

0000258c <read_eeprom_mac_address>:

int8_t read_eeprom_mac_address(uint32_t *mac_addr)
{
    258c:	ef 92       	push	r14
    258e:	ff 92       	push	r15
    2590:	0f 93       	push	r16
    2592:	1f 93       	push	r17
    2594:	cf 93       	push	r28
    2596:	df 93       	push	r29
    uint8_t checksum,ct;
    uint8_t *buf;
    buf=(uint8_t *)mac_addr;
    2598:	e8 2e       	mov	r14, r24
    259a:	e7 01       	movw	r28, r14
    259c:	7e 01       	movw	r14, r28
    259e:	f9 2e       	mov	r15, r25
    25a0:	e7 01       	movw	r28, r14
    checksum=buf[0]+buf[1]+buf[2]+buf[3];
    buf[3]=eeprom_read_byte ((uint8_t*)EE_MAC_ADDR_0);
    25a2:	80 e0       	ldi	r24, 0x00	; 0
    25a4:	90 e0       	ldi	r25, 0x00	; 0
    25a6:	0e 94 83 44 	call	0x8906	; 0x8906 <__eerd_byte_m128>
    25aa:	08 2f       	mov	r16, r24
    25ac:	8b 83       	std	Y+3, r24	; 0x03
    buf[2]=eeprom_read_byte ((uint8_t*)EE_MAC_ADDR_1);
    25ae:	81 e0       	ldi	r24, 0x01	; 1
    25b0:	90 e0       	ldi	r25, 0x00	; 0
    25b2:	0e 94 83 44 	call	0x8906	; 0x8906 <__eerd_byte_m128>
    25b6:	e8 2e       	mov	r14, r24
    25b8:	8a 83       	std	Y+2, r24	; 0x02
    buf[1]=eeprom_read_byte ((uint8_t*)EE_MAC_ADDR_2);
    25ba:	82 e0       	ldi	r24, 0x02	; 2
    25bc:	90 e0       	ldi	r25, 0x00	; 0
    25be:	0e 94 83 44 	call	0x8906	; 0x8906 <__eerd_byte_m128>
    25c2:	f8 2e       	mov	r15, r24
    25c4:	89 83       	std	Y+1, r24	; 0x01
    buf[0]=eeprom_read_byte ((uint8_t*)EE_MAC_ADDR_3);
    25c6:	83 e0       	ldi	r24, 0x03	; 3
    25c8:	90 e0       	ldi	r25, 0x00	; 0
    25ca:	0e 94 83 44 	call	0x8906	; 0x8906 <__eerd_byte_m128>
    25ce:	18 2f       	mov	r17, r24
    25d0:	88 83       	st	Y, r24
    checksum=eeprom_read_byte ((uint8_t*)EE_MAC_ADDR_CHKSUM);
    25d2:	84 e0       	ldi	r24, 0x04	; 4
    25d4:	90 e0       	ldi	r25, 0x00	; 0
    25d6:	0e 94 83 44 	call	0x8906	; 0x8906 <__eerd_byte_m128>
    ct=buf[0];
    ct+=buf[1];
    25da:	fe 0c       	add	r15, r14
    ct+=buf[2];
    25dc:	f0 0e       	add	r15, r16
    ct+=buf[3];
    25de:	f1 0e       	add	r15, r17
    if(checksum==ct) return NRK_OK;
    25e0:	8f 15       	cp	r24, r15
    25e2:	11 f4       	brne	.+4      	; 0x25e8 <read_eeprom_mac_address+0x5c>
    25e4:	81 e0       	ldi	r24, 0x01	; 1
    25e6:	01 c0       	rjmp	.+2      	; 0x25ea <read_eeprom_mac_address+0x5e>

    return NRK_ERROR;
    25e8:	8f ef       	ldi	r24, 0xFF	; 255
}
    25ea:	df 91       	pop	r29
    25ec:	cf 91       	pop	r28
    25ee:	1f 91       	pop	r17
    25f0:	0f 91       	pop	r16
    25f2:	ff 90       	pop	r15
    25f4:	ef 90       	pop	r14
    25f6:	08 95       	ret

000025f8 <read_eeprom_channel>:

int8_t read_eeprom_channel(uint8_t *channel)
{
    25f8:	cf 93       	push	r28
    25fa:	df 93       	push	r29
    25fc:	ec 01       	movw	r28, r24
    *channel=eeprom_read_byte ((uint8_t*)EE_CHANNEL);
    25fe:	85 e0       	ldi	r24, 0x05	; 5
    2600:	90 e0       	ldi	r25, 0x00	; 0
    2602:	0e 94 83 44 	call	0x8906	; 0x8906 <__eerd_byte_m128>
    2606:	88 83       	st	Y, r24
    return NRK_OK;
}
    2608:	81 e0       	ldi	r24, 0x01	; 1
    260a:	df 91       	pop	r29
    260c:	cf 91       	pop	r28
    260e:	08 95       	ret

00002610 <write_eeprom_load_img_pages>:

int8_t write_eeprom_load_img_pages(uint8_t *load_pages)
{
    2610:	fc 01       	movw	r30, r24
    eeprom_write_byte ((uint8_t*)EE_LOAD_IMG_PAGES, *load_pages);
    2612:	86 e0       	ldi	r24, 0x06	; 6
    2614:	90 e0       	ldi	r25, 0x00	; 0
    2616:	60 81       	ld	r22, Z
    2618:	0e 94 8b 44 	call	0x8916	; 0x8916 <__eewr_byte_m128>
    return NRK_OK;
}
    261c:	81 e0       	ldi	r24, 0x01	; 1
    261e:	08 95       	ret

00002620 <read_eeprom_load_img_pages>:

int8_t read_eeprom_load_img_pages(uint8_t *load_pages)
{
    2620:	cf 93       	push	r28
    2622:	df 93       	push	r29
    2624:	ec 01       	movw	r28, r24
    *load_pages=eeprom_read_byte ((uint8_t*)EE_LOAD_IMG_PAGES);
    2626:	86 e0       	ldi	r24, 0x06	; 6
    2628:	90 e0       	ldi	r25, 0x00	; 0
    262a:	0e 94 83 44 	call	0x8906	; 0x8906 <__eerd_byte_m128>
    262e:	88 83       	st	Y, r24
    return NRK_OK;
}
    2630:	81 e0       	ldi	r24, 0x01	; 1
    2632:	df 91       	pop	r29
    2634:	cf 91       	pop	r28
    2636:	08 95       	ret

00002638 <read_eeprom_aes_key>:

int8_t read_eeprom_aes_key(uint8_t *aes_key)
{
    2638:	0f 93       	push	r16
    263a:	1f 93       	push	r17
    263c:	cf 93       	push	r28
    263e:	df 93       	push	r29
    2640:	08 2f       	mov	r16, r24
    2642:	19 2f       	mov	r17, r25
    2644:	c8 e0       	ldi	r28, 0x08	; 8
    2646:	d0 e0       	ldi	r29, 0x00	; 0
    uint8_t i;
    for(i=0; i<16; i++ )
        aes_key[i]=eeprom_read_byte ((uint8_t*)(EE_AES_KEY+i));
    2648:	ce 01       	movw	r24, r28
    264a:	0e 94 83 44 	call	0x8906	; 0x8906 <__eerd_byte_m128>
    264e:	f8 01       	movw	r30, r16
    2650:	81 93       	st	Z+, r24
    2652:	8f 01       	movw	r16, r30
    2654:	21 96       	adiw	r28, 0x01	; 1
}

int8_t read_eeprom_aes_key(uint8_t *aes_key)
{
    uint8_t i;
    for(i=0; i<16; i++ )
    2656:	c8 31       	cpi	r28, 0x18	; 24
    2658:	d1 05       	cpc	r29, r1
    265a:	b1 f7       	brne	.-20     	; 0x2648 <read_eeprom_aes_key+0x10>
        aes_key[i]=eeprom_read_byte ((uint8_t*)(EE_AES_KEY+i));
    return NRK_OK;
}
    265c:	81 e0       	ldi	r24, 0x01	; 1
    265e:	df 91       	pop	r29
    2660:	cf 91       	pop	r28
    2662:	1f 91       	pop	r17
    2664:	0f 91       	pop	r16
    2666:	08 95       	ret

00002668 <write_eeprom_aes_key>:

int8_t write_eeprom_aes_key(uint8_t *aes_key)
{
    2668:	0f 93       	push	r16
    266a:	1f 93       	push	r17
    266c:	cf 93       	push	r28
    266e:	df 93       	push	r29
    2670:	08 2f       	mov	r16, r24
    2672:	19 2f       	mov	r17, r25
    2674:	c8 e0       	ldi	r28, 0x08	; 8
    2676:	d0 e0       	ldi	r29, 0x00	; 0
    uint8_t i;
    for(i=0; i<16; i++ )
        eeprom_write_byte ((uint8_t*)(EE_AES_KEY+i),aes_key[i]);
    2678:	f8 01       	movw	r30, r16
    267a:	61 91       	ld	r22, Z+
    267c:	8f 01       	movw	r16, r30
    267e:	ce 01       	movw	r24, r28
    2680:	0e 94 8b 44 	call	0x8916	; 0x8916 <__eewr_byte_m128>
    2684:	21 96       	adiw	r28, 0x01	; 1
}

int8_t write_eeprom_aes_key(uint8_t *aes_key)
{
    uint8_t i;
    for(i=0; i<16; i++ )
    2686:	c8 31       	cpi	r28, 0x18	; 24
    2688:	d1 05       	cpc	r29, r1
    268a:	b1 f7       	brne	.-20     	; 0x2678 <write_eeprom_aes_key+0x10>
        eeprom_write_byte ((uint8_t*)(EE_AES_KEY+i),aes_key[i]);
    return NRK_OK;
}
    268c:	81 e0       	ldi	r24, 0x01	; 1
    268e:	df 91       	pop	r29
    2690:	cf 91       	pop	r28
    2692:	1f 91       	pop	r17
    2694:	0f 91       	pop	r16
    2696:	08 95       	ret

00002698 <read_eeprom_current_image_checksum>:

int8_t read_eeprom_current_image_checksum(uint8_t *image_checksum)
{
    2698:	cf 93       	push	r28
    269a:	df 93       	push	r29
    269c:	ec 01       	movw	r28, r24
    *image_checksum=eeprom_read_byte ((uint8_t*)EE_CURRENT_IMAGE_CHECKSUM);
    269e:	87 e0       	ldi	r24, 0x07	; 7
    26a0:	90 e0       	ldi	r25, 0x00	; 0
    26a2:	0e 94 83 44 	call	0x8906	; 0x8906 <__eerd_byte_m128>
    26a6:	88 83       	st	Y, r24
    return NRK_OK;
}
    26a8:	81 e0       	ldi	r24, 0x01	; 1
    26aa:	df 91       	pop	r29
    26ac:	cf 91       	pop	r28
    26ae:	08 95       	ret

000026b0 <write_eeprom_current_image_checksum>:

int8_t write_eeprom_current_image_checksum(uint8_t *image_checksum)
{
    26b0:	fc 01       	movw	r30, r24
    eeprom_write_byte ((uint8_t*)EE_CURRENT_IMAGE_CHECKSUM, *image_checksum);
    26b2:	87 e0       	ldi	r24, 0x07	; 7
    26b4:	90 e0       	ldi	r25, 0x00	; 0
    26b6:	60 81       	ld	r22, Z
    26b8:	0e 94 8b 44 	call	0x8916	; 0x8916 <__eewr_byte_m128>
    return NRK_OK;
}
    26bc:	81 e0       	ldi	r24, 0x01	; 1
    26be:	08 95       	ret

000026c0 <nrk_int_disable>:
#include <nrk_reserve.h>
#include <nrk_cfg.h>
#include <nrk_stats.h>

inline void nrk_int_disable(void) {
  DISABLE_GLOBAL_INT();
    26c0:	f8 94       	cli
};
    26c2:	08 95       	ret

000026c4 <nrk_int_enable>:

inline void nrk_int_enable(void) {
  ENABLE_GLOBAL_INT();
    26c4:	78 94       	sei
};
    26c6:	08 95       	ret

000026c8 <nrk_halt>:
uint8_t nrk_task_init_cnt;


void nrk_halt()
{
nrk_int_disable();
    26c8:	0e 94 60 13 	call	0x26c0	; 0x26c0 <nrk_int_disable>
    26cc:	ff cf       	rjmp	.-2      	; 0x26cc <nrk_halt+0x4>

000026ce <nrk_init>:
 *  - Init global variables
 *  - Init event list
 *  - Create idle task
 */
void nrk_init()
{
    26ce:	0f 93       	push	r16
    26d0:	1f 93       	push	r17
    26d2:	df 93       	push	r29
    26d4:	cf 93       	push	r28
    26d6:	cd b7       	in	r28, 0x3d	; 61
    26d8:	de b7       	in	r29, 0x3e	; 62
    26da:	a3 97       	sbiw	r28, 0x23	; 35
    26dc:	0f b6       	in	r0, 0x3f	; 63
    26de:	f8 94       	cli
    26e0:	de bf       	out	0x3e, r29	; 62
    26e2:	0f be       	out	0x3f, r0	; 63
    26e4:	cd bf       	out	0x3d, r28	; 61
	
    uint8_t i;	
//    unsigned char *stkc;
	
   nrk_task_type IdleTask;
   nrk_wakeup_signal = nrk_signal_create();
    26e6:	0e 94 da 18 	call	0x31b4	; 0x31b4 <nrk_signal_create>
    26ea:	80 93 c5 07 	sts	0x07C5, r24
   if(nrk_wakeup_signal==NRK_ERROR) nrk_kernel_error_add(NRK_SIGNAL_CREATE_ERROR,0);
    26ee:	8f 3f       	cpi	r24, 0xFF	; 255
    26f0:	21 f4       	brne	.+8      	; 0x26fa <nrk_init+0x2c>
    26f2:	8e e0       	ldi	r24, 0x0E	; 14
    26f4:	60 e0       	ldi	r22, 0x00	; 0
    26f6:	0e 94 5d 17 	call	0x2eba	; 0x2eba <nrk_kernel_error_add>
   //if((volatile)TCCR1B!=0) nrk_kernel_error_add(NRK_STACK_OVERFLOW,0); 
#ifndef NRK_SOFT_REBOOT_ON_ERROR
   i=_nrk_startup_error();
    26fa:	0e 94 1e 27 	call	0x4e3c	; 0x4e3c <_nrk_startup_error>
   //if((i&0x1)!=0) nrk_kernel_error_add(NRK_BAD_STARTUP,0);
#ifndef IGNORE_EXT_RST_ERROR
   if((i&0x2)!=0) nrk_kernel_error_add(NRK_EXT_RST_ERROR,0);
    26fe:	08 2f       	mov	r16, r24
    2700:	81 ff       	sbrs	r24, 1
    2702:	04 c0       	rjmp	.+8      	; 0x270c <nrk_init+0x3e>
    2704:	84 e1       	ldi	r24, 0x14	; 20
    2706:	60 e0       	ldi	r22, 0x00	; 0
    2708:	0e 94 5d 17 	call	0x2eba	; 0x2eba <nrk_kernel_error_add>
#endif
#ifndef IGNORE_BROWN_OUT_ERROR
   if((i&0x4)!=0) nrk_kernel_error_add(NRK_BOD_ERROR,0);
    270c:	02 ff       	sbrs	r16, 2
    270e:	04 c0       	rjmp	.+8      	; 0x2718 <nrk_init+0x4a>
    2710:	83 e1       	ldi	r24, 0x13	; 19
    2712:	60 e0       	ldi	r22, 0x00	; 0
    2714:	0e 94 5d 17 	call	0x2eba	; 0x2eba <nrk_kernel_error_add>
*/	
 
   // printf( "Init kernel_entry= %d %d\n",kernel_entry[1], kernel_entry[0] );

    
    nrk_cur_task_prio = 0;
    2718:	10 92 c8 07 	sts	0x07C8, r1
    nrk_cur_task_TCB = NULL;
    271c:	10 92 d6 07 	sts	0x07D6, r1
    2720:	10 92 d5 07 	sts	0x07D5, r1
    
    nrk_high_ready_TCB = NULL;
    2724:	10 92 c7 07 	sts	0x07C7, r1
    2728:	10 92 c6 07 	sts	0x07C6, r1
    nrk_high_ready_prio = 0; 
    272c:	10 92 d7 07 	sts	0x07D7, r1
    #ifdef NRK_MAX_RESERVES 
    // Setup the reserve structures
    _nrk_reserve_init();
    #endif

    _nrk_resource_cnt=0; //NRK_MAX_RESOURCE_CNT;
    2730:	10 92 d4 07 	sts	0x07D4, r1
    2734:	e4 eb       	ldi	r30, 0xB4	; 180
    2736:	f7 e0       	ldi	r31, 0x07	; 7

for(i=0;i<NRK_MAX_RESOURCE_CNT;i++)
{
    nrk_sem_list[i].count=-1;
    2738:	8f ef       	ldi	r24, 0xFF	; 255
    273a:	80 83       	st	Z, r24
    nrk_sem_list[i].value=-1;
    273c:	82 83       	std	Z+2, r24	; 0x02
    nrk_sem_list[i].resource_ceiling=-1;
    273e:	81 83       	std	Z+1, r24	; 0x01
    2740:	33 96       	adiw	r30, 0x03	; 3
    _nrk_reserve_init();
    #endif

    _nrk_resource_cnt=0; //NRK_MAX_RESOURCE_CNT;

for(i=0;i<NRK_MAX_RESOURCE_CNT;i++)
    2742:	97 e0       	ldi	r25, 0x07	; 7
    2744:	e3 3c       	cpi	r30, 0xC3	; 195
    2746:	f9 07       	cpc	r31, r25
    2748:	c1 f7       	brne	.-16     	; 0x273a <nrk_init+0x6c>
    //nrk_resource_ceiling[i]=-1;
    
}        
    for (i= 0; i<NRK_MAX_TASKS; i++)
	{
        nrk_task_TCB[i].task_prio = TCB_EMPTY_PRIO;
    274a:	93 e6       	ldi	r25, 0x63	; 99
    274c:	90 93 12 07 	sts	0x0712, r25
        nrk_task_TCB[i].task_ID = -1; 
    2750:	80 93 10 07 	sts	0x0710, r24
    //nrk_resource_ceiling[i]=-1;
    
}        
    for (i= 0; i<NRK_MAX_TASKS; i++)
	{
        nrk_task_TCB[i].task_prio = TCB_EMPTY_PRIO;
    2754:	90 93 34 07 	sts	0x0734, r25
        nrk_task_TCB[i].task_ID = -1; 
    2758:	80 93 32 07 	sts	0x0732, r24
    //nrk_resource_ceiling[i]=-1;
    
}        
    for (i= 0; i<NRK_MAX_TASKS; i++)
	{
        nrk_task_TCB[i].task_prio = TCB_EMPTY_PRIO;
    275c:	90 93 56 07 	sts	0x0756, r25
        nrk_task_TCB[i].task_ID = -1; 
    2760:	80 93 54 07 	sts	0x0754, r24
    //nrk_resource_ceiling[i]=-1;
    
}        
    for (i= 0; i<NRK_MAX_TASKS; i++)
	{
        nrk_task_TCB[i].task_prio = TCB_EMPTY_PRIO;
    2764:	90 93 78 07 	sts	0x0778, r25
        nrk_task_TCB[i].task_ID = -1; 
    2768:	80 93 76 07 	sts	0x0776, r24
    //nrk_resource_ceiling[i]=-1;
    
}        
    for (i= 0; i<NRK_MAX_TASKS; i++)
	{
        nrk_task_TCB[i].task_prio = TCB_EMPTY_PRIO;
    276c:	90 93 9a 07 	sts	0x079A, r25
        nrk_task_TCB[i].task_ID = -1; 
    2770:	80 93 98 07 	sts	0x0798, r24
    2774:	eb ed       	ldi	r30, 0xDB	; 219
    2776:	f7 e0       	ldi	r31, 0x07	; 7
    2778:	20 e0       	ldi	r18, 0x00	; 0
    277a:	30 e0       	ldi	r19, 0x00	; 0
    277c:	01 c0       	rjmp	.+2      	; 0x2780 <nrk_init+0xb2>
        }
  
       
    // Setup a double linked list of Ready Tasks 
    for (i=0;i<NRK_MAX_TASKS;i++)
    277e:	9a 01       	movw	r18, r20
    
}        
    for (i= 0; i<NRK_MAX_TASKS; i++)
	{
        nrk_task_TCB[i].task_prio = TCB_EMPTY_PRIO;
        nrk_task_TCB[i].task_ID = -1; 
    2780:	a9 01       	movw	r20, r18
    2782:	4f 5f       	subi	r20, 0xFF	; 255
    2784:	5f 4f       	sbci	r21, 0xFF	; 255
  
       
    // Setup a double linked list of Ready Tasks 
    for (i=0;i<NRK_MAX_TASKS;i++)
	{
		_nrk_readyQ[i].Next	=	&_nrk_readyQ[i+1];
    2786:	ca 01       	movw	r24, r20
    2788:	88 0f       	add	r24, r24
    278a:	99 1f       	adc	r25, r25
    278c:	88 0f       	add	r24, r24
    278e:	99 1f       	adc	r25, r25
    2790:	84 0f       	add	r24, r20
    2792:	95 1f       	adc	r25, r21
    2794:	88 52       	subi	r24, 0x28	; 40
    2796:	98 4f       	sbci	r25, 0xF8	; 248
    2798:	91 83       	std	Z+1, r25	; 0x01
    279a:	80 83       	st	Z, r24
		_nrk_readyQ[i+1].Prev	=	&_nrk_readyQ[i];
    279c:	c9 01       	movw	r24, r18
    279e:	88 0f       	add	r24, r24
    27a0:	99 1f       	adc	r25, r25
    27a2:	88 0f       	add	r24, r24
    27a4:	99 1f       	adc	r25, r25
    27a6:	82 0f       	add	r24, r18
    27a8:	93 1f       	adc	r25, r19
    27aa:	88 52       	subi	r24, 0x28	; 40
    27ac:	98 4f       	sbci	r25, 0xF8	; 248
    27ae:	94 83       	std	Z+4, r25	; 0x04
    27b0:	83 83       	std	Z+3, r24	; 0x03
    27b2:	35 96       	adiw	r30, 0x05	; 5
        nrk_task_TCB[i].task_ID = -1; 
        }
  
       
    // Setup a double linked list of Ready Tasks 
    for (i=0;i<NRK_MAX_TASKS;i++)
    27b4:	45 30       	cpi	r20, 0x05	; 5
    27b6:	51 05       	cpc	r21, r1
    27b8:	11 f7       	brne	.-60     	; 0x277e <nrk_init+0xb0>
	{
		_nrk_readyQ[i].Next	=	&_nrk_readyQ[i+1];
		_nrk_readyQ[i+1].Prev	=	&_nrk_readyQ[i];
	}
	
	_nrk_readyQ[0].Prev	=	NULL;
    27ba:	10 92 da 07 	sts	0x07DA, r1
    27be:	10 92 d9 07 	sts	0x07D9, r1
	_nrk_readyQ[NRK_MAX_TASKS].Next	=	NULL;
    27c2:	10 92 f5 07 	sts	0x07F5, r1
    27c6:	10 92 f4 07 	sts	0x07F4, r1
	_head_node = NULL;
    27ca:	10 92 cb 07 	sts	0x07CB, r1
    27ce:	10 92 ca 07 	sts	0x07CA, r1
	_free_node = &_nrk_readyQ[0];
    27d2:	88 ed       	ldi	r24, 0xD8	; 216
    27d4:	97 e0       	ldi	r25, 0x07	; 7
    27d6:	90 93 07 07 	sts	0x0707, r25
    27da:	80 93 06 07 	sts	0x0706, r24
	
	
	

	nrk_task_set_entry_function( &IdleTask, nrk_idle_task);
    27de:	8e 01       	movw	r16, r28
    27e0:	0f 5f       	subi	r16, 0xFF	; 255
    27e2:	1f 4f       	sbci	r17, 0xFF	; 255
    27e4:	c8 01       	movw	r24, r16
    27e6:	62 ef       	ldi	r22, 0xF2	; 242
    27e8:	72 e2       	ldi	r23, 0x22	; 34
    27ea:	0e 94 98 27 	call	0x4f30	; 0x4f30 <nrk_task_set_entry_function>
	nrk_task_set_stk( &IdleTask, nrk_idle_task_stk, NRK_TASK_IDLE_STK_SIZE);
    27ee:	c8 01       	movw	r24, r16
    27f0:	6b e6       	ldi	r22, 0x6B	; 107
    27f2:	76 e0       	ldi	r23, 0x06	; 6
    27f4:	40 e8       	ldi	r20, 0x80	; 128
    27f6:	50 e0       	ldi	r21, 0x00	; 0
    27f8:	0e 94 de 27 	call	0x4fbc	; 0x4fbc <nrk_task_set_stk>
	nrk_idle_task_stk[0]=STK_CANARY_VAL;	
    27fc:	85 e5       	ldi	r24, 0x55	; 85
    27fe:	80 93 6b 06 	sts	0x066B, r24
	//IdleTask.task_ID = NRK_IDLE_TASK_ID;
	IdleTask.prio = 0;
    2802:	19 86       	std	Y+9, r1	; 0x09
	IdleTask.period.secs = 0;
    2804:	1c 86       	std	Y+12, r1	; 0x0c
    2806:	1d 86       	std	Y+13, r1	; 0x0d
    2808:	1e 86       	std	Y+14, r1	; 0x0e
    280a:	1f 86       	std	Y+15, r1	; 0x0f
	IdleTask.period.nano_secs = 0;
    280c:	18 8a       	std	Y+16, r1	; 0x10
    280e:	19 8a       	std	Y+17, r1	; 0x11
    2810:	1a 8a       	std	Y+18, r1	; 0x12
    2812:	1b 8a       	std	Y+19, r1	; 0x13
	IdleTask.cpu_reserve.secs = 0;
    2814:	1c 8a       	std	Y+20, r1	; 0x14
    2816:	1d 8a       	std	Y+21, r1	; 0x15
    2818:	1e 8a       	std	Y+22, r1	; 0x16
    281a:	1f 8a       	std	Y+23, r1	; 0x17
	IdleTask.cpu_reserve.nano_secs = 0;
    281c:	18 8e       	std	Y+24, r1	; 0x18
    281e:	19 8e       	std	Y+25, r1	; 0x19
    2820:	1a 8e       	std	Y+26, r1	; 0x1a
    2822:	1b 8e       	std	Y+27, r1	; 0x1b
	IdleTask.offset.secs = 0;
    2824:	1c 8e       	std	Y+28, r1	; 0x1c
    2826:	1d 8e       	std	Y+29, r1	; 0x1d
    2828:	1e 8e       	std	Y+30, r1	; 0x1e
    282a:	1f 8e       	std	Y+31, r1	; 0x1f
	IdleTask.offset.nano_secs = 0;
    282c:	18 a2       	std	Y+32, r1	; 0x20
    282e:	19 a2       	std	Y+33, r1	; 0x21
    2830:	1a a2       	std	Y+34, r1	; 0x22
    2832:	1b a2       	std	Y+35, r1	; 0x23
	IdleTask.FirstActivation = TRUE;
    2834:	81 e0       	ldi	r24, 0x01	; 1
    2836:	88 87       	std	Y+8, r24	; 0x08
	IdleTask.Type = IDLE_TASK;
    2838:	92 e0       	ldi	r25, 0x02	; 2
    283a:	9a 87       	std	Y+10, r25	; 0x0a
	IdleTask.SchType = PREEMPTIVE;
    283c:	8b 87       	std	Y+11, r24	; 0x0b
	nrk_activate_task(&IdleTask);
    283e:	c8 01       	movw	r24, r16
    2840:	0e 94 d6 1d 	call	0x3bac	; 0x3bac <nrk_activate_task>
	
}
    2844:	a3 96       	adiw	r28, 0x23	; 35
    2846:	0f b6       	in	r0, 0x3f	; 63
    2848:	f8 94       	cli
    284a:	de bf       	out	0x3e, r29	; 62
    284c:	0f be       	out	0x3f, r0	; 63
    284e:	cd bf       	out	0x3d, r28	; 61
    2850:	cf 91       	pop	r28
    2852:	df 91       	pop	r29
    2854:	1f 91       	pop	r17
    2856:	0f 91       	pop	r16
    2858:	08 95       	ret

0000285a <nrk_start>:




void nrk_start (void)
{
    285a:	cf 92       	push	r12
    285c:	df 92       	push	r13
    285e:	ff 92       	push	r15
    2860:	0f 93       	push	r16
    2862:	1f 93       	push	r17
    2864:	df 93       	push	r29
    2866:	cf 93       	push	r28
    2868:	00 d0       	rcall	.+0      	; 0x286a <nrk_start+0x10>
    286a:	cd b7       	in	r28, 0x3d	; 61
    286c:	de b7       	in	r29, 0x3e	; 62
    // Check to make sure all tasks unique
    for(i=0; i<NRK_MAX_TASKS; i++ )
    {
	task_ID = nrk_task_TCB[i].task_ID;
	// only check activated tasks
	if(task_ID!=-1)
    286e:	10 e1       	ldi	r17, 0x10	; 16
    2870:	c1 2e       	mov	r12, r17
    2872:	17 e0       	ldi	r17, 0x07	; 7
    2874:	d1 2e       	mov	r13, r17
	/*
		- Get highest priority task from rdy list
		- set cur prio and start the task 
	*/
    // Check to make sure all tasks unique
    for(i=0; i<NRK_MAX_TASKS; i++ )
    2876:	90 e0       	ldi	r25, 0x00	; 0
    {
	task_ID = nrk_task_TCB[i].task_ID;
    2878:	f6 01       	movw	r30, r12
    287a:	f0 80       	ld	r15, Z
	// only check activated tasks
	if(task_ID!=-1)
    287c:	ff 2d       	mov	r31, r15
    287e:	ff 3f       	cpi	r31, 0xFF	; 255
    2880:	b1 f0       	breq	.+44     	; 0x28ae <nrk_start+0x54>
    2882:	00 e1       	ldi	r16, 0x10	; 16
    2884:	17 e0       	ldi	r17, 0x07	; 7
    2886:	20 e0       	ldi	r18, 0x00	; 0
	{
    		for(j=0; j<NRK_MAX_TASKS; j++ )
		{
			if(i!=j && task_ID==nrk_task_TCB[j].task_ID)
    2888:	92 17       	cp	r25, r18
    288a:	61 f0       	breq	.+24     	; 0x28a4 <nrk_start+0x4a>
    288c:	f8 01       	movw	r30, r16
    288e:	80 81       	ld	r24, Z
    2890:	f8 16       	cp	r15, r24
    2892:	41 f4       	brne	.+16     	; 0x28a4 <nrk_start+0x4a>
			{
			nrk_kernel_error_add(NRK_DUP_TASK_ID,task_ID);
    2894:	85 e0       	ldi	r24, 0x05	; 5
    2896:	6f 2d       	mov	r22, r15
    2898:	29 83       	std	Y+1, r18	; 0x01
    289a:	9a 83       	std	Y+2, r25	; 0x02
    289c:	0e 94 5d 17 	call	0x2eba	; 0x2eba <nrk_kernel_error_add>
    28a0:	9a 81       	ldd	r25, Y+2	; 0x02
    28a2:	29 81       	ldd	r18, Y+1	; 0x01
    {
	task_ID = nrk_task_TCB[i].task_ID;
	// only check activated tasks
	if(task_ID!=-1)
	{
    		for(j=0; j<NRK_MAX_TASKS; j++ )
    28a4:	2f 5f       	subi	r18, 0xFF	; 255
    28a6:	0e 5d       	subi	r16, 0xDE	; 222
    28a8:	1f 4f       	sbci	r17, 0xFF	; 255
    28aa:	25 30       	cpi	r18, 0x05	; 5
    28ac:	69 f7       	brne	.-38     	; 0x2888 <nrk_start+0x2e>
	/*
		- Get highest priority task from rdy list
		- set cur prio and start the task 
	*/
    // Check to make sure all tasks unique
    for(i=0; i<NRK_MAX_TASKS; i++ )
    28ae:	9f 5f       	subi	r25, 0xFF	; 255
    28b0:	22 e2       	ldi	r18, 0x22	; 34
    28b2:	30 e0       	ldi	r19, 0x00	; 0
    28b4:	c2 0e       	add	r12, r18
    28b6:	d3 1e       	adc	r13, r19
    28b8:	95 30       	cpi	r25, 0x05	; 5
    28ba:	f1 f6       	brne	.-68     	; 0x2878 <nrk_start+0x1e>
		}
	}

    }

    task_ID = nrk_get_high_ready_task_ID();	
    28bc:	0e 94 a2 1c 	call	0x3944	; 0x3944 <nrk_get_high_ready_task_ID>
    nrk_high_ready_prio = nrk_task_TCB[task_ID].task_prio;
    28c0:	99 27       	eor	r25, r25
    28c2:	87 fd       	sbrc	r24, 7
    28c4:	90 95       	com	r25
    28c6:	fc 01       	movw	r30, r24
    28c8:	ee 0f       	add	r30, r30
    28ca:	ff 1f       	adc	r31, r31
    28cc:	a5 e0       	ldi	r26, 0x05	; 5
    28ce:	88 0f       	add	r24, r24
    28d0:	99 1f       	adc	r25, r25
    28d2:	aa 95       	dec	r26
    28d4:	e1 f7       	brne	.-8      	; 0x28ce <nrk_start+0x74>
    28d6:	e8 0f       	add	r30, r24
    28d8:	f9 1f       	adc	r31, r25
    28da:	e8 5f       	subi	r30, 0xF8	; 248
    28dc:	f8 4f       	sbci	r31, 0xF8	; 248
    28de:	82 85       	ldd	r24, Z+10	; 0x0a
    28e0:	80 93 d7 07 	sts	0x07D7, r24
    nrk_high_ready_TCB = nrk_cur_task_TCB = &nrk_task_TCB[task_ID];           
    28e4:	f0 93 d6 07 	sts	0x07D6, r31
    28e8:	e0 93 d5 07 	sts	0x07D5, r30
    28ec:	f0 93 c7 07 	sts	0x07C7, r31
    28f0:	e0 93 c6 07 	sts	0x07C6, r30
    nrk_cur_task_prio = nrk_high_ready_prio;
    28f4:	80 93 c8 07 	sts	0x07C8, r24
    
    //TODO: this way on msp
    // *stkc++ = (uint16_t)((uint16_t)_nrk_timer_tick&0xFF);
    // *stkc = (uint16_t)((uint16_t)_nrk_timer_tick>>8); 
*/
    nrk_target_start();
    28f8:	0e 94 14 28 	call	0x5028	; 0x5028 <nrk_target_start>
    nrk_stack_pointer_init(); 
    28fc:	0e 94 04 28 	call	0x5008	; 0x5008 <nrk_stack_pointer_init>
    nrk_start_high_ready_task();	
    2900:	0e 94 61 33 	call	0x66c2	; 0x66c2 <nrk_start_high_ready_task>
    2904:	ff cf       	rjmp	.-2      	; 0x2904 <nrk_start+0xaa>

00002906 <nrk_TCB_init>:
    while(1);
}


int8_t nrk_TCB_init (nrk_task_type *Task, NRK_STK *ptos, NRK_STK *pbos, uint16_t stk_size, void *pext, uint16_t opt)
{
    2906:	ef 92       	push	r14
    2908:	ff 92       	push	r15
    290a:	0f 93       	push	r16
    290c:	1f 93       	push	r17
    290e:	cf 93       	push	r28
    2910:	df 93       	push	r29
    2912:	ec 01       	movw	r28, r24
    2914:	7b 01       	movw	r14, r22
    2916:	8a 01       	movw	r16, r20
	
    //  Already in critical section so no needenter critical section
    if(Task->Type!=IDLE_TASK)
    2918:	89 85       	ldd	r24, Y+9	; 0x09
    291a:	82 30       	cpi	r24, 0x02	; 2
    291c:	21 f0       	breq	.+8      	; 0x2926 <nrk_TCB_init+0x20>
    	Task->task_ID=nrk_task_init_cnt;
    291e:	80 91 c3 07 	lds	r24, 0x07C3
    2922:	88 83       	st	Y, r24
    2924:	01 c0       	rjmp	.+2      	; 0x2928 <nrk_TCB_init+0x22>
    else Task->task_ID=NRK_IDLE_TASK_ID;
    2926:	18 82       	st	Y, r1

    if(nrk_task_init_cnt>=NRK_MAX_TASKS) nrk_kernel_error_add(NRK_EXTRA_TASK,0);
    2928:	80 91 c3 07 	lds	r24, 0x07C3
    292c:	85 30       	cpi	r24, 0x05	; 5
    292e:	20 f0       	brcs	.+8      	; 0x2938 <nrk_TCB_init+0x32>
    2930:	87 e0       	ldi	r24, 0x07	; 7
    2932:	60 e0       	ldi	r22, 0x00	; 0
    2934:	0e 94 5d 17 	call	0x2eba	; 0x2eba <nrk_kernel_error_add>
    if(Task->Type!=IDLE_TASK) nrk_task_init_cnt++; 
    2938:	89 85       	ldd	r24, Y+9	; 0x09
    293a:	82 30       	cpi	r24, 0x02	; 2
    293c:	29 f0       	breq	.+10     	; 0x2948 <nrk_TCB_init+0x42>
    293e:	80 91 c3 07 	lds	r24, 0x07C3
    2942:	8f 5f       	subi	r24, 0xFF	; 255
    2944:	80 93 c3 07 	sts	0x07C3, r24
    if(nrk_task_init_cnt==NRK_IDLE_TASK_ID) nrk_task_init_cnt++;
    2948:	80 91 c3 07 	lds	r24, 0x07C3
    294c:	88 23       	and	r24, r24
    294e:	19 f4       	brne	.+6      	; 0x2956 <nrk_TCB_init+0x50>
    2950:	81 e0       	ldi	r24, 0x01	; 1
    2952:	80 93 c3 07 	sts	0x07C3, r24
    //initialize member of TCB structure
    nrk_task_TCB[Task->task_ID].OSTaskStkPtr = ptos;
    2956:	88 81       	ld	r24, Y
    2958:	99 27       	eor	r25, r25
    295a:	87 fd       	sbrc	r24, 7
    295c:	90 95       	com	r25
    295e:	fc 01       	movw	r30, r24
    2960:	ee 0f       	add	r30, r30
    2962:	ff 1f       	adc	r31, r31
    2964:	75 e0       	ldi	r23, 0x05	; 5
    2966:	88 0f       	add	r24, r24
    2968:	99 1f       	adc	r25, r25
    296a:	7a 95       	dec	r23
    296c:	e1 f7       	brne	.-8      	; 0x2966 <nrk_TCB_init+0x60>
    296e:	e8 0f       	add	r30, r24
    2970:	f9 1f       	adc	r31, r25
    2972:	e8 5f       	subi	r30, 0xF8	; 248
    2974:	f8 4f       	sbci	r31, 0xF8	; 248
    2976:	f1 82       	std	Z+1, r15	; 0x01
    2978:	e0 82       	st	Z, r14
    nrk_task_TCB[Task->task_ID].task_prio = Task->prio;
    297a:	88 85       	ldd	r24, Y+8	; 0x08
    297c:	82 87       	std	Z+10, r24	; 0x0a
    nrk_task_TCB[Task->task_ID].task_state = SUSPENDED;
    297e:	88 81       	ld	r24, Y
    2980:	99 27       	eor	r25, r25
    2982:	87 fd       	sbrc	r24, 7
    2984:	90 95       	com	r25
    2986:	fc 01       	movw	r30, r24
    2988:	ee 0f       	add	r30, r30
    298a:	ff 1f       	adc	r31, r31
    298c:	55 e0       	ldi	r21, 0x05	; 5
    298e:	88 0f       	add	r24, r24
    2990:	99 1f       	adc	r25, r25
    2992:	5a 95       	dec	r21
    2994:	e1 f7       	brne	.-8      	; 0x298e <nrk_TCB_init+0x88>
    2996:	e8 0f       	add	r30, r24
    2998:	f9 1f       	adc	r31, r25
    299a:	e8 5f       	subi	r30, 0xF8	; 248
    299c:	f8 4f       	sbci	r31, 0xF8	; 248
    299e:	83 e0       	ldi	r24, 0x03	; 3
    29a0:	81 87       	std	Z+9, r24	; 0x09
    
    nrk_task_TCB[Task->task_ID].task_ID = Task->task_ID;
    29a2:	28 81       	ld	r18, Y
    29a4:	82 2f       	mov	r24, r18
    29a6:	99 27       	eor	r25, r25
    29a8:	87 fd       	sbrc	r24, 7
    29aa:	90 95       	com	r25
    29ac:	fc 01       	movw	r30, r24
    29ae:	ee 0f       	add	r30, r30
    29b0:	ff 1f       	adc	r31, r31
    29b2:	35 e0       	ldi	r19, 0x05	; 5
    29b4:	88 0f       	add	r24, r24
    29b6:	99 1f       	adc	r25, r25
    29b8:	3a 95       	dec	r19
    29ba:	e1 f7       	brne	.-8      	; 0x29b4 <nrk_TCB_init+0xae>
    29bc:	e8 0f       	add	r30, r24
    29be:	f9 1f       	adc	r31, r25
    29c0:	e8 5f       	subi	r30, 0xF8	; 248
    29c2:	f8 4f       	sbci	r31, 0xF8	; 248
    29c4:	20 87       	std	Z+8, r18	; 0x08
    nrk_task_TCB[Task->task_ID].suspend_flag = 0;
    29c6:	88 81       	ld	r24, Y
    29c8:	99 27       	eor	r25, r25
    29ca:	87 fd       	sbrc	r24, 7
    29cc:	90 95       	com	r25
    29ce:	7c 01       	movw	r14, r24
    29d0:	ee 0c       	add	r14, r14
    29d2:	ff 1c       	adc	r15, r15
    29d4:	b5 e0       	ldi	r27, 0x05	; 5
    29d6:	88 0f       	add	r24, r24
    29d8:	99 1f       	adc	r25, r25
    29da:	ba 95       	dec	r27
    29dc:	e1 f7       	brne	.-8      	; 0x29d6 <nrk_TCB_init+0xd0>
    29de:	e8 0e       	add	r14, r24
    29e0:	f9 1e       	adc	r15, r25
    29e2:	88 e0       	ldi	r24, 0x08	; 8
    29e4:	97 e0       	ldi	r25, 0x07	; 7
    29e6:	e8 0e       	add	r14, r24
    29e8:	f9 1e       	adc	r15, r25
    29ea:	f7 01       	movw	r30, r14
    29ec:	15 82       	std	Z+5, r1	; 0x05
    nrk_task_TCB[Task->task_ID].period= _nrk_time_to_ticks( &(Task->period) );
    29ee:	ce 01       	movw	r24, r28
    29f0:	0b 96       	adiw	r24, 0x0b	; 11
    29f2:	0e 94 a3 21 	call	0x4346	; 0x4346 <_nrk_time_to_ticks>
    29f6:	f7 01       	movw	r30, r14
    29f8:	94 8f       	std	Z+28, r25	; 0x1c
    29fa:	83 8f       	std	Z+27, r24	; 0x1b
    if(Task->period.secs > 61) nrk_kernel_error_add(NRK_PERIOD_OVERFLOW,Task->task_ID);
    29fc:	8b 85       	ldd	r24, Y+11	; 0x0b
    29fe:	9c 85       	ldd	r25, Y+12	; 0x0c
    2a00:	ad 85       	ldd	r26, Y+13	; 0x0d
    2a02:	be 85       	ldd	r27, Y+14	; 0x0e
    2a04:	8e 33       	cpi	r24, 0x3E	; 62
    2a06:	91 05       	cpc	r25, r1
    2a08:	a1 05       	cpc	r26, r1
    2a0a:	b1 05       	cpc	r27, r1
    2a0c:	20 f0       	brcs	.+8      	; 0x2a16 <nrk_TCB_init+0x110>
    2a0e:	86 e1       	ldi	r24, 0x16	; 22
    2a10:	68 81       	ld	r22, Y
    2a12:	0e 94 5d 17 	call	0x2eba	; 0x2eba <nrk_kernel_error_add>
    nrk_task_TCB[Task->task_ID].next_wakeup= _nrk_time_to_ticks( &(Task->offset));
    2a16:	e8 80       	ld	r14, Y
    2a18:	ff 24       	eor	r15, r15
    2a1a:	e7 fc       	sbrc	r14, 7
    2a1c:	f0 94       	com	r15
    2a1e:	ce 01       	movw	r24, r28
    2a20:	4b 96       	adiw	r24, 0x1b	; 27
    2a22:	0e 94 a3 21 	call	0x4346	; 0x4346 <_nrk_time_to_ticks>
    2a26:	f7 01       	movw	r30, r14
    2a28:	ee 0f       	add	r30, r30
    2a2a:	ff 1f       	adc	r31, r31
    2a2c:	75 e0       	ldi	r23, 0x05	; 5
    2a2e:	ee 0c       	add	r14, r14
    2a30:	ff 1c       	adc	r15, r15
    2a32:	7a 95       	dec	r23
    2a34:	e1 f7       	brne	.-8      	; 0x2a2e <nrk_TCB_init+0x128>
    2a36:	ee 0d       	add	r30, r14
    2a38:	ff 1d       	adc	r31, r15
    2a3a:	e8 5f       	subi	r30, 0xF8	; 248
    2a3c:	f8 4f       	sbci	r31, 0xF8	; 248
    2a3e:	96 8b       	std	Z+22, r25	; 0x16
    2a40:	85 8b       	std	Z+21, r24	; 0x15
    nrk_task_TCB[Task->task_ID].next_period= nrk_task_TCB[Task->task_ID].period+nrk_task_TCB[Task->task_ID].next_wakeup;
    2a42:	88 81       	ld	r24, Y
    2a44:	99 27       	eor	r25, r25
    2a46:	87 fd       	sbrc	r24, 7
    2a48:	90 95       	com	r25
    2a4a:	7c 01       	movw	r14, r24
    2a4c:	ee 0c       	add	r14, r14
    2a4e:	ff 1c       	adc	r15, r15
    2a50:	55 e0       	ldi	r21, 0x05	; 5
    2a52:	88 0f       	add	r24, r24
    2a54:	99 1f       	adc	r25, r25
    2a56:	5a 95       	dec	r21
    2a58:	e1 f7       	brne	.-8      	; 0x2a52 <nrk_TCB_init+0x14c>
    2a5a:	e8 0e       	add	r14, r24
    2a5c:	f9 1e       	adc	r15, r25
    2a5e:	88 e0       	ldi	r24, 0x08	; 8
    2a60:	97 e0       	ldi	r25, 0x07	; 7
    2a62:	e8 0e       	add	r14, r24
    2a64:	f9 1e       	adc	r15, r25
    2a66:	f7 01       	movw	r30, r14
    2a68:	85 89       	ldd	r24, Z+21	; 0x15
    2a6a:	96 89       	ldd	r25, Z+22	; 0x16
    2a6c:	23 8d       	ldd	r18, Z+27	; 0x1b
    2a6e:	34 8d       	ldd	r19, Z+28	; 0x1c
    2a70:	82 0f       	add	r24, r18
    2a72:	93 1f       	adc	r25, r19
    2a74:	90 8f       	std	Z+24, r25	; 0x18
    2a76:	87 8b       	std	Z+23, r24	; 0x17
    nrk_task_TCB[Task->task_ID].cpu_reserve= _nrk_time_to_ticks(&(Task->cpu_reserve));
    2a78:	ce 01       	movw	r24, r28
    2a7a:	43 96       	adiw	r24, 0x13	; 19
    2a7c:	0e 94 a3 21 	call	0x4346	; 0x4346 <_nrk_time_to_ticks>
    2a80:	f7 01       	movw	r30, r14
    2a82:	96 8f       	std	Z+30, r25	; 0x1e
    2a84:	85 8f       	std	Z+29, r24	; 0x1d
    nrk_task_TCB[Task->task_ID].cpu_remaining = nrk_task_TCB[Task->task_ID].cpu_reserve;
    2a86:	88 81       	ld	r24, Y
    2a88:	99 27       	eor	r25, r25
    2a8a:	87 fd       	sbrc	r24, 7
    2a8c:	90 95       	com	r25
    2a8e:	fc 01       	movw	r30, r24
    2a90:	ee 0f       	add	r30, r30
    2a92:	ff 1f       	adc	r31, r31
    2a94:	35 e0       	ldi	r19, 0x05	; 5
    2a96:	88 0f       	add	r24, r24
    2a98:	99 1f       	adc	r25, r25
    2a9a:	3a 95       	dec	r19
    2a9c:	e1 f7       	brne	.-8      	; 0x2a96 <nrk_TCB_init+0x190>
    2a9e:	e8 0f       	add	r30, r24
    2aa0:	f9 1f       	adc	r31, r25
    2aa2:	e8 5f       	subi	r30, 0xF8	; 248
    2aa4:	f8 4f       	sbci	r31, 0xF8	; 248
    2aa6:	85 8d       	ldd	r24, Z+29	; 0x1d
    2aa8:	96 8d       	ldd	r25, Z+30	; 0x1e
    2aaa:	92 8f       	std	Z+26, r25	; 0x1a
    2aac:	81 8f       	std	Z+25, r24	; 0x19
    nrk_task_TCB[Task->task_ID].num_periods = 1;
    2aae:	81 e0       	ldi	r24, 0x01	; 1
    2ab0:	90 e0       	ldi	r25, 0x00	; 0
    2ab2:	90 a3       	std	Z+32, r25	; 0x20
    2ab4:	87 8f       	std	Z+31, r24	; 0x1f
    nrk_task_TCB[Task->task_ID].OSTCBStkBottom = pbos;
    2ab6:	13 83       	std	Z+3, r17	; 0x03
    2ab8:	02 83       	std	Z+2, r16	; 0x02
    nrk_task_TCB[Task->task_ID].errno= NRK_OK;
    2aba:	81 e0       	ldi	r24, 0x01	; 1
    2abc:	84 87       	std	Z+12, r24	; 0x0c
    // Save task type here
    nrk_task_TCB[Task->task_ID].task_type = Task->Type;
    2abe:	88 81       	ld	r24, Y
    2ac0:	99 27       	eor	r25, r25
    2ac2:	87 fd       	sbrc	r24, 7
    2ac4:	90 95       	com	r25
    2ac6:	fc 01       	movw	r30, r24
    2ac8:	ee 0f       	add	r30, r30
    2aca:	ff 1f       	adc	r31, r31
    2acc:	05 e0       	ldi	r16, 0x05	; 5
    2ace:	88 0f       	add	r24, r24
    2ad0:	99 1f       	adc	r25, r25
    2ad2:	0a 95       	dec	r16
    2ad4:	e1 f7       	brne	.-8      	; 0x2ace <nrk_TCB_init+0x1c8>
    2ad6:	e8 0f       	add	r30, r24
    2ad8:	f9 1f       	adc	r31, r25
    2ada:	e8 5f       	subi	r30, 0xF8	; 248
    2adc:	f8 4f       	sbci	r31, 0xF8	; 248
    2ade:	89 85       	ldd	r24, Y+9	; 0x09
    2ae0:	81 a3       	std	Z+33, r24	; 0x21
	         

			
    return NRK_OK;

}
    2ae2:	81 e0       	ldi	r24, 0x01	; 1
    2ae4:	df 91       	pop	r29
    2ae6:	cf 91       	pop	r28
    2ae8:	1f 91       	pop	r17
    2aea:	0f 91       	pop	r16
    2aec:	ff 90       	pop	r15
    2aee:	ef 90       	pop	r14
    2af0:	08 95       	ret

00002af2 <_nrk_timer_tick>:
void _nrk_timer_tick(void)
{
	// want to do something before the scheduler gets called? 
	// Go ahead and put it here...

	_nrk_scheduler();
    2af2:	0e 94 0d 23 	call	0x461a	; 0x461a <_nrk_scheduler>

  	return;
}
    2af6:	08 95       	ret

00002af8 <nrk_version>:


uint16_t nrk_version (void)
{
    return (NRK_VERSION);
}
    2af8:	85 e6       	ldi	r24, 0x65	; 101
    2afa:	90 e0       	ldi	r25, 0x00	; 0
    2afc:	08 95       	ret

00002afe <_nrk_errno_set>:
void blink_morse_code_error( uint8_t number );


void _nrk_errno_set (NRK_ERRNO error_code)
{
    nrk_cur_task_TCB->errno = error_code;
    2afe:	e0 91 d5 07 	lds	r30, 0x07D5
    2b02:	f0 91 d6 07 	lds	r31, 0x07D6
    2b06:	84 87       	std	Z+12, r24	; 0x0c
}
    2b08:	08 95       	ret

00002b0a <nrk_errno_get>:

uint8_t nrk_errno_get ()
{
    return nrk_cur_task_TCB->errno;
    2b0a:	e0 91 d5 07 	lds	r30, 0x07D5
    2b0e:	f0 91 d6 07 	lds	r31, 0x07D6
}
    2b12:	84 85       	ldd	r24, Z+12	; 0x0c
    2b14:	08 95       	ret

00002b16 <nrk_error_get>:
}


uint8_t nrk_error_get (uint8_t * task_id, uint8_t * code)
{
    if (error_num == 0)
    2b16:	20 91 47 06 	lds	r18, 0x0647
    2b1a:	22 23       	and	r18, r18
    2b1c:	41 f0       	breq	.+16     	; 0x2b2e <nrk_error_get+0x18>
        return 0;
    *code = error_num;
    2b1e:	fb 01       	movw	r30, r22
    2b20:	20 83       	st	Z, r18
    *task_id = error_task;
    2b22:	20 91 75 04 	lds	r18, 0x0475
    2b26:	fc 01       	movw	r30, r24
    2b28:	20 83       	st	Z, r18
    return 1;
    2b2a:	81 e0       	ldi	r24, 0x01	; 1
    2b2c:	08 95       	ret


uint8_t nrk_error_get (uint8_t * task_id, uint8_t * code)
{
    if (error_num == 0)
        return 0;
    2b2e:	80 e0       	ldi	r24, 0x00	; 0
    *code = error_num;
    *task_id = error_task;
    return 1;
}
    2b30:	08 95       	ret

00002b32 <pause>:
    }

}

void pause()
{
    2b32:	df 93       	push	r29
    2b34:	cf 93       	push	r28
    2b36:	0f 92       	push	r0
    2b38:	cd b7       	in	r28, 0x3d	; 61
    2b3a:	de b7       	in	r29, 0x3e	; 62
    volatile uint8_t t;
    for (t = 0; t < 100; t++)
    2b3c:	19 82       	std	Y+1, r1	; 0x01
    2b3e:	07 c0       	rjmp	.+14     	; 0x2b4e <pause+0x1c>
        nrk_spin_wait_us (2000);
    2b40:	80 ed       	ldi	r24, 0xD0	; 208
    2b42:	97 e0       	ldi	r25, 0x07	; 7
    2b44:	0e 94 a5 25 	call	0x4b4a	; 0x4b4a <nrk_spin_wait_us>
}

void pause()
{
    volatile uint8_t t;
    for (t = 0; t < 100; t++)
    2b48:	89 81       	ldd	r24, Y+1	; 0x01
    2b4a:	8f 5f       	subi	r24, 0xFF	; 255
    2b4c:	89 83       	std	Y+1, r24	; 0x01
    2b4e:	89 81       	ldd	r24, Y+1	; 0x01
    2b50:	84 36       	cpi	r24, 0x64	; 100
    2b52:	b0 f3       	brcs	.-20     	; 0x2b40 <pause+0xe>
        nrk_spin_wait_us (2000);
}
    2b54:	0f 90       	pop	r0
    2b56:	cf 91       	pop	r28
    2b58:	df 91       	pop	r29
    2b5a:	08 95       	ret

00002b5c <blink_dot>:
    pause();
}

void blink_dot()
{
    nrk_led_set(GREEN_LED);
    2b5c:	81 e0       	ldi	r24, 0x01	; 1
    2b5e:	90 e0       	ldi	r25, 0x00	; 0
    2b60:	0e 94 4d 12 	call	0x249a	; 0x249a <nrk_led_set>
    pause();
    2b64:	0e 94 99 15 	call	0x2b32	; 0x2b32 <pause>
    nrk_led_clr(GREEN_LED);
    2b68:	81 e0       	ldi	r24, 0x01	; 1
    2b6a:	90 e0       	ldi	r25, 0x00	; 0
    2b6c:	0e 94 16 12 	call	0x242c	; 0x242c <nrk_led_clr>
    pause();
    2b70:	0e 94 99 15 	call	0x2b32	; 0x2b32 <pause>
}
    2b74:	08 95       	ret

00002b76 <blink_dash>:
    return t;
}

void blink_dash()
{
    nrk_led_set (GREEN_LED);
    2b76:	81 e0       	ldi	r24, 0x01	; 1
    2b78:	90 e0       	ldi	r25, 0x00	; 0
    2b7a:	0e 94 4d 12 	call	0x249a	; 0x249a <nrk_led_set>
    pause();
    2b7e:	0e 94 99 15 	call	0x2b32	; 0x2b32 <pause>
    pause();
    2b82:	0e 94 99 15 	call	0x2b32	; 0x2b32 <pause>
    pause();
    2b86:	0e 94 99 15 	call	0x2b32	; 0x2b32 <pause>
    nrk_led_clr(GREEN_LED);
    2b8a:	81 e0       	ldi	r24, 0x01	; 1
    2b8c:	90 e0       	ldi	r25, 0x00	; 0
    2b8e:	0e 94 16 12 	call	0x242c	; 0x242c <nrk_led_clr>
    pause();
    2b92:	0e 94 99 15 	call	0x2b32	; 0x2b32 <pause>
}
    2b96:	08 95       	ret

00002b98 <blink_morse_code_error>:
    pause();
}


void blink_morse_code_error( uint8_t number )
{
    2b98:	ff 92       	push	r15
    2b9a:	0f 93       	push	r16
    2b9c:	1f 93       	push	r17
    2b9e:	df 93       	push	r29
    2ba0:	cf 93       	push	r28
    2ba2:	00 d0       	rcall	.+0      	; 0x2ba4 <blink_morse_code_error+0xc>
    2ba4:	0f 92       	push	r0
    2ba6:	cd b7       	in	r28, 0x3d	; 61
    2ba8:	de b7       	in	r29, 0x3e	; 62
    uint8_t i;
    char str[3];

    sprintf( str,"%d",number );
    2baa:	00 d0       	rcall	.+0      	; 0x2bac <blink_morse_code_error+0x14>
    2bac:	00 d0       	rcall	.+0      	; 0x2bae <blink_morse_code_error+0x16>
    2bae:	00 d0       	rcall	.+0      	; 0x2bb0 <blink_morse_code_error+0x18>
    2bb0:	ed b7       	in	r30, 0x3d	; 61
    2bb2:	fe b7       	in	r31, 0x3e	; 62
    2bb4:	31 96       	adiw	r30, 0x01	; 1
    2bb6:	8e 01       	movw	r16, r28
    2bb8:	0f 5f       	subi	r16, 0xFF	; 255
    2bba:	1f 4f       	sbci	r17, 0xFF	; 255
    2bbc:	ad b7       	in	r26, 0x3d	; 61
    2bbe:	be b7       	in	r27, 0x3e	; 62
    2bc0:	12 96       	adiw	r26, 0x02	; 2
    2bc2:	1c 93       	st	X, r17
    2bc4:	0e 93       	st	-X, r16
    2bc6:	11 97       	sbiw	r26, 0x01	; 1
    2bc8:	26 ed       	ldi	r18, 0xD6	; 214
    2bca:	31 e0       	ldi	r19, 0x01	; 1
    2bcc:	33 83       	std	Z+3, r19	; 0x03
    2bce:	22 83       	std	Z+2, r18	; 0x02
    2bd0:	84 83       	std	Z+4, r24	; 0x04
    2bd2:	15 82       	std	Z+5, r1	; 0x05
    2bd4:	0e 94 f5 43 	call	0x87ea	; 0x87ea <sprintf>

    for(i=0; i<strlen(str); i++ )
    2bd8:	ed b7       	in	r30, 0x3d	; 61
    2bda:	fe b7       	in	r31, 0x3e	; 62
    2bdc:	36 96       	adiw	r30, 0x06	; 6
    2bde:	0f b6       	in	r0, 0x3f	; 63
    2be0:	f8 94       	cli
    2be2:	fe bf       	out	0x3e, r31	; 62
    2be4:	0f be       	out	0x3f, r0	; 63
    2be6:	ed bf       	out	0x3d, r30	; 61
    2be8:	ff 24       	eor	r15, r15
    2bea:	72 c0       	rjmp	.+228    	; 0x2cd0 <blink_morse_code_error+0x138>
    {
        switch( str[i])
    2bec:	80 0f       	add	r24, r16
    2bee:	91 1f       	adc	r25, r17
    2bf0:	dc 01       	movw	r26, r24
    2bf2:	8c 91       	ld	r24, X
    2bf4:	84 33       	cpi	r24, 0x34	; 52
    2bf6:	d1 f1       	breq	.+116    	; 0x2c6c <blink_morse_code_error+0xd4>
    2bf8:	85 33       	cpi	r24, 0x35	; 53
    2bfa:	70 f4       	brcc	.+28     	; 0x2c18 <blink_morse_code_error+0x80>
    2bfc:	81 33       	cpi	r24, 0x31	; 49
    2bfe:	f9 f0       	breq	.+62     	; 0x2c3e <blink_morse_code_error+0xa6>
    2c00:	82 33       	cpi	r24, 0x32	; 50
    2c02:	20 f4       	brcc	.+8      	; 0x2c0c <blink_morse_code_error+0x74>
    2c04:	80 33       	cpi	r24, 0x30	; 48
    2c06:	09 f0       	breq	.+2      	; 0x2c0a <blink_morse_code_error+0x72>
    2c08:	5c c0       	rjmp	.+184    	; 0x2cc2 <blink_morse_code_error+0x12a>
    2c0a:	16 c0       	rjmp	.+44     	; 0x2c38 <blink_morse_code_error+0xa0>
    2c0c:	82 33       	cpi	r24, 0x32	; 50
    2c0e:	11 f1       	breq	.+68     	; 0x2c54 <blink_morse_code_error+0xbc>
    2c10:	83 33       	cpi	r24, 0x33	; 51
    2c12:	09 f0       	breq	.+2      	; 0x2c16 <blink_morse_code_error+0x7e>
    2c14:	56 c0       	rjmp	.+172    	; 0x2cc2 <blink_morse_code_error+0x12a>
    2c16:	23 c0       	rjmp	.+70     	; 0x2c5e <blink_morse_code_error+0xc6>
    2c18:	87 33       	cpi	r24, 0x37	; 55
    2c1a:	c9 f1       	breq	.+114    	; 0x2c8e <blink_morse_code_error+0xf6>
    2c1c:	88 33       	cpi	r24, 0x38	; 56
    2c1e:	30 f4       	brcc	.+12     	; 0x2c2c <blink_morse_code_error+0x94>
    2c20:	85 33       	cpi	r24, 0x35	; 53
    2c22:	69 f1       	breq	.+90     	; 0x2c7e <blink_morse_code_error+0xe6>
    2c24:	86 33       	cpi	r24, 0x36	; 54
    2c26:	09 f0       	breq	.+2      	; 0x2c2a <blink_morse_code_error+0x92>
    2c28:	4c c0       	rjmp	.+152    	; 0x2cc2 <blink_morse_code_error+0x12a>
    2c2a:	2c c0       	rjmp	.+88     	; 0x2c84 <blink_morse_code_error+0xec>
    2c2c:	88 33       	cpi	r24, 0x38	; 56
    2c2e:	b1 f1       	breq	.+108    	; 0x2c9c <blink_morse_code_error+0x104>
    2c30:	89 33       	cpi	r24, 0x39	; 57
    2c32:	09 f0       	breq	.+2      	; 0x2c36 <blink_morse_code_error+0x9e>
    2c34:	46 c0       	rjmp	.+140    	; 0x2cc2 <blink_morse_code_error+0x12a>
    2c36:	3b c0       	rjmp	.+118    	; 0x2cae <blink_morse_code_error+0x116>
        {
        case '0':
            blink_dash();
    2c38:	0e 94 bb 15 	call	0x2b76	; 0x2b76 <blink_dash>
    2c3c:	02 c0       	rjmp	.+4      	; 0x2c42 <blink_morse_code_error+0xaa>
            blink_dash();
            blink_dash();
            blink_dash();
            break;
        case '1':
            blink_dot();
    2c3e:	0e 94 ae 15 	call	0x2b5c	; 0x2b5c <blink_dot>
            blink_dash();
    2c42:	0e 94 bb 15 	call	0x2b76	; 0x2b76 <blink_dash>
            blink_dash();
    2c46:	0e 94 bb 15 	call	0x2b76	; 0x2b76 <blink_dash>
            blink_dash();
    2c4a:	0e 94 bb 15 	call	0x2b76	; 0x2b76 <blink_dash>
            blink_dash();
    2c4e:	0e 94 bb 15 	call	0x2b76	; 0x2b76 <blink_dash>
            break;
    2c52:	37 c0       	rjmp	.+110    	; 0x2cc2 <blink_morse_code_error+0x12a>
        case '2':
            blink_dot();
    2c54:	0e 94 ae 15 	call	0x2b5c	; 0x2b5c <blink_dot>
            blink_dot();
    2c58:	0e 94 ae 15 	call	0x2b5c	; 0x2b5c <blink_dot>
    2c5c:	f4 cf       	rjmp	.-24     	; 0x2c46 <blink_morse_code_error+0xae>
            blink_dash();
            blink_dash();
            blink_dash();
            break;
        case '3':
            blink_dot();
    2c5e:	0e 94 ae 15 	call	0x2b5c	; 0x2b5c <blink_dot>
            blink_dot();
    2c62:	0e 94 ae 15 	call	0x2b5c	; 0x2b5c <blink_dot>
            blink_dot();
    2c66:	0e 94 ae 15 	call	0x2b5c	; 0x2b5c <blink_dot>
    2c6a:	ef cf       	rjmp	.-34     	; 0x2c4a <blink_morse_code_error+0xb2>
            blink_dash();
            blink_dash();
            break;
        case '4':
            blink_dot();
    2c6c:	0e 94 ae 15 	call	0x2b5c	; 0x2b5c <blink_dot>
            blink_dot();
    2c70:	0e 94 ae 15 	call	0x2b5c	; 0x2b5c <blink_dot>
            blink_dot();
    2c74:	0e 94 ae 15 	call	0x2b5c	; 0x2b5c <blink_dot>
            blink_dot();
    2c78:	0e 94 ae 15 	call	0x2b5c	; 0x2b5c <blink_dot>
    2c7c:	e8 cf       	rjmp	.-48     	; 0x2c4e <blink_morse_code_error+0xb6>
            blink_dash();
            break;
        case '5':
            blink_dot();
    2c7e:	0e 94 ae 15 	call	0x2b5c	; 0x2b5c <blink_dot>
    2c82:	02 c0       	rjmp	.+4      	; 0x2c88 <blink_morse_code_error+0xf0>
            blink_dot();
            blink_dot();
            blink_dot();
            break;
        case '6':
            blink_dash();
    2c84:	0e 94 bb 15 	call	0x2b76	; 0x2b76 <blink_dash>
            blink_dot();
    2c88:	0e 94 ae 15 	call	0x2b5c	; 0x2b5c <blink_dot>
    2c8c:	04 c0       	rjmp	.+8      	; 0x2c96 <blink_morse_code_error+0xfe>
            blink_dot();
            blink_dot();
            blink_dot();
            break;
        case '7':
            blink_dash();
    2c8e:	0e 94 bb 15 	call	0x2b76	; 0x2b76 <blink_dash>
            blink_dash();
    2c92:	0e 94 bb 15 	call	0x2b76	; 0x2b76 <blink_dash>
            blink_dot();
    2c96:	0e 94 ae 15 	call	0x2b5c	; 0x2b5c <blink_dot>
    2c9a:	06 c0       	rjmp	.+12     	; 0x2ca8 <blink_morse_code_error+0x110>
            blink_dot();
            blink_dot();
            break;
        case '8':
            blink_dash();
    2c9c:	0e 94 bb 15 	call	0x2b76	; 0x2b76 <blink_dash>
            blink_dash();
    2ca0:	0e 94 bb 15 	call	0x2b76	; 0x2b76 <blink_dash>
            blink_dash();
    2ca4:	0e 94 bb 15 	call	0x2b76	; 0x2b76 <blink_dash>
            blink_dot();
    2ca8:	0e 94 ae 15 	call	0x2b5c	; 0x2b5c <blink_dot>
    2cac:	08 c0       	rjmp	.+16     	; 0x2cbe <blink_morse_code_error+0x126>
            blink_dot();
            break;
        case '9':
            blink_dash();
    2cae:	0e 94 bb 15 	call	0x2b76	; 0x2b76 <blink_dash>
            blink_dash();
    2cb2:	0e 94 bb 15 	call	0x2b76	; 0x2b76 <blink_dash>
            blink_dash();
    2cb6:	0e 94 bb 15 	call	0x2b76	; 0x2b76 <blink_dash>
            blink_dash();
    2cba:	0e 94 bb 15 	call	0x2b76	; 0x2b76 <blink_dash>
            blink_dot();
    2cbe:	0e 94 ae 15 	call	0x2b5c	; 0x2b5c <blink_dot>
            break;
        }
        pause();
    2cc2:	0e 94 99 15 	call	0x2b32	; 0x2b32 <pause>
        pause();
    2cc6:	0e 94 99 15 	call	0x2b32	; 0x2b32 <pause>
        pause();
    2cca:	0e 94 99 15 	call	0x2b32	; 0x2b32 <pause>
    uint8_t i;
    char str[3];

    sprintf( str,"%d",number );

    for(i=0; i<strlen(str); i++ )
    2cce:	f3 94       	inc	r15
    2cd0:	f8 01       	movw	r30, r16
    2cd2:	01 90       	ld	r0, Z+
    2cd4:	00 20       	and	r0, r0
    2cd6:	e9 f7       	brne	.-6      	; 0x2cd2 <blink_morse_code_error+0x13a>
    2cd8:	31 97       	sbiw	r30, 0x01	; 1
    2cda:	e0 1b       	sub	r30, r16
    2cdc:	f1 0b       	sbc	r31, r17
    2cde:	8f 2d       	mov	r24, r15
    2ce0:	90 e0       	ldi	r25, 0x00	; 0
    2ce2:	8e 17       	cp	r24, r30
    2ce4:	9f 07       	cpc	r25, r31
    2ce6:	08 f4       	brcc	.+2      	; 0x2cea <blink_morse_code_error+0x152>
    2ce8:	81 cf       	rjmp	.-254    	; 0x2bec <blink_morse_code_error+0x54>
        pause();
        pause();
        pause();
    }

}
    2cea:	0f 90       	pop	r0
    2cec:	0f 90       	pop	r0
    2cee:	0f 90       	pop	r0
    2cf0:	cf 91       	pop	r28
    2cf2:	df 91       	pop	r29
    2cf4:	1f 91       	pop	r17
    2cf6:	0f 91       	pop	r16
    2cf8:	ff 90       	pop	r15
    2cfa:	08 95       	ret

00002cfc <nrk_error_print>:
    *task_id = error_task;
    return 1;
}

int8_t nrk_error_print ()
{
    2cfc:	0f 93       	push	r16
    2cfe:	1f 93       	push	r17
    2d00:	cf 93       	push	r28
    2d02:	df 93       	push	r29
    int8_t t=0,i=0;
    if (error_num == 0)
    2d04:	80 91 47 06 	lds	r24, 0x0647
    2d08:	88 23       	and	r24, r24
    2d0a:	29 f4       	brne	.+10     	; 0x2d16 <nrk_error_print+0x1a>
    }

#endif  /*  */
    error_num = 0;
    return t;
}
    2d0c:	df 91       	pop	r29
    2d0e:	cf 91       	pop	r28
    2d10:	1f 91       	pop	r17
    2d12:	0f 91       	pop	r16
    2d14:	08 95       	ret
    int8_t t=0,i=0;
    if (error_num == 0)
        return 0;

#ifdef NRK_HALT_ON_ERROR
    nrk_int_disable ();
    2d16:	0e 94 60 13 	call	0x26c0	; 0x26c0 <nrk_int_disable>
    nrk_watchdog_disable();
#endif
#endif

#ifndef NRK_REBOOT_ON_ERROR
    nrk_int_disable ();
    2d1a:	0e 94 60 13 	call	0x26c0	; 0x26c0 <nrk_int_disable>
#endif


#ifdef NRK_HALT_AND_LOOP_ON_ERROR
    nrk_int_disable ();
    2d1e:	0e 94 60 13 	call	0x26c0	; 0x26c0 <nrk_int_disable>
    {

#endif

        nrk_kprintf (PSTR ("*NRK ERROR("));
        printf ("%d", error_task);
    2d22:	c6 ed       	ldi	r28, 0xD6	; 214
    2d24:	d1 e0       	ldi	r29, 0x01	; 1
    while (1)
    {

#endif

        nrk_kprintf (PSTR ("*NRK ERROR("));
    2d26:	86 e6       	ldi	r24, 0x66	; 102
    2d28:	93 e0       	ldi	r25, 0x03	; 3
    2d2a:	0e 94 48 10 	call	0x2090	; 0x2090 <nrk_kprintf>
        printf ("%d", error_task);
    2d2e:	00 d0       	rcall	.+0      	; 0x2d30 <nrk_error_print+0x34>
    2d30:	00 d0       	rcall	.+0      	; 0x2d32 <nrk_error_print+0x36>
    2d32:	ed b7       	in	r30, 0x3d	; 61
    2d34:	fe b7       	in	r31, 0x3e	; 62
    2d36:	31 96       	adiw	r30, 0x01	; 1
    2d38:	ad b7       	in	r26, 0x3d	; 61
    2d3a:	be b7       	in	r27, 0x3e	; 62
    2d3c:	12 96       	adiw	r26, 0x02	; 2
    2d3e:	dc 93       	st	X, r29
    2d40:	ce 93       	st	-X, r28
    2d42:	11 97       	sbiw	r26, 0x01	; 1
    2d44:	80 91 75 04 	lds	r24, 0x0475
    2d48:	82 83       	std	Z+2, r24	; 0x02
    2d4a:	13 82       	std	Z+3, r1	; 0x03
    2d4c:	0e 94 ac 43 	call	0x8758	; 0x8758 <printf>
        nrk_kprintf (PSTR ("): "));
    2d50:	0f 90       	pop	r0
    2d52:	0f 90       	pop	r0
    2d54:	0f 90       	pop	r0
    2d56:	0f 90       	pop	r0
    2d58:	82 e6       	ldi	r24, 0x62	; 98
    2d5a:	93 e0       	ldi	r25, 0x03	; 3
    2d5c:	0e 94 48 10 	call	0x2090	; 0x2090 <nrk_kprintf>
        if (error_num > NRK_NUM_ERRORS)
    2d60:	80 91 47 06 	lds	r24, 0x0647
    2d64:	88 31       	cpi	r24, 0x18	; 24
    2d66:	10 f0       	brcs	.+4      	; 0x2d6c <nrk_error_print+0x70>
            error_num = NRK_UNKOWN;
    2d68:	10 92 47 06 	sts	0x0647, r1
        switch (error_num)
    2d6c:	80 91 47 06 	lds	r24, 0x0647
    2d70:	90 e0       	ldi	r25, 0x00	; 0
    2d72:	01 97       	sbiw	r24, 0x01	; 1
    2d74:	86 31       	cpi	r24, 0x16	; 22
    2d76:	91 05       	cpc	r25, r1
    2d78:	08 f0       	brcs	.+2      	; 0x2d7c <nrk_error_print+0x80>
    2d7a:	4b c0       	rjmp	.+150    	; 0x2e12 <nrk_error_print+0x116>
    2d7c:	8a 5b       	subi	r24, 0xBA	; 186
    2d7e:	9f 4f       	sbci	r25, 0xFF	; 255
    2d80:	fc 01       	movw	r30, r24
    2d82:	ee 0f       	add	r30, r30
    2d84:	ff 1f       	adc	r31, r31
    2d86:	05 90       	lpm	r0, Z+
    2d88:	f4 91       	lpm	r31, Z+
    2d8a:	e0 2d       	mov	r30, r0
    2d8c:	09 94       	ijmp
        {
        case NRK_PERIOD_OVERFLOW:
            nrk_kprintf (PSTR ("Task period too large. Period must be less than 61 seconds."));
    2d8e:	86 e2       	ldi	r24, 0x26	; 38
    2d90:	93 e0       	ldi	r25, 0x03	; 3
    2d92:	41 c0       	rjmp	.+130    	; 0x2e16 <nrk_error_print+0x11a>
            break;
        case NRK_STACK_TOO_SMALL:
            nrk_kprintf (PSTR ("Stack was not defined as large enough!"));
    2d94:	8f ef       	ldi	r24, 0xFF	; 255
    2d96:	92 e0       	ldi	r25, 0x02	; 2
    2d98:	3e c0       	rjmp	.+124    	; 0x2e16 <nrk_error_print+0x11a>
            break;
        case NRK_STACK_OVERFLOW:
            nrk_kprintf (PSTR ("Task Stack Overflow"));
    2d9a:	8b ee       	ldi	r24, 0xEB	; 235
    2d9c:	92 e0       	ldi	r25, 0x02	; 2
    2d9e:	3b c0       	rjmp	.+118    	; 0x2e16 <nrk_error_print+0x11a>
            break;
        case NRK_INVALID_STACK_POINTER:
            nrk_kprintf (PSTR ("Invalid Stack Pointer"));
    2da0:	85 ed       	ldi	r24, 0xD5	; 213
    2da2:	92 e0       	ldi	r25, 0x02	; 2
    2da4:	38 c0       	rjmp	.+112    	; 0x2e16 <nrk_error_print+0x11a>
            break;
        case NRK_RESERVE_ERROR:
            nrk_kprintf (PSTR ("Reserve Error in Scheduler"));
    2da6:	8a eb       	ldi	r24, 0xBA	; 186
    2da8:	92 e0       	ldi	r25, 0x02	; 2
    2daa:	35 c0       	rjmp	.+106    	; 0x2e16 <nrk_error_print+0x11a>
            break;
        case NRK_RESERVE_VIOLATED:
            nrk_kprintf (PSTR ("Task Reserve Violated"));
    2dac:	84 ea       	ldi	r24, 0xA4	; 164
    2dae:	92 e0       	ldi	r25, 0x02	; 2
    2db0:	32 c0       	rjmp	.+100    	; 0x2e16 <nrk_error_print+0x11a>
            break;
        case NRK_WAKEUP_MISSED:
            nrk_kprintf (PSTR ("Scheduler Missed Wakeup"));
    2db2:	8c e8       	ldi	r24, 0x8C	; 140
    2db4:	92 e0       	ldi	r25, 0x02	; 2
    2db6:	2f c0       	rjmp	.+94     	; 0x2e16 <nrk_error_print+0x11a>
            break;
        case NRK_DUP_TASK_ID:
            nrk_kprintf (PSTR ("Duplicated Task ID"));
    2db8:	89 e7       	ldi	r24, 0x79	; 121
    2dba:	92 e0       	ldi	r25, 0x02	; 2
    2dbc:	2c c0       	rjmp	.+88     	; 0x2e16 <nrk_error_print+0x11a>
            break;
        case NRK_BAD_STARTUP:
            nrk_kprintf (PSTR ("Unexpected Restart"));
    2dbe:	86 e6       	ldi	r24, 0x66	; 102
    2dc0:	92 e0       	ldi	r25, 0x02	; 2
    2dc2:	29 c0       	rjmp	.+82     	; 0x2e16 <nrk_error_print+0x11a>
            break;
        case NRK_STACK_SMASH:
            nrk_kprintf (PSTR ("Idle or Kernel Stack Overflow"));
    2dc4:	88 e4       	ldi	r24, 0x48	; 72
    2dc6:	92 e0       	ldi	r25, 0x02	; 2
    2dc8:	26 c0       	rjmp	.+76     	; 0x2e16 <nrk_error_print+0x11a>
            break;
        case NRK_EXTRA_TASK:
            nrk_kprintf (PSTR ("Extra Task started, is nrk_cfg.h ok?"));
    2dca:	83 e2       	ldi	r24, 0x23	; 35
    2dcc:	92 e0       	ldi	r25, 0x02	; 2
    2dce:	23 c0       	rjmp	.+70     	; 0x2e16 <nrk_error_print+0x11a>
            break;
        case NRK_LOW_VOLTAGE:
            nrk_kprintf (PSTR ("Low Voltage"));
    2dd0:	87 e1       	ldi	r24, 0x17	; 23
    2dd2:	92 e0       	ldi	r25, 0x02	; 2
    2dd4:	20 c0       	rjmp	.+64     	; 0x2e16 <nrk_error_print+0x11a>
            break;
        case NRK_SEG_FAULT:
            nrk_kprintf (PSTR ("Unhandled Interrupt Vector"));
    2dd6:	8c ef       	ldi	r24, 0xFC	; 252
    2dd8:	91 e0       	ldi	r25, 0x01	; 1
    2dda:	1d c0       	rjmp	.+58     	; 0x2e16 <nrk_error_print+0x11a>
            break;
        case NRK_TIMER_OVERFLOW:
            nrk_kprintf (PSTR ("Timer Overflow"));
    2ddc:	8d ee       	ldi	r24, 0xED	; 237
    2dde:	91 e0       	ldi	r25, 0x01	; 1
    2de0:	1a c0       	rjmp	.+52     	; 0x2e16 <nrk_error_print+0x11a>
            break;
        case NRK_SW_WATCHDOG_ERROR:
            nrk_kprintf (PSTR ("SW Watchdog Restart"));
    2de2:	89 ed       	ldi	r24, 0xD9	; 217
    2de4:	91 e0       	ldi	r25, 0x01	; 1
    2de6:	17 c0       	rjmp	.+46     	; 0x2e16 <nrk_error_print+0x11a>
            break;
        case NRK_WATCHDOG_ERROR:
            nrk_kprintf (PSTR ("Watchdog Restart"));
    2de8:	88 ec       	ldi	r24, 0xC8	; 200
    2dea:	91 e0       	ldi	r25, 0x01	; 1
    2dec:	14 c0       	rjmp	.+40     	; 0x2e16 <nrk_error_print+0x11a>
            break;
        case NRK_DEVICE_DRIVER:
            nrk_kprintf (PSTR ("Device Driver Error"));
    2dee:	84 eb       	ldi	r24, 0xB4	; 180
    2df0:	91 e0       	ldi	r25, 0x01	; 1
    2df2:	11 c0       	rjmp	.+34     	; 0x2e16 <nrk_error_print+0x11a>
            break;
        case NRK_UNIMPLEMENTED:
            nrk_kprintf (PSTR ("Kernel function not implemented"));
    2df4:	84 e9       	ldi	r24, 0x94	; 148
    2df6:	91 e0       	ldi	r25, 0x01	; 1
    2df8:	0e c0       	rjmp	.+28     	; 0x2e16 <nrk_error_print+0x11a>
            break;
        case NRK_SIGNAL_CREATE_ERROR:
            nrk_kprintf (PSTR ("Failed to create Signal"));
    2dfa:	8c e7       	ldi	r24, 0x7C	; 124
    2dfc:	91 e0       	ldi	r25, 0x01	; 1
    2dfe:	0b c0       	rjmp	.+22     	; 0x2e16 <nrk_error_print+0x11a>
            break;
        case NRK_SEMAPHORE_CREATE_ERROR:
            nrk_kprintf (PSTR ("Failed to create Semaphore"));
    2e00:	81 e6       	ldi	r24, 0x61	; 97
    2e02:	91 e0       	ldi	r25, 0x01	; 1
    2e04:	08 c0       	rjmp	.+16     	; 0x2e16 <nrk_error_print+0x11a>
            break;
        case NRK_BOD_ERROR:
            nrk_kprintf (PSTR ("Brown Out Detect"));
    2e06:	80 e5       	ldi	r24, 0x50	; 80
    2e08:	91 e0       	ldi	r25, 0x01	; 1
    2e0a:	05 c0       	rjmp	.+10     	; 0x2e16 <nrk_error_print+0x11a>
            break;
        case NRK_EXT_RST_ERROR:
            nrk_kprintf (PSTR ("External Reset"));
    2e0c:	81 e4       	ldi	r24, 0x41	; 65
    2e0e:	91 e0       	ldi	r25, 0x01	; 1
    2e10:	02 c0       	rjmp	.+4      	; 0x2e16 <nrk_error_print+0x11a>
            break;
        default:
            nrk_kprintf (PSTR ("UNKOWN"));
    2e12:	8a e3       	ldi	r24, 0x3A	; 58
    2e14:	91 e0       	ldi	r25, 0x01	; 1
    2e16:	0e 94 48 10 	call	0x2090	; 0x2090 <nrk_kprintf>
        }
        putchar ('\r');
    2e1a:	60 91 06 08 	lds	r22, 0x0806
    2e1e:	70 91 07 08 	lds	r23, 0x0807
    2e22:	8d e0       	ldi	r24, 0x0D	; 13
    2e24:	90 e0       	ldi	r25, 0x00	; 0
    2e26:	0e 94 80 43 	call	0x8700	; 0x8700 <fputc>
        putchar ('\n');
    2e2a:	60 91 06 08 	lds	r22, 0x0806
    2e2e:	70 91 07 08 	lds	r23, 0x0807
    2e32:	8a e0       	ldi	r24, 0x0A	; 10
    2e34:	90 e0       	ldi	r25, 0x00	; 0
    2e36:	0e 94 80 43 	call	0x8700	; 0x8700 <fputc>
    2e3a:	14 e1       	ldi	r17, 0x14	; 20

//t=error_num;
#ifdef NRK_HALT_AND_LOOP_ON_ERROR
        for(i=0; i<20; i++ )
        {
            nrk_led_set (2);
    2e3c:	82 e0       	ldi	r24, 0x02	; 2
    2e3e:	90 e0       	ldi	r25, 0x00	; 0
    2e40:	0e 94 4d 12 	call	0x249a	; 0x249a <nrk_led_set>
            nrk_led_clr (3);
    2e44:	83 e0       	ldi	r24, 0x03	; 3
    2e46:	90 e0       	ldi	r25, 0x00	; 0
    2e48:	0e 94 16 12 	call	0x242c	; 0x242c <nrk_led_clr>
    2e4c:	04 e6       	ldi	r16, 0x64	; 100
            for (t = 0; t < 100; t++)
                nrk_spin_wait_us (1000);
    2e4e:	88 ee       	ldi	r24, 0xE8	; 232
    2e50:	93 e0       	ldi	r25, 0x03	; 3
    2e52:	0e 94 a5 25 	call	0x4b4a	; 0x4b4a <nrk_spin_wait_us>
    2e56:	01 50       	subi	r16, 0x01	; 1
#ifdef NRK_HALT_AND_LOOP_ON_ERROR
        for(i=0; i<20; i++ )
        {
            nrk_led_set (2);
            nrk_led_clr (3);
            for (t = 0; t < 100; t++)
    2e58:	d1 f7       	brne	.-12     	; 0x2e4e <nrk_error_print+0x152>
                nrk_spin_wait_us (1000);
            nrk_led_set (3);
    2e5a:	83 e0       	ldi	r24, 0x03	; 3
    2e5c:	90 e0       	ldi	r25, 0x00	; 0
    2e5e:	0e 94 4d 12 	call	0x249a	; 0x249a <nrk_led_set>
            nrk_led_clr (2);
    2e62:	82 e0       	ldi	r24, 0x02	; 2
    2e64:	90 e0       	ldi	r25, 0x00	; 0
    2e66:	0e 94 16 12 	call	0x242c	; 0x242c <nrk_led_clr>
    2e6a:	04 e6       	ldi	r16, 0x64	; 100
            for (t = 0; t < 100; t++)
                nrk_spin_wait_us (1000);
    2e6c:	88 ee       	ldi	r24, 0xE8	; 232
    2e6e:	93 e0       	ldi	r25, 0x03	; 3
    2e70:	0e 94 a5 25 	call	0x4b4a	; 0x4b4a <nrk_spin_wait_us>
    2e74:	01 50       	subi	r16, 0x01	; 1
            nrk_led_clr (3);
            for (t = 0; t < 100; t++)
                nrk_spin_wait_us (1000);
            nrk_led_set (3);
            nrk_led_clr (2);
            for (t = 0; t < 100; t++)
    2e76:	d1 f7       	brne	.-12     	; 0x2e6c <nrk_error_print+0x170>
    2e78:	11 50       	subi	r17, 0x01	; 1



//t=error_num;
#ifdef NRK_HALT_AND_LOOP_ON_ERROR
        for(i=0; i<20; i++ )
    2e7a:	01 f7       	brne	.-64     	; 0x2e3c <nrk_error_print+0x140>
            nrk_led_clr (2);
            for (t = 0; t < 100; t++)
                nrk_spin_wait_us (1000);
        }

        nrk_led_clr(2);
    2e7c:	82 e0       	ldi	r24, 0x02	; 2
    2e7e:	90 e0       	ldi	r25, 0x00	; 0
    2e80:	0e 94 16 12 	call	0x242c	; 0x242c <nrk_led_clr>
        nrk_led_clr(3);
    2e84:	83 e0       	ldi	r24, 0x03	; 3
    2e86:	90 e0       	ldi	r25, 0x00	; 0
    2e88:	0e 94 16 12 	call	0x242c	; 0x242c <nrk_led_clr>
        blink_morse_code_error( error_task );
    2e8c:	80 91 75 04 	lds	r24, 0x0475
    2e90:	0e 94 cc 15 	call	0x2b98	; 0x2b98 <blink_morse_code_error>
        pause();
    2e94:	0e 94 99 15 	call	0x2b32	; 0x2b32 <pause>
        nrk_led_set(2);
    2e98:	82 e0       	ldi	r24, 0x02	; 2
    2e9a:	90 e0       	ldi	r25, 0x00	; 0
    2e9c:	0e 94 4d 12 	call	0x249a	; 0x249a <nrk_led_set>
        pause();
    2ea0:	0e 94 99 15 	call	0x2b32	; 0x2b32 <pause>
        nrk_led_clr(2);
    2ea4:	82 e0       	ldi	r24, 0x02	; 2
    2ea6:	90 e0       	ldi	r25, 0x00	; 0
    2ea8:	0e 94 16 12 	call	0x242c	; 0x242c <nrk_led_clr>
        pause();
    2eac:	0e 94 99 15 	call	0x2b32	; 0x2b32 <pause>
        blink_morse_code_error( error_num);
    2eb0:	80 91 47 06 	lds	r24, 0x0647
    2eb4:	0e 94 cc 15 	call	0x2b98	; 0x2b98 <blink_morse_code_error>
    }
    2eb8:	36 cf       	rjmp	.-404    	; 0x2d26 <nrk_error_print+0x2a>

00002eba <nrk_kernel_error_add>:
    nrk_error_print ();
#endif  /*  */
}

void nrk_kernel_error_add (uint8_t n, uint8_t task)
{
    2eba:	ef 92       	push	r14
    2ebc:	ff 92       	push	r15
    2ebe:	0f 93       	push	r16
    2ec0:	1f 93       	push	r17
    2ec2:	18 2f       	mov	r17, r24
    2ec4:	e6 2e       	mov	r14, r22
    error_num = n;
    2ec6:	80 93 47 06 	sts	0x0647, r24
    error_task = task;
    2eca:	60 93 75 04 	sts	0x0475, r22
#ifdef NRK_LOG_ERRORS
    _nrk_log_error(error_num, error_task);
#endif

#ifdef NRK_REPORT_ERRORS
    nrk_error_print ();
    2ece:	0e 94 7e 16 	call	0x2cfc	; 0x2cfc <nrk_error_print>
    uint8_t t;
    uint8_t i;

    while (1)
    {
        for(i=0; i<20; i++ )
    2ed2:	00 e0       	ldi	r16, 0x00	; 0
    2ed4:	21 c0       	rjmp	.+66     	; 0x2f18 <nrk_kernel_error_add+0x5e>
        {
            nrk_led_set (2);
    2ed6:	82 e0       	ldi	r24, 0x02	; 2
    2ed8:	90 e0       	ldi	r25, 0x00	; 0
    2eda:	0e 94 4d 12 	call	0x249a	; 0x249a <nrk_led_set>
            nrk_led_clr (3);
    2ede:	83 e0       	ldi	r24, 0x03	; 3
    2ee0:	90 e0       	ldi	r25, 0x00	; 0
    2ee2:	0e 94 16 12 	call	0x242c	; 0x242c <nrk_led_clr>
    2ee6:	94 e6       	ldi	r25, 0x64	; 100
    2ee8:	f9 2e       	mov	r15, r25
            for (t = 0; t < 100; t++)
                nrk_spin_wait_us (1000);
    2eea:	88 ee       	ldi	r24, 0xE8	; 232
    2eec:	93 e0       	ldi	r25, 0x03	; 3
    2eee:	0e 94 a5 25 	call	0x4b4a	; 0x4b4a <nrk_spin_wait_us>
    2ef2:	fa 94       	dec	r15
    {
        for(i=0; i<20; i++ )
        {
            nrk_led_set (2);
            nrk_led_clr (3);
            for (t = 0; t < 100; t++)
    2ef4:	d1 f7       	brne	.-12     	; 0x2eea <nrk_kernel_error_add+0x30>
                nrk_spin_wait_us (1000);
            nrk_led_set (3);
    2ef6:	83 e0       	ldi	r24, 0x03	; 3
    2ef8:	90 e0       	ldi	r25, 0x00	; 0
    2efa:	0e 94 4d 12 	call	0x249a	; 0x249a <nrk_led_set>
            nrk_led_clr (2);
    2efe:	82 e0       	ldi	r24, 0x02	; 2
    2f00:	90 e0       	ldi	r25, 0x00	; 0
    2f02:	0e 94 16 12 	call	0x242c	; 0x242c <nrk_led_clr>
    2f06:	84 e6       	ldi	r24, 0x64	; 100
    2f08:	f8 2e       	mov	r15, r24
            for (t = 0; t < 100; t++)
                nrk_spin_wait_us (1000);
    2f0a:	88 ee       	ldi	r24, 0xE8	; 232
    2f0c:	93 e0       	ldi	r25, 0x03	; 3
    2f0e:	0e 94 a5 25 	call	0x4b4a	; 0x4b4a <nrk_spin_wait_us>
    2f12:	fa 94       	dec	r15
            nrk_led_clr (3);
            for (t = 0; t < 100; t++)
                nrk_spin_wait_us (1000);
            nrk_led_set (3);
            nrk_led_clr (2);
            for (t = 0; t < 100; t++)
    2f14:	d1 f7       	brne	.-12     	; 0x2f0a <nrk_kernel_error_add+0x50>
    uint8_t t;
    uint8_t i;

    while (1)
    {
        for(i=0; i<20; i++ )
    2f16:	0f 5f       	subi	r16, 0xFF	; 255
    2f18:	04 31       	cpi	r16, 0x14	; 20
    2f1a:	e8 f2       	brcs	.-70     	; 0x2ed6 <nrk_kernel_error_add+0x1c>
            nrk_led_set (3);
            nrk_led_clr (2);
            for (t = 0; t < 100; t++)
                nrk_spin_wait_us (1000);
        }
        nrk_led_clr (3);
    2f1c:	83 e0       	ldi	r24, 0x03	; 3
    2f1e:	90 e0       	ldi	r25, 0x00	; 0
    2f20:	0e 94 16 12 	call	0x242c	; 0x242c <nrk_led_clr>
        nrk_led_clr (2);
    2f24:	82 e0       	ldi	r24, 0x02	; 2
    2f26:	90 e0       	ldi	r25, 0x00	; 0
    2f28:	0e 94 16 12 	call	0x242c	; 0x242c <nrk_led_clr>
        blink_morse_code_error( task );
    2f2c:	8e 2d       	mov	r24, r14
    2f2e:	0e 94 cc 15 	call	0x2b98	; 0x2b98 <blink_morse_code_error>
        blink_morse_code_error( n );
    2f32:	81 2f       	mov	r24, r17
    2f34:	0e 94 cc 15 	call	0x2b98	; 0x2b98 <blink_morse_code_error>
    uint8_t t;
    uint8_t i;

    while (1)
    {
        for(i=0; i<20; i++ )
    2f38:	00 e0       	ldi	r16, 0x00	; 0
    2f3a:	cd cf       	rjmp	.-102    	; 0x2ed6 <nrk_kernel_error_add+0x1c>

00002f3c <nrk_error_add>:
}
#endif

void nrk_error_add (uint8_t n)
{
    error_num = n;
    2f3c:	80 93 47 06 	sts	0x0647, r24
    error_task = nrk_cur_task_TCB->task_ID;
    2f40:	e0 91 d5 07 	lds	r30, 0x07D5
    2f44:	f0 91 d6 07 	lds	r31, 0x07D6
    2f48:	80 85       	ldd	r24, Z+8	; 0x08
    2f4a:	80 93 75 04 	sts	0x0475, r24
#ifdef NRK_LOG_ERRORS
    _nrk_log_error(error_num, error_task);
#endif

#ifdef NRK_REPORT_ERRORS
    nrk_error_print ();
    2f4e:	0e 94 7e 16 	call	0x2cfc	; 0x2cfc <nrk_error_print>
#endif  /*  */
}
    2f52:	08 95       	ret

00002f54 <dump_stack_info>:
#include <nrk_error.h>
#include <nrk_stack_check.h>
#include <stdio.h>

void dump_stack_info()
{
    2f54:	6f 92       	push	r6
    2f56:	7f 92       	push	r7
    2f58:	8f 92       	push	r8
    2f5a:	9f 92       	push	r9
    2f5c:	af 92       	push	r10
    2f5e:	bf 92       	push	r11
    2f60:	cf 92       	push	r12
    2f62:	df 92       	push	r13
    2f64:	ef 92       	push	r14
    2f66:	ff 92       	push	r15
    2f68:	0f 93       	push	r16
    2f6a:	1f 93       	push	r17
    2f6c:	cf 93       	push	r28
    2f6e:	df 93       	push	r29
    unsigned int *stk;
    unsigned char *stkc;
    uint8_t i;

    nrk_kprintf( PSTR("\r\nSTACK DUMP\r\n"));
    2f70:	82 e7       	ldi	r24, 0x72	; 114
    2f72:	93 e0       	ldi	r25, 0x03	; 3
    2f74:	0e 94 48 10 	call	0x2090	; 0x2090 <nrk_kprintf>

    printf( "cur: %d ",nrk_cur_task_TCB->task_ID);
    2f78:	00 d0       	rcall	.+0      	; 0x2f7a <dump_stack_info+0x26>
    2f7a:	00 d0       	rcall	.+0      	; 0x2f7c <dump_stack_info+0x28>
    2f7c:	89 ed       	ldi	r24, 0xD9	; 217
    2f7e:	91 e0       	ldi	r25, 0x01	; 1
    2f80:	ad b7       	in	r26, 0x3d	; 61
    2f82:	be b7       	in	r27, 0x3e	; 62
    2f84:	12 96       	adiw	r26, 0x02	; 2
    2f86:	9c 93       	st	X, r25
    2f88:	8e 93       	st	-X, r24
    2f8a:	11 97       	sbiw	r26, 0x01	; 1
    2f8c:	e0 91 d5 07 	lds	r30, 0x07D5
    2f90:	f0 91 d6 07 	lds	r31, 0x07D6
    2f94:	80 85       	ldd	r24, Z+8	; 0x08
    2f96:	99 27       	eor	r25, r25
    2f98:	87 fd       	sbrc	r24, 7
    2f9a:	90 95       	com	r25
    2f9c:	14 96       	adiw	r26, 0x04	; 4
    2f9e:	9c 93       	st	X, r25
    2fa0:	8e 93       	st	-X, r24
    2fa2:	13 97       	sbiw	r26, 0x03	; 3
    2fa4:	0e 94 ac 43 	call	0x8758	; 0x8758 <printf>
    stk= (unsigned int *)nrk_cur_task_TCB->OSTCBStkBottom;
    2fa8:	e0 91 d5 07 	lds	r30, 0x07D5
    2fac:	f0 91 d6 07 	lds	r31, 0x07D6
    2fb0:	c2 81       	ldd	r28, Z+2	; 0x02
    2fb2:	d3 81       	ldd	r29, Z+3	; 0x03
    stkc = (unsigned char*)stk;
    printf( "bottom = %x ",(uint16_t)stkc );
    2fb4:	82 ee       	ldi	r24, 0xE2	; 226
    2fb6:	91 e0       	ldi	r25, 0x01	; 1
    2fb8:	ed b7       	in	r30, 0x3d	; 61
    2fba:	fe b7       	in	r31, 0x3e	; 62
    2fbc:	92 83       	std	Z+2, r25	; 0x02
    2fbe:	81 83       	std	Z+1, r24	; 0x01
    2fc0:	d4 83       	std	Z+4, r29	; 0x04
    2fc2:	c3 83       	std	Z+3, r28	; 0x03
    2fc4:	0e 94 ac 43 	call	0x8758	; 0x8758 <printf>
    printf( "canary = %x ",*stkc );
    2fc8:	ed b7       	in	r30, 0x3d	; 61
    2fca:	fe b7       	in	r31, 0x3e	; 62
    2fcc:	31 96       	adiw	r30, 0x01	; 1
    2fce:	af ee       	ldi	r26, 0xEF	; 239
    2fd0:	ea 2e       	mov	r14, r26
    2fd2:	a1 e0       	ldi	r26, 0x01	; 1
    2fd4:	fa 2e       	mov	r15, r26
    2fd6:	ad b7       	in	r26, 0x3d	; 61
    2fd8:	be b7       	in	r27, 0x3e	; 62
    2fda:	12 96       	adiw	r26, 0x02	; 2
    2fdc:	fc 92       	st	X, r15
    2fde:	ee 92       	st	-X, r14
    2fe0:	11 97       	sbiw	r26, 0x01	; 1
    2fe2:	88 81       	ld	r24, Y
    2fe4:	82 83       	std	Z+2, r24	; 0x02
    2fe6:	13 82       	std	Z+3, r1	; 0x03
    2fe8:	0e 94 ac 43 	call	0x8758	; 0x8758 <printf>
    stk= (unsigned int *)nrk_cur_task_TCB->OSTaskStkPtr;
    stkc = (unsigned char*)stk;
    printf( "stk = %x ",(uint16_t)stkc );
    2fec:	ec ef       	ldi	r30, 0xFC	; 252
    2fee:	ce 2e       	mov	r12, r30
    2ff0:	e1 e0       	ldi	r30, 0x01	; 1
    2ff2:	de 2e       	mov	r13, r30
    2ff4:	ed b7       	in	r30, 0x3d	; 61
    2ff6:	fe b7       	in	r31, 0x3e	; 62
    2ff8:	d2 82       	std	Z+2, r13	; 0x02
    2ffa:	c1 82       	std	Z+1, r12	; 0x01
    printf( "cur: %d ",nrk_cur_task_TCB->task_ID);
    stk= (unsigned int *)nrk_cur_task_TCB->OSTCBStkBottom;
    stkc = (unsigned char*)stk;
    printf( "bottom = %x ",(uint16_t)stkc );
    printf( "canary = %x ",*stkc );
    stk= (unsigned int *)nrk_cur_task_TCB->OSTaskStkPtr;
    2ffc:	e0 91 d5 07 	lds	r30, 0x07D5
    3000:	f0 91 d6 07 	lds	r31, 0x07D6
    stkc = (unsigned char*)stk;
    printf( "stk = %x ",(uint16_t)stkc );
    3004:	80 81       	ld	r24, Z
    3006:	91 81       	ldd	r25, Z+1	; 0x01
    3008:	ad b7       	in	r26, 0x3d	; 61
    300a:	be b7       	in	r27, 0x3e	; 62
    300c:	14 96       	adiw	r26, 0x04	; 4
    300e:	9c 93       	st	X, r25
    3010:	8e 93       	st	-X, r24
    3012:	13 97       	sbiw	r26, 0x03	; 3
    3014:	0e 94 ac 43 	call	0x8758	; 0x8758 <printf>
    printf( "tcb addr = %x\r\n",(uint16_t)nrk_cur_task_TCB);
    3018:	76 e0       	ldi	r23, 0x06	; 6
    301a:	a7 2e       	mov	r10, r23
    301c:	72 e0       	ldi	r23, 0x02	; 2
    301e:	b7 2e       	mov	r11, r23
    3020:	ed b7       	in	r30, 0x3d	; 61
    3022:	fe b7       	in	r31, 0x3e	; 62
    3024:	b2 82       	std	Z+2, r11	; 0x02
    3026:	a1 82       	std	Z+1, r10	; 0x01
    3028:	80 91 d5 07 	lds	r24, 0x07D5
    302c:	90 91 d6 07 	lds	r25, 0x07D6
    3030:	94 83       	std	Z+4, r25	; 0x04
    3032:	83 83       	std	Z+3, r24	; 0x03
    3034:	0e 94 ac 43 	call	0x8758	; 0x8758 <printf>
    3038:	08 e0       	ldi	r16, 0x08	; 8
    303a:	17 e0       	ldi	r17, 0x07	; 7
    303c:	0f 90       	pop	r0
    303e:	0f 90       	pop	r0
    3040:	0f 90       	pop	r0
    3042:	0f 90       	pop	r0
    3044:	c0 e0       	ldi	r28, 0x00	; 0
    3046:	d0 e0       	ldi	r29, 0x00	; 0

    for(i=0; i<NRK_MAX_TASKS; i++ )
    {
        stk= (unsigned int *)nrk_task_TCB[i].OSTCBStkBottom;
        stkc = (unsigned char*)stk;
        printf( "%d: bottom = %x ",i,(uint16_t)stkc );
    3048:	66 e1       	ldi	r22, 0x16	; 22
    304a:	66 2e       	mov	r6, r22
    304c:	62 e0       	ldi	r22, 0x02	; 2
    304e:	76 2e       	mov	r7, r22
        printf( "canary = %x ",*stkc );
    3050:	47 01       	movw	r8, r14
        stk= (unsigned int *)nrk_task_TCB[i].OSTaskStkPtr;
        stkc = (unsigned char*)stk;
        printf( "stk = %x ",(uint16_t)stkc );
    3052:	c6 01       	movw	r24, r12
    3054:	dc 2c       	mov	r13, r12
    3056:	c9 2e       	mov	r12, r25
        printf( "tcb addr = %x\r\n",(uint16_t)&nrk_task_TCB[i]);
    3058:	c5 01       	movw	r24, r10
    305a:	ba 2c       	mov	r11, r10
    305c:	a9 2e       	mov	r10, r25
    printf( "stk = %x ",(uint16_t)stkc );
    printf( "tcb addr = %x\r\n",(uint16_t)nrk_cur_task_TCB);

    for(i=0; i<NRK_MAX_TASKS; i++ )
    {
        stk= (unsigned int *)nrk_task_TCB[i].OSTCBStkBottom;
    305e:	d8 01       	movw	r26, r16
    3060:	12 96       	adiw	r26, 0x02	; 2
    3062:	ed 90       	ld	r14, X+
    3064:	fc 90       	ld	r15, X
    3066:	13 97       	sbiw	r26, 0x03	; 3
        stkc = (unsigned char*)stk;
        printf( "%d: bottom = %x ",i,(uint16_t)stkc );
    3068:	00 d0       	rcall	.+0      	; 0x306a <dump_stack_info+0x116>
    306a:	00 d0       	rcall	.+0      	; 0x306c <dump_stack_info+0x118>
    306c:	00 d0       	rcall	.+0      	; 0x306e <dump_stack_info+0x11a>
    306e:	ed b7       	in	r30, 0x3d	; 61
    3070:	fe b7       	in	r31, 0x3e	; 62
    3072:	31 96       	adiw	r30, 0x01	; 1
    3074:	ad b7       	in	r26, 0x3d	; 61
    3076:	be b7       	in	r27, 0x3e	; 62
    3078:	12 96       	adiw	r26, 0x02	; 2
    307a:	7c 92       	st	X, r7
    307c:	6e 92       	st	-X, r6
    307e:	11 97       	sbiw	r26, 0x01	; 1
    3080:	d3 83       	std	Z+3, r29	; 0x03
    3082:	c2 83       	std	Z+2, r28	; 0x02
    3084:	f5 82       	std	Z+5, r15	; 0x05
    3086:	e4 82       	std	Z+4, r14	; 0x04
    3088:	0e 94 ac 43 	call	0x8758	; 0x8758 <printf>
        printf( "canary = %x ",*stkc );
    308c:	0f 90       	pop	r0
    308e:	0f 90       	pop	r0
    3090:	ed b7       	in	r30, 0x3d	; 61
    3092:	fe b7       	in	r31, 0x3e	; 62
    3094:	31 96       	adiw	r30, 0x01	; 1
    3096:	ad b7       	in	r26, 0x3d	; 61
    3098:	be b7       	in	r27, 0x3e	; 62
    309a:	11 96       	adiw	r26, 0x01	; 1
    309c:	8c 92       	st	X, r8
    309e:	11 97       	sbiw	r26, 0x01	; 1
    30a0:	12 96       	adiw	r26, 0x02	; 2
    30a2:	9c 92       	st	X, r9
    30a4:	d7 01       	movw	r26, r14
    30a6:	8c 91       	ld	r24, X
    30a8:	82 83       	std	Z+2, r24	; 0x02
    30aa:	13 82       	std	Z+3, r1	; 0x03
    30ac:	0e 94 ac 43 	call	0x8758	; 0x8758 <printf>
        stk= (unsigned int *)nrk_task_TCB[i].OSTaskStkPtr;
        stkc = (unsigned char*)stk;
        printf( "stk = %x ",(uint16_t)stkc );
    30b0:	ed b7       	in	r30, 0x3d	; 61
    30b2:	fe b7       	in	r31, 0x3e	; 62
    30b4:	d1 82       	std	Z+1, r13	; 0x01
    30b6:	c2 82       	std	Z+2, r12	; 0x02
    30b8:	d8 01       	movw	r26, r16
    30ba:	8d 91       	ld	r24, X+
    30bc:	9c 91       	ld	r25, X
    30be:	94 83       	std	Z+4, r25	; 0x04
    30c0:	83 83       	std	Z+3, r24	; 0x03
    30c2:	0e 94 ac 43 	call	0x8758	; 0x8758 <printf>
        printf( "tcb addr = %x\r\n",(uint16_t)&nrk_task_TCB[i]);
    30c6:	ed b7       	in	r30, 0x3d	; 61
    30c8:	fe b7       	in	r31, 0x3e	; 62
    30ca:	b1 82       	std	Z+1, r11	; 0x01
    30cc:	a2 82       	std	Z+2, r10	; 0x02
    30ce:	ce 01       	movw	r24, r28
    30d0:	88 0f       	add	r24, r24
    30d2:	99 1f       	adc	r25, r25
    30d4:	9e 01       	movw	r18, r28
    30d6:	45 e0       	ldi	r20, 0x05	; 5
    30d8:	22 0f       	add	r18, r18
    30da:	33 1f       	adc	r19, r19
    30dc:	4a 95       	dec	r20
    30de:	e1 f7       	brne	.-8      	; 0x30d8 <dump_stack_info+0x184>
    30e0:	82 0f       	add	r24, r18
    30e2:	93 1f       	adc	r25, r19
    30e4:	88 5f       	subi	r24, 0xF8	; 248
    30e6:	98 4f       	sbci	r25, 0xF8	; 248
    30e8:	94 83       	std	Z+4, r25	; 0x04
    30ea:	83 83       	std	Z+3, r24	; 0x03
    30ec:	0e 94 ac 43 	call	0x8758	; 0x8758 <printf>
    30f0:	21 96       	adiw	r28, 0x01	; 1
    30f2:	0e 5d       	subi	r16, 0xDE	; 222
    30f4:	1f 4f       	sbci	r17, 0xFF	; 255
    stk= (unsigned int *)nrk_cur_task_TCB->OSTaskStkPtr;
    stkc = (unsigned char*)stk;
    printf( "stk = %x ",(uint16_t)stkc );
    printf( "tcb addr = %x\r\n",(uint16_t)nrk_cur_task_TCB);

    for(i=0; i<NRK_MAX_TASKS; i++ )
    30f6:	0f 90       	pop	r0
    30f8:	0f 90       	pop	r0
    30fa:	0f 90       	pop	r0
    30fc:	0f 90       	pop	r0
    30fe:	c5 30       	cpi	r28, 0x05	; 5
    3100:	d1 05       	cpc	r29, r1
    3102:	09 f0       	breq	.+2      	; 0x3106 <dump_stack_info+0x1b2>
    3104:	ac cf       	rjmp	.-168    	; 0x305e <dump_stack_info+0x10a>
        printf( "stk = %x ",(uint16_t)stkc );
        printf( "tcb addr = %x\r\n",(uint16_t)&nrk_task_TCB[i]);

    }

}
    3106:	df 91       	pop	r29
    3108:	cf 91       	pop	r28
    310a:	1f 91       	pop	r17
    310c:	0f 91       	pop	r16
    310e:	ff 90       	pop	r15
    3110:	ef 90       	pop	r14
    3112:	df 90       	pop	r13
    3114:	cf 90       	pop	r12
    3116:	bf 90       	pop	r11
    3118:	af 90       	pop	r10
    311a:	9f 90       	pop	r9
    311c:	8f 90       	pop	r8
    311e:	7f 90       	pop	r7
    3120:	6f 90       	pop	r6
    3122:	08 95       	ret

00003124 <nrk_stack_check>:
 * If the end of the stack was overwritten, then flag an error.
 *
 * */
//inline void nrk_stack_check()
void nrk_stack_check()
{
    3124:	cf 93       	push	r28
    3126:	df 93       	push	r29
#ifdef NRK_STACK_CHECK

    unsigned int *stk ;  // 2 bytes
    unsigned char *stkc; // 1 byte

    stk  = (unsigned int *)nrk_cur_task_TCB->OSTCBStkBottom;          /* Load stack pointer */
    3128:	e0 91 d5 07 	lds	r30, 0x07D5
    312c:	f0 91 d6 07 	lds	r31, 0x07D6
    3130:	c2 81       	ldd	r28, Z+2	; 0x02
    3132:	d3 81       	ldd	r29, Z+3	; 0x03
    stkc = (unsigned char*)stk;
    if(*stkc != STK_CANARY_VAL)
    3134:	88 81       	ld	r24, Y
    3136:	85 35       	cpi	r24, 0x55	; 85
    3138:	39 f0       	breq	.+14     	; 0x3148 <nrk_stack_check+0x24>
    {
#ifdef NRK_REPORT_ERRORS
        dump_stack_info();
    313a:	0e 94 aa 17 	call	0x2f54	; 0x2f54 <dump_stack_info>
#endif
        nrk_error_add( NRK_STACK_OVERFLOW );
    313e:	81 e0       	ldi	r24, 0x01	; 1
    3140:	0e 94 9e 17 	call	0x2f3c	; 0x2f3c <nrk_error_add>
        *stkc=STK_CANARY_VAL;
    3144:	85 e5       	ldi	r24, 0x55	; 85
    3146:	88 83       	st	Y, r24
    }

    stk  = (unsigned int *)nrk_cur_task_TCB->OSTaskStkPtr;          /* Load stack pointer */
    3148:	e0 91 d5 07 	lds	r30, 0x07D5
    314c:	f0 91 d6 07 	lds	r31, 0x07D6
    stkc = (unsigned char*)stk;
    if(stkc > (unsigned char *)RAMEND )
    3150:	80 81       	ld	r24, Z
    3152:	91 81       	ldd	r25, Z+1	; 0x01
    3154:	21 e1       	ldi	r18, 0x11	; 17
    3156:	80 30       	cpi	r24, 0x00	; 0
    3158:	92 07       	cpc	r25, r18
    315a:	28 f0       	brcs	.+10     	; 0x3166 <nrk_stack_check+0x42>
    {
#ifdef NRK_REPORT_ERRORS
        dump_stack_info();
    315c:	0e 94 aa 17 	call	0x2f54	; 0x2f54 <dump_stack_info>
#endif
        nrk_error_add( NRK_INVALID_STACK_POINTER);
    3160:	82 e1       	ldi	r24, 0x12	; 18
    3162:	0e 94 9e 17 	call	0x2f3c	; 0x2f3c <nrk_error_add>




#endif
}
    3166:	df 91       	pop	r29
    3168:	cf 91       	pop	r28
    316a:	08 95       	ret

0000316c <nrk_stack_check_pid>:
#ifdef NRK_STACK_CHECK

    unsigned int *stk ;  // 2 bytes
    unsigned char *stkc; // 1 byte

    stk  = (unsigned int *)nrk_task_TCB[pid].OSTCBStkBottom;          /* Load stack pointer */
    316c:	99 27       	eor	r25, r25
    316e:	87 fd       	sbrc	r24, 7
    3170:	90 95       	com	r25
    3172:	fc 01       	movw	r30, r24
    3174:	ee 0f       	add	r30, r30
    3176:	ff 1f       	adc	r31, r31
    3178:	b5 e0       	ldi	r27, 0x05	; 5
    317a:	88 0f       	add	r24, r24
    317c:	99 1f       	adc	r25, r25
    317e:	ba 95       	dec	r27
    3180:	e1 f7       	brne	.-8      	; 0x317a <nrk_stack_check_pid+0xe>
    3182:	e8 0f       	add	r30, r24
    3184:	f9 1f       	adc	r31, r25
    3186:	e8 5f       	subi	r30, 0xF8	; 248
    3188:	f8 4f       	sbci	r31, 0xF8	; 248
    318a:	a2 81       	ldd	r26, Z+2	; 0x02
    318c:	b3 81       	ldd	r27, Z+3	; 0x03
    stkc = (unsigned char*)stk;
    if(*stkc != STK_CANARY_VAL)
    318e:	8c 91       	ld	r24, X
    3190:	85 35       	cpi	r24, 0x55	; 85
    3192:	19 f0       	breq	.+6      	; 0x319a <nrk_stack_check_pid+0x2e>
    {
        *stkc=STK_CANARY_VAL;
    3194:	85 e5       	ldi	r24, 0x55	; 85
    3196:	8c 93       	st	X, r24
    3198:	09 c0       	rjmp	.+18     	; 0x31ac <nrk_stack_check_pid+0x40>
        return NRK_ERROR;
    }
    stk  = (unsigned int *)nrk_task_TCB[pid].OSTaskStkPtr;          /* Load stack pointer */
    stkc = (unsigned char*)stk;
    if(stkc > (unsigned char *)RAMEND )
    319a:	80 81       	ld	r24, Z
    319c:	91 81       	ldd	r25, Z+1	; 0x01
    319e:	21 e1       	ldi	r18, 0x11	; 17
    31a0:	80 30       	cpi	r24, 0x00	; 0
    31a2:	92 07       	cpc	r25, r18
    31a4:	28 f0       	brcs	.+10     	; 0x31b0 <nrk_stack_check_pid+0x44>
    {
        nrk_error_add( NRK_INVALID_STACK_POINTER);
    31a6:	82 e1       	ldi	r24, 0x12	; 18
    31a8:	0e 94 9e 17 	call	0x2f3c	; 0x2f3c <nrk_error_add>
        return NRK_ERROR;
    31ac:	8f ef       	ldi	r24, 0xFF	; 255
    31ae:	08 95       	ret
    }
#endif
    return NRK_OK;
    31b0:	81 e0       	ldi	r24, 0x01	; 1
}
    31b2:	08 95       	ret

000031b4 <nrk_signal_create>:
int8_t nrk_signal_create()
{
    uint8_t i=0;
    for(i=0;i<32;i++)   
    {                         
	if( !(_nrk_signal_list & SIG(i)))
    31b4:	60 91 9a 05 	lds	r22, 0x059A
    31b8:	70 91 9b 05 	lds	r23, 0x059B
    31bc:	80 91 9c 05 	lds	r24, 0x059C
    31c0:	90 91 9d 05 	lds	r25, 0x059D
    31c4:	e0 e0       	ldi	r30, 0x00	; 0
    31c6:	f0 e0       	ldi	r31, 0x00	; 0
    31c8:	9b 01       	movw	r18, r22
    31ca:	ac 01       	movw	r20, r24
    31cc:	0e 2e       	mov	r0, r30
    31ce:	04 c0       	rjmp	.+8      	; 0x31d8 <nrk_signal_create+0x24>
    31d0:	56 95       	lsr	r21
    31d2:	47 95       	ror	r20
    31d4:	37 95       	ror	r19
    31d6:	27 95       	ror	r18
    31d8:	0a 94       	dec	r0
    31da:	d2 f7       	brpl	.-12     	; 0x31d0 <nrk_signal_create+0x1c>
    31dc:	20 fd       	sbrc	r18, 0
    31de:	1a c0       	rjmp	.+52     	; 0x3214 <nrk_signal_create+0x60>
	{    
	    _nrk_signal_list|=SIG(i);
    31e0:	21 e0       	ldi	r18, 0x01	; 1
    31e2:	30 e0       	ldi	r19, 0x00	; 0
    31e4:	40 e0       	ldi	r20, 0x00	; 0
    31e6:	50 e0       	ldi	r21, 0x00	; 0
    31e8:	0e 2e       	mov	r0, r30
    31ea:	04 c0       	rjmp	.+8      	; 0x31f4 <nrk_signal_create+0x40>
    31ec:	22 0f       	add	r18, r18
    31ee:	33 1f       	adc	r19, r19
    31f0:	44 1f       	adc	r20, r20
    31f2:	55 1f       	adc	r21, r21
    31f4:	0a 94       	dec	r0
    31f6:	d2 f7       	brpl	.-12     	; 0x31ec <nrk_signal_create+0x38>
    31f8:	26 2b       	or	r18, r22
    31fa:	37 2b       	or	r19, r23
    31fc:	48 2b       	or	r20, r24
    31fe:	59 2b       	or	r21, r25
    3200:	20 93 9a 05 	sts	0x059A, r18
    3204:	30 93 9b 05 	sts	0x059B, r19
    3208:	40 93 9c 05 	sts	0x059C, r20
    320c:	50 93 9d 05 	sts	0x059D, r21
	    return i;
    3210:	8e 2f       	mov	r24, r30
    3212:	08 95       	ret
    3214:	31 96       	adiw	r30, 0x01	; 1
#include <nrk_defs.h>

int8_t nrk_signal_create()
{
    uint8_t i=0;
    for(i=0;i<32;i++)   
    3216:	e0 32       	cpi	r30, 0x20	; 32
    3218:	f1 05       	cpc	r31, r1
    321a:	b1 f6       	brne	.-84     	; 0x31c8 <nrk_signal_create+0x14>
	{    
	    _nrk_signal_list|=SIG(i);
	    return i;
	}
    }
    return NRK_ERROR;
    321c:	8f ef       	ldi	r24, 0xFF	; 255


}
    321e:	08 95       	ret

00003220 <nrk_signal_get_registered_mask>:

uint32_t nrk_signal_get_registered_mask()
{
    return nrk_cur_task_TCB->registered_signal_mask;
    3220:	e0 91 d5 07 	lds	r30, 0x07D5
    3224:	f0 91 d6 07 	lds	r31, 0x07D6


}

uint32_t nrk_signal_get_registered_mask()
{
    3228:	65 85       	ldd	r22, Z+13	; 0x0d
    322a:	76 85       	ldd	r23, Z+14	; 0x0e
    return nrk_cur_task_TCB->registered_signal_mask;
}
    322c:	87 85       	ldd	r24, Z+15	; 0x0f
    322e:	90 89       	ldd	r25, Z+16	; 0x10
    3230:	08 95       	ret

00003232 <nrk_signal_delete>:

//return the number removed from signal set
int8_t nrk_signal_delete(nrk_sig_t sig_id)
{
    3232:	df 92       	push	r13
    3234:	ef 92       	push	r14
    3236:	ff 92       	push	r15
    3238:	0f 93       	push	r16
    323a:	1f 93       	push	r17
    323c:	d8 2e       	mov	r13, r24
    uint8_t task_ID;
    uint32_t sig_mask;

    sig_mask=SIG(sig_id);
    323e:	81 e0       	ldi	r24, 0x01	; 1
    3240:	e8 2e       	mov	r14, r24
    3242:	f1 2c       	mov	r15, r1
    3244:	01 2d       	mov	r16, r1
    3246:	11 2d       	mov	r17, r1
    3248:	0d 2c       	mov	r0, r13
    324a:	04 c0       	rjmp	.+8      	; 0x3254 <nrk_signal_delete+0x22>
    324c:	ee 0c       	add	r14, r14
    324e:	ff 1c       	adc	r15, r15
    3250:	00 1f       	adc	r16, r16
    3252:	11 1f       	adc	r17, r17
    3254:	0a 94       	dec	r0
    3256:	d2 f7       	brpl	.-12     	; 0x324c <nrk_signal_delete+0x1a>

    if( (sig_mask & _nrk_signal_list)==0) return NRK_ERROR; 
    3258:	80 91 9a 05 	lds	r24, 0x059A
    325c:	90 91 9b 05 	lds	r25, 0x059B
    3260:	a0 91 9c 05 	lds	r26, 0x059C
    3264:	b0 91 9d 05 	lds	r27, 0x059D
    3268:	8e 21       	and	r24, r14
    326a:	9f 21       	and	r25, r15
    326c:	a0 23       	and	r26, r16
    326e:	b1 23       	and	r27, r17
    3270:	00 97       	sbiw	r24, 0x00	; 0
    3272:	a1 05       	cpc	r26, r1
    3274:	b1 05       	cpc	r27, r1
    3276:	09 f4       	brne	.+2      	; 0x327a <nrk_signal_delete+0x48>
    3278:	5d c0       	rjmp	.+186    	; 0x3334 <nrk_signal_delete+0x102>

    nrk_int_disable();
    327a:	0e 94 60 13 	call	0x26c0	; 0x26c0 <nrk_int_disable>
    327e:	ef e0       	ldi	r30, 0x0F	; 15
    3280:	f7 e0       	ldi	r31, 0x07	; 7
	    //  printf("delete t(%i) signal(%li)\r\n",task_ID,nrk_task_TCB[task_ID].registered_signal_mask);
	    nrk_task_TCB[task_ID].active_signal_mask=0;
	    nrk_task_TCB[task_ID].event_suspend=0;
	    nrk_task_TCB[task_ID].task_state=SUSPENDED;
	}
	nrk_task_TCB[task_ID].registered_signal_mask&=~sig_mask; //cheaper to remove than do a check
    3282:	a8 01       	movw	r20, r16
    3284:	97 01       	movw	r18, r14
    3286:	20 95       	com	r18
    3288:	30 95       	com	r19
    328a:	40 95       	com	r20
    328c:	50 95       	com	r21
	if(nrk_task_TCB[task_ID].registered_signal_mask==sig_mask) //check to make sure its only signal its waiting on 
	{
	    //  printf("delete t(%i) signal(%li)\r\n",task_ID,nrk_task_TCB[task_ID].registered_signal_mask);
	    nrk_task_TCB[task_ID].active_signal_mask=0;
	    nrk_task_TCB[task_ID].event_suspend=0;
	    nrk_task_TCB[task_ID].task_state=SUSPENDED;
    328e:	63 e0       	ldi	r22, 0x03	; 3

    if( (sig_mask & _nrk_signal_list)==0) return NRK_ERROR; 

    nrk_int_disable();
    for (task_ID=0; task_ID < NRK_MAX_TASKS; task_ID++){
	if(nrk_task_TCB[task_ID].task_ID==-1) continue;
    3290:	81 81       	ldd	r24, Z+1	; 0x01
    3292:	8f 3f       	cpi	r24, 0xFF	; 255
    3294:	39 f1       	breq	.+78     	; 0x32e4 <nrk_signal_delete+0xb2>
	// Check for tasks waiting on the signal
	// If there is a task that is waiting on just this signal
	// then we need to change it to the normal SUSPEND state
	if(nrk_task_TCB[task_ID].registered_signal_mask==sig_mask) //check to make sure its only signal its waiting on 
    3296:	86 81       	ldd	r24, Z+6	; 0x06
    3298:	97 81       	ldd	r25, Z+7	; 0x07
    329a:	a0 85       	ldd	r26, Z+8	; 0x08
    329c:	b1 85       	ldd	r27, Z+9	; 0x09
    329e:	8e 15       	cp	r24, r14
    32a0:	9f 05       	cpc	r25, r15
    32a2:	a0 07       	cpc	r26, r16
    32a4:	b1 07       	cpc	r27, r17
    32a6:	31 f4       	brne	.+12     	; 0x32b4 <nrk_signal_delete+0x82>
	{
	    //  printf("delete t(%i) signal(%li)\r\n",task_ID,nrk_task_TCB[task_ID].registered_signal_mask);
	    nrk_task_TCB[task_ID].active_signal_mask=0;
    32a8:	12 86       	std	Z+10, r1	; 0x0a
    32aa:	13 86       	std	Z+11, r1	; 0x0b
    32ac:	14 86       	std	Z+12, r1	; 0x0c
    32ae:	15 86       	std	Z+13, r1	; 0x0d
	    nrk_task_TCB[task_ID].event_suspend=0;
    32b0:	10 82       	st	Z, r1
	    nrk_task_TCB[task_ID].task_state=SUSPENDED;
    32b2:	62 83       	std	Z+2, r22	; 0x02
	}
	nrk_task_TCB[task_ID].registered_signal_mask&=~sig_mask; //cheaper to remove than do a check
    32b4:	86 81       	ldd	r24, Z+6	; 0x06
    32b6:	97 81       	ldd	r25, Z+7	; 0x07
    32b8:	a0 85       	ldd	r26, Z+8	; 0x08
    32ba:	b1 85       	ldd	r27, Z+9	; 0x09
    32bc:	82 23       	and	r24, r18
    32be:	93 23       	and	r25, r19
    32c0:	a4 23       	and	r26, r20
    32c2:	b5 23       	and	r27, r21
    32c4:	86 83       	std	Z+6, r24	; 0x06
    32c6:	97 83       	std	Z+7, r25	; 0x07
    32c8:	a0 87       	std	Z+8, r26	; 0x08
    32ca:	b1 87       	std	Z+9, r27	; 0x09
	nrk_task_TCB[task_ID].active_signal_mask&=~sig_mask; //cheaper to remove than do a check
    32cc:	82 85       	ldd	r24, Z+10	; 0x0a
    32ce:	93 85       	ldd	r25, Z+11	; 0x0b
    32d0:	a4 85       	ldd	r26, Z+12	; 0x0c
    32d2:	b5 85       	ldd	r27, Z+13	; 0x0d
    32d4:	82 23       	and	r24, r18
    32d6:	93 23       	and	r25, r19
    32d8:	a4 23       	and	r26, r20
    32da:	b5 23       	and	r27, r21
    32dc:	82 87       	std	Z+10, r24	; 0x0a
    32de:	93 87       	std	Z+11, r25	; 0x0b
    32e0:	a4 87       	std	Z+12, r26	; 0x0c
    32e2:	b5 87       	std	Z+13, r27	; 0x0d
    32e4:	b2 96       	adiw	r30, 0x22	; 34
    sig_mask=SIG(sig_id);

    if( (sig_mask & _nrk_signal_list)==0) return NRK_ERROR; 

    nrk_int_disable();
    for (task_ID=0; task_ID < NRK_MAX_TASKS; task_ID++){
    32e6:	87 e0       	ldi	r24, 0x07	; 7
    32e8:	e9 3b       	cpi	r30, 0xB9	; 185
    32ea:	f8 07       	cpc	r31, r24
    32ec:	89 f6       	brne	.-94     	; 0x3290 <nrk_signal_delete+0x5e>
	nrk_task_TCB[task_ID].registered_signal_mask&=~sig_mask; //cheaper to remove than do a check
	nrk_task_TCB[task_ID].active_signal_mask&=~sig_mask; //cheaper to remove than do a check

    }

    _nrk_signal_list&=~SIG(sig_id);
    32ee:	2e ef       	ldi	r18, 0xFE	; 254
    32f0:	3f ef       	ldi	r19, 0xFF	; 255
    32f2:	4f ef       	ldi	r20, 0xFF	; 255
    32f4:	5f ef       	ldi	r21, 0xFF	; 255
    32f6:	04 c0       	rjmp	.+8      	; 0x3300 <nrk_signal_delete+0xce>
    32f8:	22 0f       	add	r18, r18
    32fa:	33 1f       	adc	r19, r19
    32fc:	44 1f       	adc	r20, r20
    32fe:	55 1f       	adc	r21, r21
    3300:	da 94       	dec	r13
    3302:	d2 f7       	brpl	.-12     	; 0x32f8 <nrk_signal_delete+0xc6>
    3304:	80 91 9a 05 	lds	r24, 0x059A
    3308:	90 91 9b 05 	lds	r25, 0x059B
    330c:	a0 91 9c 05 	lds	r26, 0x059C
    3310:	b0 91 9d 05 	lds	r27, 0x059D
    3314:	82 23       	and	r24, r18
    3316:	93 23       	and	r25, r19
    3318:	a4 23       	and	r26, r20
    331a:	b5 23       	and	r27, r21
    331c:	80 93 9a 05 	sts	0x059A, r24
    3320:	90 93 9b 05 	sts	0x059B, r25
    3324:	a0 93 9c 05 	sts	0x059C, r26
    3328:	b0 93 9d 05 	sts	0x059D, r27
    nrk_int_enable();
    332c:	0e 94 62 13 	call	0x26c4	; 0x26c4 <nrk_int_enable>

    return NRK_OK;
    3330:	81 e0       	ldi	r24, 0x01	; 1
    3332:	01 c0       	rjmp	.+2      	; 0x3336 <nrk_signal_delete+0x104>
    uint8_t task_ID;
    uint32_t sig_mask;

    sig_mask=SIG(sig_id);

    if( (sig_mask & _nrk_signal_list)==0) return NRK_ERROR; 
    3334:	8f ef       	ldi	r24, 0xFF	; 255

    _nrk_signal_list&=~SIG(sig_id);
    nrk_int_enable();

    return NRK_OK;
}
    3336:	1f 91       	pop	r17
    3338:	0f 91       	pop	r16
    333a:	ff 90       	pop	r15
    333c:	ef 90       	pop	r14
    333e:	df 90       	pop	r13
    3340:	08 95       	ret

00003342 <nrk_signal_unregister>:


int8_t nrk_signal_unregister(int8_t sig_id)
{
    3342:	ef 92       	push	r14
    3344:	ff 92       	push	r15
    3346:	0f 93       	push	r16
    3348:	1f 93       	push	r17
    uint32_t sig_mask;

    sig_mask=SIG(sig_id);
    334a:	21 e0       	ldi	r18, 0x01	; 1
    334c:	30 e0       	ldi	r19, 0x00	; 0
    334e:	40 e0       	ldi	r20, 0x00	; 0
    3350:	50 e0       	ldi	r21, 0x00	; 0
    3352:	04 c0       	rjmp	.+8      	; 0x335c <nrk_signal_unregister+0x1a>
    3354:	22 0f       	add	r18, r18
    3356:	33 1f       	adc	r19, r19
    3358:	44 1f       	adc	r20, r20
    335a:	55 1f       	adc	r21, r21
    335c:	8a 95       	dec	r24
    335e:	d2 f7       	brpl	.-12     	; 0x3354 <nrk_signal_unregister+0x12>

    if(nrk_cur_task_TCB->registered_signal_mask & sig_mask)
    3360:	e0 91 d5 07 	lds	r30, 0x07D5
    3364:	f0 91 d6 07 	lds	r31, 0x07D6
    3368:	85 85       	ldd	r24, Z+13	; 0x0d
    336a:	96 85       	ldd	r25, Z+14	; 0x0e
    336c:	a7 85       	ldd	r26, Z+15	; 0x0f
    336e:	b0 89       	ldd	r27, Z+16	; 0x10
    3370:	79 01       	movw	r14, r18
    3372:	8a 01       	movw	r16, r20
    3374:	e8 22       	and	r14, r24
    3376:	f9 22       	and	r15, r25
    3378:	0a 23       	and	r16, r26
    337a:	1b 23       	and	r17, r27
    337c:	e1 14       	cp	r14, r1
    337e:	f1 04       	cpc	r15, r1
    3380:	01 05       	cpc	r16, r1
    3382:	11 05       	cpc	r17, r1
    3384:	d1 f0       	breq	.+52     	; 0x33ba <nrk_signal_unregister+0x78>
    {
	nrk_cur_task_TCB->registered_signal_mask&=~(sig_mask); 	
    3386:	20 95       	com	r18
    3388:	30 95       	com	r19
    338a:	40 95       	com	r20
    338c:	50 95       	com	r21
    338e:	82 23       	and	r24, r18
    3390:	93 23       	and	r25, r19
    3392:	a4 23       	and	r26, r20
    3394:	b5 23       	and	r27, r21
    3396:	85 87       	std	Z+13, r24	; 0x0d
    3398:	96 87       	std	Z+14, r25	; 0x0e
    339a:	a7 87       	std	Z+15, r26	; 0x0f
    339c:	b0 8b       	std	Z+16, r27	; 0x10
	nrk_cur_task_TCB->active_signal_mask&=~(sig_mask); 	
    339e:	81 89       	ldd	r24, Z+17	; 0x11
    33a0:	92 89       	ldd	r25, Z+18	; 0x12
    33a2:	a3 89       	ldd	r26, Z+19	; 0x13
    33a4:	b4 89       	ldd	r27, Z+20	; 0x14
    33a6:	82 23       	and	r24, r18
    33a8:	93 23       	and	r25, r19
    33aa:	a4 23       	and	r26, r20
    33ac:	b5 23       	and	r27, r21
    33ae:	81 8b       	std	Z+17, r24	; 0x11
    33b0:	92 8b       	std	Z+18, r25	; 0x12
    33b2:	a3 8b       	std	Z+19, r26	; 0x13
    33b4:	b4 8b       	std	Z+20, r27	; 0x14
    }
    else
	return NRK_ERROR;
    return NRK_OK;
    33b6:	81 e0       	ldi	r24, 0x01	; 1
    33b8:	01 c0       	rjmp	.+2      	; 0x33bc <nrk_signal_unregister+0x7a>
    {
	nrk_cur_task_TCB->registered_signal_mask&=~(sig_mask); 	
	nrk_cur_task_TCB->active_signal_mask&=~(sig_mask); 	
    }
    else
	return NRK_ERROR;
    33ba:	8f ef       	ldi	r24, 0xFF	; 255
    return NRK_OK;
}
    33bc:	1f 91       	pop	r17
    33be:	0f 91       	pop	r16
    33c0:	ff 90       	pop	r15
    33c2:	ef 90       	pop	r14
    33c4:	08 95       	ret

000033c6 <nrk_signal_register>:

int8_t nrk_signal_register(int8_t sig_id)
{

    // Make sure the signal was created...
    if(SIG(sig_id) & _nrk_signal_list )
    33c6:	20 91 9a 05 	lds	r18, 0x059A
    33ca:	30 91 9b 05 	lds	r19, 0x059B
    33ce:	40 91 9c 05 	lds	r20, 0x059C
    33d2:	50 91 9d 05 	lds	r21, 0x059D
    33d6:	08 2e       	mov	r0, r24
    33d8:	04 c0       	rjmp	.+8      	; 0x33e2 <nrk_signal_register+0x1c>
    33da:	56 95       	lsr	r21
    33dc:	47 95       	ror	r20
    33de:	37 95       	ror	r19
    33e0:	27 95       	ror	r18
    33e2:	0a 94       	dec	r0
    33e4:	d2 f7       	brpl	.-12     	; 0x33da <nrk_signal_register+0x14>
    33e6:	21 70       	andi	r18, 0x01	; 1
    33e8:	30 70       	andi	r19, 0x00	; 0
    33ea:	21 15       	cp	r18, r1
    33ec:	31 05       	cpc	r19, r1
    33ee:	e9 f0       	breq	.+58     	; 0x342a <nrk_signal_register+0x64>
    {
	nrk_cur_task_TCB->registered_signal_mask|=SIG(sig_id); 	
    33f0:	e0 91 d5 07 	lds	r30, 0x07D5
    33f4:	f0 91 d6 07 	lds	r31, 0x07D6
    33f8:	21 e0       	ldi	r18, 0x01	; 1
    33fa:	30 e0       	ldi	r19, 0x00	; 0
    33fc:	40 e0       	ldi	r20, 0x00	; 0
    33fe:	50 e0       	ldi	r21, 0x00	; 0
    3400:	04 c0       	rjmp	.+8      	; 0x340a <nrk_signal_register+0x44>
    3402:	22 0f       	add	r18, r18
    3404:	33 1f       	adc	r19, r19
    3406:	44 1f       	adc	r20, r20
    3408:	55 1f       	adc	r21, r21
    340a:	8a 95       	dec	r24
    340c:	d2 f7       	brpl	.-12     	; 0x3402 <nrk_signal_register+0x3c>
    340e:	85 85       	ldd	r24, Z+13	; 0x0d
    3410:	96 85       	ldd	r25, Z+14	; 0x0e
    3412:	a7 85       	ldd	r26, Z+15	; 0x0f
    3414:	b0 89       	ldd	r27, Z+16	; 0x10
    3416:	82 2b       	or	r24, r18
    3418:	93 2b       	or	r25, r19
    341a:	a4 2b       	or	r26, r20
    341c:	b5 2b       	or	r27, r21
    341e:	85 87       	std	Z+13, r24	; 0x0d
    3420:	96 87       	std	Z+14, r25	; 0x0e
    3422:	a7 87       	std	Z+15, r26	; 0x0f
    3424:	b0 8b       	std	Z+16, r27	; 0x10
	return NRK_OK;
    3426:	81 e0       	ldi	r24, 0x01	; 1
    3428:	08 95       	ret
    }

    return NRK_ERROR;
    342a:	8f ef       	ldi	r24, 0xFF	; 255
}
    342c:	08 95       	ret

0000342e <nrk_event_signal>:

int8_t nrk_event_signal(int8_t sig_id)
{
    342e:	ef 92       	push	r14
    3430:	ff 92       	push	r15
    3432:	0f 93       	push	r16
    3434:	1f 93       	push	r17
    3436:	df 93       	push	r29
    3438:	cf 93       	push	r28
    343a:	0f 92       	push	r0
    343c:	cd b7       	in	r28, 0x3d	; 61
    343e:	de b7       	in	r29, 0x3e	; 62

    uint8_t task_ID;
    uint8_t event_occured=0;
    uint32_t sig_mask;

    sig_mask=SIG(sig_id);
    3440:	91 e0       	ldi	r25, 0x01	; 1
    3442:	e9 2e       	mov	r14, r25
    3444:	f1 2c       	mov	r15, r1
    3446:	01 2d       	mov	r16, r1
    3448:	11 2d       	mov	r17, r1
    344a:	04 c0       	rjmp	.+8      	; 0x3454 <nrk_event_signal+0x26>
    344c:	ee 0c       	add	r14, r14
    344e:	ff 1c       	adc	r15, r15
    3450:	00 1f       	adc	r16, r16
    3452:	11 1f       	adc	r17, r17
    3454:	8a 95       	dec	r24
    3456:	d2 f7       	brpl	.-12     	; 0x344c <nrk_event_signal+0x1e>
    // Check if signal was created
    // Signal was not created
    if((sig_mask & _nrk_signal_list)==0 ) { _nrk_errno_set(1); return NRK_ERROR;}
    3458:	80 91 9a 05 	lds	r24, 0x059A
    345c:	90 91 9b 05 	lds	r25, 0x059B
    3460:	a0 91 9c 05 	lds	r26, 0x059C
    3464:	b0 91 9d 05 	lds	r27, 0x059D
    3468:	8e 21       	and	r24, r14
    346a:	9f 21       	and	r25, r15
    346c:	a0 23       	and	r26, r16
    346e:	b1 23       	and	r27, r17
    3470:	00 97       	sbiw	r24, 0x00	; 0
    3472:	a1 05       	cpc	r26, r1
    3474:	b1 05       	cpc	r27, r1
    3476:	11 f4       	brne	.+4      	; 0x347c <nrk_event_signal+0x4e>
    3478:	81 e0       	ldi	r24, 0x01	; 1
    347a:	3f c0       	rjmp	.+126    	; 0x34fa <nrk_event_signal+0xcc>

    //needs to be atomic otherwise run the risk of multiple tasks being scheduled late and not in order of priority.  
    nrk_int_disable();
    347c:	0e 94 60 13 	call	0x26c0	; 0x26c0 <nrk_int_disable>
    3480:	ef e0       	ldi	r30, 0x0F	; 15
    3482:	f7 e0       	ldi	r31, 0x07	; 7

int8_t nrk_event_signal(int8_t sig_id)
{

    uint8_t task_ID;
    uint8_t event_occured=0;
    3484:	20 e0       	ldi	r18, 0x00	; 0
	//	{
	//	printf( "task %d is event suspended\r\n",task_ID );
	if(nrk_task_TCB[task_ID].event_suspend==SIG_EVENT_SUSPENDED)
	    if((nrk_task_TCB[task_ID].active_signal_mask & sig_mask))
	    {
		nrk_task_TCB[task_ID].task_state=SUSPENDED;
    3486:	33 e0       	ldi	r19, 0x03	; 3


	//	if (nrk_task_TCB[task_ID].task_state == EVENT_SUSPENDED)   
	//	{
	//	printf( "task %d is event suspended\r\n",task_ID );
	if(nrk_task_TCB[task_ID].event_suspend==SIG_EVENT_SUSPENDED)
    3488:	80 81       	ld	r24, Z
    348a:	81 30       	cpi	r24, 0x01	; 1
    348c:	a9 f4       	brne	.+42     	; 0x34b8 <nrk_event_signal+0x8a>
	    if((nrk_task_TCB[task_ID].active_signal_mask & sig_mask))
    348e:	82 85       	ldd	r24, Z+10	; 0x0a
    3490:	93 85       	ldd	r25, Z+11	; 0x0b
    3492:	a4 85       	ldd	r26, Z+12	; 0x0c
    3494:	b5 85       	ldd	r27, Z+13	; 0x0d
    3496:	8e 21       	and	r24, r14
    3498:	9f 21       	and	r25, r15
    349a:	a0 23       	and	r26, r16
    349c:	b1 23       	and	r27, r17
    349e:	00 97       	sbiw	r24, 0x00	; 0
    34a0:	a1 05       	cpc	r26, r1
    34a2:	b1 05       	cpc	r27, r1
    34a4:	49 f0       	breq	.+18     	; 0x34b8 <nrk_event_signal+0x8a>
	    {
		nrk_task_TCB[task_ID].task_state=SUSPENDED;
    34a6:	32 83       	std	Z+2, r19	; 0x02
		nrk_task_TCB[task_ID].next_wakeup=0;
    34a8:	17 86       	std	Z+15, r1	; 0x0f
    34aa:	16 86       	std	Z+14, r1	; 0x0e
		nrk_task_TCB[task_ID].event_suspend=0;
    34ac:	10 82       	st	Z, r1
		// Add the event trigger here so it is returned
		// from nrk_event_wait()
		nrk_task_TCB[task_ID].active_signal_mask=sig_mask;
    34ae:	e2 86       	std	Z+10, r14	; 0x0a
    34b0:	f3 86       	std	Z+11, r15	; 0x0b
    34b2:	04 87       	std	Z+12, r16	; 0x0c
    34b4:	15 87       	std	Z+13, r17	; 0x0d
		event_occured=1;
    34b6:	21 e0       	ldi	r18, 0x01	; 1
	    }

	if(nrk_task_TCB[task_ID].event_suspend==RSRC_EVENT_SUSPENDED)
    34b8:	80 81       	ld	r24, Z
    34ba:	82 30       	cpi	r24, 0x02	; 2
    34bc:	91 f4       	brne	.+36     	; 0x34e2 <nrk_event_signal+0xb4>
	    if((nrk_task_TCB[task_ID].active_signal_mask == sig_mask))
    34be:	82 85       	ldd	r24, Z+10	; 0x0a
    34c0:	93 85       	ldd	r25, Z+11	; 0x0b
    34c2:	a4 85       	ldd	r26, Z+12	; 0x0c
    34c4:	b5 85       	ldd	r27, Z+13	; 0x0d
    34c6:	8e 15       	cp	r24, r14
    34c8:	9f 05       	cpc	r25, r15
    34ca:	a0 07       	cpc	r26, r16
    34cc:	b1 07       	cpc	r27, r17
    34ce:	49 f4       	brne	.+18     	; 0x34e2 <nrk_event_signal+0xb4>
	    {
		nrk_task_TCB[task_ID].task_state=SUSPENDED;
    34d0:	32 83       	std	Z+2, r19	; 0x02
		nrk_task_TCB[task_ID].next_wakeup=0;
    34d2:	17 86       	std	Z+15, r1	; 0x0f
    34d4:	16 86       	std	Z+14, r1	; 0x0e
		nrk_task_TCB[task_ID].event_suspend=0;
    34d6:	10 82       	st	Z, r1
		// Add the event trigger here so it is returned
		// from nrk_event_wait()
		nrk_task_TCB[task_ID].active_signal_mask=0;
    34d8:	12 86       	std	Z+10, r1	; 0x0a
    34da:	13 86       	std	Z+11, r1	; 0x0b
    34dc:	14 86       	std	Z+12, r1	; 0x0c
    34de:	15 86       	std	Z+13, r1	; 0x0d
		event_occured=1;
    34e0:	21 e0       	ldi	r18, 0x01	; 1
		nrk_task_TCB[task_ID].task_state=SUSPENDED;
		nrk_task_TCB[task_ID].next_wakeup=0;
		nrk_task_TCB[task_ID].event_suspend=0;
		// Add the event trigger here so it is returned
		// from nrk_event_wait()
		nrk_task_TCB[task_ID].active_signal_mask=0;
    34e2:	b2 96       	adiw	r30, 0x22	; 34
    // Signal was not created
    if((sig_mask & _nrk_signal_list)==0 ) { _nrk_errno_set(1); return NRK_ERROR;}

    //needs to be atomic otherwise run the risk of multiple tasks being scheduled late and not in order of priority.  
    nrk_int_disable();
    for (task_ID=0; task_ID < NRK_MAX_TASKS; task_ID++){
    34e4:	87 e0       	ldi	r24, 0x07	; 7
    34e6:	e9 3b       	cpi	r30, 0xB9	; 185
    34e8:	f8 07       	cpc	r31, r24
    34ea:	71 f6       	brne	.-100    	; 0x3488 <nrk_event_signal+0x5a>
		event_occured=1;
	    }   

	//	}
    }
    nrk_int_enable();
    34ec:	29 83       	std	Y+1, r18	; 0x01
    34ee:	0e 94 62 13 	call	0x26c4	; 0x26c4 <nrk_int_enable>
    if(event_occured)
    34f2:	29 81       	ldd	r18, Y+1	; 0x01
    34f4:	22 23       	and	r18, r18
    34f6:	29 f4       	brne	.+10     	; 0x3502 <nrk_event_signal+0xd4>
    {
	return NRK_OK;
    } 
    // No task was waiting on the signal
    _nrk_errno_set(2);
    34f8:	82 e0       	ldi	r24, 0x02	; 2
    34fa:	0e 94 7f 15 	call	0x2afe	; 0x2afe <_nrk_errno_set>
    return NRK_ERROR;
    34fe:	8f ef       	ldi	r24, 0xFF	; 255
    3500:	01 c0       	rjmp	.+2      	; 0x3504 <nrk_event_signal+0xd6>
	//	}
    }
    nrk_int_enable();
    if(event_occured)
    {
	return NRK_OK;
    3502:	81 e0       	ldi	r24, 0x01	; 1
    } 
    // No task was waiting on the signal
    _nrk_errno_set(2);
    return NRK_ERROR;
}
    3504:	0f 90       	pop	r0
    3506:	cf 91       	pop	r28
    3508:	df 91       	pop	r29
    350a:	1f 91       	pop	r17
    350c:	0f 91       	pop	r16
    350e:	ff 90       	pop	r15
    3510:	ef 90       	pop	r14
    3512:	08 95       	ret

00003514 <nrk_event_wait>:

uint32_t nrk_event_wait(uint32_t event_mask)
{

    // FIXME: Should go through list and check that all masks are registered, not just 1
    if(event_mask &  nrk_cur_task_TCB->registered_signal_mask)
    3514:	e0 91 d5 07 	lds	r30, 0x07D5
    3518:	f0 91 d6 07 	lds	r31, 0x07D6
    351c:	25 85       	ldd	r18, Z+13	; 0x0d
    351e:	36 85       	ldd	r19, Z+14	; 0x0e
    3520:	47 85       	ldd	r20, Z+15	; 0x0f
    3522:	50 89       	ldd	r21, Z+16	; 0x10
    3524:	26 23       	and	r18, r22
    3526:	37 23       	and	r19, r23
    3528:	48 23       	and	r20, r24
    352a:	59 23       	and	r21, r25
    352c:	21 15       	cp	r18, r1
    352e:	31 05       	cpc	r19, r1
    3530:	41 05       	cpc	r20, r1
    3532:	51 05       	cpc	r21, r1
    3534:	21 f1       	breq	.+72     	; 0x357e <nrk_event_wait+0x6a>
    {
	nrk_cur_task_TCB->active_signal_mask=event_mask; 
    3536:	61 8b       	std	Z+17, r22	; 0x11
    3538:	72 8b       	std	Z+18, r23	; 0x12
    353a:	83 8b       	std	Z+19, r24	; 0x13
    353c:	94 8b       	std	Z+20, r25	; 0x14
	nrk_cur_task_TCB->event_suspend=SIG_EVENT_SUSPENDED; 
    353e:	21 e0       	ldi	r18, 0x01	; 1
    3540:	27 83       	std	Z+7, r18	; 0x07
    else
    {
	return 0;
    }

    if(event_mask & SIG(nrk_wakeup_signal))
    3542:	00 90 c5 07 	lds	r0, 0x07C5
    3546:	04 c0       	rjmp	.+8      	; 0x3550 <nrk_event_wait+0x3c>
    3548:	96 95       	lsr	r25
    354a:	87 95       	ror	r24
    354c:	77 95       	ror	r23
    354e:	67 95       	ror	r22
    3550:	0a 94       	dec	r0
    3552:	d2 f7       	brpl	.-12     	; 0x3548 <nrk_event_wait+0x34>
    3554:	61 70       	andi	r22, 0x01	; 1
    3556:	70 70       	andi	r23, 0x00	; 0
    3558:	61 15       	cp	r22, r1
    355a:	71 05       	cpc	r23, r1
    355c:	19 f0       	breq	.+6      	; 0x3564 <nrk_event_wait+0x50>
	nrk_wait_until_nw();
    355e:	0e 94 c8 1e 	call	0x3d90	; 0x3d90 <nrk_wait_until_nw>
    3562:	04 c0       	rjmp	.+8      	; 0x356c <nrk_event_wait+0x58>
    else
	nrk_wait_until_ticks(0);
    3564:	80 e0       	ldi	r24, 0x00	; 0
    3566:	90 e0       	ldi	r25, 0x00	; 0
    3568:	0e 94 ef 1e 	call	0x3dde	; 0x3dde <nrk_wait_until_ticks>
    //unmask the signal when its return so it has logical value like 1 to or whatever was user defined
    return ( (nrk_cur_task_TCB->active_signal_mask));
    356c:	e0 91 d5 07 	lds	r30, 0x07D5
    3570:	f0 91 d6 07 	lds	r31, 0x07D6
    3574:	21 89       	ldd	r18, Z+17	; 0x11
    3576:	32 89       	ldd	r19, Z+18	; 0x12
    3578:	43 89       	ldd	r20, Z+19	; 0x13
    357a:	54 89       	ldd	r21, Z+20	; 0x14
    357c:	03 c0       	rjmp	.+6      	; 0x3584 <nrk_event_wait+0x70>
	nrk_cur_task_TCB->active_signal_mask=event_mask; 
	nrk_cur_task_TCB->event_suspend=SIG_EVENT_SUSPENDED; 
    }
    else
    {
	return 0;
    357e:	20 e0       	ldi	r18, 0x00	; 0
    3580:	30 e0       	ldi	r19, 0x00	; 0
    3582:	a9 01       	movw	r20, r18
	nrk_wait_until_nw();
    else
	nrk_wait_until_ticks(0);
    //unmask the signal when its return so it has logical value like 1 to or whatever was user defined
    return ( (nrk_cur_task_TCB->active_signal_mask));
}
    3584:	b9 01       	movw	r22, r18
    3586:	ca 01       	movw	r24, r20
    3588:	08 95       	ret

0000358a <nrk_sem_create>:
}

nrk_sem_t* nrk_sem_create(uint8_t count,uint8_t ceiling_prio)
{
    uint8_t i;
    if(_nrk_resource_cnt>=(NRK_MAX_RESOURCE_CNT-1))
    358a:	90 91 d4 07 	lds	r25, 0x07D4
    358e:	94 30       	cpi	r25, 0x04	; 4
    3590:	d0 f4       	brcc	.+52     	; 0x35c6 <nrk_sem_create+0x3c>
    3592:	e4 eb       	ldi	r30, 0xB4	; 180
    3594:	f7 e0       	ldi	r31, 0x07	; 7
    3596:	20 e0       	ldi	r18, 0x00	; 0
	return NULL;  
    for(i=0; i<NRK_MAX_RESOURCE_CNT; i++ )
    {
	if(nrk_sem_list[i].count==-1) break;
    3598:	30 81       	ld	r19, Z
    359a:	3f 3f       	cpi	r19, 0xFF	; 255
    359c:	21 f0       	breq	.+8      	; 0x35a6 <nrk_sem_create+0x1c>
nrk_sem_t* nrk_sem_create(uint8_t count,uint8_t ceiling_prio)
{
    uint8_t i;
    if(_nrk_resource_cnt>=(NRK_MAX_RESOURCE_CNT-1))
	return NULL;  
    for(i=0; i<NRK_MAX_RESOURCE_CNT; i++ )
    359e:	2f 5f       	subi	r18, 0xFF	; 255
    35a0:	33 96       	adiw	r30, 0x03	; 3
    35a2:	25 30       	cpi	r18, 0x05	; 5
    35a4:	c9 f7       	brne	.-14     	; 0x3598 <nrk_sem_create+0xe>
    {
	if(nrk_sem_list[i].count==-1) break;
    }

    nrk_sem_list[i].value=count;
    35a6:	30 e0       	ldi	r19, 0x00	; 0
    35a8:	f9 01       	movw	r30, r18
    35aa:	ee 0f       	add	r30, r30
    35ac:	ff 1f       	adc	r31, r31
    35ae:	e2 0f       	add	r30, r18
    35b0:	f3 1f       	adc	r31, r19
    35b2:	ec 54       	subi	r30, 0x4C	; 76
    35b4:	f8 4f       	sbci	r31, 0xF8	; 248
    35b6:	82 83       	std	Z+2, r24	; 0x02
    nrk_sem_list[i].count=count;
    35b8:	80 83       	st	Z, r24
    nrk_sem_list[i].resource_ceiling=ceiling_prio;
    35ba:	61 83       	std	Z+1, r22	; 0x01
    _nrk_resource_cnt++;
    35bc:	9f 5f       	subi	r25, 0xFF	; 255
    35be:	90 93 d4 07 	sts	0x07D4, r25
    return	&nrk_sem_list[i];
    35c2:	9f 01       	movw	r18, r30
    35c4:	02 c0       	rjmp	.+4      	; 0x35ca <nrk_sem_create+0x40>

nrk_sem_t* nrk_sem_create(uint8_t count,uint8_t ceiling_prio)
{
    uint8_t i;
    if(_nrk_resource_cnt>=(NRK_MAX_RESOURCE_CNT-1))
	return NULL;  
    35c6:	20 e0       	ldi	r18, 0x00	; 0
    35c8:	30 e0       	ldi	r19, 0x00	; 0
    nrk_sem_list[i].value=count;
    nrk_sem_list[i].count=count;
    nrk_sem_list[i].resource_ceiling=ceiling_prio;
    _nrk_resource_cnt++;
    return	&nrk_sem_list[i];
}
    35ca:	c9 01       	movw	r24, r18
    35cc:	08 95       	ret

000035ce <nrk_get_resource_index>:

int8_t nrk_get_resource_index(nrk_sem_t *resrc)
{
    35ce:	bc 01       	movw	r22, r24
    35d0:	20 e0       	ldi	r18, 0x00	; 0
    35d2:	30 e0       	ldi	r19, 0x00	; 0
    int8_t id;
    for(id=0;id<NRK_MAX_RESOURCE_CNT;id++)
	if((nrk_sem_t *)(&nrk_sem_list[id])==(nrk_sem_t*)resrc)
	    return id;
    return NRK_ERROR;
    35d4:	82 2f       	mov	r24, r18

int8_t nrk_get_resource_index(nrk_sem_t *resrc)
{
    int8_t id;
    for(id=0;id<NRK_MAX_RESOURCE_CNT;id++)
	if((nrk_sem_t *)(&nrk_sem_list[id])==(nrk_sem_t*)resrc)
    35d6:	a9 01       	movw	r20, r18
    35d8:	44 0f       	add	r20, r20
    35da:	55 1f       	adc	r21, r21
    35dc:	42 0f       	add	r20, r18
    35de:	53 1f       	adc	r21, r19
    35e0:	4c 54       	subi	r20, 0x4C	; 76
    35e2:	58 4f       	sbci	r21, 0xF8	; 248
    35e4:	64 17       	cp	r22, r20
    35e6:	75 07       	cpc	r23, r21
    35e8:	31 f0       	breq	.+12     	; 0x35f6 <nrk_get_resource_index+0x28>
    35ea:	2f 5f       	subi	r18, 0xFF	; 255
    35ec:	3f 4f       	sbci	r19, 0xFF	; 255
}

int8_t nrk_get_resource_index(nrk_sem_t *resrc)
{
    int8_t id;
    for(id=0;id<NRK_MAX_RESOURCE_CNT;id++)
    35ee:	25 30       	cpi	r18, 0x05	; 5
    35f0:	31 05       	cpc	r19, r1
    35f2:	81 f7       	brne	.-32     	; 0x35d4 <nrk_get_resource_index+0x6>
	if((nrk_sem_t *)(&nrk_sem_list[id])==(nrk_sem_t*)resrc)
	    return id;
    return NRK_ERROR;
    35f4:	8f ef       	ldi	r24, 0xFF	; 255
}
    35f6:	08 95       	ret

000035f8 <nrk_sem_delete>:
    return NRK_OK;
}

int8_t  nrk_sem_delete(nrk_sem_t *rsrc)
{
    int8_t id=nrk_get_resource_index(rsrc);	
    35f8:	0e 94 e7 1a 	call	0x35ce	; 0x35ce <nrk_get_resource_index>
    int8_t task_ID;
    if(id==-1) { _nrk_errno_set(1); return NRK_ERROR;}
    35fc:	8f 3f       	cpi	r24, 0xFF	; 255
    35fe:	11 f4       	brne	.+4      	; 0x3604 <nrk_sem_delete+0xc>
    3600:	81 e0       	ldi	r24, 0x01	; 1
    3602:	03 c0       	rjmp	.+6      	; 0x360a <nrk_sem_delete+0x12>
    if(id==NRK_MAX_RESOURCE_CNT) { _nrk_errno_set(2); return NRK_ERROR; }
    3604:	85 30       	cpi	r24, 0x05	; 5
    3606:	29 f4       	brne	.+10     	; 0x3612 <nrk_sem_delete+0x1a>
    3608:	82 e0       	ldi	r24, 0x02	; 2
    360a:	0e 94 7f 15 	call	0x2afe	; 0x2afe <_nrk_errno_set>
    360e:	8f ef       	ldi	r24, 0xFF	; 255
    3610:	08 95       	ret

    nrk_sem_list[id].count=-1;
    3612:	99 27       	eor	r25, r25
    3614:	87 fd       	sbrc	r24, 7
    3616:	90 95       	com	r25
    3618:	fc 01       	movw	r30, r24
    361a:	ee 0f       	add	r30, r30
    361c:	ff 1f       	adc	r31, r31
    361e:	e8 0f       	add	r30, r24
    3620:	f9 1f       	adc	r31, r25
    3622:	ec 54       	subi	r30, 0x4C	; 76
    3624:	f8 4f       	sbci	r31, 0xF8	; 248
    3626:	8f ef       	ldi	r24, 0xFF	; 255
    3628:	80 83       	st	Z, r24
    nrk_sem_list[id].value=-1;
    362a:	82 83       	std	Z+2, r24	; 0x02
    nrk_sem_list[id].resource_ceiling=-1;
    362c:	81 83       	std	Z+1, r24	; 0x01
    _nrk_resource_cnt--;
    362e:	80 91 d4 07 	lds	r24, 0x07D4
    3632:	81 50       	subi	r24, 0x01	; 1
    3634:	80 93 d4 07 	sts	0x07D4, r24
    return NRK_OK;
    3638:	81 e0       	ldi	r24, 0x01	; 1
}
    363a:	08 95       	ret

0000363c <nrk_sem_post>:
}



int8_t nrk_sem_post(nrk_sem_t *rsrc)
{
    363c:	ef 92       	push	r14
    363e:	ff 92       	push	r15
    3640:	0f 93       	push	r16
    3642:	1f 93       	push	r17
    3644:	df 93       	push	r29
    3646:	cf 93       	push	r28
    3648:	0f 92       	push	r0
    364a:	cd b7       	in	r28, 0x3d	; 61
    364c:	de b7       	in	r29, 0x3e	; 62
    int8_t id=nrk_get_resource_index(rsrc);	
    364e:	0e 94 e7 1a 	call	0x35ce	; 0x35ce <nrk_get_resource_index>
    3652:	68 2f       	mov	r22, r24
    int8_t task_ID;
    int8_t sem_ID;
    if(id==-1) { _nrk_errno_set(1); return NRK_ERROR;}
    3654:	8f 3f       	cpi	r24, 0xFF	; 255
    3656:	11 f4       	brne	.+4      	; 0x365c <nrk_sem_post+0x20>
    3658:	81 e0       	ldi	r24, 0x01	; 1
    365a:	03 c0       	rjmp	.+6      	; 0x3662 <nrk_sem_post+0x26>
    if(id==NRK_MAX_RESOURCE_CNT) { _nrk_errno_set(2); return NRK_ERROR; }
    365c:	85 30       	cpi	r24, 0x05	; 5
    365e:	29 f4       	brne	.+10     	; 0x366a <nrk_sem_post+0x2e>
    3660:	82 e0       	ldi	r24, 0x02	; 2
    3662:	0e 94 7f 15 	call	0x2afe	; 0x2afe <_nrk_errno_set>
    3666:	8f ef       	ldi	r24, 0xFF	; 255
    3668:	8f c0       	rjmp	.+286    	; 0x3788 <nrk_sem_post+0x14c>

    if(nrk_sem_list[id].value<nrk_sem_list[id].count)
    366a:	08 2f       	mov	r16, r24
    366c:	11 27       	eor	r17, r17
    366e:	07 fd       	sbrc	r16, 7
    3670:	10 95       	com	r17
    3672:	78 01       	movw	r14, r16
    3674:	ee 0c       	add	r14, r14
    3676:	ff 1c       	adc	r15, r15
    3678:	e0 0e       	add	r14, r16
    367a:	f1 1e       	adc	r15, r17
    367c:	84 eb       	ldi	r24, 0xB4	; 180
    367e:	97 e0       	ldi	r25, 0x07	; 7
    3680:	e8 0e       	add	r14, r24
    3682:	f9 1e       	adc	r15, r25
    3684:	d7 01       	movw	r26, r14
    3686:	12 96       	adiw	r26, 0x02	; 2
    3688:	9c 91       	ld	r25, X
    368a:	12 97       	sbiw	r26, 0x02	; 2
    368c:	8c 91       	ld	r24, X
    368e:	98 17       	cp	r25, r24
    3690:	0c f0       	brlt	.+2      	; 0x3694 <nrk_sem_post+0x58>
    3692:	79 c0       	rjmp	.+242    	; 0x3786 <nrk_sem_post+0x14a>
    {
	// Signal RSRC Event		
	nrk_int_disable();
    3694:	69 83       	std	Y+1, r22	; 0x01
    3696:	0e 94 60 13 	call	0x26c0	; 0x26c0 <nrk_int_disable>

	printf("Task %d released resource %d.\n", nrk_cur_task_TCB->task_ID, id);
    369a:	00 d0       	rcall	.+0      	; 0x369c <nrk_sem_post+0x60>
    369c:	00 d0       	rcall	.+0      	; 0x369e <nrk_sem_post+0x62>
    369e:	00 d0       	rcall	.+0      	; 0x36a0 <nrk_sem_post+0x64>
    36a0:	ed b7       	in	r30, 0x3d	; 61
    36a2:	fe b7       	in	r31, 0x3e	; 62
    36a4:	31 96       	adiw	r30, 0x01	; 1
    36a6:	87 e2       	ldi	r24, 0x27	; 39
    36a8:	92 e0       	ldi	r25, 0x02	; 2
    36aa:	ad b7       	in	r26, 0x3d	; 61
    36ac:	be b7       	in	r27, 0x3e	; 62
    36ae:	12 96       	adiw	r26, 0x02	; 2
    36b0:	9c 93       	st	X, r25
    36b2:	8e 93       	st	-X, r24
    36b4:	11 97       	sbiw	r26, 0x01	; 1
    36b6:	a0 91 d5 07 	lds	r26, 0x07D5
    36ba:	b0 91 d6 07 	lds	r27, 0x07D6
    36be:	18 96       	adiw	r26, 0x08	; 8
    36c0:	8c 91       	ld	r24, X
    36c2:	99 27       	eor	r25, r25
    36c4:	87 fd       	sbrc	r24, 7
    36c6:	90 95       	com	r25
    36c8:	93 83       	std	Z+3, r25	; 0x03
    36ca:	82 83       	std	Z+2, r24	; 0x02
    36cc:	15 83       	std	Z+5, r17	; 0x05
    36ce:	04 83       	std	Z+4, r16	; 0x04
    36d0:	0e 94 ac 43 	call	0x8758	; 0x8758 <printf>

	nrk_sem_list[id].value++;
    36d4:	f7 01       	movw	r30, r14
    36d6:	82 81       	ldd	r24, Z+2	; 0x02
    36d8:	8f 5f       	subi	r24, 0xFF	; 255
    36da:	82 83       	std	Z+2, r24	; 0x02
	nrk_cur_task_TCB->elevated_prio_flag=0;
    36dc:	e0 91 d5 07 	lds	r30, 0x07D5
    36e0:	f0 91 d6 07 	lds	r31, 0x07D6
    36e4:	14 82       	std	Z+4, r1	; 0x04

	// Increasing value increases availability of the semaphore
	// Reset system ceiling to lowest priority and iterate through the global semaphore array nrk_sem_list and find the highest locked resource ceiling
	systemceiling = 64;
    36e6:	e5 eb       	ldi	r30, 0xB5	; 181
    36e8:	f7 e0       	ldi	r31, 0x07	; 7
    36ea:	8d b7       	in	r24, 0x3d	; 61
    36ec:	9e b7       	in	r25, 0x3e	; 62
    36ee:	06 96       	adiw	r24, 0x06	; 6
    36f0:	0f b6       	in	r0, 0x3f	; 63
    36f2:	f8 94       	cli
    36f4:	9e bf       	out	0x3e, r25	; 62
    36f6:	0f be       	out	0x3f, r0	; 63
    36f8:	8d bf       	out	0x3d, r24	; 61
    36fa:	20 e0       	ldi	r18, 0x00	; 0
    36fc:	30 e0       	ldi	r19, 0x00	; 0
    36fe:	70 e4       	ldi	r23, 0x40	; 64
    3700:	69 81       	ldd	r22, Y+1	; 0x01
	for (sem_ID = 0; sem_ID < NRK_MAX_RESOURCE_CNT; sem_ID++){

	    if(&nrk_sem_list[sem_ID] != NULL){
    3702:	a9 01       	movw	r20, r18
    3704:	44 0f       	add	r20, r20
    3706:	55 1f       	adc	r21, r21
    3708:	42 0f       	add	r20, r18
    370a:	53 1f       	adc	r21, r19
    370c:	4c 54       	subi	r20, 0x4C	; 76
    370e:	58 4f       	sbci	r21, 0xF8	; 248
    3710:	71 f0       	breq	.+28     	; 0x372e <nrk_sem_post+0xf2>
		if (nrk_sem_list[sem_ID].resource_ceiling < systemceiling && nrk_sem_list[sem_ID].value == 0)
    3712:	a0 81       	ld	r26, Z
    3714:	4a 2f       	mov	r20, r26
    3716:	55 27       	eor	r21, r21
    3718:	47 fd       	sbrc	r20, 7
    371a:	50 95       	com	r21
    371c:	87 2f       	mov	r24, r23
    371e:	90 e0       	ldi	r25, 0x00	; 0
    3720:	48 17       	cp	r20, r24
    3722:	59 07       	cpc	r21, r25
    3724:	24 f4       	brge	.+8      	; 0x372e <nrk_sem_post+0xf2>
    3726:	81 81       	ldd	r24, Z+1	; 0x01
    3728:	88 23       	and	r24, r24
    372a:	09 f4       	brne	.+2      	; 0x372e <nrk_sem_post+0xf2>
		    systemceiling = nrk_sem_list[sem_ID].resource_ceiling;
    372c:	7a 2f       	mov	r23, r26
    372e:	2f 5f       	subi	r18, 0xFF	; 255
    3730:	3f 4f       	sbci	r19, 0xFF	; 255
    3732:	33 96       	adiw	r30, 0x03	; 3
	nrk_cur_task_TCB->elevated_prio_flag=0;

	// Increasing value increases availability of the semaphore
	// Reset system ceiling to lowest priority and iterate through the global semaphore array nrk_sem_list and find the highest locked resource ceiling
	systemceiling = 64;
	for (sem_ID = 0; sem_ID < NRK_MAX_RESOURCE_CNT; sem_ID++){
    3734:	25 30       	cpi	r18, 0x05	; 5
    3736:	31 05       	cpc	r19, r1
    3738:	21 f7       	brne	.-56     	; 0x3702 <nrk_sem_post+0xc6>
    373a:	70 93 c4 07 	sts	0x07C4, r23
    373e:	ef e0       	ldi	r30, 0x0F	; 15
    3740:	f7 e0       	ldi	r31, 0x07	; 7
	    }
	}

	for (task_ID=0; task_ID < NRK_MAX_TASKS; task_ID++){
	    if(nrk_task_TCB[task_ID].event_suspend==RSRC_EVENT_SUSPENDED)
		if((nrk_task_TCB[task_ID].active_signal_mask == id))
    3742:	86 2f       	mov	r24, r22
    3744:	99 27       	eor	r25, r25
    3746:	87 fd       	sbrc	r24, 7
    3748:	90 95       	com	r25
    374a:	a9 2f       	mov	r26, r25
    374c:	b9 2f       	mov	r27, r25
		{
		    nrk_task_TCB[task_ID].task_state=SUSPENDED;
    374e:	63 e0       	ldi	r22, 0x03	; 3
		    systemceiling = nrk_sem_list[sem_ID].resource_ceiling;
	    }
	}

	for (task_ID=0; task_ID < NRK_MAX_TASKS; task_ID++){
	    if(nrk_task_TCB[task_ID].event_suspend==RSRC_EVENT_SUSPENDED)
    3750:	20 81       	ld	r18, Z
    3752:	22 30       	cpi	r18, 0x02	; 2
    3754:	89 f4       	brne	.+34     	; 0x3778 <nrk_sem_post+0x13c>
		if((nrk_task_TCB[task_ID].active_signal_mask == id))
    3756:	22 85       	ldd	r18, Z+10	; 0x0a
    3758:	33 85       	ldd	r19, Z+11	; 0x0b
    375a:	44 85       	ldd	r20, Z+12	; 0x0c
    375c:	55 85       	ldd	r21, Z+13	; 0x0d
    375e:	28 17       	cp	r18, r24
    3760:	39 07       	cpc	r19, r25
    3762:	4a 07       	cpc	r20, r26
    3764:	5b 07       	cpc	r21, r27
    3766:	41 f4       	brne	.+16     	; 0x3778 <nrk_sem_post+0x13c>
		{
		    nrk_task_TCB[task_ID].task_state=SUSPENDED;
    3768:	62 83       	std	Z+2, r22	; 0x02
		    nrk_task_TCB[task_ID].next_wakeup=0;
    376a:	17 86       	std	Z+15, r1	; 0x0f
    376c:	16 86       	std	Z+14, r1	; 0x0e
		    nrk_task_TCB[task_ID].event_suspend=0;
    376e:	10 82       	st	Z, r1
		    nrk_task_TCB[task_ID].active_signal_mask=0;
    3770:	12 86       	std	Z+10, r1	; 0x0a
    3772:	13 86       	std	Z+11, r1	; 0x0b
    3774:	14 86       	std	Z+12, r1	; 0x0c
    3776:	15 86       	std	Z+13, r1	; 0x0d
    3778:	b2 96       	adiw	r30, 0x22	; 34
		if (nrk_sem_list[sem_ID].resource_ceiling < systemceiling && nrk_sem_list[sem_ID].value == 0)
		    systemceiling = nrk_sem_list[sem_ID].resource_ceiling;
	    }
	}

	for (task_ID=0; task_ID < NRK_MAX_TASKS; task_ID++){
    377a:	27 e0       	ldi	r18, 0x07	; 7
    377c:	e9 3b       	cpi	r30, 0xB9	; 185
    377e:	f2 07       	cpc	r31, r18
    3780:	39 f7       	brne	.-50     	; 0x3750 <nrk_sem_post+0x114>
		    nrk_task_TCB[task_ID].event_suspend=0;
		    nrk_task_TCB[task_ID].active_signal_mask=0;
		}   

	}
	nrk_int_enable();
    3782:	0e 94 62 13 	call	0x26c4	; 0x26c4 <nrk_int_enable>
    }

    return NRK_OK;
    3786:	81 e0       	ldi	r24, 0x01	; 1
}
    3788:	0f 90       	pop	r0
    378a:	cf 91       	pop	r28
    378c:	df 91       	pop	r29
    378e:	1f 91       	pop	r17
    3790:	0f 91       	pop	r16
    3792:	ff 90       	pop	r15
    3794:	ef 90       	pop	r14
    3796:	08 95       	ret

00003798 <nrk_sem_pend>:
}



int8_t nrk_sem_pend(nrk_sem_t *rsrc )
{
    3798:	0f 93       	push	r16
    379a:	1f 93       	push	r17
    379c:	df 93       	push	r29
    379e:	cf 93       	push	r28
    37a0:	0f 92       	push	r0
    37a2:	cd b7       	in	r28, 0x3d	; 61
    37a4:	de b7       	in	r29, 0x3e	; 62
    int8_t id;
    int8_t sem_ID;
    id=nrk_get_resource_index(rsrc);  
    37a6:	0e 94 e7 1a 	call	0x35ce	; 0x35ce <nrk_get_resource_index>
    if(id==-1) { _nrk_errno_set(1); return NRK_ERROR;}
    37aa:	8f 3f       	cpi	r24, 0xFF	; 255
    37ac:	11 f4       	brne	.+4      	; 0x37b2 <nrk_sem_pend+0x1a>
    37ae:	81 e0       	ldi	r24, 0x01	; 1
    37b0:	03 c0       	rjmp	.+6      	; 0x37b8 <nrk_sem_pend+0x20>
    if(id==NRK_MAX_RESOURCE_CNT) { _nrk_errno_set(2); return NRK_ERROR; }
    37b2:	85 30       	cpi	r24, 0x05	; 5
    37b4:	29 f4       	brne	.+10     	; 0x37c0 <nrk_sem_pend+0x28>
    37b6:	82 e0       	ldi	r24, 0x02	; 2
    37b8:	0e 94 7f 15 	call	0x2afe	; 0x2afe <_nrk_errno_set>
    37bc:	8f ef       	ldi	r24, 0xFF	; 255
    37be:	a3 c0       	rjmp	.+326    	; 0x3906 <nrk_sem_pend+0x16e>

    nrk_int_disable();
    37c0:	89 83       	std	Y+1, r24	; 0x01
    37c2:	0e 94 60 13 	call	0x26c0	; 0x26c0 <nrk_int_disable>
    if(nrk_sem_list[id].value<=0)
    37c6:	89 81       	ldd	r24, Y+1	; 0x01
    37c8:	08 2f       	mov	r16, r24
    37ca:	11 27       	eor	r17, r17
    37cc:	07 fd       	sbrc	r16, 7
    37ce:	10 95       	com	r17
    37d0:	f8 01       	movw	r30, r16
    37d2:	ee 0f       	add	r30, r30
    37d4:	ff 1f       	adc	r31, r31
    37d6:	e0 0f       	add	r30, r16
    37d8:	f1 1f       	adc	r31, r17
    37da:	ec 54       	subi	r30, 0x4C	; 76
    37dc:	f8 4f       	sbci	r31, 0xF8	; 248
    37de:	92 81       	ldd	r25, Z+2	; 0x02
    37e0:	19 16       	cp	r1, r25
    37e2:	b4 f0       	brlt	.+44     	; 0x3810 <nrk_sem_pend+0x78>
    {
	nrk_cur_task_TCB->event_suspend|=RSRC_EVENT_SUSPENDED;
    37e4:	e0 91 d5 07 	lds	r30, 0x07D5
    37e8:	f0 91 d6 07 	lds	r31, 0x07D6
    37ec:	97 81       	ldd	r25, Z+7	; 0x07
    37ee:	92 60       	ori	r25, 0x02	; 2
    37f0:	97 83       	std	Z+7, r25	; 0x07
	nrk_cur_task_TCB->active_signal_mask=id;
    37f2:	99 27       	eor	r25, r25
    37f4:	87 fd       	sbrc	r24, 7
    37f6:	90 95       	com	r25
    37f8:	a9 2f       	mov	r26, r25
    37fa:	b9 2f       	mov	r27, r25
    37fc:	81 8b       	std	Z+17, r24	; 0x11
    37fe:	92 8b       	std	Z+18, r25	; 0x12
    3800:	a3 8b       	std	Z+19, r26	; 0x13
    3802:	b4 8b       	std	Z+20, r27	; 0x14
	// Wait on suspend event
	nrk_int_enable();
    3804:	0e 94 62 13 	call	0x26c4	; 0x26c4 <nrk_int_enable>
	nrk_wait_until_ticks(0);
    3808:	80 e0       	ldi	r24, 0x00	; 0
    380a:	90 e0       	ldi	r25, 0x00	; 0
    380c:	0e 94 ef 1e 	call	0x3dde	; 0x3dde <nrk_wait_until_ticks>
    }

    printf("Task %d holds resource %d.\n", nrk_cur_task_TCB->task_ID, id);
    3810:	00 d0       	rcall	.+0      	; 0x3812 <nrk_sem_pend+0x7a>
    3812:	00 d0       	rcall	.+0      	; 0x3814 <nrk_sem_pend+0x7c>
    3814:	00 d0       	rcall	.+0      	; 0x3816 <nrk_sem_pend+0x7e>
    3816:	ed b7       	in	r30, 0x3d	; 61
    3818:	fe b7       	in	r31, 0x3e	; 62
    381a:	31 96       	adiw	r30, 0x01	; 1
    381c:	86 e4       	ldi	r24, 0x46	; 70
    381e:	92 e0       	ldi	r25, 0x02	; 2
    3820:	ad b7       	in	r26, 0x3d	; 61
    3822:	be b7       	in	r27, 0x3e	; 62
    3824:	12 96       	adiw	r26, 0x02	; 2
    3826:	9c 93       	st	X, r25
    3828:	8e 93       	st	-X, r24
    382a:	11 97       	sbiw	r26, 0x01	; 1
    382c:	a0 91 d5 07 	lds	r26, 0x07D5
    3830:	b0 91 d6 07 	lds	r27, 0x07D6
    3834:	18 96       	adiw	r26, 0x08	; 8
    3836:	8c 91       	ld	r24, X
    3838:	99 27       	eor	r25, r25
    383a:	87 fd       	sbrc	r24, 7
    383c:	90 95       	com	r25
    383e:	93 83       	std	Z+3, r25	; 0x03
    3840:	82 83       	std	Z+2, r24	; 0x02
    3842:	15 83       	std	Z+5, r17	; 0x05
    3844:	04 83       	std	Z+4, r16	; 0x04
    3846:	0e 94 ac 43 	call	0x8758	; 0x8758 <printf>
    nrk_sem_list[id].value--;
    384a:	f8 01       	movw	r30, r16
    384c:	ee 0f       	add	r30, r30
    384e:	ff 1f       	adc	r31, r31
    3850:	e0 0f       	add	r30, r16
    3852:	f1 1f       	adc	r31, r17
    3854:	ec 54       	subi	r30, 0x4C	; 76
    3856:	f8 4f       	sbci	r31, 0xF8	; 248
    3858:	82 81       	ldd	r24, Z+2	; 0x02
    385a:	81 50       	subi	r24, 0x01	; 1
    385c:	82 83       	std	Z+2, r24	; 0x02
    // SRP - a task can be preempted if the preemption level is higher than system ceiling
    // Bigger relative deadline means smaller priority - Smaller the value for system ceiling means higher the priority
    // Compare and see if current_task_TCB period is smaller than the current system ceiling, if it is set new system ceiling
    // set new system ceiling
    //systemceiling =  nrk_cur_task_TCB->period;
    systemceiling = 64;
    385e:	e5 eb       	ldi	r30, 0xB5	; 181
    3860:	f7 e0       	ldi	r31, 0x07	; 7
    3862:	8d b7       	in	r24, 0x3d	; 61
    3864:	9e b7       	in	r25, 0x3e	; 62
    3866:	06 96       	adiw	r24, 0x06	; 6
    3868:	0f b6       	in	r0, 0x3f	; 63
    386a:	f8 94       	cli
    386c:	9e bf       	out	0x3e, r25	; 62
    386e:	0f be       	out	0x3f, r0	; 63
    3870:	8d bf       	out	0x3d, r24	; 61
    3872:	80 e0       	ldi	r24, 0x00	; 0
    3874:	90 e0       	ldi	r25, 0x00	; 0
    3876:	60 e4       	ldi	r22, 0x40	; 64
    for (sem_ID = 0; sem_ID < NRK_MAX_RESOURCE_CNT; sem_ID++){
	//printf("sem_list id: %d \n\n",&nrk_sem_list[sem_ID]);
	if(&nrk_sem_list[sem_ID] != NULL){
    3878:	9c 01       	movw	r18, r24
    387a:	22 0f       	add	r18, r18
    387c:	33 1f       	adc	r19, r19
    387e:	28 0f       	add	r18, r24
    3880:	39 1f       	adc	r19, r25
    3882:	2c 54       	subi	r18, 0x4C	; 76
    3884:	38 4f       	sbci	r19, 0xF8	; 248
    3886:	71 f0       	breq	.+28     	; 0x38a4 <nrk_sem_pend+0x10c>
	    if (nrk_sem_list[sem_ID].resource_ceiling < systemceiling && nrk_sem_list[sem_ID].value == 0)
    3888:	70 81       	ld	r23, Z
    388a:	47 2f       	mov	r20, r23
    388c:	55 27       	eor	r21, r21
    388e:	47 fd       	sbrc	r20, 7
    3890:	50 95       	com	r21
    3892:	26 2f       	mov	r18, r22
    3894:	30 e0       	ldi	r19, 0x00	; 0
    3896:	42 17       	cp	r20, r18
    3898:	53 07       	cpc	r21, r19
    389a:	24 f4       	brge	.+8      	; 0x38a4 <nrk_sem_pend+0x10c>
    389c:	21 81       	ldd	r18, Z+1	; 0x01
    389e:	22 23       	and	r18, r18
    38a0:	09 f4       	brne	.+2      	; 0x38a4 <nrk_sem_pend+0x10c>
		systemceiling = nrk_sem_list[sem_ID].resource_ceiling;
    38a2:	67 2f       	mov	r22, r23
    38a4:	01 96       	adiw	r24, 0x01	; 1
    38a6:	33 96       	adiw	r30, 0x03	; 3
    // Bigger relative deadline means smaller priority - Smaller the value for system ceiling means higher the priority
    // Compare and see if current_task_TCB period is smaller than the current system ceiling, if it is set new system ceiling
    // set new system ceiling
    //systemceiling =  nrk_cur_task_TCB->period;
    systemceiling = 64;
    for (sem_ID = 0; sem_ID < NRK_MAX_RESOURCE_CNT; sem_ID++){
    38a8:	85 30       	cpi	r24, 0x05	; 5
    38aa:	91 05       	cpc	r25, r1
    38ac:	29 f7       	brne	.-54     	; 0x3878 <nrk_sem_pend+0xe0>
    38ae:	60 93 c4 07 	sts	0x07C4, r22
	if(&nrk_sem_list[sem_ID] != NULL){
	    if (nrk_sem_list[sem_ID].resource_ceiling < systemceiling && nrk_sem_list[sem_ID].value == 0)
		systemceiling = nrk_sem_list[sem_ID].resource_ceiling;
	}
    }
    printf("System Ceiling:%d\n", systemceiling);
    38b2:	00 d0       	rcall	.+0      	; 0x38b4 <nrk_sem_pend+0x11c>
    38b4:	00 d0       	rcall	.+0      	; 0x38b6 <nrk_sem_pend+0x11e>
    38b6:	ed b7       	in	r30, 0x3d	; 61
    38b8:	fe b7       	in	r31, 0x3e	; 62
    38ba:	31 96       	adiw	r30, 0x01	; 1
    38bc:	82 e6       	ldi	r24, 0x62	; 98
    38be:	92 e0       	ldi	r25, 0x02	; 2
    38c0:	ad b7       	in	r26, 0x3d	; 61
    38c2:	be b7       	in	r27, 0x3e	; 62
    38c4:	12 96       	adiw	r26, 0x02	; 2
    38c6:	9c 93       	st	X, r25
    38c8:	8e 93       	st	-X, r24
    38ca:	11 97       	sbiw	r26, 0x01	; 1
    38cc:	62 83       	std	Z+2, r22	; 0x02
    38ce:	13 82       	std	Z+3, r1	; 0x03
    38d0:	0e 94 ac 43 	call	0x8758	; 0x8758 <printf>


    nrk_cur_task_TCB->task_prio_ceil=nrk_sem_list[id].resource_ceiling;
    38d4:	a0 91 d5 07 	lds	r26, 0x07D5
    38d8:	b0 91 d6 07 	lds	r27, 0x07D6
    38dc:	f8 01       	movw	r30, r16
    38de:	ee 0f       	add	r30, r30
    38e0:	ff 1f       	adc	r31, r31
    38e2:	e0 0f       	add	r30, r16
    38e4:	f1 1f       	adc	r31, r17
    38e6:	ec 54       	subi	r30, 0x4C	; 76
    38e8:	f8 4f       	sbci	r31, 0xF8	; 248
    38ea:	81 81       	ldd	r24, Z+1	; 0x01
    38ec:	1b 96       	adiw	r26, 0x0b	; 11
    38ee:	8c 93       	st	X, r24
    38f0:	1b 97       	sbiw	r26, 0x0b	; 11
    nrk_cur_task_TCB->elevated_prio_flag=1;
    38f2:	81 e0       	ldi	r24, 0x01	; 1
    38f4:	14 96       	adiw	r26, 0x04	; 4
    38f6:	8c 93       	st	X, r24
    nrk_int_enable();
    38f8:	0f 90       	pop	r0
    38fa:	0f 90       	pop	r0
    38fc:	0f 90       	pop	r0
    38fe:	0f 90       	pop	r0
    3900:	0e 94 62 13 	call	0x26c4	; 0x26c4 <nrk_int_enable>

    return NRK_OK;
    3904:	81 e0       	ldi	r24, 0x01	; 1
}
    3906:	0f 90       	pop	r0
    3908:	cf 91       	pop	r28
    390a:	df 91       	pop	r29
    390c:	1f 91       	pop	r17
    390e:	0f 91       	pop	r16
    3910:	08 95       	ret

00003912 <nrk_sem_query>:
}

int8_t nrk_sem_query(nrk_sem_t *rsrc )
{
    int8_t id;
    id=nrk_get_resource_index(rsrc);  
    3912:	0e 94 e7 1a 	call	0x35ce	; 0x35ce <nrk_get_resource_index>
    if(id==-1) { _nrk_errno_set(1); return NRK_ERROR;}
    3916:	8f 3f       	cpi	r24, 0xFF	; 255
    3918:	11 f4       	brne	.+4      	; 0x391e <nrk_sem_query+0xc>
    391a:	81 e0       	ldi	r24, 0x01	; 1
    391c:	03 c0       	rjmp	.+6      	; 0x3924 <nrk_sem_query+0x12>
    if(id==NRK_MAX_RESOURCE_CNT) { _nrk_errno_set(2); return NRK_ERROR; }
    391e:	85 30       	cpi	r24, 0x05	; 5
    3920:	29 f4       	brne	.+10     	; 0x392c <nrk_sem_query+0x1a>
    3922:	82 e0       	ldi	r24, 0x02	; 2
    3924:	0e 94 7f 15 	call	0x2afe	; 0x2afe <_nrk_errno_set>
    3928:	8f ef       	ldi	r24, 0xFF	; 255
    392a:	08 95       	ret

    return(nrk_sem_list[id].value);
    392c:	99 27       	eor	r25, r25
    392e:	87 fd       	sbrc	r24, 7
    3930:	90 95       	com	r25
    3932:	fc 01       	movw	r30, r24
    3934:	ee 0f       	add	r30, r30
    3936:	ff 1f       	adc	r31, r31
    3938:	e8 0f       	add	r30, r24
    393a:	f9 1f       	adc	r31, r25
    393c:	ec 54       	subi	r30, 0x4C	; 76
    393e:	f8 4f       	sbci	r31, 0xF8	; 248
    3940:	82 81       	ldd	r24, Z+2	; 0x02
}
    3942:	08 95       	ret

00003944 <nrk_get_high_ready_task_ID>:

inline void _nrk_wait_for_scheduler ();

uint8_t nrk_get_high_ready_task_ID ()
{
	return (_head_node->task_ID);
    3944:	e0 91 ca 07 	lds	r30, 0x07CA
    3948:	f0 91 cb 07 	lds	r31, 0x07CB
}
    394c:	80 81       	ld	r24, Z
    394e:	08 95       	ret

00003950 <nrk_print_readyQ>:

void nrk_print_readyQ ()
{
    3950:	0f 93       	push	r16
    3952:	1f 93       	push	r17
    3954:	cf 93       	push	r28
    3956:	df 93       	push	r29
	nrk_queue *ptr;
	ptr = _head_node;
    3958:	c0 91 ca 07 	lds	r28, 0x07CA
    395c:	d0 91 cb 07 	lds	r29, 0x07CB
	nrk_kprintf (PSTR ("nrk_queue: "));
    3960:	84 e8       	ldi	r24, 0x84	; 132
    3962:	93 e0       	ldi	r25, 0x03	; 3
    3964:	0e 94 48 10 	call	0x2090	; 0x2090 <nrk_kprintf>
	while (ptr != NULL)
	{
		printf("%d ", &nrk_task_TCB[ptr->task_ID].next_period);
    3968:	05 e7       	ldi	r16, 0x75	; 117
    396a:	12 e0       	ldi	r17, 0x02	; 2
void nrk_print_readyQ ()
{
	nrk_queue *ptr;
	ptr = _head_node;
	nrk_kprintf (PSTR ("nrk_queue: "));
	while (ptr != NULL)
    396c:	1f c0       	rjmp	.+62     	; 0x39ac <nrk_print_readyQ+0x5c>
	{
		printf("%d ", &nrk_task_TCB[ptr->task_ID].next_period);
    396e:	00 d0       	rcall	.+0      	; 0x3970 <nrk_print_readyQ+0x20>
    3970:	00 d0       	rcall	.+0      	; 0x3972 <nrk_print_readyQ+0x22>
    3972:	ed b7       	in	r30, 0x3d	; 61
    3974:	fe b7       	in	r31, 0x3e	; 62
    3976:	12 83       	std	Z+2, r17	; 0x02
    3978:	01 83       	std	Z+1, r16	; 0x01
    397a:	28 81       	ld	r18, Y
    397c:	30 e0       	ldi	r19, 0x00	; 0
    397e:	c9 01       	movw	r24, r18
    3980:	88 0f       	add	r24, r24
    3982:	99 1f       	adc	r25, r25
    3984:	45 e0       	ldi	r20, 0x05	; 5
    3986:	22 0f       	add	r18, r18
    3988:	33 1f       	adc	r19, r19
    398a:	4a 95       	dec	r20
    398c:	e1 f7       	brne	.-8      	; 0x3986 <nrk_print_readyQ+0x36>
    398e:	82 0f       	add	r24, r18
    3990:	93 1f       	adc	r25, r19
    3992:	81 5e       	subi	r24, 0xE1	; 225
    3994:	98 4f       	sbci	r25, 0xF8	; 248
    3996:	94 83       	std	Z+4, r25	; 0x04
    3998:	83 83       	std	Z+3, r24	; 0x03
    399a:	0e 94 ac 43 	call	0x8758	; 0x8758 <printf>
		ptr = ptr->Next;
    399e:	0b 80       	ldd	r0, Y+3	; 0x03
    39a0:	dc 81       	ldd	r29, Y+4	; 0x04
    39a2:	c0 2d       	mov	r28, r0
    39a4:	0f 90       	pop	r0
    39a6:	0f 90       	pop	r0
    39a8:	0f 90       	pop	r0
    39aa:	0f 90       	pop	r0
void nrk_print_readyQ ()
{
	nrk_queue *ptr;
	ptr = _head_node;
	nrk_kprintf (PSTR ("nrk_queue: "));
	while (ptr != NULL)
    39ac:	20 97       	sbiw	r28, 0x00	; 0
    39ae:	f9 f6       	brne	.-66     	; 0x396e <nrk_print_readyQ+0x1e>
	{
		printf("%d ", &nrk_task_TCB[ptr->task_ID].next_period);
		ptr = ptr->Next;
	}
	nrk_kprintf (PSTR ("\n\r"));
    39b0:	81 e8       	ldi	r24, 0x81	; 129
    39b2:	93 e0       	ldi	r25, 0x03	; 3
    39b4:	0e 94 48 10 	call	0x2090	; 0x2090 <nrk_kprintf>
}
    39b8:	df 91       	pop	r29
    39ba:	cf 91       	pop	r28
    39bc:	1f 91       	pop	r17
    39be:	0f 91       	pop	r16
    39c0:	08 95       	ret

000039c2 <nrk_add_to_readyQ>:


void nrk_add_to_readyQ (int8_t task_ID)
{
    39c2:	ef 92       	push	r14
    39c4:	ff 92       	push	r15
    39c6:	0f 93       	push	r16
    39c8:	1f 93       	push	r17
    39ca:	cf 93       	push	r28
    39cc:	df 93       	push	r29
	nrk_queue *CurNode;

	//printf( "nrk_add_to_readyQ %d\n",task_ID );
	//nrk_print_readyQ();
	// nrk_queue full
	if (_free_node == NULL)
    39ce:	e0 91 06 07 	lds	r30, 0x0706
    39d2:	f0 91 07 07 	lds	r31, 0x0707
    39d6:	30 97       	sbiw	r30, 0x00	; 0
    39d8:	09 f4       	brne	.+2      	; 0x39dc <nrk_add_to_readyQ+0x1a>
    39da:	91 c0       	rjmp	.+290    	; 0x3afe <nrk_add_to_readyQ+0x13c>
	{
		return;
	}


	NextNode = _head_node;
    39dc:	40 91 ca 07 	lds	r20, 0x07CA
    39e0:	50 91 cb 07 	lds	r21, 0x07CB
	CurNode = _free_node;

	if (_head_node != NULL)
    39e4:	41 15       	cp	r20, r1
    39e6:	51 05       	cpc	r21, r1
    39e8:	09 f4       	brne	.+2      	; 0x39ec <nrk_add_to_readyQ+0x2a>
    39ea:	4d c0       	rjmp	.+154    	; 0x3a86 <nrk_add_to_readyQ+0xc4>
    39ec:	da 01       	movw	r26, r20
//			if (NextNode->task_ID == NRK_IDLE_TASK_ID ||
//				nrk_task_TCB[NextNode->task_ID].next_period > nrk_task_TCB[task_ID].next_period {break;}	//Small absolute deadline = larger preemption level

#ifdef SRP
			if (NextNode->task_ID == NRK_IDLE_TASK_ID ||
				nrk_task_TCB[NextNode->task_ID].next_period > nrk_task_TCB[task_ID].next_period 
    39ee:	68 2f       	mov	r22, r24
    39f0:	77 27       	eor	r23, r23
    39f2:	67 fd       	sbrc	r22, 7
    39f4:	70 95       	com	r23
    39f6:	9b 01       	movw	r18, r22
    39f8:	22 0f       	add	r18, r18
    39fa:	33 1f       	adc	r19, r19
    39fc:	95 e0       	ldi	r25, 0x05	; 5
    39fe:	66 0f       	add	r22, r22
    3a00:	77 1f       	adc	r23, r23
    3a02:	9a 95       	dec	r25
    3a04:	e1 f7       	brne	.-8      	; 0x39fe <nrk_add_to_readyQ+0x3c>
    3a06:	26 0f       	add	r18, r22
    3a08:	37 1f       	adc	r19, r23
    3a0a:	28 5f       	subi	r18, 0xF8	; 248
    3a0c:	38 4f       	sbci	r19, 0xF8	; 248
    3a0e:	b9 01       	movw	r22, r18
    3a10:	69 5e       	subi	r22, 0xE9	; 233
    3a12:	7f 4f       	sbci	r23, 0xFF	; 255
				//&& nrk_task_TCB[task_ID].next_period < systemceiling)) {break;}	//Small absolute deadline = larger preemption level
                            ) break; // Get rid of srp for t4 at the moment
                        else{
                            // Dealing with same deadline issue in edf
                            if( (nrk_task_TCB[NextNode->task_ID].next_period == nrk_task_TCB[task_ID].next_period)&&
                                    (nrk_task_TCB[NextNode->task_ID].task_prio < nrk_task_TCB[task_ID].task_prio))
    3a14:	26 5f       	subi	r18, 0xF6	; 246
    3a16:	3f 4f       	sbci	r19, 0xFF	; 255

//			if (NextNode->task_ID == NRK_IDLE_TASK_ID ||
//				nrk_task_TCB[NextNode->task_ID].next_period > nrk_task_TCB[task_ID].next_period {break;}	//Small absolute deadline = larger preemption level

#ifdef SRP
			if (NextNode->task_ID == NRK_IDLE_TASK_ID ||
    3a18:	9c 91       	ld	r25, X
    3a1a:	99 23       	and	r25, r25
    3a1c:	b1 f1       	breq	.+108    	; 0x3a8a <nrk_add_to_readyQ+0xc8>
				nrk_task_TCB[NextNode->task_ID].next_period > nrk_task_TCB[task_ID].next_period 
    3a1e:	09 2f       	mov	r16, r25
    3a20:	10 e0       	ldi	r17, 0x00	; 0
    3a22:	e8 01       	movw	r28, r16
    3a24:	cc 0f       	add	r28, r28
    3a26:	dd 1f       	adc	r29, r29
    3a28:	68 94       	set
    3a2a:	14 f8       	bld	r1, 4
    3a2c:	00 0f       	add	r16, r16
    3a2e:	11 1f       	adc	r17, r17
    3a30:	16 94       	lsr	r1
    3a32:	e1 f7       	brne	.-8      	; 0x3a2c <nrk_add_to_readyQ+0x6a>
    3a34:	c0 0f       	add	r28, r16
    3a36:	d1 1f       	adc	r29, r17
    3a38:	c8 5f       	subi	r28, 0xF8	; 248
    3a3a:	d8 4f       	sbci	r29, 0xF8	; 248
    3a3c:	0f 89       	ldd	r16, Y+23	; 0x17
    3a3e:	18 8d       	ldd	r17, Y+24	; 0x18
    3a40:	eb 01       	movw	r28, r22
    3a42:	e8 80       	ld	r14, Y
    3a44:	f9 80       	ldd	r15, Y+1	; 0x01

//			if (NextNode->task_ID == NRK_IDLE_TASK_ID ||
//				nrk_task_TCB[NextNode->task_ID].next_period > nrk_task_TCB[task_ID].next_period {break;}	//Small absolute deadline = larger preemption level

#ifdef SRP
			if (NextNode->task_ID == NRK_IDLE_TASK_ID ||
    3a46:	e0 16       	cp	r14, r16
    3a48:	f1 06       	cpc	r15, r17
    3a4a:	f8 f0       	brcs	.+62     	; 0x3a8a <nrk_add_to_readyQ+0xc8>
				nrk_task_TCB[NextNode->task_ID].next_period > nrk_task_TCB[task_ID].next_period 
				//&& nrk_task_TCB[task_ID].next_period < systemceiling)) {break;}	//Small absolute deadline = larger preemption level
                            ) break; // Get rid of srp for t4 at the moment
                        else{
                            // Dealing with same deadline issue in edf
                            if( (nrk_task_TCB[NextNode->task_ID].next_period == nrk_task_TCB[task_ID].next_period)&&
    3a4c:	0e 15       	cp	r16, r14
    3a4e:	1f 05       	cpc	r17, r15
    3a50:	99 f4       	brne	.+38     	; 0x3a78 <nrk_add_to_readyQ+0xb6>
                                    (nrk_task_TCB[NextNode->task_ID].task_prio < nrk_task_TCB[task_ID].task_prio))
    3a52:	09 2f       	mov	r16, r25
    3a54:	10 e0       	ldi	r17, 0x00	; 0
    3a56:	e8 01       	movw	r28, r16
    3a58:	cc 0f       	add	r28, r28
    3a5a:	dd 1f       	adc	r29, r29
    3a5c:	95 e0       	ldi	r25, 0x05	; 5
    3a5e:	00 0f       	add	r16, r16
    3a60:	11 1f       	adc	r17, r17
    3a62:	9a 95       	dec	r25
    3a64:	e1 f7       	brne	.-8      	; 0x3a5e <nrk_add_to_readyQ+0x9c>
    3a66:	c0 0f       	add	r28, r16
    3a68:	d1 1f       	adc	r29, r17
    3a6a:	c8 5f       	subi	r28, 0xF8	; 248
    3a6c:	d8 4f       	sbci	r29, 0xF8	; 248
				nrk_task_TCB[NextNode->task_ID].next_period > nrk_task_TCB[task_ID].next_period 
				//&& nrk_task_TCB[task_ID].next_period < systemceiling)) {break;}	//Small absolute deadline = larger preemption level
                            ) break; // Get rid of srp for t4 at the moment
                        else{
                            // Dealing with same deadline issue in edf
                            if( (nrk_task_TCB[NextNode->task_ID].next_period == nrk_task_TCB[task_ID].next_period)&&
    3a6e:	0a 85       	ldd	r16, Y+10	; 0x0a
    3a70:	e9 01       	movw	r28, r18
    3a72:	98 81       	ld	r25, Y
    3a74:	09 17       	cp	r16, r25
    3a76:	48 f0       	brcs	.+18     	; 0x3a8a <nrk_add_to_readyQ+0xc8>
					break;
			if (nrk_task_TCB[NextNode->task_ID].task_prio <
				nrk_task_TCB[task_ID].task_prio)
				break; 
#endif    
			NextNode = NextNode->Next;
    3a78:	13 96       	adiw	r26, 0x03	; 3
    3a7a:	0d 90       	ld	r0, X+
    3a7c:	bc 91       	ld	r27, X
    3a7e:	a0 2d       	mov	r26, r0
	CurNode = _free_node;

	if (_head_node != NULL)
	{

		while (NextNode != NULL)
    3a80:	10 97       	sbiw	r26, 0x00	; 0
    3a82:	51 f6       	brne	.-108    	; 0x3a18 <nrk_add_to_readyQ+0x56>
    3a84:	02 c0       	rjmp	.+4      	; 0x3a8a <nrk_add_to_readyQ+0xc8>


	NextNode = _head_node;
	CurNode = _free_node;

	if (_head_node != NULL)
    3a86:	a0 e0       	ldi	r26, 0x00	; 0
    3a88:	b0 e0       	ldi	r27, 0x00	; 0
		// Issues - 1 comes, becomes 2', 1 more comes (2' 1) then 2 comes where should it be placed ?
		// 2' 2  1 or 2 2' 1 in ready q , what happens after 2'->1, what if 2'->2
		//printf("Im out of the while loop.\n");
	}

	CurNode->task_ID = task_ID;
    3a8a:	80 83       	st	Z, r24
	_free_node = _free_node->Next;
    3a8c:	c3 81       	ldd	r28, Z+3	; 0x03
    3a8e:	d4 81       	ldd	r29, Z+4	; 0x04
    3a90:	d0 93 07 07 	sts	0x0707, r29
    3a94:	c0 93 06 07 	sts	0x0706, r28


	if (NextNode == _head_node)
    3a98:	a4 17       	cp	r26, r20
    3a9a:	b5 07       	cpc	r27, r21
    3a9c:	b1 f4       	brne	.+44     	; 0x3aca <nrk_add_to_readyQ+0x108>
	{
		//at start
		if (_head_node != NULL)
    3a9e:	10 97       	sbiw	r26, 0x00	; 0
    3aa0:	49 f0       	breq	.+18     	; 0x3ab4 <nrk_add_to_readyQ+0xf2>
		{
			CurNode->Next = _head_node;
    3aa2:	b4 83       	std	Z+4, r27	; 0x04
    3aa4:	a3 83       	std	Z+3, r26	; 0x03
			CurNode->Prev = NULL;
    3aa6:	12 82       	std	Z+2, r1	; 0x02
    3aa8:	11 82       	std	Z+1, r1	; 0x01
			_head_node->Prev = CurNode;
    3aaa:	12 96       	adiw	r26, 0x02	; 2
    3aac:	fc 93       	st	X, r31
    3aae:	ee 93       	st	-X, r30
    3ab0:	11 97       	sbiw	r26, 0x01	; 1
    3ab2:	06 c0       	rjmp	.+12     	; 0x3ac0 <nrk_add_to_readyQ+0xfe>
		}
		else
		{
			CurNode->Next = NULL;
    3ab4:	14 82       	std	Z+4, r1	; 0x04
    3ab6:	13 82       	std	Z+3, r1	; 0x03
			CurNode->Prev = NULL;
    3ab8:	12 82       	std	Z+2, r1	; 0x02
    3aba:	11 82       	std	Z+1, r1	; 0x01
			_free_node->Prev = CurNode;
    3abc:	fa 83       	std	Y+2, r31	; 0x02
    3abe:	e9 83       	std	Y+1, r30	; 0x01
		}
		_head_node = CurNode;
    3ac0:	f0 93 cb 07 	sts	0x07CB, r31
    3ac4:	e0 93 ca 07 	sts	0x07CA, r30
    3ac8:	1a c0       	rjmp	.+52     	; 0x3afe <nrk_add_to_readyQ+0x13c>
    3aca:	11 96       	adiw	r26, 0x01	; 1
    3acc:	8d 91       	ld	r24, X+
    3ace:	9c 91       	ld	r25, X
    3ad0:	12 97       	sbiw	r26, 0x02	; 2
		//	printf("Fucking head node period: %d\n", &nrk_task_TCB[_head_node->task_ID].next_period);
	}
	else
	{
		if (NextNode != _free_node)
    3ad2:	ac 17       	cp	r26, r28
    3ad4:	bd 07       	cpc	r27, r29
    3ad6:	59 f0       	breq	.+22     	; 0x3aee <nrk_add_to_readyQ+0x12c>
		{
			// Insert  in middle

			CurNode->Prev = NextNode->Prev;
    3ad8:	92 83       	std	Z+2, r25	; 0x02
    3ada:	81 83       	std	Z+1, r24	; 0x01
			CurNode->Next = NextNode;
    3adc:	b4 83       	std	Z+4, r27	; 0x04
    3ade:	a3 83       	std	Z+3, r26	; 0x03
			(NextNode->Prev)->Next = CurNode;
    3ae0:	11 96       	adiw	r26, 0x01	; 1
    3ae2:	cd 91       	ld	r28, X+
    3ae4:	dc 91       	ld	r29, X
    3ae6:	12 97       	sbiw	r26, 0x02	; 2
    3ae8:	fc 83       	std	Y+4, r31	; 0x04
    3aea:	eb 83       	std	Y+3, r30	; 0x03
    3aec:	04 c0       	rjmp	.+8      	; 0x3af6 <nrk_add_to_readyQ+0x134>
			NextNode->Prev = CurNode;
		}
		else
		{
			//insert at end
			CurNode->Next = NULL;
    3aee:	14 82       	std	Z+4, r1	; 0x04
    3af0:	13 82       	std	Z+3, r1	; 0x03
			CurNode->Prev = _free_node->Prev;
    3af2:	92 83       	std	Z+2, r25	; 0x02
    3af4:	81 83       	std	Z+1, r24	; 0x01
			_free_node->Prev = CurNode;
    3af6:	12 96       	adiw	r26, 0x02	; 2
    3af8:	fc 93       	st	X, r31
    3afa:	ee 93       	st	-X, r30
    3afc:	11 97       	sbiw	r26, 0x01	; 1

	}
	//nrk_print_readyQ();
	//printf("Im out of the method\n");

}
    3afe:	df 91       	pop	r29
    3b00:	cf 91       	pop	r28
    3b02:	1f 91       	pop	r17
    3b04:	0f 91       	pop	r16
    3b06:	ff 90       	pop	r15
    3b08:	ef 90       	pop	r14
    3b0a:	08 95       	ret

00003b0c <nrk_rem_from_readyQ>:


void nrk_rem_from_readyQ (int8_t task_ID)
{
    3b0c:	cf 93       	push	r28
    3b0e:	df 93       	push	r29
	}
	*/

	//      printf("nrk_rem_from_readyQ_nrk_queue %d\n",task_ID);

	if (_head_node == NULL)
    3b10:	e0 91 ca 07 	lds	r30, 0x07CA
    3b14:	f0 91 cb 07 	lds	r31, 0x07CB
    3b18:	30 97       	sbiw	r30, 0x00	; 0
    3b1a:	09 f4       	brne	.+2      	; 0x3b1e <nrk_rem_from_readyQ+0x12>
    3b1c:	44 c0       	rjmp	.+136    	; 0x3ba6 <nrk_rem_from_readyQ+0x9a>
		return;

	CurNode = _head_node;

	if (_head_node->task_ID == task_ID)
    3b1e:	99 27       	eor	r25, r25
    3b20:	87 fd       	sbrc	r24, 7
    3b22:	90 95       	com	r25
    3b24:	20 81       	ld	r18, Z
    3b26:	30 e0       	ldi	r19, 0x00	; 0
    3b28:	28 17       	cp	r18, r24
    3b2a:	39 07       	cpc	r19, r25
    3b2c:	81 f4       	brne	.+32     	; 0x3b4e <nrk_rem_from_readyQ+0x42>
	{
		//REmove from start
		_head_node = _head_node->Next;
    3b2e:	a3 81       	ldd	r26, Z+3	; 0x03
    3b30:	b4 81       	ldd	r27, Z+4	; 0x04
    3b32:	b0 93 cb 07 	sts	0x07CB, r27
    3b36:	a0 93 ca 07 	sts	0x07CA, r26
		_head_node->Prev = NULL;
    3b3a:	12 96       	adiw	r26, 0x02	; 2
    3b3c:	1c 92       	st	X, r1
    3b3e:	1e 92       	st	-X, r1
    3b40:	11 97       	sbiw	r26, 0x01	; 1
    3b42:	18 c0       	rjmp	.+48     	; 0x3b74 <nrk_rem_from_readyQ+0x68>
	}
	else
	{
		while ((CurNode != NULL) && (CurNode->task_ID != task_ID))
			CurNode = CurNode->Next;
    3b44:	03 80       	ldd	r0, Z+3	; 0x03
    3b46:	f4 81       	ldd	r31, Z+4	; 0x04
    3b48:	e0 2d       	mov	r30, r0
		_head_node = _head_node->Next;
		_head_node->Prev = NULL;
	}
	else
	{
		while ((CurNode != NULL) && (CurNode->task_ID != task_ID))
    3b4a:	30 97       	sbiw	r30, 0x00	; 0
    3b4c:	61 f1       	breq	.+88     	; 0x3ba6 <nrk_rem_from_readyQ+0x9a>
    3b4e:	20 81       	ld	r18, Z
    3b50:	30 e0       	ldi	r19, 0x00	; 0
    3b52:	28 17       	cp	r18, r24
    3b54:	39 07       	cpc	r19, r25
    3b56:	b1 f7       	brne	.-20     	; 0x3b44 <nrk_rem_from_readyQ+0x38>
			CurNode = CurNode->Next;
		if (CurNode == NULL)
			return;


		(CurNode->Prev)->Next = CurNode->Next;      //Both for middle and end
    3b58:	c1 81       	ldd	r28, Z+1	; 0x01
    3b5a:	d2 81       	ldd	r29, Z+2	; 0x02
    3b5c:	83 81       	ldd	r24, Z+3	; 0x03
    3b5e:	94 81       	ldd	r25, Z+4	; 0x04
    3b60:	9c 83       	std	Y+4, r25	; 0x04
    3b62:	8b 83       	std	Y+3, r24	; 0x03
		if (CurNode->Next != NULL)
    3b64:	a3 81       	ldd	r26, Z+3	; 0x03
    3b66:	b4 81       	ldd	r27, Z+4	; 0x04
    3b68:	10 97       	sbiw	r26, 0x00	; 0
    3b6a:	21 f0       	breq	.+8      	; 0x3b74 <nrk_rem_from_readyQ+0x68>
			(CurNode->Next)->Prev = CurNode->Prev;    // Only for middle
    3b6c:	12 96       	adiw	r26, 0x02	; 2
    3b6e:	dc 93       	st	X, r29
    3b70:	ce 93       	st	-X, r28
    3b72:	11 97       	sbiw	r26, 0x01	; 1
	}



	// Add to free list
	if (_free_node == NULL)
    3b74:	a0 91 06 07 	lds	r26, 0x0706
    3b78:	b0 91 07 07 	lds	r27, 0x0707
    3b7c:	10 97       	sbiw	r26, 0x00	; 0
    3b7e:	39 f4       	brne	.+14     	; 0x3b8e <nrk_rem_from_readyQ+0x82>
	{
		_free_node = CurNode;
    3b80:	f0 93 07 07 	sts	0x0707, r31
    3b84:	e0 93 06 07 	sts	0x0706, r30
		_free_node->Next = NULL;
    3b88:	14 82       	std	Z+4, r1	; 0x04
    3b8a:	13 82       	std	Z+3, r1	; 0x03
    3b8c:	0a c0       	rjmp	.+20     	; 0x3ba2 <nrk_rem_from_readyQ+0x96>
	}
	else
	{
		CurNode->Next = _free_node;
    3b8e:	b4 83       	std	Z+4, r27	; 0x04
    3b90:	a3 83       	std	Z+3, r26	; 0x03
		_free_node->Prev = CurNode;
    3b92:	12 96       	adiw	r26, 0x02	; 2
    3b94:	fc 93       	st	X, r31
    3b96:	ee 93       	st	-X, r30
    3b98:	11 97       	sbiw	r26, 0x01	; 1
		_free_node = CurNode;
    3b9a:	f0 93 07 07 	sts	0x0707, r31
    3b9e:	e0 93 06 07 	sts	0x0706, r30
	}
	_free_node->Prev = NULL;
    3ba2:	12 82       	std	Z+2, r1	; 0x02
    3ba4:	11 82       	std	Z+1, r1	; 0x01
}
    3ba6:	df 91       	pop	r29
    3ba8:	cf 91       	pop	r28
    3baa:	08 95       	ret

00003bac <nrk_activate_task>:




nrk_status_t nrk_activate_task (nrk_task_type * Task)
{
    3bac:	ef 92       	push	r14
    3bae:	ff 92       	push	r15
    3bb0:	0f 93       	push	r16
    3bb2:	1f 93       	push	r17
    3bb4:	cf 93       	push	r28
    3bb6:	df 93       	push	r29
    3bb8:	ec 01       	movw	r28, r24
	uint8_t rtype;
	void *topOfStackPtr;

	topOfStackPtr =
    3bba:	69 81       	ldd	r22, Y+1	; 0x01
    3bbc:	7a 81       	ldd	r23, Y+2	; 0x02
    3bbe:	4b 81       	ldd	r20, Y+3	; 0x03
    3bc0:	5c 81       	ldd	r21, Y+4	; 0x04
    3bc2:	8d 81       	ldd	r24, Y+5	; 0x05
    3bc4:	9e 81       	ldd	r25, Y+6	; 0x06
    3bc6:	0e 94 b3 27 	call	0x4f66	; 0x4f66 <nrk_task_stk_init>
    3bca:	bc 01       	movw	r22, r24
		(void *) nrk_task_stk_init (Task->task, Task->Ptos, Task->Pbos);

	//printf("activate %d\n",(int)Task.task_ID);
	if (Task->FirstActivation == TRUE)
    3bcc:	8f 81       	ldd	r24, Y+7	; 0x07
    3bce:	88 23       	and	r24, r24
    3bd0:	69 f0       	breq	.+26     	; 0x3bec <nrk_activate_task+0x40>
	{
		rtype = nrk_TCB_init (Task, topOfStackPtr, Task->Pbos, 0, (void *) 0, 0);
    3bd2:	4b 81       	ldd	r20, Y+3	; 0x03
    3bd4:	5c 81       	ldd	r21, Y+4	; 0x04
    3bd6:	ce 01       	movw	r24, r28
    3bd8:	20 e0       	ldi	r18, 0x00	; 0
    3bda:	30 e0       	ldi	r19, 0x00	; 0
    3bdc:	00 e0       	ldi	r16, 0x00	; 0
    3bde:	10 e0       	ldi	r17, 0x00	; 0
    3be0:	ee 24       	eor	r14, r14
    3be2:	ff 24       	eor	r15, r15
    3be4:	0e 94 83 14 	call	0x2906	; 0x2906 <nrk_TCB_init>
		Task->FirstActivation = FALSE;
    3be8:	1f 82       	std	Y+7, r1	; 0x07
    3bea:	15 c0       	rjmp	.+42     	; 0x3c16 <nrk_activate_task+0x6a>

	}
	else
	{
		if (nrk_task_TCB[Task->task_ID].task_state != SUSPENDED)
    3bec:	88 81       	ld	r24, Y
    3bee:	99 27       	eor	r25, r25
    3bf0:	87 fd       	sbrc	r24, 7
    3bf2:	90 95       	com	r25
    3bf4:	fc 01       	movw	r30, r24
    3bf6:	ee 0f       	add	r30, r30
    3bf8:	ff 1f       	adc	r31, r31
    3bfa:	35 e0       	ldi	r19, 0x05	; 5
    3bfc:	88 0f       	add	r24, r24
    3bfe:	99 1f       	adc	r25, r25
    3c00:	3a 95       	dec	r19
    3c02:	e1 f7       	brne	.-8      	; 0x3bfc <nrk_activate_task+0x50>
    3c04:	e8 0f       	add	r30, r24
    3c06:	f9 1f       	adc	r31, r25
    3c08:	e8 5f       	subi	r30, 0xF8	; 248
    3c0a:	f8 4f       	sbci	r31, 0xF8	; 248
    3c0c:	81 85       	ldd	r24, Z+9	; 0x09
    3c0e:	83 30       	cpi	r24, 0x03	; 3
    3c10:	e1 f4       	brne	.+56     	; 0x3c4a <nrk_activate_task+0x9e>
			return NRK_ERROR;
		//Re-init some parts of TCB

		nrk_task_TCB[Task->task_ID].OSTaskStkPtr = (NRK_STK *) topOfStackPtr;
    3c12:	71 83       	std	Z+1, r23	; 0x01
    3c14:	60 83       	st	Z, r22
	// If Idle Task then Add to ready Q
	//if(Task->task_ID==0) nrk_add_to_readyQ(Task->task_ID);
	//nrk_add_to_readyQ(Task->task_ID);
	//printf( "task %d nw %d \r\n",Task->task_ID,nrk_task_TCB[Task->task_ID].next_wakeup);
	//printf( "task %d nw %d \r\n",Task->task_ID,Task->offset.secs);
	if (nrk_task_TCB[Task->task_ID].next_wakeup == 0)
    3c16:	88 81       	ld	r24, Y
    3c18:	99 27       	eor	r25, r25
    3c1a:	87 fd       	sbrc	r24, 7
    3c1c:	90 95       	com	r25
    3c1e:	fc 01       	movw	r30, r24
    3c20:	ee 0f       	add	r30, r30
    3c22:	ff 1f       	adc	r31, r31
    3c24:	05 e0       	ldi	r16, 0x05	; 5
    3c26:	88 0f       	add	r24, r24
    3c28:	99 1f       	adc	r25, r25
    3c2a:	0a 95       	dec	r16
    3c2c:	e1 f7       	brne	.-8      	; 0x3c26 <nrk_activate_task+0x7a>
    3c2e:	e8 0f       	add	r30, r24
    3c30:	f9 1f       	adc	r31, r25
    3c32:	e8 5f       	subi	r30, 0xF8	; 248
    3c34:	f8 4f       	sbci	r31, 0xF8	; 248
    3c36:	85 89       	ldd	r24, Z+21	; 0x15
    3c38:	96 89       	ldd	r25, Z+22	; 0x16
    3c3a:	00 97       	sbiw	r24, 0x00	; 0
    3c3c:	41 f4       	brne	.+16     	; 0x3c4e <nrk_activate_task+0xa2>
	{
		nrk_task_TCB[Task->task_ID].task_state = READY;
    3c3e:	82 e0       	ldi	r24, 0x02	; 2
    3c40:	81 87       	std	Z+9, r24	; 0x09
		nrk_add_to_readyQ (Task->task_ID);
    3c42:	88 81       	ld	r24, Y
    3c44:	0e 94 e1 1c 	call	0x39c2	; 0x39c2 <nrk_add_to_readyQ>
    3c48:	02 c0       	rjmp	.+4      	; 0x3c4e <nrk_activate_task+0xa2>

	}
	else
	{
		if (nrk_task_TCB[Task->task_ID].task_state != SUSPENDED)
			return NRK_ERROR;
    3c4a:	8f ef       	ldi	r24, 0xFF	; 255
    3c4c:	01 c0       	rjmp	.+2      	; 0x3c50 <nrk_activate_task+0xa4>
	{
		nrk_task_TCB[Task->task_ID].task_state = READY;
		nrk_add_to_readyQ (Task->task_ID);
	}

	return NRK_OK;
    3c4e:	81 e0       	ldi	r24, 0x01	; 1
}
    3c50:	df 91       	pop	r29
    3c52:	cf 91       	pop	r28
    3c54:	1f 91       	pop	r17
    3c56:	0f 91       	pop	r16
    3c58:	ff 90       	pop	r15
    3c5a:	ef 90       	pop	r14
    3c5c:	08 95       	ret

00003c5e <nrk_set_next_wakeup>:
		_nrk_wait_for_scheduler ();
		return NRK_OK;
}

int8_t nrk_set_next_wakeup (nrk_time_t t)
{
    3c5e:	1f 93       	push	r17
    3c60:	df 93       	push	r29
    3c62:	cf 93       	push	r28
    3c64:	cd b7       	in	r28, 0x3d	; 61
    3c66:	de b7       	in	r29, 0x3e	; 62
    3c68:	28 97       	sbiw	r28, 0x08	; 8
    3c6a:	0f b6       	in	r0, 0x3f	; 63
    3c6c:	f8 94       	cli
    3c6e:	de bf       	out	0x3e, r29	; 62
    3c70:	0f be       	out	0x3f, r0	; 63
    3c72:	cd bf       	out	0x3d, r28	; 61
    3c74:	29 83       	std	Y+1, r18	; 0x01
    3c76:	3a 83       	std	Y+2, r19	; 0x02
    3c78:	4b 83       	std	Y+3, r20	; 0x03
    3c7a:	5c 83       	std	Y+4, r21	; 0x04
    3c7c:	6d 83       	std	Y+5, r22	; 0x05
    3c7e:	7e 83       	std	Y+6, r23	; 0x06
    3c80:	8f 83       	std	Y+7, r24	; 0x07
    3c82:	98 87       	std	Y+8, r25	; 0x08
	uint8_t timer;
	uint16_t nw;
	nrk_int_disable ();
    3c84:	0e 94 60 13 	call	0x26c0	; 0x26c0 <nrk_int_disable>
	timer = _nrk_os_timer_get ();
    3c88:	0e 94 3c 26 	call	0x4c78	; 0x4c78 <_nrk_os_timer_get>
    3c8c:	18 2f       	mov	r17, r24
	nw = _nrk_time_to_ticks (&t);
    3c8e:	ce 01       	movw	r24, r28
    3c90:	01 96       	adiw	r24, 0x01	; 1
    3c92:	0e 94 a3 21 	call	0x4346	; 0x4346 <_nrk_time_to_ticks>
    3c96:	9c 01       	movw	r18, r24
	if (nw <= TIME_PAD)
    3c98:	83 30       	cpi	r24, 0x03	; 3
    3c9a:	91 05       	cpc	r25, r1
    3c9c:	60 f0       	brcs	.+24     	; 0x3cb6 <nrk_set_next_wakeup+0x58>
		return NRK_ERROR;
	nrk_cur_task_TCB->next_wakeup = nw + timer;
    3c9e:	e0 91 d5 07 	lds	r30, 0x07D5
    3ca2:	f0 91 d6 07 	lds	r31, 0x07D6
    3ca6:	21 0f       	add	r18, r17
    3ca8:	31 1d       	adc	r19, r1
    3caa:	36 8b       	std	Z+22, r19	; 0x16
    3cac:	25 8b       	std	Z+21, r18	; 0x15
	_nrk_prev_timer_val=timer;
	_nrk_set_next_wakeup(timer);
	}
	*/
	//      nrk_cur_task_TCB->nw_flag=1;
	nrk_int_enable ();
    3cae:	0e 94 62 13 	call	0x26c4	; 0x26c4 <nrk_int_enable>

	return NRK_OK;
    3cb2:	81 e0       	ldi	r24, 0x01	; 1
    3cb4:	01 c0       	rjmp	.+2      	; 0x3cb8 <nrk_set_next_wakeup+0x5a>
	uint16_t nw;
	nrk_int_disable ();
	timer = _nrk_os_timer_get ();
	nw = _nrk_time_to_ticks (&t);
	if (nw <= TIME_PAD)
		return NRK_ERROR;
    3cb6:	8f ef       	ldi	r24, 0xFF	; 255
	*/
	//      nrk_cur_task_TCB->nw_flag=1;
	nrk_int_enable ();

	return NRK_OK;
}
    3cb8:	28 96       	adiw	r28, 0x08	; 8
    3cba:	0f b6       	in	r0, 0x3f	; 63
    3cbc:	f8 94       	cli
    3cbe:	de bf       	out	0x3e, r29	; 62
    3cc0:	0f be       	out	0x3f, r0	; 63
    3cc2:	cd bf       	out	0x3d, r28	; 61
    3cc4:	cf 91       	pop	r28
    3cc6:	df 91       	pop	r29
    3cc8:	1f 91       	pop	r17
    3cca:	08 95       	ret

00003ccc <_nrk_wait_for_scheduler>:
{

	//TIMSK = BM (OCIE1A);
	do
	{
		nrk_idle ();                // wait for the interrupt to tick... // pdiener: halt CPU here until any interrupt triggers
    3ccc:	0e 94 a8 27 	call	0x4f50	; 0x4f50 <nrk_idle>
	}
	while ((volatile uint8_t) nrk_cur_task_TCB->suspend_flag == 1); // pdiener: make shure that was the right interrupt
    3cd0:	e0 91 d5 07 	lds	r30, 0x07D5
    3cd4:	f0 91 d6 07 	lds	r31, 0x07D6
    3cd8:	85 81       	ldd	r24, Z+5	; 0x05
    3cda:	88 23       	and	r24, r24
    3cdc:	b9 f7       	brne	.-18     	; 0x3ccc <_nrk_wait_for_scheduler>

	//TIMSK = BM (OCIE1A) | BM(OCIE0);
}
    3cde:	08 95       	ret

00003ce0 <nrk_wait>:
		return NRK_OK;
}


int8_t nrk_wait (nrk_time_t t)
{
    3ce0:	ff 92       	push	r15
    3ce2:	0f 93       	push	r16
    3ce4:	1f 93       	push	r17
    3ce6:	df 93       	push	r29
    3ce8:	cf 93       	push	r28
    3cea:	cd b7       	in	r28, 0x3d	; 61
    3cec:	de b7       	in	r29, 0x3e	; 62
    3cee:	28 97       	sbiw	r28, 0x08	; 8
    3cf0:	0f b6       	in	r0, 0x3f	; 63
    3cf2:	f8 94       	cli
    3cf4:	de bf       	out	0x3e, r29	; 62
    3cf6:	0f be       	out	0x3f, r0	; 63
    3cf8:	cd bf       	out	0x3d, r28	; 61
    3cfa:	29 83       	std	Y+1, r18	; 0x01
    3cfc:	3a 83       	std	Y+2, r19	; 0x02
    3cfe:	4b 83       	std	Y+3, r20	; 0x03
    3d00:	5c 83       	std	Y+4, r21	; 0x04
    3d02:	6d 83       	std	Y+5, r22	; 0x05
    3d04:	7e 83       	std	Y+6, r23	; 0x06
    3d06:	8f 83       	std	Y+7, r24	; 0x07
    3d08:	98 87       	std	Y+8, r25	; 0x08
	uint8_t timer;
	uint16_t nw;

	nrk_stack_check ();
    3d0a:	0e 94 92 18 	call	0x3124	; 0x3124 <nrk_stack_check>

	nrk_int_disable ();
    3d0e:	0e 94 60 13 	call	0x26c0	; 0x26c0 <nrk_int_disable>
	nrk_cur_task_TCB->suspend_flag = 1;
    3d12:	e0 91 d5 07 	lds	r30, 0x07D5
    3d16:	f0 91 d6 07 	lds	r31, 0x07D6
    3d1a:	81 e0       	ldi	r24, 0x01	; 1
    3d1c:	85 83       	std	Z+5, r24	; 0x05
	nrk_cur_task_TCB->num_periods = 1;
    3d1e:	81 e0       	ldi	r24, 0x01	; 1
    3d20:	90 e0       	ldi	r25, 0x00	; 0
    3d22:	90 a3       	std	Z+32, r25	; 0x20
    3d24:	87 8f       	std	Z+31, r24	; 0x1f
	timer = _nrk_os_timer_get ();
    3d26:	0e 94 3c 26 	call	0x4c78	; 0x4c78 <_nrk_os_timer_get>
    3d2a:	f8 2e       	mov	r15, r24

	//printf( "t1 %lu %lu\n",t.secs, t.nano_secs/NANOS_PER_MS);

	nw = _nrk_time_to_ticks (&t);
    3d2c:	ce 01       	movw	r24, r28
    3d2e:	01 96       	adiw	r24, 0x01	; 1
    3d30:	0e 94 a3 21 	call	0x4346	; 0x4346 <_nrk_time_to_ticks>
	// printf( "t2 %u %u\r\n",timer, nw);
	nrk_cur_task_TCB->next_wakeup = nw + timer;
    3d34:	e0 91 d5 07 	lds	r30, 0x07D5
    3d38:	f0 91 d6 07 	lds	r31, 0x07D6
    3d3c:	0f 2d       	mov	r16, r15
    3d3e:	10 e0       	ldi	r17, 0x00	; 0
    3d40:	98 01       	movw	r18, r16
    3d42:	28 0f       	add	r18, r24
    3d44:	39 1f       	adc	r19, r25
    3d46:	36 8b       	std	Z+22, r19	; 0x16
    3d48:	25 8b       	std	Z+21, r18	; 0x15
	//printf( "wu %u\n",nrk_cur_task_TCB->next_wakeup );
	if (timer < (MAX_SCHED_WAKEUP_TIME - TIME_PAD))
    3d4a:	8f 2d       	mov	r24, r15
    3d4c:	88 3f       	cpi	r24, 0xF8	; 248
    3d4e:	78 f4       	brcc	.+30     	; 0x3d6e <nrk_wait+0x8e>
	{
		if ((timer + TIME_PAD) <= _nrk_get_next_wakeup ())
    3d50:	0e 94 36 26 	call	0x4c6c	; 0x4c6c <_nrk_get_next_wakeup>
    3d54:	0f 5f       	subi	r16, 0xFF	; 255
    3d56:	1f 4f       	sbci	r17, 0xFF	; 255
    3d58:	28 2f       	mov	r18, r24
    3d5a:	30 e0       	ldi	r19, 0x00	; 0
    3d5c:	02 17       	cp	r16, r18
    3d5e:	13 07       	cpc	r17, r19
    3d60:	34 f4       	brge	.+12     	; 0x3d6e <nrk_wait+0x8e>
		{
			timer += TIME_PAD;
    3d62:	8f 2d       	mov	r24, r15
    3d64:	8e 5f       	subi	r24, 0xFE	; 254
			_nrk_prev_timer_val = timer;
    3d66:	80 93 46 06 	sts	0x0646, r24
			_nrk_set_next_wakeup (timer);
    3d6a:	0e 94 39 26 	call	0x4c72	; 0x4c72 <_nrk_set_next_wakeup>
		}
	}
	nrk_int_enable ();
    3d6e:	0e 94 62 13 	call	0x26c4	; 0x26c4 <nrk_int_enable>

	_nrk_wait_for_scheduler ();
    3d72:	0e 94 66 1e 	call	0x3ccc	; 0x3ccc <_nrk_wait_for_scheduler>
	return NRK_OK;
}
    3d76:	81 e0       	ldi	r24, 0x01	; 1
    3d78:	28 96       	adiw	r28, 0x08	; 8
    3d7a:	0f b6       	in	r0, 0x3f	; 63
    3d7c:	f8 94       	cli
    3d7e:	de bf       	out	0x3e, r29	; 62
    3d80:	0f be       	out	0x3f, r0	; 63
    3d82:	cd bf       	out	0x3d, r28	; 61
    3d84:	cf 91       	pop	r28
    3d86:	df 91       	pop	r29
    3d88:	1f 91       	pop	r17
    3d8a:	0f 91       	pop	r16
    3d8c:	ff 90       	pop	r15
    3d8e:	08 95       	ret

00003d90 <nrk_wait_until_nw>:
* taking into account any task processing time.
*
*/

int8_t nrk_wait_until_nw ()
{
    3d90:	1f 93       	push	r17
	uint8_t timer;
	nrk_int_disable ();
    3d92:	0e 94 60 13 	call	0x26c0	; 0x26c0 <nrk_int_disable>
	nrk_cur_task_TCB->suspend_flag = 1;
    3d96:	e0 91 d5 07 	lds	r30, 0x07D5
    3d9a:	f0 91 d6 07 	lds	r31, 0x07D6
    3d9e:	81 e0       	ldi	r24, 0x01	; 1
    3da0:	85 83       	std	Z+5, r24	; 0x05
	nrk_cur_task_TCB->nw_flag = 1;
    3da2:	86 83       	std	Z+6, r24	; 0x06
	timer = _nrk_os_timer_get ();
    3da4:	0e 94 3c 26 	call	0x4c78	; 0x4c78 <_nrk_os_timer_get>
    3da8:	18 2f       	mov	r17, r24

	if (timer < MAX_SCHED_WAKEUP_TIME - TIME_PAD)
    3daa:	88 3f       	cpi	r24, 0xF8	; 248
    3dac:	88 f4       	brcc	.+34     	; 0x3dd0 <nrk_wait_until_nw+0x40>
		if ((timer + TIME_PAD) <= _nrk_get_next_wakeup ())
    3dae:	0e 94 36 26 	call	0x4c6c	; 0x4c6c <_nrk_get_next_wakeup>
    3db2:	21 2f       	mov	r18, r17
    3db4:	30 e0       	ldi	r19, 0x00	; 0
    3db6:	2f 5f       	subi	r18, 0xFF	; 255
    3db8:	3f 4f       	sbci	r19, 0xFF	; 255
    3dba:	48 2f       	mov	r20, r24
    3dbc:	50 e0       	ldi	r21, 0x00	; 0
    3dbe:	24 17       	cp	r18, r20
    3dc0:	35 07       	cpc	r19, r21
    3dc2:	34 f4       	brge	.+12     	; 0x3dd0 <nrk_wait_until_nw+0x40>
		{
			timer += TIME_PAD;
    3dc4:	81 2f       	mov	r24, r17
    3dc6:	8e 5f       	subi	r24, 0xFE	; 254
			_nrk_prev_timer_val = timer;
    3dc8:	80 93 46 06 	sts	0x0646, r24
			_nrk_set_next_wakeup (timer);
    3dcc:	0e 94 39 26 	call	0x4c72	; 0x4c72 <_nrk_set_next_wakeup>
		}
		//else nrk_cur_task_TCB->next_wakeup=ticks+1;
		nrk_int_enable ();
    3dd0:	0e 94 62 13 	call	0x26c4	; 0x26c4 <nrk_int_enable>
		//while(nrk_cur_task_TCB->suspend_flag==1);
		_nrk_wait_for_scheduler ();
    3dd4:	0e 94 66 1e 	call	0x3ccc	; 0x3ccc <_nrk_wait_for_scheduler>
		return NRK_OK;
}
    3dd8:	81 e0       	ldi	r24, 0x01	; 1
    3dda:	1f 91       	pop	r17
    3ddc:	08 95       	ret

00003dde <nrk_wait_until_ticks>:
* taking into account any task processing time.
*
*/

int8_t nrk_wait_until_ticks (uint16_t ticks)
{
    3dde:	1f 93       	push	r17
    3de0:	cf 93       	push	r28
    3de2:	df 93       	push	r29
    3de4:	ec 01       	movw	r28, r24
	uint8_t timer;
	nrk_int_disable ();
    3de6:	0e 94 60 13 	call	0x26c0	; 0x26c0 <nrk_int_disable>
	nrk_cur_task_TCB->suspend_flag = 1;
    3dea:	e0 91 d5 07 	lds	r30, 0x07D5
    3dee:	f0 91 d6 07 	lds	r31, 0x07D6
    3df2:	81 e0       	ldi	r24, 0x01	; 1
    3df4:	85 83       	std	Z+5, r24	; 0x05
	nrk_cur_task_TCB->next_wakeup = ticks;
    3df6:	d6 8b       	std	Z+22, r29	; 0x16
    3df8:	c5 8b       	std	Z+21, r28	; 0x15
	// printf( "t %u\r\n",ticks );
	timer = _nrk_os_timer_get ();
    3dfa:	0e 94 3c 26 	call	0x4c78	; 0x4c78 <_nrk_os_timer_get>
    3dfe:	18 2f       	mov	r17, r24

	if (timer < MAX_SCHED_WAKEUP_TIME - TIME_PAD)
    3e00:	88 3f       	cpi	r24, 0xF8	; 248
    3e02:	88 f4       	brcc	.+34     	; 0x3e26 <nrk_wait_until_ticks+0x48>
		if ((timer + TIME_PAD) <= _nrk_get_next_wakeup ())
    3e04:	0e 94 36 26 	call	0x4c6c	; 0x4c6c <_nrk_get_next_wakeup>
    3e08:	21 2f       	mov	r18, r17
    3e0a:	30 e0       	ldi	r19, 0x00	; 0
    3e0c:	2f 5f       	subi	r18, 0xFF	; 255
    3e0e:	3f 4f       	sbci	r19, 0xFF	; 255
    3e10:	48 2f       	mov	r20, r24
    3e12:	50 e0       	ldi	r21, 0x00	; 0
    3e14:	24 17       	cp	r18, r20
    3e16:	35 07       	cpc	r19, r21
    3e18:	34 f4       	brge	.+12     	; 0x3e26 <nrk_wait_until_ticks+0x48>
		{
			timer += TIME_PAD;
    3e1a:	81 2f       	mov	r24, r17
    3e1c:	8e 5f       	subi	r24, 0xFE	; 254
			_nrk_prev_timer_val = timer;
    3e1e:	80 93 46 06 	sts	0x0646, r24
			_nrk_set_next_wakeup (timer);
    3e22:	0e 94 39 26 	call	0x4c72	; 0x4c72 <_nrk_set_next_wakeup>
		}
		//else nrk_cur_task_TCB->next_wakeup=ticks+1;
		nrk_int_enable ();
    3e26:	0e 94 62 13 	call	0x26c4	; 0x26c4 <nrk_int_enable>
		//while(nrk_cur_task_TCB->suspend_flag==1);
		_nrk_wait_for_scheduler ();
    3e2a:	0e 94 66 1e 	call	0x3ccc	; 0x3ccc <_nrk_wait_for_scheduler>
		return NRK_OK;
}
    3e2e:	81 e0       	ldi	r24, 0x01	; 1
    3e30:	df 91       	pop	r29
    3e32:	cf 91       	pop	r28
    3e34:	1f 91       	pop	r17
    3e36:	08 95       	ret

00003e38 <nrk_wait_ticks>:
* timer ticks after the curret OS tick timer.
*
*/

int8_t nrk_wait_ticks (uint16_t ticks)
{
    3e38:	ef 92       	push	r14
    3e3a:	ff 92       	push	r15
    3e3c:	0f 93       	push	r16
    3e3e:	1f 93       	push	r17
    3e40:	df 93       	push	r29
    3e42:	cf 93       	push	r28
    3e44:	0f 92       	push	r0
    3e46:	cd b7       	in	r28, 0x3d	; 61
    3e48:	de b7       	in	r29, 0x3e	; 62
    3e4a:	8c 01       	movw	r16, r24
	uint8_t timer;
	nrk_int_disable ();
    3e4c:	0e 94 60 13 	call	0x26c0	; 0x26c0 <nrk_int_disable>
	nrk_cur_task_TCB->suspend_flag = 1;
    3e50:	e0 91 d5 07 	lds	r30, 0x07D5
    3e54:	f0 91 d6 07 	lds	r31, 0x07D6
    3e58:	81 e0       	ldi	r24, 0x01	; 1
    3e5a:	85 83       	std	Z+5, r24	; 0x05
	timer = _nrk_os_timer_get ();
    3e5c:	0e 94 3c 26 	call	0x4c78	; 0x4c78 <_nrk_os_timer_get>
	nrk_cur_task_TCB->next_wakeup = ticks + timer;
    3e60:	e0 91 d5 07 	lds	r30, 0x07D5
    3e64:	f0 91 d6 07 	lds	r31, 0x07D6
    3e68:	e8 2e       	mov	r14, r24
    3e6a:	ff 24       	eor	r15, r15
    3e6c:	0e 0d       	add	r16, r14
    3e6e:	1f 1d       	adc	r17, r15
    3e70:	16 8b       	std	Z+22, r17	; 0x16
    3e72:	05 8b       	std	Z+21, r16	; 0x15

	if (timer < MAX_SCHED_WAKEUP_TIME - TIME_PAD)
    3e74:	88 3f       	cpi	r24, 0xF8	; 248
    3e76:	90 f4       	brcc	.+36     	; 0x3e9c <nrk_wait_ticks+0x64>
		if ((timer + TIME_PAD) <= _nrk_get_next_wakeup ())
    3e78:	89 83       	std	Y+1, r24	; 0x01
    3e7a:	0e 94 36 26 	call	0x4c6c	; 0x4c6c <_nrk_get_next_wakeup>
    3e7e:	08 94       	sec
    3e80:	e1 1c       	adc	r14, r1
    3e82:	f1 1c       	adc	r15, r1
    3e84:	28 2f       	mov	r18, r24
    3e86:	30 e0       	ldi	r19, 0x00	; 0
    3e88:	99 81       	ldd	r25, Y+1	; 0x01
    3e8a:	e2 16       	cp	r14, r18
    3e8c:	f3 06       	cpc	r15, r19
    3e8e:	34 f4       	brge	.+12     	; 0x3e9c <nrk_wait_ticks+0x64>
		{
			timer += TIME_PAD;
    3e90:	89 2f       	mov	r24, r25
    3e92:	8e 5f       	subi	r24, 0xFE	; 254
			_nrk_prev_timer_val = timer;
    3e94:	80 93 46 06 	sts	0x0646, r24
			_nrk_set_next_wakeup (timer);
    3e98:	0e 94 39 26 	call	0x4c72	; 0x4c72 <_nrk_set_next_wakeup>
		}
		//else nrk_cur_task_TCB->next_wakeup=ticks+1;
		nrk_int_enable ();
    3e9c:	0e 94 62 13 	call	0x26c4	; 0x26c4 <nrk_int_enable>
		//while(nrk_cur_task_TCB->suspend_flag==1);
		_nrk_wait_for_scheduler ();
    3ea0:	0e 94 66 1e 	call	0x3ccc	; 0x3ccc <_nrk_wait_for_scheduler>
		return NRK_OK;
}
    3ea4:	81 e0       	ldi	r24, 0x01	; 1
    3ea6:	0f 90       	pop	r0
    3ea8:	cf 91       	pop	r28
    3eaa:	df 91       	pop	r29
    3eac:	1f 91       	pop	r17
    3eae:	0f 91       	pop	r16
    3eb0:	ff 90       	pop	r15
    3eb2:	ef 90       	pop	r14
    3eb4:	08 95       	ret

00003eb6 <nrk_wait_until_next_n_periods>:
		_nrk_wait_for_scheduler ();
		return NRK_OK;
}

int8_t nrk_wait_until_next_n_periods (uint16_t p)
{
    3eb6:	1f 93       	push	r17
    3eb8:	cf 93       	push	r28
    3eba:	df 93       	push	r29
    3ebc:	ec 01       	movw	r28, r24
	uint8_t timer;

	nrk_stack_check ();
    3ebe:	0e 94 92 18 	call	0x3124	; 0x3124 <nrk_stack_check>

	if (p == 0)
    3ec2:	20 97       	sbiw	r28, 0x00	; 0
    3ec4:	11 f4       	brne	.+4      	; 0x3eca <nrk_wait_until_next_n_periods+0x14>
		p = 1;
    3ec6:	c1 e0       	ldi	r28, 0x01	; 1
    3ec8:	d0 e0       	ldi	r29, 0x00	; 0
	// Next Period Wakeup Time is Set inside scheduler when a task becomes Runnable
	nrk_int_disable ();
    3eca:	0e 94 60 13 	call	0x26c0	; 0x26c0 <nrk_int_disable>
	nrk_cur_task_TCB->suspend_flag = 1;
    3ece:	e0 91 d5 07 	lds	r30, 0x07D5
    3ed2:	f0 91 d6 07 	lds	r31, 0x07D6
    3ed6:	81 e0       	ldi	r24, 0x01	; 1
    3ed8:	85 83       	std	Z+5, r24	; 0x05
	nrk_cur_task_TCB->num_periods = p;
    3eda:	d0 a3       	std	Z+32, r29	; 0x20
    3edc:	c7 8f       	std	Z+31, r28	; 0x1f
	timer = _nrk_os_timer_get ();
    3ede:	0e 94 3c 26 	call	0x4c78	; 0x4c78 <_nrk_os_timer_get>
    3ee2:	18 2f       	mov	r17, r24

	//nrk_cur_task_TCB->cpu_remaining=_nrk_prev_timer_val+1;

	// +2 allows for potential time conflict resolution
	if (timer < (MAX_SCHED_WAKEUP_TIME - TIME_PAD))       // 254 8bit overflow point - 2
    3ee4:	88 3f       	cpi	r24, 0xF8	; 248
    3ee6:	88 f4       	brcc	.+34     	; 0x3f0a <nrk_wait_until_next_n_periods+0x54>
		if ((timer + TIME_PAD) <= _nrk_get_next_wakeup ())
    3ee8:	0e 94 36 26 	call	0x4c6c	; 0x4c6c <_nrk_get_next_wakeup>
    3eec:	21 2f       	mov	r18, r17
    3eee:	30 e0       	ldi	r19, 0x00	; 0
    3ef0:	2f 5f       	subi	r18, 0xFF	; 255
    3ef2:	3f 4f       	sbci	r19, 0xFF	; 255
    3ef4:	48 2f       	mov	r20, r24
    3ef6:	50 e0       	ldi	r21, 0x00	; 0
    3ef8:	24 17       	cp	r18, r20
    3efa:	35 07       	cpc	r19, r21
    3efc:	34 f4       	brge	.+12     	; 0x3f0a <nrk_wait_until_next_n_periods+0x54>
		{
			timer += TIME_PAD;
    3efe:	81 2f       	mov	r24, r17
    3f00:	8e 5f       	subi	r24, 0xFE	; 254
			_nrk_prev_timer_val = timer;
    3f02:	80 93 46 06 	sts	0x0646, r24
			_nrk_set_next_wakeup (timer);                 // pdiener: Set next wakeup to NOW
    3f06:	0e 94 39 26 	call	0x4c72	; 0x4c72 <_nrk_set_next_wakeup>
		}

		nrk_int_enable ();
    3f0a:	0e 94 62 13 	call	0x26c4	; 0x26c4 <nrk_int_enable>
		_nrk_wait_for_scheduler ();
    3f0e:	0e 94 66 1e 	call	0x3ccc	; 0x3ccc <_nrk_wait_for_scheduler>
		return NRK_OK;
}
    3f12:	81 e0       	ldi	r24, 0x01	; 1
    3f14:	df 91       	pop	r29
    3f16:	cf 91       	pop	r28
    3f18:	1f 91       	pop	r17
    3f1a:	08 95       	ret

00003f1c <nrk_wait_until_next_period>:
	nrk_wait_until_next_period ();
	return NRK_OK;
}

int8_t nrk_wait_until_next_period ()
{
    3f1c:	1f 93       	push	r17
	uint8_t timer;

	nrk_stack_check ();
    3f1e:	0e 94 92 18 	call	0x3124	; 0x3124 <nrk_stack_check>
	// Next Period Wakeup Time is Set inside scheduler when a task becomes Runnable
	nrk_int_disable ();
    3f22:	0e 94 60 13 	call	0x26c0	; 0x26c0 <nrk_int_disable>
	nrk_cur_task_TCB->num_periods = 1;
    3f26:	e0 91 d5 07 	lds	r30, 0x07D5
    3f2a:	f0 91 d6 07 	lds	r31, 0x07D6
    3f2e:	81 e0       	ldi	r24, 0x01	; 1
    3f30:	90 e0       	ldi	r25, 0x00	; 0
    3f32:	90 a3       	std	Z+32, r25	; 0x20
    3f34:	87 8f       	std	Z+31, r24	; 0x1f
	nrk_cur_task_TCB->suspend_flag = 1;
    3f36:	81 e0       	ldi	r24, 0x01	; 1
    3f38:	85 83       	std	Z+5, r24	; 0x05
	timer = _nrk_os_timer_get ();
    3f3a:	0e 94 3c 26 	call	0x4c78	; 0x4c78 <_nrk_os_timer_get>
    3f3e:	18 2f       	mov	r17, r24

	//nrk_cur_task_TCB->cpu_remaining=_nrk_prev_timer_val+1;

	if (timer < (MAX_SCHED_WAKEUP_TIME - TIME_PAD))
    3f40:	88 3f       	cpi	r24, 0xF8	; 248
    3f42:	88 f4       	brcc	.+34     	; 0x3f66 <nrk_wait_until_next_period+0x4a>
		if ((timer + TIME_PAD) <= _nrk_get_next_wakeup ())
    3f44:	0e 94 36 26 	call	0x4c6c	; 0x4c6c <_nrk_get_next_wakeup>
    3f48:	21 2f       	mov	r18, r17
    3f4a:	30 e0       	ldi	r19, 0x00	; 0
    3f4c:	2f 5f       	subi	r18, 0xFF	; 255
    3f4e:	3f 4f       	sbci	r19, 0xFF	; 255
    3f50:	48 2f       	mov	r20, r24
    3f52:	50 e0       	ldi	r21, 0x00	; 0
    3f54:	24 17       	cp	r18, r20
    3f56:	35 07       	cpc	r19, r21
    3f58:	34 f4       	brge	.+12     	; 0x3f66 <nrk_wait_until_next_period+0x4a>
		{
			timer += TIME_PAD;
    3f5a:	81 2f       	mov	r24, r17
    3f5c:	8e 5f       	subi	r24, 0xFE	; 254
			_nrk_prev_timer_val = timer;                  // pdiener: why is this only set in this special case?
    3f5e:	80 93 46 06 	sts	0x0646, r24
			_nrk_set_next_wakeup (timer);                 // pdiener: Set next wakeup to NOW
    3f62:	0e 94 39 26 	call	0x4c72	; 0x4c72 <_nrk_set_next_wakeup>
		}

		nrk_int_enable ();
    3f66:	0e 94 62 13 	call	0x26c4	; 0x26c4 <nrk_int_enable>
		_nrk_wait_for_scheduler ();
    3f6a:	0e 94 66 1e 	call	0x3ccc	; 0x3ccc <_nrk_wait_for_scheduler>
		return NRK_OK;
}
    3f6e:	81 e0       	ldi	r24, 0x01	; 1
    3f70:	1f 91       	pop	r17
    3f72:	08 95       	ret

00003f74 <nrk_terminate_task>:



nrk_status_t nrk_terminate_task ()
{
	nrk_rem_from_readyQ (nrk_cur_task_TCB->task_ID);
    3f74:	e0 91 d5 07 	lds	r30, 0x07D5
    3f78:	f0 91 d6 07 	lds	r31, 0x07D6
    3f7c:	80 85       	ldd	r24, Z+8	; 0x08
    3f7e:	0e 94 86 1d 	call	0x3b0c	; 0x3b0c <nrk_rem_from_readyQ>
	nrk_cur_task_TCB->task_state = FINISHED;
    3f82:	e0 91 d5 07 	lds	r30, 0x07D5
    3f86:	f0 91 d6 07 	lds	r31, 0x07D6
    3f8a:	84 e0       	ldi	r24, 0x04	; 4
    3f8c:	81 87       	std	Z+9, r24	; 0x09

	// HAHA, there is NO next period...
	nrk_wait_until_next_period ();
    3f8e:	0e 94 8e 1f 	call	0x3f1c	; 0x3f1c <nrk_wait_until_next_period>
	return NRK_OK;
}
    3f92:	81 e0       	ldi	r24, 0x01	; 1
    3f94:	08 95       	ret

00003f96 <nrk_wait_until>:
	//TIMSK = BM (OCIE1A) | BM(OCIE0);
}


int8_t nrk_wait_until (nrk_time_t t)
{
    3f96:	8f 92       	push	r8
    3f98:	9f 92       	push	r9
    3f9a:	af 92       	push	r10
    3f9c:	bf 92       	push	r11
    3f9e:	cf 92       	push	r12
    3fa0:	df 92       	push	r13
    3fa2:	ef 92       	push	r14
    3fa4:	ff 92       	push	r15
    3fa6:	0f 93       	push	r16
    3fa8:	1f 93       	push	r17
    3faa:	df 93       	push	r29
    3fac:	cf 93       	push	r28
    3fae:	cd b7       	in	r28, 0x3d	; 61
    3fb0:	de b7       	in	r29, 0x3e	; 62
    3fb2:	60 97       	sbiw	r28, 0x10	; 16
    3fb4:	0f b6       	in	r0, 0x3f	; 63
    3fb6:	f8 94       	cli
    3fb8:	de bf       	out	0x3e, r29	; 62
    3fba:	0f be       	out	0x3f, r0	; 63
    3fbc:	cd bf       	out	0x3d, r28	; 61
    3fbe:	29 87       	std	Y+9, r18	; 0x09
    3fc0:	3a 87       	std	Y+10, r19	; 0x0a
    3fc2:	4b 87       	std	Y+11, r20	; 0x0b
    3fc4:	5c 87       	std	Y+12, r21	; 0x0c
    3fc6:	6d 87       	std	Y+13, r22	; 0x0d
    3fc8:	7e 87       	std	Y+14, r23	; 0x0e
    3fca:	8f 87       	std	Y+15, r24	; 0x0f
    3fcc:	98 8b       	std	Y+16, r25	; 0x10
	//c = _nrk_os_timer_get ();
	//do{
	//}while(_nrk_os_timer_get()==c);

	//ttt=c+1;
	nrk_time_get (&ct);
    3fce:	ce 01       	movw	r24, r28
    3fd0:	01 96       	adiw	r24, 0x01	; 1
    3fd2:	0e 94 27 20 	call	0x404e	; 0x404e <nrk_time_get>

	v = nrk_time_sub (&t, t, ct);
    3fd6:	ce 01       	movw	r24, r28
    3fd8:	09 96       	adiw	r24, 0x09	; 9
    3fda:	09 85       	ldd	r16, Y+9	; 0x09
    3fdc:	1a 85       	ldd	r17, Y+10	; 0x0a
    3fde:	2b 85       	ldd	r18, Y+11	; 0x0b
    3fe0:	3c 85       	ldd	r19, Y+12	; 0x0c
    3fe2:	4d 85       	ldd	r20, Y+13	; 0x0d
    3fe4:	5e 85       	ldd	r21, Y+14	; 0x0e
    3fe6:	6f 85       	ldd	r22, Y+15	; 0x0f
    3fe8:	78 89       	ldd	r23, Y+16	; 0x10
    3fea:	89 80       	ldd	r8, Y+1	; 0x01
    3fec:	9a 80       	ldd	r9, Y+2	; 0x02
    3fee:	ab 80       	ldd	r10, Y+3	; 0x03
    3ff0:	bc 80       	ldd	r11, Y+4	; 0x04
    3ff2:	cd 80       	ldd	r12, Y+5	; 0x05
    3ff4:	de 80       	ldd	r13, Y+6	; 0x06
    3ff6:	ef 80       	ldd	r14, Y+7	; 0x07
    3ff8:	f8 84       	ldd	r15, Y+8	; 0x08
    3ffa:	0e 94 85 20 	call	0x410a	; 0x410a <nrk_time_sub>
	//nrk_time_compact_nanos(&t);
	if (v == NRK_ERROR)
    3ffe:	8f 3f       	cpi	r24, 0xFF	; 255
    4000:	61 f0       	breq	.+24     	; 0x401a <nrk_wait_until+0x84>
	//if(t.secs==ct.secs && t.nano_secs<ct.nano_secs) return 0;

	//t.secs-=ct.secs;
	//t.nano_secs-=ct.nano_secs;
	//
	nrk_wait (t);
    4002:	29 85       	ldd	r18, Y+9	; 0x09
    4004:	3a 85       	ldd	r19, Y+10	; 0x0a
    4006:	4b 85       	ldd	r20, Y+11	; 0x0b
    4008:	5c 85       	ldd	r21, Y+12	; 0x0c
    400a:	6d 85       	ldd	r22, Y+13	; 0x0d
    400c:	7e 85       	ldd	r23, Y+14	; 0x0e
    400e:	8f 85       	ldd	r24, Y+15	; 0x0f
    4010:	98 89       	ldd	r25, Y+16	; 0x10
    4012:	0e 94 70 1e 	call	0x3ce0	; 0x3ce0 <nrk_wait>

	return NRK_OK;
    4016:	81 e0       	ldi	r24, 0x01	; 1
    4018:	01 c0       	rjmp	.+2      	; 0x401c <nrk_wait_until+0x86>

	v = nrk_time_sub (&t, t, ct);
	//nrk_time_compact_nanos(&t);
	if (v == NRK_ERROR)
	{
		return NRK_ERROR;
    401a:	8f ef       	ldi	r24, 0xFF	; 255
	//t.nano_secs-=ct.nano_secs;
	//
	nrk_wait (t);

	return NRK_OK;
}
    401c:	60 96       	adiw	r28, 0x10	; 16
    401e:	0f b6       	in	r0, 0x3f	; 63
    4020:	f8 94       	cli
    4022:	de bf       	out	0x3e, r29	; 62
    4024:	0f be       	out	0x3f, r0	; 63
    4026:	cd bf       	out	0x3d, r28	; 61
    4028:	cf 91       	pop	r28
    402a:	df 91       	pop	r29
    402c:	1f 91       	pop	r17
    402e:	0f 91       	pop	r16
    4030:	ff 90       	pop	r15
    4032:	ef 90       	pop	r14
    4034:	df 90       	pop	r13
    4036:	cf 90       	pop	r12
    4038:	bf 90       	pop	r11
    403a:	af 90       	pop	r10
    403c:	9f 90       	pop	r9
    403e:	8f 90       	pop	r8
    4040:	08 95       	ret

00004042 <nrk_get_pid>:


uint8_t nrk_get_pid ()
{
	return nrk_cur_task_TCB->task_ID;
    4042:	e0 91 d5 07 	lds	r30, 0x07D5
    4046:	f0 91 d6 07 	lds	r31, 0x07D6
}
    404a:	80 85       	ldd	r24, Z+8	; 0x08
    404c:	08 95       	ret

0000404e <nrk_time_get>:
#include <nrk.h>
#include <nrk_timer.h>
#include <nrk_error.h>

void nrk_time_get(nrk_time_t *t)
{
    404e:	ef 92       	push	r14
    4050:	ff 92       	push	r15
    4052:	0f 93       	push	r16
    4054:	1f 93       	push	r17
    4056:	cf 93       	push	r28
    4058:	df 93       	push	r29
    405a:	ec 01       	movw	r28, r24
 //t->nano_secs=(((uint32_t)_nrk_precision_os_timer_get()%PRECISION_TICKS_PER_TICK)*(uint32_t)NANOS_PER_PRECISION_TICK);
#ifdef NRK_SUB_TICK_TIMING
       	t->nano_secs=(((uint32_t)_nrk_precision_os_timer_get())*(uint32_t)NANOS_PER_PRECISION_TICK);
#else
       	t->nano_secs=0;
    405c:	1c 82       	std	Y+4, r1	; 0x04
    405e:	1d 82       	std	Y+5, r1	; 0x05
    4060:	1e 82       	std	Y+6, r1	; 0x06
    4062:	1f 82       	std	Y+7, r1	; 0x07

#endif

 t->secs=nrk_system_time.secs;
    4064:	80 91 cc 07 	lds	r24, 0x07CC
    4068:	90 91 cd 07 	lds	r25, 0x07CD
    406c:	a0 91 ce 07 	lds	r26, 0x07CE
    4070:	b0 91 cf 07 	lds	r27, 0x07CF
    4074:	88 83       	st	Y, r24
    4076:	99 83       	std	Y+1, r25	; 0x01
    4078:	aa 83       	std	Y+2, r26	; 0x02
    407a:	bb 83       	std	Y+3, r27	; 0x03
 t->nano_secs+=nrk_system_time.nano_secs;
    407c:	e0 90 d0 07 	lds	r14, 0x07D0
    4080:	f0 90 d1 07 	lds	r15, 0x07D1
    4084:	00 91 d2 07 	lds	r16, 0x07D2
    4088:	10 91 d3 07 	lds	r17, 0x07D3
    408c:	ec 82       	std	Y+4, r14	; 0x04
    408e:	fd 82       	std	Y+5, r15	; 0x05
    4090:	0e 83       	std	Y+6, r16	; 0x06
    4092:	1f 83       	std	Y+7, r17	; 0x07
   
   t->nano_secs+=((uint32_t)_nrk_os_timer_get()*(uint32_t)NANOS_PER_TICK);
    4094:	0e 94 3c 26 	call	0x4c78	; 0x4c78 <_nrk_os_timer_get>
    4098:	68 2f       	mov	r22, r24
    409a:	70 e0       	ldi	r23, 0x00	; 0
    409c:	80 e0       	ldi	r24, 0x00	; 0
    409e:	90 e0       	ldi	r25, 0x00	; 0
    40a0:	23 eb       	ldi	r18, 0xB3	; 179
    40a2:	36 ee       	ldi	r19, 0xE6	; 230
    40a4:	4e e0       	ldi	r20, 0x0E	; 14
    40a6:	50 e0       	ldi	r21, 0x00	; 0
    40a8:	0e 94 08 41 	call	0x8210	; 0x8210 <__mulsi3>
    40ac:	6e 0d       	add	r22, r14
    40ae:	7f 1d       	adc	r23, r15
    40b0:	80 1f       	adc	r24, r16
    40b2:	91 1f       	adc	r25, r17
    40b4:	6c 83       	std	Y+4, r22	; 0x04
    40b6:	7d 83       	std	Y+5, r23	; 0x05
    40b8:	8e 83       	std	Y+6, r24	; 0x06
    40ba:	9f 83       	std	Y+7, r25	; 0x07
  

    while(t->nano_secs>=(uint32_t)NANOS_PER_SEC)
    40bc:	13 c0       	rjmp	.+38     	; 0x40e4 <nrk_time_get+0x96>
    {
    t->nano_secs-=(uint32_t)NANOS_PER_SEC;
    40be:	80 50       	subi	r24, 0x00	; 0
    40c0:	9a 4c       	sbci	r25, 0xCA	; 202
    40c2:	aa 49       	sbci	r26, 0x9A	; 154
    40c4:	bb 43       	sbci	r27, 0x3B	; 59
    40c6:	8c 83       	std	Y+4, r24	; 0x04
    40c8:	9d 83       	std	Y+5, r25	; 0x05
    40ca:	ae 83       	std	Y+6, r26	; 0x06
    40cc:	bf 83       	std	Y+7, r27	; 0x07
    t->secs++;
    40ce:	88 81       	ld	r24, Y
    40d0:	99 81       	ldd	r25, Y+1	; 0x01
    40d2:	aa 81       	ldd	r26, Y+2	; 0x02
    40d4:	bb 81       	ldd	r27, Y+3	; 0x03
    40d6:	01 96       	adiw	r24, 0x01	; 1
    40d8:	a1 1d       	adc	r26, r1
    40da:	b1 1d       	adc	r27, r1
    40dc:	88 83       	st	Y, r24
    40de:	99 83       	std	Y+1, r25	; 0x01
    40e0:	aa 83       	std	Y+2, r26	; 0x02
    40e2:	bb 83       	std	Y+3, r27	; 0x03
 t->nano_secs+=nrk_system_time.nano_secs;
   
   t->nano_secs+=((uint32_t)_nrk_os_timer_get()*(uint32_t)NANOS_PER_TICK);
  

    while(t->nano_secs>=(uint32_t)NANOS_PER_SEC)
    40e4:	8c 81       	ldd	r24, Y+4	; 0x04
    40e6:	9d 81       	ldd	r25, Y+5	; 0x05
    40e8:	ae 81       	ldd	r26, Y+6	; 0x06
    40ea:	bf 81       	ldd	r27, Y+7	; 0x07
    40ec:	80 30       	cpi	r24, 0x00	; 0
    40ee:	2a ec       	ldi	r18, 0xCA	; 202
    40f0:	92 07       	cpc	r25, r18
    40f2:	2a e9       	ldi	r18, 0x9A	; 154
    40f4:	a2 07       	cpc	r26, r18
    40f6:	2b e3       	ldi	r18, 0x3B	; 59
    40f8:	b2 07       	cpc	r27, r18
    40fa:	08 f7       	brcc	.-62     	; 0x40be <nrk_time_get+0x70>
    {
    t->nano_secs-=(uint32_t)NANOS_PER_SEC;
    t->secs++;
    }

}
    40fc:	df 91       	pop	r29
    40fe:	cf 91       	pop	r28
    4100:	1f 91       	pop	r17
    4102:	0f 91       	pop	r16
    4104:	ff 90       	pop	r15
    4106:	ef 90       	pop	r14
    4108:	08 95       	ret

0000410a <nrk_time_sub>:
/*
 * result = high-low
 *
 */
int8_t nrk_time_sub(nrk_time_t *result,nrk_time_t high, nrk_time_t low)
{
    410a:	8f 92       	push	r8
    410c:	9f 92       	push	r9
    410e:	af 92       	push	r10
    4110:	bf 92       	push	r11
    4112:	cf 92       	push	r12
    4114:	df 92       	push	r13
    4116:	ef 92       	push	r14
    4118:	ff 92       	push	r15
    411a:	0f 93       	push	r16
    411c:	1f 93       	push	r17
    411e:	df 93       	push	r29
    4120:	cf 93       	push	r28
    4122:	cd b7       	in	r28, 0x3d	; 61
    4124:	de b7       	in	r29, 0x3e	; 62
    4126:	60 97       	sbiw	r28, 0x10	; 16
    4128:	0f b6       	in	r0, 0x3f	; 63
    412a:	f8 94       	cli
    412c:	de bf       	out	0x3e, r29	; 62
    412e:	0f be       	out	0x3f, r0	; 63
    4130:	cd bf       	out	0x3d, r28	; 61
    4132:	fc 01       	movw	r30, r24
    4134:	09 83       	std	Y+1, r16	; 0x01
    4136:	1a 83       	std	Y+2, r17	; 0x02
    4138:	2b 83       	std	Y+3, r18	; 0x03
    413a:	3c 83       	std	Y+4, r19	; 0x04
    413c:	4d 83       	std	Y+5, r20	; 0x05
    413e:	5e 83       	std	Y+6, r21	; 0x06
    4140:	6f 83       	std	Y+7, r22	; 0x07
    4142:	78 87       	std	Y+8, r23	; 0x08
    4144:	89 86       	std	Y+9, r8	; 0x09
    4146:	9a 86       	std	Y+10, r9	; 0x0a
    4148:	ab 86       	std	Y+11, r10	; 0x0b
    414a:	bc 86       	std	Y+12, r11	; 0x0c
    414c:	cd 86       	std	Y+13, r12	; 0x0d
    414e:	de 86       	std	Y+14, r13	; 0x0e
    4150:	ef 86       	std	Y+15, r14	; 0x0f
    4152:	f8 8a       	std	Y+16, r15	; 0x10
	return NRK_OK;
}

result->secs=high.secs-low.secs;
result->nano_secs=high.nano_secs-low.nano_secs;
return NRK_OK;
    4154:	e9 80       	ldd	r14, Y+1	; 0x01
    4156:	fa 80       	ldd	r15, Y+2	; 0x02
    4158:	0b 81       	ldd	r16, Y+3	; 0x03
    415a:	1c 81       	ldd	r17, Y+4	; 0x04
    415c:	2d 81       	ldd	r18, Y+5	; 0x05
    415e:	3e 81       	ldd	r19, Y+6	; 0x06
    4160:	4f 81       	ldd	r20, Y+7	; 0x07
    4162:	58 85       	ldd	r21, Y+8	; 0x08
    4164:	a9 84       	ldd	r10, Y+9	; 0x09
    4166:	ba 84       	ldd	r11, Y+10	; 0x0a
    4168:	cb 84       	ldd	r12, Y+11	; 0x0b
    416a:	dc 84       	ldd	r13, Y+12	; 0x0c
    416c:	8d 85       	ldd	r24, Y+13	; 0x0d
    416e:	9e 85       	ldd	r25, Y+14	; 0x0e
    4170:	af 85       	ldd	r26, Y+15	; 0x0f
    4172:	b8 89       	ldd	r27, Y+16	; 0x10
 * result = high-low
 *
 */
int8_t nrk_time_sub(nrk_time_t *result,nrk_time_t high, nrk_time_t low)
{
if(high.secs<low.secs) return NRK_ERROR; 
    4174:	ea 14       	cp	r14, r10
    4176:	fb 04       	cpc	r15, r11
    4178:	0c 05       	cpc	r16, r12
    417a:	1d 05       	cpc	r17, r13
    417c:	08 f4       	brcc	.+2      	; 0x4180 <nrk_time_sub+0x76>
    417e:	40 c0       	rjmp	.+128    	; 0x4200 <nrk_time_sub+0xf6>
if(low.secs==high.secs)
    4180:	ae 14       	cp	r10, r14
    4182:	bf 04       	cpc	r11, r15
    4184:	c0 06       	cpc	r12, r16
    4186:	d1 06       	cpc	r13, r17
    4188:	91 f4       	brne	.+36     	; 0x41ae <nrk_time_sub+0xa4>
	{
	if((uint32_t)low.nano_secs>(uint32_t)high.nano_secs)  return NRK_ERROR;  
    418a:	28 17       	cp	r18, r24
    418c:	39 07       	cpc	r19, r25
    418e:	4a 07       	cpc	r20, r26
    4190:	5b 07       	cpc	r21, r27
    4192:	b0 f1       	brcs	.+108    	; 0x4200 <nrk_time_sub+0xf6>
	result->nano_secs=(uint32_t)high.nano_secs-(uint32_t)low.nano_secs;
    4194:	28 1b       	sub	r18, r24
    4196:	39 0b       	sbc	r19, r25
    4198:	4a 0b       	sbc	r20, r26
    419a:	5b 0b       	sbc	r21, r27
    419c:	24 83       	std	Z+4, r18	; 0x04
    419e:	35 83       	std	Z+5, r19	; 0x05
    41a0:	46 83       	std	Z+6, r20	; 0x06
    41a2:	57 83       	std	Z+7, r21	; 0x07
	result->secs=0;
    41a4:	10 82       	st	Z, r1
    41a6:	11 82       	std	Z+1, r1	; 0x01
    41a8:	12 82       	std	Z+2, r1	; 0x02
    41aa:	13 82       	std	Z+3, r1	; 0x03
    41ac:	27 c0       	rjmp	.+78     	; 0x41fc <nrk_time_sub+0xf2>
	return NRK_OK;
	}
if(low.nano_secs > high.nano_secs)
    41ae:	28 17       	cp	r18, r24
    41b0:	39 07       	cpc	r19, r25
    41b2:	4a 07       	cpc	r20, r26
    41b4:	5b 07       	cpc	r21, r27
    41b6:	90 f4       	brcc	.+36     	; 0x41dc <nrk_time_sub+0xd2>
{
	high.secs--;
    41b8:	08 94       	sec
    41ba:	e1 08       	sbc	r14, r1
    41bc:	f1 08       	sbc	r15, r1
    41be:	01 09       	sbc	r16, r1
    41c0:	11 09       	sbc	r17, r1
	high.nano_secs+=(uint32_t)NANOS_PER_SEC;
	result->secs=high.secs-low.secs;
    41c2:	ea 18       	sub	r14, r10
    41c4:	fb 08       	sbc	r15, r11
    41c6:	0c 09       	sbc	r16, r12
    41c8:	1d 09       	sbc	r17, r13
    41ca:	e0 82       	st	Z, r14
    41cc:	f1 82       	std	Z+1, r15	; 0x01
    41ce:	02 83       	std	Z+2, r16	; 0x02
    41d0:	13 83       	std	Z+3, r17	; 0x03
	return NRK_OK;
	}
if(low.nano_secs > high.nano_secs)
{
	high.secs--;
	high.nano_secs+=(uint32_t)NANOS_PER_SEC;
    41d2:	20 50       	subi	r18, 0x00	; 0
    41d4:	36 43       	sbci	r19, 0x36	; 54
    41d6:	45 46       	sbci	r20, 0x65	; 101
    41d8:	54 4c       	sbci	r21, 0xC4	; 196
    41da:	08 c0       	rjmp	.+16     	; 0x41ec <nrk_time_sub+0xe2>
	result->secs=high.secs-low.secs;
	result->nano_secs=high.nano_secs-low.nano_secs;
	return NRK_OK;
}

result->secs=high.secs-low.secs;
    41dc:	ea 18       	sub	r14, r10
    41de:	fb 08       	sbc	r15, r11
    41e0:	0c 09       	sbc	r16, r12
    41e2:	1d 09       	sbc	r17, r13
    41e4:	e0 82       	st	Z, r14
    41e6:	f1 82       	std	Z+1, r15	; 0x01
    41e8:	02 83       	std	Z+2, r16	; 0x02
    41ea:	13 83       	std	Z+3, r17	; 0x03
result->nano_secs=high.nano_secs-low.nano_secs;
    41ec:	28 1b       	sub	r18, r24
    41ee:	39 0b       	sbc	r19, r25
    41f0:	4a 0b       	sbc	r20, r26
    41f2:	5b 0b       	sbc	r21, r27
    41f4:	24 83       	std	Z+4, r18	; 0x04
    41f6:	35 83       	std	Z+5, r19	; 0x05
    41f8:	46 83       	std	Z+6, r20	; 0x06
    41fa:	57 83       	std	Z+7, r21	; 0x07
return NRK_OK;
    41fc:	81 e0       	ldi	r24, 0x01	; 1
    41fe:	01 c0       	rjmp	.+2      	; 0x4202 <nrk_time_sub+0xf8>
int8_t nrk_time_sub(nrk_time_t *result,nrk_time_t high, nrk_time_t low)
{
if(high.secs<low.secs) return NRK_ERROR; 
if(low.secs==high.secs)
	{
	if((uint32_t)low.nano_secs>(uint32_t)high.nano_secs)  return NRK_ERROR;  
    4200:	8f ef       	ldi	r24, 0xFF	; 255
}

result->secs=high.secs-low.secs;
result->nano_secs=high.nano_secs-low.nano_secs;
return NRK_OK;
}
    4202:	60 96       	adiw	r28, 0x10	; 16
    4204:	0f b6       	in	r0, 0x3f	; 63
    4206:	f8 94       	cli
    4208:	de bf       	out	0x3e, r29	; 62
    420a:	0f be       	out	0x3f, r0	; 63
    420c:	cd bf       	out	0x3d, r28	; 61
    420e:	cf 91       	pop	r28
    4210:	df 91       	pop	r29
    4212:	1f 91       	pop	r17
    4214:	0f 91       	pop	r16
    4216:	ff 90       	pop	r15
    4218:	ef 90       	pop	r14
    421a:	df 90       	pop	r13
    421c:	cf 90       	pop	r12
    421e:	bf 90       	pop	r11
    4220:	af 90       	pop	r10
    4222:	9f 90       	pop	r9
    4224:	8f 90       	pop	r8
    4226:	08 95       	ret

00004228 <nrk_time_compact_nanos>:
 * the nano seconds field, this function will move the nano
 * seconds into the seconds field.
 *
 */
inline void nrk_time_compact_nanos(nrk_time_t *t)
{
    4228:	fc 01       	movw	r30, r24
  while(t->nano_secs>=NANOS_PER_SEC)
    422a:	14 c0       	rjmp	.+40     	; 0x4254 <nrk_time_compact_nanos+0x2c>
    {
    t->nano_secs-=NANOS_PER_SEC;
    422c:	20 50       	subi	r18, 0x00	; 0
    422e:	3a 4c       	sbci	r19, 0xCA	; 202
    4230:	4a 49       	sbci	r20, 0x9A	; 154
    4232:	5b 43       	sbci	r21, 0x3B	; 59
    4234:	24 83       	std	Z+4, r18	; 0x04
    4236:	35 83       	std	Z+5, r19	; 0x05
    4238:	46 83       	std	Z+6, r20	; 0x06
    423a:	57 83       	std	Z+7, r21	; 0x07
    t->secs++;
    423c:	20 81       	ld	r18, Z
    423e:	31 81       	ldd	r19, Z+1	; 0x01
    4240:	42 81       	ldd	r20, Z+2	; 0x02
    4242:	53 81       	ldd	r21, Z+3	; 0x03
    4244:	2f 5f       	subi	r18, 0xFF	; 255
    4246:	3f 4f       	sbci	r19, 0xFF	; 255
    4248:	4f 4f       	sbci	r20, 0xFF	; 255
    424a:	5f 4f       	sbci	r21, 0xFF	; 255
    424c:	20 83       	st	Z, r18
    424e:	31 83       	std	Z+1, r19	; 0x01
    4250:	42 83       	std	Z+2, r20	; 0x02
    4252:	53 83       	std	Z+3, r21	; 0x03
 * seconds into the seconds field.
 *
 */
inline void nrk_time_compact_nanos(nrk_time_t *t)
{
  while(t->nano_secs>=NANOS_PER_SEC)
    4254:	24 81       	ldd	r18, Z+4	; 0x04
    4256:	35 81       	ldd	r19, Z+5	; 0x05
    4258:	46 81       	ldd	r20, Z+6	; 0x06
    425a:	57 81       	ldd	r21, Z+7	; 0x07
    425c:	20 30       	cpi	r18, 0x00	; 0
    425e:	8a ec       	ldi	r24, 0xCA	; 202
    4260:	38 07       	cpc	r19, r24
    4262:	8a e9       	ldi	r24, 0x9A	; 154
    4264:	48 07       	cpc	r20, r24
    4266:	8b e3       	ldi	r24, 0x3B	; 59
    4268:	58 07       	cpc	r21, r24
    426a:	00 f7       	brcc	.-64     	; 0x422c <nrk_time_compact_nanos+0x4>
    {
    t->nano_secs-=NANOS_PER_SEC;
    t->secs++;
    }
}
    426c:	08 95       	ret

0000426e <nrk_time_add>:
/*
 * result = a+b
 *
 */
int8_t nrk_time_add(nrk_time_t *result,nrk_time_t a, nrk_time_t b)
{
    426e:	8f 92       	push	r8
    4270:	9f 92       	push	r9
    4272:	af 92       	push	r10
    4274:	bf 92       	push	r11
    4276:	cf 92       	push	r12
    4278:	df 92       	push	r13
    427a:	ef 92       	push	r14
    427c:	ff 92       	push	r15
    427e:	0f 93       	push	r16
    4280:	1f 93       	push	r17
    4282:	df 93       	push	r29
    4284:	cf 93       	push	r28
    4286:	cd b7       	in	r28, 0x3d	; 61
    4288:	de b7       	in	r29, 0x3e	; 62
    428a:	60 97       	sbiw	r28, 0x10	; 16
    428c:	0f b6       	in	r0, 0x3f	; 63
    428e:	f8 94       	cli
    4290:	de bf       	out	0x3e, r29	; 62
    4292:	0f be       	out	0x3f, r0	; 63
    4294:	cd bf       	out	0x3d, r28	; 61
    4296:	09 83       	std	Y+1, r16	; 0x01
    4298:	1a 83       	std	Y+2, r17	; 0x02
    429a:	2b 83       	std	Y+3, r18	; 0x03
    429c:	3c 83       	std	Y+4, r19	; 0x04
    429e:	4d 83       	std	Y+5, r20	; 0x05
    42a0:	5e 83       	std	Y+6, r21	; 0x06
    42a2:	6f 83       	std	Y+7, r22	; 0x07
    42a4:	78 87       	std	Y+8, r23	; 0x08
    42a6:	89 86       	std	Y+9, r8	; 0x09
    42a8:	9a 86       	std	Y+10, r9	; 0x0a
    42aa:	ab 86       	std	Y+11, r10	; 0x0b
    42ac:	bc 86       	std	Y+12, r11	; 0x0c
    42ae:	cd 86       	std	Y+13, r12	; 0x0d
    42b0:	de 86       	std	Y+14, r13	; 0x0e
    42b2:	ef 86       	std	Y+15, r14	; 0x0f
    42b4:	f8 8a       	std	Y+16, r15	; 0x10
result->secs=a.secs+b.secs;
    42b6:	29 85       	ldd	r18, Y+9	; 0x09
    42b8:	3a 85       	ldd	r19, Y+10	; 0x0a
    42ba:	4b 85       	ldd	r20, Y+11	; 0x0b
    42bc:	5c 85       	ldd	r21, Y+12	; 0x0c
    42be:	e9 80       	ldd	r14, Y+1	; 0x01
    42c0:	fa 80       	ldd	r15, Y+2	; 0x02
    42c2:	0b 81       	ldd	r16, Y+3	; 0x03
    42c4:	1c 81       	ldd	r17, Y+4	; 0x04
    42c6:	2e 0d       	add	r18, r14
    42c8:	3f 1d       	adc	r19, r15
    42ca:	40 1f       	adc	r20, r16
    42cc:	51 1f       	adc	r21, r17
    42ce:	fc 01       	movw	r30, r24
    42d0:	20 83       	st	Z, r18
    42d2:	31 83       	std	Z+1, r19	; 0x01
    42d4:	42 83       	std	Z+2, r20	; 0x02
    42d6:	53 83       	std	Z+3, r21	; 0x03
result->nano_secs=a.nano_secs+b.nano_secs;
    42d8:	2d 85       	ldd	r18, Y+13	; 0x0d
    42da:	3e 85       	ldd	r19, Y+14	; 0x0e
    42dc:	4f 85       	ldd	r20, Y+15	; 0x0f
    42de:	58 89       	ldd	r21, Y+16	; 0x10
    42e0:	ed 80       	ldd	r14, Y+5	; 0x05
    42e2:	fe 80       	ldd	r15, Y+6	; 0x06
    42e4:	0f 81       	ldd	r16, Y+7	; 0x07
    42e6:	18 85       	ldd	r17, Y+8	; 0x08
    42e8:	2e 0d       	add	r18, r14
    42ea:	3f 1d       	adc	r19, r15
    42ec:	40 1f       	adc	r20, r16
    42ee:	51 1f       	adc	r21, r17
    42f0:	24 83       	std	Z+4, r18	; 0x04
    42f2:	35 83       	std	Z+5, r19	; 0x05
    42f4:	46 83       	std	Z+6, r20	; 0x06
    42f6:	57 83       	std	Z+7, r21	; 0x07
nrk_time_compact_nanos(result);
    42f8:	0e 94 14 21 	call	0x4228	; 0x4228 <nrk_time_compact_nanos>
return NRK_OK;
}
    42fc:	81 e0       	ldi	r24, 0x01	; 1
    42fe:	60 96       	adiw	r28, 0x10	; 16
    4300:	0f b6       	in	r0, 0x3f	; 63
    4302:	f8 94       	cli
    4304:	de bf       	out	0x3e, r29	; 62
    4306:	0f be       	out	0x3f, r0	; 63
    4308:	cd bf       	out	0x3d, r28	; 61
    430a:	cf 91       	pop	r28
    430c:	df 91       	pop	r29
    430e:	1f 91       	pop	r17
    4310:	0f 91       	pop	r16
    4312:	ff 90       	pop	r15
    4314:	ef 90       	pop	r14
    4316:	df 90       	pop	r13
    4318:	cf 90       	pop	r12
    431a:	bf 90       	pop	r11
    431c:	af 90       	pop	r10
    431e:	9f 90       	pop	r9
    4320:	8f 90       	pop	r8
    4322:	08 95       	ret

00004324 <nrk_time_set>:



void nrk_time_set(uint32_t secs, uint32_t nano_secs)
{
  nrk_system_time.secs=secs;
    4324:	60 93 cc 07 	sts	0x07CC, r22
    4328:	70 93 cd 07 	sts	0x07CD, r23
    432c:	80 93 ce 07 	sts	0x07CE, r24
    4330:	90 93 cf 07 	sts	0x07CF, r25
  nrk_system_time.nano_secs=nano_secs;
    4334:	20 93 d0 07 	sts	0x07D0, r18
    4338:	30 93 d1 07 	sts	0x07D1, r19
    433c:	40 93 d2 07 	sts	0x07D2, r20
    4340:	50 93 d3 07 	sts	0x07D3, r21
}
    4344:	08 95       	ret

00004346 <_nrk_time_to_ticks>:

uint16_t _nrk_time_to_ticks(nrk_time_t *t)
{
    4346:	8f 92       	push	r8
    4348:	9f 92       	push	r9
    434a:	af 92       	push	r10
    434c:	bf 92       	push	r11
    434e:	cf 92       	push	r12
    4350:	df 92       	push	r13
    4352:	ef 92       	push	r14
    4354:	ff 92       	push	r15
    4356:	0f 93       	push	r16
    4358:	1f 93       	push	r17
    435a:	fc 01       	movw	r30, r24
uint16_t ticks;
uint64_t tmp;
uint8_t i;
// FIXME: This will overflow
if(t->secs>0)
    435c:	20 81       	ld	r18, Z
    435e:	31 81       	ldd	r19, Z+1	; 0x01
    4360:	42 81       	ldd	r20, Z+2	; 0x02
    4362:	53 81       	ldd	r21, Z+3	; 0x03
    4364:	64 81       	ldd	r22, Z+4	; 0x04
    4366:	75 81       	ldd	r23, Z+5	; 0x05
    4368:	86 81       	ldd	r24, Z+6	; 0x06
    436a:	97 81       	ldd	r25, Z+7	; 0x07
    436c:	21 15       	cp	r18, r1
    436e:	31 05       	cpc	r19, r1
    4370:	41 05       	cpc	r20, r1
    4372:	51 05       	cpc	r21, r1
    4374:	09 f4       	brne	.+2      	; 0x4378 <_nrk_time_to_ticks+0x32>
    4376:	61 c0       	rjmp	.+194    	; 0x443a <_nrk_time_to_ticks+0xf4>
{
   tmp=t->nano_secs;
   if(t->secs>65) return 0;
    4378:	22 34       	cpi	r18, 0x42	; 66
    437a:	31 05       	cpc	r19, r1
    437c:	41 05       	cpc	r20, r1
    437e:	51 05       	cpc	r21, r1
    4380:	08 f0       	brcs	.+2      	; 0x4384 <_nrk_time_to_ticks+0x3e>
    4382:	62 c0       	rjmp	.+196    	; 0x4448 <_nrk_time_to_ticks+0x102>
uint64_t tmp;
uint8_t i;
// FIXME: This will overflow
if(t->secs>0)
{
   tmp=t->nano_secs;
    4384:	5b 01       	movw	r10, r22
    4386:	6c 01       	movw	r12, r24
    4388:	ee 24       	eor	r14, r14
    438a:	ff 24       	eor	r15, r15
    438c:	87 01       	movw	r16, r14
    438e:	60 e0       	ldi	r22, 0x00	; 0
    4390:	38 c0       	rjmp	.+112    	; 0x4402 <_nrk_time_to_ticks+0xbc>
   if(t->secs>65) return 0;
   for(i=0; i<t->secs; i++ ) tmp+=NANOS_PER_SEC; // t->nano_secs+=NANOS_PER_SEC;
    4392:	8a 2c       	mov	r8, r10
    4394:	ab 2d       	mov	r26, r11
    4396:	a6 53       	subi	r26, 0x36	; 54
    4398:	f1 e0       	ldi	r31, 0x01	; 1
    439a:	ab 15       	cp	r26, r11
    439c:	08 f0       	brcs	.+2      	; 0x43a0 <_nrk_time_to_ticks+0x5a>
    439e:	f0 e0       	ldi	r31, 0x00	; 0
    43a0:	8c 2d       	mov	r24, r12
    43a2:	86 56       	subi	r24, 0x66	; 102
    43a4:	91 e0       	ldi	r25, 0x01	; 1
    43a6:	8c 15       	cp	r24, r12
    43a8:	08 f0       	brcs	.+2      	; 0x43ac <_nrk_time_to_ticks+0x66>
    43aa:	90 e0       	ldi	r25, 0x00	; 0
    43ac:	f8 0f       	add	r31, r24
    43ae:	71 e0       	ldi	r23, 0x01	; 1
    43b0:	f8 17       	cp	r31, r24
    43b2:	08 f0       	brcs	.+2      	; 0x43b6 <_nrk_time_to_ticks+0x70>
    43b4:	70 e0       	ldi	r23, 0x00	; 0
    43b6:	97 2b       	or	r25, r23
    43b8:	7d 2d       	mov	r23, r13
    43ba:	75 5c       	subi	r23, 0xC5	; 197
    43bc:	e1 e0       	ldi	r30, 0x01	; 1
    43be:	7d 15       	cp	r23, r13
    43c0:	08 f0       	brcs	.+2      	; 0x43c4 <_nrk_time_to_ticks+0x7e>
    43c2:	e0 e0       	ldi	r30, 0x00	; 0
    43c4:	97 0f       	add	r25, r23
    43c6:	81 e0       	ldi	r24, 0x01	; 1
    43c8:	97 17       	cp	r25, r23
    43ca:	08 f0       	brcs	.+2      	; 0x43ce <_nrk_time_to_ticks+0x88>
    43cc:	80 e0       	ldi	r24, 0x00	; 0
    43ce:	8e 2b       	or	r24, r30
    43d0:	8e 0d       	add	r24, r14
    43d2:	e1 e0       	ldi	r30, 0x01	; 1
    43d4:	8e 15       	cp	r24, r14
    43d6:	08 f0       	brcs	.+2      	; 0x43da <_nrk_time_to_ticks+0x94>
    43d8:	e0 e0       	ldi	r30, 0x00	; 0
    43da:	ef 0d       	add	r30, r15
    43dc:	71 e0       	ldi	r23, 0x01	; 1
    43de:	ef 15       	cp	r30, r15
    43e0:	08 f0       	brcs	.+2      	; 0x43e4 <_nrk_time_to_ticks+0x9e>
    43e2:	70 e0       	ldi	r23, 0x00	; 0
    43e4:	70 0f       	add	r23, r16
    43e6:	b1 e0       	ldi	r27, 0x01	; 1
    43e8:	70 17       	cp	r23, r16
    43ea:	08 f0       	brcs	.+2      	; 0x43ee <_nrk_time_to_ticks+0xa8>
    43ec:	b0 e0       	ldi	r27, 0x00	; 0
    43ee:	b1 0f       	add	r27, r17
    43f0:	a8 2c       	mov	r10, r8
    43f2:	ba 2e       	mov	r11, r26
    43f4:	cf 2e       	mov	r12, r31
    43f6:	d9 2e       	mov	r13, r25
    43f8:	e8 2e       	mov	r14, r24
    43fa:	fe 2e       	mov	r15, r30
    43fc:	07 2f       	mov	r16, r23
    43fe:	1b 2f       	mov	r17, r27
    4400:	6f 5f       	subi	r22, 0xFF	; 255
    4402:	86 2f       	mov	r24, r22
    4404:	90 e0       	ldi	r25, 0x00	; 0
    4406:	a0 e0       	ldi	r26, 0x00	; 0
    4408:	b0 e0       	ldi	r27, 0x00	; 0
    440a:	82 17       	cp	r24, r18
    440c:	93 07       	cpc	r25, r19
    440e:	a4 07       	cpc	r26, r20
    4410:	b5 07       	cpc	r27, r21
    4412:	08 f4       	brcc	.+2      	; 0x4416 <_nrk_time_to_ticks+0xd0>
    4414:	be cf       	rjmp	.-132    	; 0x4392 <_nrk_time_to_ticks+0x4c>
   ticks=tmp/(uint32_t)NANOS_PER_TICK;
    4416:	95 01       	movw	r18, r10
    4418:	a6 01       	movw	r20, r12
    441a:	b7 01       	movw	r22, r14
    441c:	c8 01       	movw	r24, r16
    441e:	a3 eb       	ldi	r26, 0xB3	; 179
    4420:	aa 2e       	mov	r10, r26
    4422:	f6 ee       	ldi	r31, 0xE6	; 230
    4424:	bf 2e       	mov	r11, r31
    4426:	ee e0       	ldi	r30, 0x0E	; 14
    4428:	ce 2e       	mov	r12, r30
    442a:	dd 24       	eor	r13, r13
    442c:	ee 24       	eor	r14, r14
    442e:	ff 24       	eor	r15, r15
    4430:	00 e0       	ldi	r16, 0x00	; 0
    4432:	10 e0       	ldi	r17, 0x00	; 0
    4434:	0e 94 8c 33 	call	0x6718	; 0x6718 <__udivdi3>
    4438:	09 c0       	rjmp	.+18     	; 0x444c <_nrk_time_to_ticks+0x106>
   //ticks=t->nano_secs/(uint32_t)NANOS_PER_TICK;
}else
{
ticks=t->nano_secs/(uint32_t)NANOS_PER_TICK;
    443a:	23 eb       	ldi	r18, 0xB3	; 179
    443c:	36 ee       	ldi	r19, 0xE6	; 230
    443e:	4e e0       	ldi	r20, 0x0E	; 14
    4440:	50 e0       	ldi	r21, 0x00	; 0
    4442:	0e 94 4e 41 	call	0x829c	; 0x829c <__udivmodsi4>
    4446:	02 c0       	rjmp	.+4      	; 0x444c <_nrk_time_to_ticks+0x106>
uint8_t i;
// FIXME: This will overflow
if(t->secs>0)
{
   tmp=t->nano_secs;
   if(t->secs>65) return 0;
    4448:	20 e0       	ldi	r18, 0x00	; 0
    444a:	30 e0       	ldi	r19, 0x00	; 0
}
*/
//ticks=t->nano_secs/(uint32_t)NANOS_PER_TICK;
//ticks+=t->secs*(uint32_t)TICKS_PER_SEC;
return ticks;
}
    444c:	c9 01       	movw	r24, r18
    444e:	1f 91       	pop	r17
    4450:	0f 91       	pop	r16
    4452:	ff 90       	pop	r15
    4454:	ef 90       	pop	r14
    4456:	df 90       	pop	r13
    4458:	cf 90       	pop	r12
    445a:	bf 90       	pop	r11
    445c:	af 90       	pop	r10
    445e:	9f 90       	pop	r9
    4460:	8f 90       	pop	r8
    4462:	08 95       	ret

00004464 <_nrk_ticks_to_time>:

nrk_time_t _nrk_ticks_to_time(uint32_t ticks)
{
    4464:	ef 92       	push	r14
    4466:	ff 92       	push	r15
    4468:	0f 93       	push	r16
    446a:	1f 93       	push	r17
    446c:	df 93       	push	r29
    446e:	cf 93       	push	r28
    4470:	cd b7       	in	r28, 0x3d	; 61
    4472:	de b7       	in	r29, 0x3e	; 62
    4474:	28 97       	sbiw	r28, 0x08	; 8
    4476:	0f b6       	in	r0, 0x3f	; 63
    4478:	f8 94       	cli
    447a:	de bf       	out	0x3e, r29	; 62
    447c:	0f be       	out	0x3f, r0	; 63
    447e:	cd bf       	out	0x3d, r28	; 61
nrk_time_t t;

t.secs=ticks/TICKS_PER_SEC;
    4480:	7b 01       	movw	r14, r22
    4482:	8c 01       	movw	r16, r24
    4484:	ba e0       	ldi	r27, 0x0A	; 10
    4486:	16 95       	lsr	r17
    4488:	07 95       	ror	r16
    448a:	f7 94       	ror	r15
    448c:	e7 94       	ror	r14
    448e:	ba 95       	dec	r27
    4490:	d1 f7       	brne	.-12     	; 0x4486 <_nrk_ticks_to_time+0x22>
//ticks+=t->secs*(uint32_t)TICKS_PER_SEC;
return ticks;
}

nrk_time_t _nrk_ticks_to_time(uint32_t ticks)
{
    4492:	e9 82       	std	Y+1, r14	; 0x01
    4494:	fa 82       	std	Y+2, r15	; 0x02
    4496:	0b 83       	std	Y+3, r16	; 0x03
    4498:	1c 83       	std	Y+4, r17	; 0x04
nrk_time_t t;

t.secs=ticks/TICKS_PER_SEC;
t.nano_secs=(ticks%TICKS_PER_SEC)*NANOS_PER_TICK;
    449a:	73 70       	andi	r23, 0x03	; 3
    449c:	80 70       	andi	r24, 0x00	; 0
    449e:	90 70       	andi	r25, 0x00	; 0
    44a0:	23 eb       	ldi	r18, 0xB3	; 179
    44a2:	36 ee       	ldi	r19, 0xE6	; 230
    44a4:	4e e0       	ldi	r20, 0x0E	; 14
    44a6:	50 e0       	ldi	r21, 0x00	; 0
    44a8:	0e 94 08 41 	call	0x8210	; 0x8210 <__mulsi3>
//ticks+=t->secs*(uint32_t)TICKS_PER_SEC;
return ticks;
}

nrk_time_t _nrk_ticks_to_time(uint32_t ticks)
{
    44ac:	6d 83       	std	Y+5, r22	; 0x05
    44ae:	7e 83       	std	Y+6, r23	; 0x06
    44b0:	8f 83       	std	Y+7, r24	; 0x07
    44b2:	98 87       	std	Y+8, r25	; 0x08
    44b4:	2e 2d       	mov	r18, r14
    44b6:	3a 81       	ldd	r19, Y+2	; 0x02
    44b8:	4b 81       	ldd	r20, Y+3	; 0x03
    44ba:	5c 81       	ldd	r21, Y+4	; 0x04

t.secs=ticks/TICKS_PER_SEC;
t.nano_secs=(ticks%TICKS_PER_SEC)*NANOS_PER_TICK;

return t;
}
    44bc:	28 96       	adiw	r28, 0x08	; 8
    44be:	0f b6       	in	r0, 0x3f	; 63
    44c0:	f8 94       	cli
    44c2:	de bf       	out	0x3e, r29	; 62
    44c4:	0f be       	out	0x3f, r0	; 63
    44c6:	cd bf       	out	0x3d, r28	; 61
    44c8:	cf 91       	pop	r28
    44ca:	df 91       	pop	r29
    44cc:	1f 91       	pop	r17
    44ce:	0f 91       	pop	r16
    44d0:	ff 90       	pop	r15
    44d2:	ef 90       	pop	r14
    44d4:	08 95       	ret

000044d6 <_nrk_time_to_ticks_long>:

uint32_t _nrk_time_to_ticks_long(nrk_time_t *t)
{
    44d6:	8f 92       	push	r8
    44d8:	9f 92       	push	r9
    44da:	af 92       	push	r10
    44dc:	bf 92       	push	r11
    44de:	cf 92       	push	r12
    44e0:	df 92       	push	r13
    44e2:	ef 92       	push	r14
    44e4:	ff 92       	push	r15
    44e6:	0f 93       	push	r16
    44e8:	1f 93       	push	r17
    44ea:	fc 01       	movw	r30, r24
uint32_t ticks;
uint64_t tmp;
uint8_t i;
// FIXME: This will overflow
if(t->secs>0)
    44ec:	20 81       	ld	r18, Z
    44ee:	31 81       	ldd	r19, Z+1	; 0x01
    44f0:	42 81       	ldd	r20, Z+2	; 0x02
    44f2:	53 81       	ldd	r21, Z+3	; 0x03
    44f4:	64 81       	ldd	r22, Z+4	; 0x04
    44f6:	75 81       	ldd	r23, Z+5	; 0x05
    44f8:	86 81       	ldd	r24, Z+6	; 0x06
    44fa:	97 81       	ldd	r25, Z+7	; 0x07
    44fc:	21 15       	cp	r18, r1
    44fe:	31 05       	cpc	r19, r1
    4500:	41 05       	cpc	r20, r1
    4502:	51 05       	cpc	r21, r1
    4504:	09 f4       	brne	.+2      	; 0x4508 <_nrk_time_to_ticks_long+0x32>
    4506:	5b c0       	rjmp	.+182    	; 0x45be <_nrk_time_to_ticks_long+0xe8>
{
   tmp=t->nano_secs;
    4508:	5b 01       	movw	r10, r22
    450a:	6c 01       	movw	r12, r24
    450c:	ee 24       	eor	r14, r14
    450e:	ff 24       	eor	r15, r15
    4510:	87 01       	movw	r16, r14
   for(i=0; i<t->secs; i++ ) tmp+=NANOS_PER_SEC; // t->nano_secs+=NANOS_PER_SEC;
    4512:	60 e0       	ldi	r22, 0x00	; 0
    4514:	38 c0       	rjmp	.+112    	; 0x4586 <_nrk_time_to_ticks_long+0xb0>
    4516:	8a 2c       	mov	r8, r10
    4518:	ab 2d       	mov	r26, r11
    451a:	a6 53       	subi	r26, 0x36	; 54
    451c:	f1 e0       	ldi	r31, 0x01	; 1
    451e:	ab 15       	cp	r26, r11
    4520:	08 f0       	brcs	.+2      	; 0x4524 <_nrk_time_to_ticks_long+0x4e>
    4522:	f0 e0       	ldi	r31, 0x00	; 0
    4524:	8c 2d       	mov	r24, r12
    4526:	86 56       	subi	r24, 0x66	; 102
    4528:	91 e0       	ldi	r25, 0x01	; 1
    452a:	8c 15       	cp	r24, r12
    452c:	08 f0       	brcs	.+2      	; 0x4530 <_nrk_time_to_ticks_long+0x5a>
    452e:	90 e0       	ldi	r25, 0x00	; 0
    4530:	f8 0f       	add	r31, r24
    4532:	71 e0       	ldi	r23, 0x01	; 1
    4534:	f8 17       	cp	r31, r24
    4536:	08 f0       	brcs	.+2      	; 0x453a <_nrk_time_to_ticks_long+0x64>
    4538:	70 e0       	ldi	r23, 0x00	; 0
    453a:	97 2b       	or	r25, r23
    453c:	7d 2d       	mov	r23, r13
    453e:	75 5c       	subi	r23, 0xC5	; 197
    4540:	e1 e0       	ldi	r30, 0x01	; 1
    4542:	7d 15       	cp	r23, r13
    4544:	08 f0       	brcs	.+2      	; 0x4548 <_nrk_time_to_ticks_long+0x72>
    4546:	e0 e0       	ldi	r30, 0x00	; 0
    4548:	97 0f       	add	r25, r23
    454a:	81 e0       	ldi	r24, 0x01	; 1
    454c:	97 17       	cp	r25, r23
    454e:	08 f0       	brcs	.+2      	; 0x4552 <_nrk_time_to_ticks_long+0x7c>
    4550:	80 e0       	ldi	r24, 0x00	; 0
    4552:	8e 2b       	or	r24, r30
    4554:	8e 0d       	add	r24, r14
    4556:	e1 e0       	ldi	r30, 0x01	; 1
    4558:	8e 15       	cp	r24, r14
    455a:	08 f0       	brcs	.+2      	; 0x455e <_nrk_time_to_ticks_long+0x88>
    455c:	e0 e0       	ldi	r30, 0x00	; 0
    455e:	ef 0d       	add	r30, r15
    4560:	71 e0       	ldi	r23, 0x01	; 1
    4562:	ef 15       	cp	r30, r15
    4564:	08 f0       	brcs	.+2      	; 0x4568 <_nrk_time_to_ticks_long+0x92>
    4566:	70 e0       	ldi	r23, 0x00	; 0
    4568:	70 0f       	add	r23, r16
    456a:	b1 e0       	ldi	r27, 0x01	; 1
    456c:	70 17       	cp	r23, r16
    456e:	08 f0       	brcs	.+2      	; 0x4572 <_nrk_time_to_ticks_long+0x9c>
    4570:	b0 e0       	ldi	r27, 0x00	; 0
    4572:	b1 0f       	add	r27, r17
    4574:	a8 2c       	mov	r10, r8
    4576:	ba 2e       	mov	r11, r26
    4578:	cf 2e       	mov	r12, r31
    457a:	d9 2e       	mov	r13, r25
    457c:	e8 2e       	mov	r14, r24
    457e:	fe 2e       	mov	r15, r30
    4580:	07 2f       	mov	r16, r23
    4582:	1b 2f       	mov	r17, r27
    4584:	6f 5f       	subi	r22, 0xFF	; 255
    4586:	86 2f       	mov	r24, r22
    4588:	90 e0       	ldi	r25, 0x00	; 0
    458a:	a0 e0       	ldi	r26, 0x00	; 0
    458c:	b0 e0       	ldi	r27, 0x00	; 0
    458e:	82 17       	cp	r24, r18
    4590:	93 07       	cpc	r25, r19
    4592:	a4 07       	cpc	r26, r20
    4594:	b5 07       	cpc	r27, r21
    4596:	08 f4       	brcc	.+2      	; 0x459a <_nrk_time_to_ticks_long+0xc4>
    4598:	be cf       	rjmp	.-132    	; 0x4516 <_nrk_time_to_ticks_long+0x40>
   ticks=tmp/(uint32_t)NANOS_PER_TICK;
    459a:	95 01       	movw	r18, r10
    459c:	a6 01       	movw	r20, r12
    459e:	b7 01       	movw	r22, r14
    45a0:	c8 01       	movw	r24, r16
    45a2:	e3 eb       	ldi	r30, 0xB3	; 179
    45a4:	ae 2e       	mov	r10, r30
    45a6:	06 ee       	ldi	r16, 0xE6	; 230
    45a8:	b0 2e       	mov	r11, r16
    45aa:	1e e0       	ldi	r17, 0x0E	; 14
    45ac:	c1 2e       	mov	r12, r17
    45ae:	dd 24       	eor	r13, r13
    45b0:	ee 24       	eor	r14, r14
    45b2:	ff 24       	eor	r15, r15
    45b4:	00 e0       	ldi	r16, 0x00	; 0
    45b6:	10 e0       	ldi	r17, 0x00	; 0
    45b8:	0e 94 8c 33 	call	0x6718	; 0x6718 <__udivdi3>
    45bc:	06 c0       	rjmp	.+12     	; 0x45ca <_nrk_time_to_ticks_long+0xf4>
   //ticks=t->nano_secs/(uint32_t)NANOS_PER_TICK;
}else
{
ticks=t->nano_secs/(uint32_t)NANOS_PER_TICK;
    45be:	23 eb       	ldi	r18, 0xB3	; 179
    45c0:	36 ee       	ldi	r19, 0xE6	; 230
    45c2:	4e e0       	ldi	r20, 0x0E	; 14
    45c4:	50 e0       	ldi	r21, 0x00	; 0
    45c6:	0e 94 4e 41 	call	0x829c	; 0x829c <__udivmodsi4>
    45ca:	b9 01       	movw	r22, r18
    45cc:	ca 01       	movw	r24, r20
}
return ticks;
}
    45ce:	1f 91       	pop	r17
    45d0:	0f 91       	pop	r16
    45d2:	ff 90       	pop	r15
    45d4:	ef 90       	pop	r14
    45d6:	df 90       	pop	r13
    45d8:	cf 90       	pop	r12
    45da:	bf 90       	pop	r11
    45dc:	af 90       	pop	r10
    45de:	9f 90       	pop	r9
    45e0:	8f 90       	pop	r8
    45e2:	08 95       	ret

000045e4 <nrk_idle_task>:
#include <nrk_platform_time.h>
#include <nrk_scheduler.h>
#include <stdio.h>

void nrk_idle_task()
{
    45e4:	1f 93       	push	r17

  nrk_stack_check(); 
  
  if(_nrk_get_next_wakeup()<=NRK_SLEEP_WAKEUP_TIME) 
    {
	    _nrk_cpu_state=CPU_IDLE;
    45e6:	11 e0       	ldi	r17, 0x01	; 1
volatile unsigned char *stkc;
// unsigned int *stk ;  // 2 bytes
while(1)
{

  nrk_stack_check(); 
    45e8:	0e 94 92 18 	call	0x3124	; 0x3124 <nrk_stack_check>
  
  if(_nrk_get_next_wakeup()<=NRK_SLEEP_WAKEUP_TIME) 
    45ec:	0e 94 36 26 	call	0x4c6c	; 0x4c6c <_nrk_get_next_wakeup>
    45f0:	85 31       	cpi	r24, 0x15	; 21
    45f2:	10 f4       	brcc	.+4      	; 0x45f8 <nrk_idle_task+0x14>
    {
	    _nrk_cpu_state=CPU_IDLE;
    45f4:	10 93 c9 07 	sts	0x07C9, r17
	    // Allow last UART byte to get out
    	    nrk_spin_wait_us(10);  
	    _nrk_cpu_state=CPU_SLEEP;
	    nrk_sleep();
	#else
	    nrk_idle();
    45f8:	0e 94 a8 27 	call	0x4f50	; 0x4f50 <nrk_idle>
	#endif
    }
 
#ifdef NRK_STACK_CHECK
   if(nrk_idle_task_stk[0]!=STK_CANARY_VAL) nrk_error_add(NRK_STACK_SMASH);
    45fc:	80 91 6b 06 	lds	r24, 0x066B
    4600:	85 35       	cpi	r24, 0x55	; 85
    4602:	19 f0       	breq	.+6      	; 0x460a <nrk_idle_task+0x26>
    4604:	88 e0       	ldi	r24, 0x08	; 8
    4606:	0e 94 9e 17 	call	0x2f3c	; 0x2f3c <nrk_error_add>
   #ifdef KERNEL_STK_ARRAY
   	if(nrk_kernel_stk[0]!=STK_CANARY_VAL) nrk_error_add(NRK_STACK_SMASH);
    460a:	80 91 1a 05 	lds	r24, 0x051A
    460e:	85 35       	cpi	r24, 0x55	; 85
    4610:	59 f3       	breq	.-42     	; 0x45e8 <nrk_idle_task+0x4>
    4612:	88 e0       	ldi	r24, 0x08	; 8
    4614:	0e 94 9e 17 	call	0x2f3c	; 0x2f3c <nrk_error_add>
    4618:	e7 cf       	rjmp	.-50     	; 0x45e8 <nrk_idle_task+0x4>

0000461a <_nrk_scheduler>:
// For rfa1:
//#define CONTEXT_SWAP_TIME_BOUND    1500 

uint8_t t;
void inline _nrk_scheduler()
{
    461a:	2f 92       	push	r2
    461c:	3f 92       	push	r3
    461e:	4f 92       	push	r4
    4620:	5f 92       	push	r5
    4622:	6f 92       	push	r6
    4624:	7f 92       	push	r7
    4626:	8f 92       	push	r8
    4628:	9f 92       	push	r9
    462a:	af 92       	push	r10
    462c:	bf 92       	push	r11
    462e:	cf 92       	push	r12
    4630:	df 92       	push	r13
    4632:	ef 92       	push	r14
    4634:	ff 92       	push	r15
    4636:	0f 93       	push	r16
    4638:	1f 93       	push	r17
    463a:	df 93       	push	r29
    463c:	cf 93       	push	r28
    463e:	0f 92       	push	r0
    4640:	cd b7       	in	r28, 0x3d	; 61
    4642:	de b7       	in	r29, 0x3e	; 62
    int8_t task_ID;
    uint16_t next_wake;
    uint16_t start_time_stamp;

    _nrk_precision_os_timer_reset();
    4644:	0e 94 35 26 	call	0x4c6a	; 0x4c6a <_nrk_precision_os_timer_reset>
    nrk_int_disable();   // this should be removed...  Not needed
    4648:	0e 94 60 13 	call	0x26c0	; 0x26c0 <nrk_int_disable>


#ifndef NRK_NO_BOUNDED_CONTEXT_SWAP
    _nrk_high_speed_timer_reset();
    464c:	0e 94 b1 25 	call	0x4b62	; 0x4b62 <_nrk_high_speed_timer_reset>
    start_time_stamp=_nrk_high_speed_timer_get();
    4650:	0e 94 b7 25 	call	0x4b6e	; 0x4b6e <_nrk_high_speed_timer_get>
    4654:	2c 01       	movw	r4, r24
#endif
    _nrk_set_next_wakeup(MAX_SCHED_WAKEUP_TIME);
    4656:	8a ef       	ldi	r24, 0xFA	; 250
    4658:	0e 94 39 26 	call	0x4c72	; 0x4c72 <_nrk_set_next_wakeup>
    if((_nrk_cpu_state!=CPU_ACTIVE) && (_nrk_os_timer_get()>nrk_max_sleep_wakeup_time))
        nrk_max_sleep_wakeup_time=_nrk_os_timer_get();
#endif
    //while(_nrk_time_trigger>0)
    //{
    nrk_system_time.nano_secs+=((uint32_t)_nrk_prev_timer_val*NANOS_PER_TICK);
    465c:	60 91 46 06 	lds	r22, 0x0646
    4660:	70 e0       	ldi	r23, 0x00	; 0
    4662:	80 e0       	ldi	r24, 0x00	; 0
    4664:	90 e0       	ldi	r25, 0x00	; 0
    4666:	23 eb       	ldi	r18, 0xB3	; 179
    4668:	36 ee       	ldi	r19, 0xE6	; 230
    466a:	4e e0       	ldi	r20, 0x0E	; 14
    466c:	50 e0       	ldi	r21, 0x00	; 0
    466e:	0e 94 08 41 	call	0x8210	; 0x8210 <__mulsi3>
    4672:	7b 01       	movw	r14, r22
    4674:	8c 01       	movw	r16, r24
    4676:	80 91 d0 07 	lds	r24, 0x07D0
    467a:	90 91 d1 07 	lds	r25, 0x07D1
    467e:	a0 91 d2 07 	lds	r26, 0x07D2
    4682:	b0 91 d3 07 	lds	r27, 0x07D3
    4686:	e8 0e       	add	r14, r24
    4688:	f9 1e       	adc	r15, r25
    468a:	0a 1f       	adc	r16, r26
    468c:	1b 1f       	adc	r17, r27
    nrk_system_time.nano_secs-=(nrk_system_time.nano_secs%(uint32_t)NANOS_PER_TICK);
    468e:	c8 01       	movw	r24, r16
    4690:	b7 01       	movw	r22, r14
    4692:	0e 94 4e 41 	call	0x829c	; 0x829c <__udivmodsi4>
    4696:	e6 1a       	sub	r14, r22
    4698:	f7 0a       	sbc	r15, r23
    469a:	08 0b       	sbc	r16, r24
    469c:	19 0b       	sbc	r17, r25
    469e:	80 91 cc 07 	lds	r24, 0x07CC
    46a2:	90 91 cd 07 	lds	r25, 0x07CD
    46a6:	a0 91 ce 07 	lds	r26, 0x07CE
    46aa:	b0 91 cf 07 	lds	r27, 0x07CF

    while(nrk_system_time.nano_secs>=NANOS_PER_SEC)
    {
        nrk_system_time.nano_secs-=NANOS_PER_SEC;
        nrk_system_time.secs++;
        nrk_system_time.nano_secs-=(nrk_system_time.nano_secs%(uint32_t)NANOS_PER_TICK);
    46ae:	e3 eb       	ldi	r30, 0xB3	; 179
    46b0:	ae 2e       	mov	r10, r30
    46b2:	e6 ee       	ldi	r30, 0xE6	; 230
    46b4:	be 2e       	mov	r11, r30
    46b6:	ee e0       	ldi	r30, 0x0E	; 14
    46b8:	ce 2e       	mov	r12, r30
    46ba:	d1 2c       	mov	r13, r1
        else
            _nrk_stats_task_preempted(nrk_cur_task_TCB->task_ID, _nrk_prev_timer_val);
    }
#endif

    while(nrk_system_time.nano_secs>=NANOS_PER_SEC)
    46bc:	14 c0       	rjmp	.+40     	; 0x46e6 <_nrk_scheduler+0xcc>
    {
        nrk_system_time.nano_secs-=NANOS_PER_SEC;
    46be:	80 e0       	ldi	r24, 0x00	; 0
    46c0:	96 e3       	ldi	r25, 0x36	; 54
    46c2:	a5 e6       	ldi	r26, 0x65	; 101
    46c4:	b4 ec       	ldi	r27, 0xC4	; 196
    46c6:	e8 0e       	add	r14, r24
    46c8:	f9 1e       	adc	r15, r25
    46ca:	0a 1f       	adc	r16, r26
    46cc:	1b 1f       	adc	r17, r27
        nrk_system_time.secs++;
        nrk_system_time.nano_secs-=(nrk_system_time.nano_secs%(uint32_t)NANOS_PER_TICK);
    46ce:	c8 01       	movw	r24, r16
    46d0:	b7 01       	movw	r22, r14
    46d2:	a6 01       	movw	r20, r12
    46d4:	95 01       	movw	r18, r10
    46d6:	0e 94 4e 41 	call	0x829c	; 0x829c <__udivmodsi4>
    46da:	e6 1a       	sub	r14, r22
    46dc:	f7 0a       	sbc	r15, r23
    46de:	08 0b       	sbc	r16, r24
    46e0:	19 0b       	sbc	r17, r25
    46e2:	d4 01       	movw	r26, r8
    46e4:	c3 01       	movw	r24, r6
    46e6:	3c 01       	movw	r6, r24
    46e8:	4d 01       	movw	r8, r26
    46ea:	08 94       	sec
    46ec:	61 1c       	adc	r6, r1
    46ee:	71 1c       	adc	r7, r1
    46f0:	81 1c       	adc	r8, r1
    46f2:	91 1c       	adc	r9, r1
        else
            _nrk_stats_task_preempted(nrk_cur_task_TCB->task_ID, _nrk_prev_timer_val);
    }
#endif

    while(nrk_system_time.nano_secs>=NANOS_PER_SEC)
    46f4:	e0 e0       	ldi	r30, 0x00	; 0
    46f6:	ee 16       	cp	r14, r30
    46f8:	ea ec       	ldi	r30, 0xCA	; 202
    46fa:	fe 06       	cpc	r15, r30
    46fc:	ea e9       	ldi	r30, 0x9A	; 154
    46fe:	0e 07       	cpc	r16, r30
    4700:	eb e3       	ldi	r30, 0x3B	; 59
    4702:	1e 07       	cpc	r17, r30
    4704:	e0 f6       	brcc	.-72     	; 0x46be <_nrk_scheduler+0xa4>
    4706:	80 93 cc 07 	sts	0x07CC, r24
    470a:	90 93 cd 07 	sts	0x07CD, r25
    470e:	a0 93 ce 07 	sts	0x07CE, r26
    4712:	b0 93 cf 07 	sts	0x07CF, r27
    4716:	e0 92 d0 07 	sts	0x07D0, r14
    471a:	f0 92 d1 07 	sts	0x07D1, r15
    471e:	00 93 d2 07 	sts	0x07D2, r16
    4722:	10 93 d3 07 	sts	0x07D3, r17
        nrk_system_time.secs++;
        nrk_system_time.nano_secs-=(nrk_system_time.nano_secs%(uint32_t)NANOS_PER_TICK);
    }
    //  _nrk_time_trigger--;
    //}
    if(nrk_cur_task_TCB->suspend_flag==1 && nrk_cur_task_TCB->task_state!=FINISHED)
    4726:	e0 91 d5 07 	lds	r30, 0x07D5
    472a:	f0 91 d6 07 	lds	r31, 0x07D6
    472e:	85 81       	ldd	r24, Z+5	; 0x05
    4730:	88 23       	and	r24, r24
    4732:	b9 f0       	breq	.+46     	; 0x4762 <_nrk_scheduler+0x148>
    4734:	81 85       	ldd	r24, Z+9	; 0x09
    4736:	84 30       	cpi	r24, 0x04	; 4
    4738:	a1 f0       	breq	.+40     	; 0x4762 <_nrk_scheduler+0x148>
    {
        //	nrk_cur_task_TCB->task_state = EVENT_SUSPENDED;

        if(nrk_cur_task_TCB->event_suspend==RSRC_EVENT_SUSPENDED)
    473a:	87 81       	ldd	r24, Z+7	; 0x07
    473c:	82 30       	cpi	r24, 0x02	; 2
    473e:	29 f0       	breq	.+10     	; 0x474a <_nrk_scheduler+0x130>
            nrk_cur_task_TCB->task_state = EVENT_SUSPENDED;
        else if( nrk_cur_task_TCB->event_suspend>0 && nrk_cur_task_TCB->nw_flag==0)
    4740:	88 23       	and	r24, r24
    4742:	41 f0       	breq	.+16     	; 0x4754 <_nrk_scheduler+0x13a>
    4744:	86 81       	ldd	r24, Z+6	; 0x06
    4746:	88 23       	and	r24, r24
    4748:	11 f4       	brne	.+4      	; 0x474e <_nrk_scheduler+0x134>
            nrk_cur_task_TCB->task_state = EVENT_SUSPENDED;
    474a:	85 e0       	ldi	r24, 0x05	; 5
    474c:	01 c0       	rjmp	.+2      	; 0x4750 <_nrk_scheduler+0x136>
        else if( nrk_cur_task_TCB->event_suspend>0 && nrk_cur_task_TCB->nw_flag==1)
            nrk_cur_task_TCB->task_state = SUSPENDED;
    474e:	83 e0       	ldi	r24, 0x03	; 3
    4750:	81 87       	std	Z+9, r24	; 0x09
    4752:	04 c0       	rjmp	.+8      	; 0x475c <_nrk_scheduler+0x142>
        else
        {
            nrk_cur_task_TCB->task_state = SUSPENDED;
    4754:	83 e0       	ldi	r24, 0x03	; 3
    4756:	81 87       	std	Z+9, r24	; 0x09
            nrk_cur_task_TCB->event_suspend=0;
    4758:	17 82       	std	Z+7, r1	; 0x07
            nrk_cur_task_TCB->nw_flag=0;
    475a:	16 82       	std	Z+6, r1	; 0x06
        }
        nrk_rem_from_readyQ(nrk_cur_task_TCB->task_ID);
    475c:	80 85       	ldd	r24, Z+8	; 0x08
    475e:	0e 94 86 1d 	call	0x3b0c	; 0x3b0c <nrk_rem_from_readyQ>
     
    // Update cpu used value for ended task
    // If the task has used its reserve, suspend task
    // Don't disable IdleTask which is 0
    // Don't decrease cpu_remaining if reserve is 0 and hence disabled
    if(nrk_cur_task_TCB->cpu_reserve!=0 && nrk_cur_task_TCB->task_ID!=NRK_IDLE_TASK_ID && nrk_cur_task_TCB->task_state!=FINISHED )
    4762:	e0 91 d5 07 	lds	r30, 0x07D5
    4766:	f0 91 d6 07 	lds	r31, 0x07D6
    476a:	85 8d       	ldd	r24, Z+29	; 0x1d
    476c:	96 8d       	ldd	r25, Z+30	; 0x1e
    476e:	00 97       	sbiw	r24, 0x00	; 0
    4770:	09 f4       	brne	.+2      	; 0x4774 <_nrk_scheduler+0x15a>
    4772:	8d c0       	rjmp	.+282    	; 0x488e <_nrk_scheduler+0x274>
    4774:	60 85       	ldd	r22, Z+8	; 0x08
    4776:	66 23       	and	r22, r22
    4778:	09 f4       	brne	.+2      	; 0x477c <_nrk_scheduler+0x162>
    477a:	89 c0       	rjmp	.+274    	; 0x488e <_nrk_scheduler+0x274>
    477c:	81 85       	ldd	r24, Z+9	; 0x09
    477e:	84 30       	cpi	r24, 0x04	; 4
    4780:	09 f4       	brne	.+2      	; 0x4784 <_nrk_scheduler+0x16a>
    4782:	85 c0       	rjmp	.+266    	; 0x488e <_nrk_scheduler+0x274>
    {
        if(nrk_cur_task_TCB->cpu_remaining<_nrk_prev_timer_val)
    4784:	21 8d       	ldd	r18, Z+25	; 0x19
    4786:	32 8d       	ldd	r19, Z+26	; 0x1a
    4788:	80 91 46 06 	lds	r24, 0x0646
    478c:	90 e0       	ldi	r25, 0x00	; 0
    478e:	28 17       	cp	r18, r24
    4790:	39 07       	cpc	r19, r25
    4792:	c8 f5       	brcc	.+114    	; 0x4806 <_nrk_scheduler+0x1ec>
        {
#ifdef NRK_STATS_TRACKER
            _nrk_stats_add_violation(nrk_cur_task_TCB->task_ID);
#endif
            nrk_kernel_error_add(NRK_RESERVE_ERROR,nrk_cur_task_TCB->task_ID);
    4794:	82 e0       	ldi	r24, 0x02	; 2
    4796:	0e 94 5d 17 	call	0x2eba	; 0x2eba <nrk_kernel_error_add>
            if(nrk_cur_task_TCB->task_type == CBS_TASK && 
    479a:	e0 91 d5 07 	lds	r30, 0x07D5
    479e:	f0 91 d6 07 	lds	r31, 0x07D6
    47a2:	81 a1       	ldd	r24, Z+33	; 0x21
    47a4:	83 30       	cpi	r24, 0x03	; 3
    47a6:	61 f5       	brne	.+88     	; 0x4800 <_nrk_scheduler+0x1e6>
    47a8:	81 85       	ldd	r24, Z+9	; 0x09
    47aa:	83 30       	cpi	r24, 0x03	; 3
    47ac:	49 f1       	breq	.+82     	; 0x4800 <_nrk_scheduler+0x1e6>
		    nrk_cur_task_TCB->task_state != SUSPENDED
		    ){
                printf("CBS goes exhausted \n");
    47ae:	89 e7       	ldi	r24, 0x79	; 121
    47b0:	92 e0       	ldi	r25, 0x02	; 2
    47b2:	0e 94 be 43 	call	0x877c	; 0x877c <puts>
                // budget goes out
                nrk_cur_task_TCB->cpu_remaining = nrk_cur_task_TCB->cpu_reserve;
    47b6:	e0 91 d5 07 	lds	r30, 0x07D5
    47ba:	f0 91 d6 07 	lds	r31, 0x07D6
    47be:	85 8d       	ldd	r24, Z+29	; 0x1d
    47c0:	96 8d       	ldd	r25, Z+30	; 0x1e
    47c2:	92 8f       	std	Z+26, r25	; 0x1a
    47c4:	81 8f       	std	Z+25, r24	; 0x19
                nrk_cur_task_TCB->next_period = nrk_cur_task_TCB->period;
    47c6:	83 8d       	ldd	r24, Z+27	; 0x1b
    47c8:	94 8d       	ldd	r25, Z+28	; 0x1c
    47ca:	90 8f       	std	Z+24, r25	; 0x18
    47cc:	87 8b       	std	Z+23, r24	; 0x17
                printf("Replenish CBS of Task %d\n",nrk_cur_task_TCB->task_ID);
    47ce:	00 d0       	rcall	.+0      	; 0x47d0 <_nrk_scheduler+0x1b6>
    47d0:	00 d0       	rcall	.+0      	; 0x47d2 <_nrk_scheduler+0x1b8>
    47d2:	8d e8       	ldi	r24, 0x8D	; 141
    47d4:	92 e0       	ldi	r25, 0x02	; 2
    47d6:	ad b7       	in	r26, 0x3d	; 61
    47d8:	be b7       	in	r27, 0x3e	; 62
    47da:	12 96       	adiw	r26, 0x02	; 2
    47dc:	9c 93       	st	X, r25
    47de:	8e 93       	st	-X, r24
    47e0:	11 97       	sbiw	r26, 0x01	; 1
    47e2:	80 85       	ldd	r24, Z+8	; 0x08
    47e4:	99 27       	eor	r25, r25
    47e6:	87 fd       	sbrc	r24, 7
    47e8:	90 95       	com	r25
    47ea:	14 96       	adiw	r26, 0x04	; 4
    47ec:	9c 93       	st	X, r25
    47ee:	8e 93       	st	-X, r24
    47f0:	13 97       	sbiw	r26, 0x03	; 3
    47f2:	0e 94 ac 43 	call	0x8758	; 0x8758 <printf>
    47f6:	0f 90       	pop	r0
    47f8:	0f 90       	pop	r0
    47fa:	0f 90       	pop	r0
    47fc:	0f 90       	pop	r0
    47fe:	07 c0       	rjmp	.+14     	; 0x480e <_nrk_scheduler+0x1f4>
            }else{
                nrk_cur_task_TCB->cpu_remaining=0;
    4800:	12 8e       	std	Z+26, r1	; 0x1a
    4802:	11 8e       	std	Z+25, r1	; 0x19
    4804:	04 c0       	rjmp	.+8      	; 0x480e <_nrk_scheduler+0x1f4>
            }
        }
        else
            nrk_cur_task_TCB->cpu_remaining-=_nrk_prev_timer_val;
    4806:	28 1b       	sub	r18, r24
    4808:	39 0b       	sbc	r19, r25
    480a:	32 8f       	std	Z+26, r19	; 0x1a
    480c:	21 8f       	std	Z+25, r18	; 0x19

        task_ID= nrk_cur_task_TCB->task_ID;
    480e:	e0 91 d5 07 	lds	r30, 0x07D5
    4812:	f0 91 d6 07 	lds	r31, 0x07D6
    4816:	00 85       	ldd	r16, Z+8	; 0x08
      //                  printf("cpu remaining of %d is %d \n",task_ID,nrk_task_TCB[task_ID].cpu_remaining);

        if (nrk_cur_task_TCB->cpu_remaining ==0 )
    4818:	21 8d       	ldd	r18, Z+25	; 0x19
    481a:	32 8d       	ldd	r19, Z+26	; 0x1a
    481c:	21 15       	cp	r18, r1
    481e:	31 05       	cpc	r19, r1
    4820:	b1 f5       	brne	.+108    	; 0x488e <_nrk_scheduler+0x274>
        {
            //printf("Task %d cpu remaining = 0\n", task_ID);
            //printf("Task type is %d\n", nrk_cur_task_TCB->task_type);
            // Here we dont need to suspend CBS
            if(nrk_cur_task_TCB->task_type == BASIC_TASK){
    4822:	81 a1       	ldd	r24, Z+33	; 0x21
    4824:	81 30       	cpi	r24, 0x01	; 1
    4826:	71 f4       	brne	.+28     	; 0x4844 <_nrk_scheduler+0x22a>
#ifdef NRK_STATS_TRACKER
                _nrk_stats_add_violation(nrk_cur_task_TCB->task_ID);
#endif
                nrk_kernel_error_add(NRK_RESERVE_VIOLATED,task_ID);
    4828:	83 e0       	ldi	r24, 0x03	; 3
    482a:	60 2f       	mov	r22, r16
    482c:	0e 94 5d 17 	call	0x2eba	; 0x2eba <nrk_kernel_error_add>
                nrk_cur_task_TCB->task_state = SUSPENDED;
    4830:	e0 91 d5 07 	lds	r30, 0x07D5
    4834:	f0 91 d6 07 	lds	r31, 0x07D6
    4838:	83 e0       	ldi	r24, 0x03	; 3
    483a:	81 87       	std	Z+9, r24	; 0x09
                nrk_rem_from_readyQ(task_ID);
    483c:	80 2f       	mov	r24, r16
    483e:	0e 94 86 1d 	call	0x3b0c	; 0x3b0c <nrk_rem_from_readyQ>
    4842:	25 c0       	rjmp	.+74     	; 0x488e <_nrk_scheduler+0x274>
            }else if(nrk_cur_task_TCB->task_type == CBS_TASK
    4844:	83 30       	cpi	r24, 0x03	; 3
    4846:	19 f5       	brne	.+70     	; 0x488e <_nrk_scheduler+0x274>
		    && nrk_cur_task_TCB->task_state != SUSPENDED
    4848:	81 85       	ldd	r24, Z+9	; 0x09
    484a:	83 30       	cpi	r24, 0x03	; 3
    484c:	01 f1       	breq	.+64     	; 0x488e <_nrk_scheduler+0x274>
		    ){
                // We need replenish the budget for CBS
                printf("Task %d: Replenish CBS <-------- \n", task_ID);
    484e:	00 d0       	rcall	.+0      	; 0x4850 <_nrk_scheduler+0x236>
    4850:	00 d0       	rcall	.+0      	; 0x4852 <_nrk_scheduler+0x238>
    4852:	27 ea       	ldi	r18, 0xA7	; 167
    4854:	32 e0       	ldi	r19, 0x02	; 2
    4856:	ed b7       	in	r30, 0x3d	; 61
    4858:	fe b7       	in	r31, 0x3e	; 62
    485a:	32 83       	std	Z+2, r19	; 0x02
    485c:	21 83       	std	Z+1, r18	; 0x01
    485e:	80 2f       	mov	r24, r16
    4860:	99 27       	eor	r25, r25
    4862:	87 fd       	sbrc	r24, 7
    4864:	90 95       	com	r25
    4866:	94 83       	std	Z+4, r25	; 0x04
    4868:	83 83       	std	Z+3, r24	; 0x03
    486a:	0e 94 ac 43 	call	0x8758	; 0x8758 <printf>
                nrk_cur_task_TCB->cpu_remaining = nrk_cur_task_TCB->cpu_reserve;
    486e:	e0 91 d5 07 	lds	r30, 0x07D5
    4872:	f0 91 d6 07 	lds	r31, 0x07D6
    4876:	85 8d       	ldd	r24, Z+29	; 0x1d
    4878:	96 8d       	ldd	r25, Z+30	; 0x1e
    487a:	92 8f       	std	Z+26, r25	; 0x1a
    487c:	81 8f       	std	Z+25, r24	; 0x19
                nrk_cur_task_TCB->next_period = nrk_cur_task_TCB->period;
    487e:	83 8d       	ldd	r24, Z+27	; 0x1b
    4880:	94 8d       	ldd	r25, Z+28	; 0x1c
    4882:	90 8f       	std	Z+24, r25	; 0x18
    4884:	87 8b       	std	Z+23, r24	; 0x17
    4886:	0f 90       	pop	r0
    4888:	0f 90       	pop	r0
    488a:	0f 90       	pop	r0
    488c:	0f 90       	pop	r0
    488e:	7d e0       	ldi	r23, 0x0D	; 13
    4890:	27 2e       	mov	r2, r23
    4892:	77 e0       	ldi	r23, 0x07	; 7
    4894:	37 2e       	mov	r3, r23

    while(nrk_system_time.nano_secs>=NANOS_PER_SEC)
    {
        nrk_system_time.nano_secs-=NANOS_PER_SEC;
        nrk_system_time.secs++;
        nrk_system_time.nano_secs-=(nrk_system_time.nano_secs%(uint32_t)NANOS_PER_TICK);
    4896:	00 e6       	ldi	r16, 0x60	; 96
    4898:	1a ee       	ldi	r17, 0xEA	; 234
    489a:	20 e0       	ldi	r18, 0x00	; 0
                    //nrk_task_TCB[task_ID].next_wakeup = nrk_task_TCB[task_ID].next_period;
                    //nrk_task_TCB[task_ID].num_periods--;
                    nrk_task_TCB[task_ID].next_wakeup = (nrk_task_TCB[task_ID].period*(nrk_task_TCB[task_ID].num_periods-1));
                    nrk_task_TCB[task_ID].next_period = (nrk_task_TCB[task_ID].period*(nrk_task_TCB[task_ID].num_periods-1));
                    if(nrk_task_TCB[task_ID].period==0) nrk_task_TCB[task_ID].next_wakeup = MAX_SCHED_WAKEUP_TIME;
                    nrk_task_TCB[task_ID].num_periods=1;
    489c:	61 e0       	ldi	r22, 0x01	; 1
    489e:	66 2e       	mov	r6, r22
    48a0:	71 2c       	mov	r7, r1
                    nrk_task_TCB[task_ID].cpu_remaining = nrk_task_TCB[task_ID].cpu_reserve;
                    //nrk_task_TCB[task_ID].next_wakeup = nrk_task_TCB[task_ID].next_period;
                    //nrk_task_TCB[task_ID].num_periods--;
                    nrk_task_TCB[task_ID].next_wakeup = (nrk_task_TCB[task_ID].period*(nrk_task_TCB[task_ID].num_periods-1));
                    nrk_task_TCB[task_ID].next_period = (nrk_task_TCB[task_ID].period*(nrk_task_TCB[task_ID].num_periods-1));
                    if(nrk_task_TCB[task_ID].period==0) nrk_task_TCB[task_ID].next_wakeup = MAX_SCHED_WAKEUP_TIME;
    48a2:	5a ef       	ldi	r21, 0xFA	; 250
    48a4:	e5 2e       	mov	r14, r21
    48a6:	f1 2c       	mov	r15, r1
                nrk_task_TCB[task_ID].nw_flag=0;
                nrk_task_TCB[task_ID].suspend_flag=0;
                if(nrk_task_TCB[task_ID].num_periods==1)
                {
                    nrk_task_TCB[task_ID].cpu_remaining = nrk_task_TCB[task_ID].cpu_reserve;
                    nrk_task_TCB[task_ID].task_state = READY;
    48a8:	42 e0       	ldi	r20, 0x02	; 2
    48aa:	94 2e       	mov	r9, r20
            // printf( "Task: %d nw: %d\n",task_ID,nrk_task_TCB[task_ID].next_wakeup);
            // If a task needs to become READY, make it ready
            if (nrk_task_TCB[task_ID].next_wakeup == 0)
            {
                // printf( "Adding back %d\n",task_ID );
                if(nrk_task_TCB[task_ID].event_suspend>0 && nrk_task_TCB[task_ID].nw_flag==1) nrk_task_TCB[task_ID].active_signal_mask=SIG(nrk_wakeup_signal);
    48ac:	31 e0       	ldi	r19, 0x01	; 1
    48ae:	a3 2e       	mov	r10, r19
    48b0:	b1 2c       	mov	r11, r1
    48b2:	c1 2c       	mov	r12, r1
    48b4:	d1 2c       	mov	r13, r1

    // Add eligable tasks back to the ready Queue
    // At the same time find the next earliest wakeup
    for (task_ID=0; task_ID < NRK_MAX_TASKS; task_ID++)
    {
        if(nrk_task_TCB[task_ID].task_ID==-1) continue;
    48b6:	d1 01       	movw	r26, r2
    48b8:	13 96       	adiw	r26, 0x03	; 3
    48ba:	8c 91       	ld	r24, X
    48bc:	13 97       	sbiw	r26, 0x03	; 3
    48be:	8f 3f       	cpi	r24, 0xFF	; 255
    48c0:	09 f4       	brne	.+2      	; 0x48c4 <_nrk_scheduler+0x2aa>
    48c2:	c4 c0       	rjmp	.+392    	; 0x4a4c <_nrk_scheduler+0x432>
        nrk_task_TCB[task_ID].suspend_flag=0;
    48c4:	1c 92       	st	X, r1
        if( nrk_task_TCB[task_ID].task_ID!=NRK_IDLE_TASK_ID && nrk_task_TCB[task_ID].task_state!=FINISHED )
    48c6:	88 23       	and	r24, r24
    48c8:	09 f4       	brne	.+2      	; 0x48cc <_nrk_scheduler+0x2b2>
    48ca:	43 c0       	rjmp	.+134    	; 0x4952 <_nrk_scheduler+0x338>
    48cc:	14 96       	adiw	r26, 0x04	; 4
    48ce:	8c 91       	ld	r24, X
    48d0:	14 97       	sbiw	r26, 0x04	; 4
    48d2:	84 30       	cpi	r24, 0x04	; 4
    48d4:	f1 f1       	breq	.+124    	; 0x4952 <_nrk_scheduler+0x338>
        {
            if(  nrk_task_TCB[task_ID].next_wakeup >= _nrk_prev_timer_val )
    48d6:	50 96       	adiw	r26, 0x10	; 16
    48d8:	4d 91       	ld	r20, X+
    48da:	5c 91       	ld	r21, X
    48dc:	51 97       	sbiw	r26, 0x11	; 17
    48de:	80 91 46 06 	lds	r24, 0x0646
    48e2:	90 e0       	ldi	r25, 0x00	; 0
    48e4:	48 17       	cp	r20, r24
    48e6:	59 07       	cpc	r21, r25
    48e8:	38 f0       	brcs	.+14     	; 0x48f8 <_nrk_scheduler+0x2de>
                nrk_task_TCB[task_ID].next_wakeup-=_nrk_prev_timer_val;
    48ea:	48 1b       	sub	r20, r24
    48ec:	59 0b       	sbc	r21, r25
    48ee:	51 96       	adiw	r26, 0x11	; 17
    48f0:	5c 93       	st	X, r21
    48f2:	4e 93       	st	-X, r20
    48f4:	50 97       	sbiw	r26, 0x10	; 16
    48f6:	03 c0       	rjmp	.+6      	; 0x48fe <_nrk_scheduler+0x2e4>
            else
            {
                nrk_task_TCB[task_ID].next_wakeup=0;
    48f8:	f1 01       	movw	r30, r2
    48fa:	11 8a       	std	Z+17, r1	; 0x11
    48fc:	10 8a       	std	Z+16, r1	; 0x10
            }
            // Do next period book keeping.
            // next_period needs to be set such that the period is kept consistent even if other
            // wait until functions are called.
            if( nrk_task_TCB[task_ID].next_period >= _nrk_prev_timer_val )
    48fe:	d1 01       	movw	r26, r2
    4900:	52 96       	adiw	r26, 0x12	; 18
    4902:	4d 91       	ld	r20, X+
    4904:	5c 91       	ld	r21, X
    4906:	53 97       	sbiw	r26, 0x13	; 19
    4908:	48 17       	cp	r20, r24
    490a:	59 07       	cpc	r21, r25
    490c:	38 f0       	brcs	.+14     	; 0x491c <_nrk_scheduler+0x302>
                nrk_task_TCB[task_ID].next_period-=_nrk_prev_timer_val;
    490e:	48 1b       	sub	r20, r24
    4910:	59 0b       	sbc	r21, r25
    4912:	53 96       	adiw	r26, 0x13	; 19
    4914:	5c 93       	st	X, r21
    4916:	4e 93       	st	-X, r20
    4918:	52 97       	sbiw	r26, 0x12	; 18
    491a:	12 c0       	rjmp	.+36     	; 0x4940 <_nrk_scheduler+0x326>
            else
            {
                if(nrk_task_TCB[task_ID].period>_nrk_prev_timer_val)
    491c:	f1 01       	movw	r30, r2
    491e:	66 89       	ldd	r22, Z+22	; 0x16
    4920:	77 89       	ldd	r23, Z+23	; 0x17
    4922:	86 17       	cp	r24, r22
    4924:	97 07       	cpc	r25, r23
    4926:	28 f4       	brcc	.+10     	; 0x4932 <_nrk_scheduler+0x318>
                    nrk_task_TCB[task_ID].next_period= nrk_task_TCB[task_ID].period-_nrk_prev_timer_val;
    4928:	68 1b       	sub	r22, r24
    492a:	79 0b       	sbc	r23, r25
    492c:	73 8b       	std	Z+19, r23	; 0x13
    492e:	62 8b       	std	Z+18, r22	; 0x12
    4930:	07 c0       	rjmp	.+14     	; 0x4940 <_nrk_scheduler+0x326>
                else
                    nrk_task_TCB[task_ID].next_period= _nrk_prev_timer_val % nrk_task_TCB[task_ID].period;
    4932:	0e 94 27 41 	call	0x824e	; 0x824e <__udivmodhi4>
    4936:	d1 01       	movw	r26, r2
    4938:	53 96       	adiw	r26, 0x13	; 19
    493a:	9c 93       	st	X, r25
    493c:	8e 93       	st	-X, r24
    493e:	52 97       	sbiw	r26, 0x12	; 18
            }
            if(nrk_task_TCB[task_ID].next_period==0) nrk_task_TCB[task_ID].next_period=nrk_task_TCB[task_ID].period;
    4940:	f1 01       	movw	r30, r2
    4942:	82 89       	ldd	r24, Z+18	; 0x12
    4944:	93 89       	ldd	r25, Z+19	; 0x13
    4946:	00 97       	sbiw	r24, 0x00	; 0
    4948:	21 f4       	brne	.+8      	; 0x4952 <_nrk_scheduler+0x338>
    494a:	86 89       	ldd	r24, Z+22	; 0x16
    494c:	97 89       	ldd	r25, Z+23	; 0x17
    494e:	93 8b       	std	Z+19, r25	; 0x13
    4950:	82 8b       	std	Z+18, r24	; 0x12

        }


        // Look for Next Task that Might Wakeup to interrupt current task
        if (nrk_task_TCB[task_ID].task_state == SUSPENDED )
    4952:	d1 01       	movw	r26, r2
    4954:	14 96       	adiw	r26, 0x04	; 4
    4956:	8c 91       	ld	r24, X
    4958:	14 97       	sbiw	r26, 0x04	; 4
    495a:	83 30       	cpi	r24, 0x03	; 3
    495c:	09 f0       	breq	.+2      	; 0x4960 <_nrk_scheduler+0x346>
    495e:	76 c0       	rjmp	.+236    	; 0x4a4c <_nrk_scheduler+0x432>
        {
            // printf( "Task: %d nw: %d\n",task_ID,nrk_task_TCB[task_ID].next_wakeup);
            // If a task needs to become READY, make it ready
            if (nrk_task_TCB[task_ID].next_wakeup == 0)
    4960:	50 96       	adiw	r26, 0x10	; 16
    4962:	8d 91       	ld	r24, X+
    4964:	9c 91       	ld	r25, X
    4966:	51 97       	sbiw	r26, 0x11	; 17
    4968:	00 97       	sbiw	r24, 0x00	; 0
    496a:	09 f0       	breq	.+2      	; 0x496e <_nrk_scheduler+0x354>
    496c:	66 c0       	rjmp	.+204    	; 0x4a3a <_nrk_scheduler+0x420>
            {
                // printf( "Adding back %d\n",task_ID );
                if(nrk_task_TCB[task_ID].event_suspend>0 && nrk_task_TCB[task_ID].nw_flag==1) nrk_task_TCB[task_ID].active_signal_mask=SIG(nrk_wakeup_signal);
    496e:	12 96       	adiw	r26, 0x02	; 2
    4970:	8c 91       	ld	r24, X
    4972:	12 97       	sbiw	r26, 0x02	; 2
    4974:	88 23       	and	r24, r24
    4976:	a9 f0       	breq	.+42     	; 0x49a2 <_nrk_scheduler+0x388>
    4978:	11 96       	adiw	r26, 0x01	; 1
    497a:	8c 91       	ld	r24, X
    497c:	11 97       	sbiw	r26, 0x01	; 1
    497e:	88 23       	and	r24, r24
    4980:	81 f0       	breq	.+32     	; 0x49a2 <_nrk_scheduler+0x388>
    4982:	d6 01       	movw	r26, r12
    4984:	c5 01       	movw	r24, r10
    4986:	00 90 c5 07 	lds	r0, 0x07C5
    498a:	04 c0       	rjmp	.+8      	; 0x4994 <_nrk_scheduler+0x37a>
    498c:	88 0f       	add	r24, r24
    498e:	99 1f       	adc	r25, r25
    4990:	aa 1f       	adc	r26, r26
    4992:	bb 1f       	adc	r27, r27
    4994:	0a 94       	dec	r0
    4996:	d2 f7       	brpl	.-12     	; 0x498c <_nrk_scheduler+0x372>
    4998:	f1 01       	movw	r30, r2
    499a:	84 87       	std	Z+12, r24	; 0x0c
    499c:	95 87       	std	Z+13, r25	; 0x0d
    499e:	a6 87       	std	Z+14, r26	; 0x0e
    49a0:	b7 87       	std	Z+15, r27	; 0x0f
                //if(nrk_task_TCB[task_ID].event_suspend==0) nrk_task_TCB[task_ID].active_signal_mask=0;
                nrk_task_TCB[task_ID].event_suspend=0;
    49a2:	d1 01       	movw	r26, r2
    49a4:	12 96       	adiw	r26, 0x02	; 2
    49a6:	1c 92       	st	X, r1
    49a8:	12 97       	sbiw	r26, 0x02	; 2
                nrk_task_TCB[task_ID].nw_flag=0;
    49aa:	11 96       	adiw	r26, 0x01	; 1
    49ac:	1c 92       	st	X, r1
    49ae:	11 97       	sbiw	r26, 0x01	; 1
                nrk_task_TCB[task_ID].suspend_flag=0;
    49b0:	1c 92       	st	X, r1
                if(nrk_task_TCB[task_ID].num_periods==1)
    49b2:	5a 96       	adiw	r26, 0x1a	; 26
    49b4:	4d 91       	ld	r20, X+
    49b6:	5c 91       	ld	r21, X
    49b8:	5b 97       	sbiw	r26, 0x1b	; 27
    49ba:	56 96       	adiw	r26, 0x16	; 22
    49bc:	8d 91       	ld	r24, X+
    49be:	9c 91       	ld	r25, X
    49c0:	57 97       	sbiw	r26, 0x17	; 23
    49c2:	58 96       	adiw	r26, 0x18	; 24
    49c4:	6d 91       	ld	r22, X+
    49c6:	7c 91       	ld	r23, X
    49c8:	59 97       	sbiw	r26, 0x19	; 25
    49ca:	41 30       	cpi	r20, 0x01	; 1
    49cc:	51 05       	cpc	r21, r1
    49ce:	d9 f4       	brne	.+54     	; 0x4a06 <_nrk_scheduler+0x3ec>
                {
                    nrk_task_TCB[task_ID].cpu_remaining = nrk_task_TCB[task_ID].cpu_reserve;
    49d0:	55 96       	adiw	r26, 0x15	; 21
    49d2:	7c 93       	st	X, r23
    49d4:	6e 93       	st	-X, r22
    49d6:	54 97       	sbiw	r26, 0x14	; 20
                    nrk_task_TCB[task_ID].task_state = READY;
    49d8:	14 96       	adiw	r26, 0x04	; 4
    49da:	9c 92       	st	X, r9
    49dc:	14 97       	sbiw	r26, 0x04	; 4
                    nrk_task_TCB[task_ID].next_wakeup = nrk_task_TCB[task_ID].next_period;
    49de:	52 96       	adiw	r26, 0x12	; 18
    49e0:	4d 91       	ld	r20, X+
    49e2:	5c 91       	ld	r21, X
    49e4:	53 97       	sbiw	r26, 0x13	; 19
    49e6:	51 96       	adiw	r26, 0x11	; 17
    49e8:	5c 93       	st	X, r21
    49ea:	4e 93       	st	-X, r20
    49ec:	50 97       	sbiw	r26, 0x10	; 16
                    // If there is no period set, don't wakeup periodically
                    if(nrk_task_TCB[task_ID].period==0) nrk_task_TCB[task_ID].next_wakeup = MAX_SCHED_WAKEUP_TIME;
    49ee:	00 97       	sbiw	r24, 0x00	; 0
    49f0:	21 f4       	brne	.+8      	; 0x49fa <_nrk_scheduler+0x3e0>
    49f2:	51 96       	adiw	r26, 0x11	; 17
    49f4:	fc 92       	st	X, r15
    49f6:	ee 92       	st	-X, r14
    49f8:	50 97       	sbiw	r26, 0x10	; 16
                    nrk_add_to_readyQ(task_ID);
    49fa:	82 2f       	mov	r24, r18
    49fc:	29 83       	std	Y+1, r18	; 0x01
    49fe:	0e 94 e1 1c 	call	0x39c2	; 0x39c2 <nrk_add_to_readyQ>
    4a02:	29 81       	ldd	r18, Y+1	; 0x01
    4a04:	1a c0       	rjmp	.+52     	; 0x4a3a <_nrk_scheduler+0x420>
                }
                else
                {
                    nrk_task_TCB[task_ID].cpu_remaining = nrk_task_TCB[task_ID].cpu_reserve;
    4a06:	f1 01       	movw	r30, r2
    4a08:	75 8b       	std	Z+21, r23	; 0x15
    4a0a:	64 8b       	std	Z+20, r22	; 0x14
                    //nrk_task_TCB[task_ID].next_wakeup = nrk_task_TCB[task_ID].next_period;
                    //nrk_task_TCB[task_ID].num_periods--;
                    nrk_task_TCB[task_ID].next_wakeup = (nrk_task_TCB[task_ID].period*(nrk_task_TCB[task_ID].num_periods-1));
    4a0c:	ba 01       	movw	r22, r20
    4a0e:	61 50       	subi	r22, 0x01	; 1
    4a10:	70 40       	sbci	r23, 0x00	; 0
    4a12:	68 9f       	mul	r22, r24
    4a14:	a0 01       	movw	r20, r0
    4a16:	69 9f       	mul	r22, r25
    4a18:	50 0d       	add	r21, r0
    4a1a:	78 9f       	mul	r23, r24
    4a1c:	50 0d       	add	r21, r0
    4a1e:	11 24       	eor	r1, r1
    4a20:	51 8b       	std	Z+17, r21	; 0x11
    4a22:	40 8b       	std	Z+16, r20	; 0x10
                    nrk_task_TCB[task_ID].next_period = (nrk_task_TCB[task_ID].period*(nrk_task_TCB[task_ID].num_periods-1));
    4a24:	53 8b       	std	Z+19, r21	; 0x13
    4a26:	42 8b       	std	Z+18, r20	; 0x12
                    if(nrk_task_TCB[task_ID].period==0) nrk_task_TCB[task_ID].next_wakeup = MAX_SCHED_WAKEUP_TIME;
    4a28:	00 97       	sbiw	r24, 0x00	; 0
    4a2a:	11 f4       	brne	.+4      	; 0x4a30 <_nrk_scheduler+0x416>
    4a2c:	f1 8a       	std	Z+17, r15	; 0x11
    4a2e:	e0 8a       	std	Z+16, r14	; 0x10
                    nrk_task_TCB[task_ID].num_periods=1;
    4a30:	d1 01       	movw	r26, r2
    4a32:	5b 96       	adiw	r26, 0x1b	; 27
    4a34:	7c 92       	st	X, r7
    4a36:	6e 92       	st	-X, r6
    4a38:	5a 97       	sbiw	r26, 0x1a	; 26
                    //			printf( "np = %d\r\n",nrk_task_TCB[task_ID].next_wakeup);
                    //			nrk_task_TCB[task_ID].num_periods=1;
                }
            }

            if(nrk_task_TCB[task_ID].next_wakeup!=0 &&
    4a3a:	f1 01       	movw	r30, r2
    4a3c:	80 89       	ldd	r24, Z+16	; 0x10
    4a3e:	91 89       	ldd	r25, Z+17	; 0x11
    4a40:	00 97       	sbiw	r24, 0x00	; 0
    4a42:	21 f0       	breq	.+8      	; 0x4a4c <_nrk_scheduler+0x432>
    4a44:	80 17       	cp	r24, r16
    4a46:	91 07       	cpc	r25, r17
    4a48:	08 f4       	brcc	.+2      	; 0x4a4c <_nrk_scheduler+0x432>
    4a4a:	8c 01       	movw	r16, r24

    // Check I/O nrk_queues to add tasks with remaining cpu back...

    // Add eligable tasks back to the ready Queue
    // At the same time find the next earliest wakeup
    for (task_ID=0; task_ID < NRK_MAX_TASKS; task_ID++)
    4a4c:	2f 5f       	subi	r18, 0xFF	; 255
    4a4e:	82 e2       	ldi	r24, 0x22	; 34
    4a50:	90 e0       	ldi	r25, 0x00	; 0
    4a52:	28 0e       	add	r2, r24
    4a54:	39 1e       	adc	r3, r25
    4a56:	25 30       	cpi	r18, 0x05	; 5
    4a58:	09 f0       	breq	.+2      	; 0x4a5c <_nrk_scheduler+0x442>
    4a5a:	2d cf       	rjmp	.-422    	; 0x48b6 <_nrk_scheduler+0x29c>


#ifdef NRK_STATS_TRACKER
    _nrk_stats_task_start(nrk_cur_task_TCB->task_ID);
#endif
    task_ID = nrk_get_high_ready_task_ID();
    4a5c:	0e 94 a2 1c 	call	0x3944	; 0x3944 <nrk_get_high_ready_task_ID>
    4a60:	e8 2e       	mov	r14, r24
    nrk_high_ready_prio = nrk_task_TCB[task_ID].task_prio;
    4a62:	28 2f       	mov	r18, r24
    4a64:	33 27       	eor	r19, r19
    4a66:	27 fd       	sbrc	r18, 7
    4a68:	30 95       	com	r19
    4a6a:	f9 01       	movw	r30, r18
    4a6c:	ee 0f       	add	r30, r30
    4a6e:	ff 1f       	adc	r31, r31
    4a70:	85 e0       	ldi	r24, 0x05	; 5
    4a72:	22 0f       	add	r18, r18
    4a74:	33 1f       	adc	r19, r19
    4a76:	8a 95       	dec	r24
    4a78:	e1 f7       	brne	.-8      	; 0x4a72 <_nrk_scheduler+0x458>
    4a7a:	e2 0f       	add	r30, r18
    4a7c:	f3 1f       	adc	r31, r19
    4a7e:	e8 5f       	subi	r30, 0xF8	; 248
    4a80:	f8 4f       	sbci	r31, 0xF8	; 248
    4a82:	82 85       	ldd	r24, Z+10	; 0x0a
    4a84:	80 93 d7 07 	sts	0x07D7, r24
    nrk_high_ready_TCB = &nrk_task_TCB[task_ID];
    4a88:	f0 93 c7 07 	sts	0x07C7, r31
    4a8c:	e0 93 c6 07 	sts	0x07C6, r30
    // task_ID holds the highest priority READY task ID
    // So nrk_task_TCB[task_ID].cpu_remaining holds the READY task's end time

    // Now we pick the next wakeup (either the end of the current task, or the possible resume
    // of a suspended task)
    if(task_ID!=NRK_IDLE_TASK_ID)
    4a90:	ee 20       	and	r14, r14
    4a92:	b9 f0       	breq	.+46     	; 0x4ac2 <_nrk_scheduler+0x4a8>
    {
        // You are a non-Idle Task
        if(nrk_task_TCB[task_ID].cpu_reserve!=0 && nrk_task_TCB[task_ID].cpu_remaining<MAX_SCHED_WAKEUP_TIME)
    4a94:	25 8d       	ldd	r18, Z+29	; 0x1d
    4a96:	36 8d       	ldd	r19, Z+30	; 0x1e
    4a98:	21 15       	cp	r18, r1
    4a9a:	31 05       	cpc	r19, r1
    4a9c:	51 f0       	breq	.+20     	; 0x4ab2 <_nrk_scheduler+0x498>
    4a9e:	21 8d       	ldd	r18, Z+25	; 0x19
    4aa0:	32 8d       	ldd	r19, Z+26	; 0x1a
    4aa2:	2a 3f       	cpi	r18, 0xFA	; 250
    4aa4:	31 05       	cpc	r19, r1
    4aa6:	28 f4       	brcc	.+10     	; 0x4ab2 <_nrk_scheduler+0x498>
        {
            if(next_wake>nrk_task_TCB[task_ID].cpu_remaining)
    4aa8:	20 17       	cp	r18, r16
    4aaa:	31 07       	cpc	r19, r17
    4aac:	08 f4       	brcc	.+2      	; 0x4ab0 <_nrk_scheduler+0x496>
    4aae:	4b c0       	rjmp	.+150    	; 0x4b46 <_nrk_scheduler+0x52c>
    4ab0:	0d c0       	rjmp	.+26     	; 0x4acc <_nrk_scheduler+0x4b2>
    4ab2:	98 01       	movw	r18, r16
    4ab4:	0b 3f       	cpi	r16, 0xFB	; 251
    4ab6:	11 05       	cpc	r17, r1
    4ab8:	08 f4       	brcc	.+2      	; 0x4abc <_nrk_scheduler+0x4a2>
    4aba:	45 c0       	rjmp	.+138    	; 0x4b46 <_nrk_scheduler+0x52c>
    4abc:	2a ef       	ldi	r18, 0xFA	; 250
    4abe:	30 e0       	ldi	r19, 0x00	; 0
    4ac0:	42 c0       	rjmp	.+132    	; 0x4b46 <_nrk_scheduler+0x52c>
    }*/


    //  If we disable power down, we still need to wakeup before the overflow
#ifdef NRK_NO_POWER_DOWN
    if(next_wake>MAX_SCHED_WAKEUP_TIME)  next_wake=MAX_SCHED_WAKEUP_TIME;
    4ac2:	0b 3f       	cpi	r16, 0xFB	; 251
    4ac4:	11 05       	cpc	r17, r1
    4ac6:	10 f0       	brcs	.+4      	; 0x4acc <_nrk_scheduler+0x4b2>
    4ac8:	0a ef       	ldi	r16, 0xFA	; 250
    4aca:	10 e0       	ldi	r17, 0x00	; 0
#endif
    //printf( "nw = %d %d %d\r\n",task_ID,_nrk_cpu_state,next_wake);
    nrk_cur_task_prio = nrk_high_ready_prio;
    4acc:	80 93 c8 07 	sts	0x07C8, r24
    nrk_cur_task_TCB  = nrk_high_ready_TCB;
    4ad0:	f0 93 d6 07 	sts	0x07D6, r31
    4ad4:	e0 93 d5 07 	sts	0x07D5, r30
        nrk_kprintf( PSTR( "KERNEL TEST: BAD TCB!\r\n" ));
    }
#endif
    //printf( "n %u %u %u %u\r\n",task_ID, _nrk_prev_timer_val, next_wake,_nrk_os_timer_get());

    _nrk_prev_timer_val=next_wake;
    4ad8:	00 93 46 06 	sts	0x0646, r16


    if((_nrk_os_timer_get()+1)>=next_wake)  // just bigger then, or equal?
    4adc:	0e 94 3c 26 	call	0x4c78	; 0x4c78 <_nrk_os_timer_get>
    4ae0:	28 2f       	mov	r18, r24
    4ae2:	30 e0       	ldi	r19, 0x00	; 0
    4ae4:	2f 5f       	subi	r18, 0xFF	; 255
    4ae6:	3f 4f       	sbci	r19, 0xFF	; 255
    4ae8:	20 17       	cp	r18, r16
    4aea:	31 07       	cpc	r19, r17
    4aec:	40 f0       	brcs	.+16     	; 0x4afe <_nrk_scheduler+0x4e4>
        if(!(task_ID==NRK_IDLE_TASK_ID && _nrk_cpu_state==CPU_SLEEP))
            nrk_kernel_error_add(NRK_WAKEUP_MISSED,task_ID);
#endif
        // This is bad news, but keeps things running
        // +2 just in case we are on the edge of the last tick
        next_wake=_nrk_os_timer_get()+2;
    4aee:	0e 94 3c 26 	call	0x4c78	; 0x4c78 <_nrk_os_timer_get>
    4af2:	08 2f       	mov	r16, r24
    4af4:	10 e0       	ldi	r17, 0x00	; 0
    4af6:	0e 5f       	subi	r16, 0xFE	; 254
    4af8:	1f 4f       	sbci	r17, 0xFF	; 255
        _nrk_prev_timer_val=next_wake;
    4afa:	00 93 46 06 	sts	0x0646, r16
    }

    if(task_ID!=NRK_IDLE_TASK_ID) _nrk_cpu_state=CPU_ACTIVE;
    4afe:	ee 20       	and	r14, r14
    4b00:	11 f0       	breq	.+4      	; 0x4b06 <_nrk_scheduler+0x4ec>
    4b02:	10 92 c9 07 	sts	0x07C9, r1

    _nrk_set_next_wakeup(next_wake);
    4b06:	80 2f       	mov	r24, r16
    4b08:	0e 94 39 26 	call	0x4c72	; 0x4c72 <_nrk_set_next_wakeup>

#ifndef NRK_NO_BOUNDED_CONTEXT_SWAP
    // Bound Context Swap to 100us
    nrk_high_speed_timer_wait(start_time_stamp,CONTEXT_SWAP_TIME_BOUND);
    4b0c:	c2 01       	movw	r24, r4
    4b0e:	6e ee       	ldi	r22, 0xEE	; 238
    4b10:	72 e0       	ldi	r23, 0x02	; 2
    4b12:	0e 94 c8 25 	call	0x4b90	; 0x4b90 <nrk_high_speed_timer_wait>
#endif
    nrk_stack_pointer_restore();
    4b16:	0e 94 fd 27 	call	0x4ffa	; 0x4ffa <nrk_stack_pointer_restore>
    //nrk_int_enable();
    nrk_start_high_ready_task();
    4b1a:	0e 94 61 33 	call	0x66c2	; 0x66c2 <nrk_start_high_ready_task>

}
    4b1e:	0f 90       	pop	r0
    4b20:	cf 91       	pop	r28
    4b22:	df 91       	pop	r29
    4b24:	1f 91       	pop	r17
    4b26:	0f 91       	pop	r16
    4b28:	ff 90       	pop	r15
    4b2a:	ef 90       	pop	r14
    4b2c:	df 90       	pop	r13
    4b2e:	cf 90       	pop	r12
    4b30:	bf 90       	pop	r11
    4b32:	af 90       	pop	r10
    4b34:	9f 90       	pop	r9
    4b36:	8f 90       	pop	r8
    4b38:	7f 90       	pop	r7
    4b3a:	6f 90       	pop	r6
    4b3c:	5f 90       	pop	r5
    4b3e:	4f 90       	pop	r4
    4b40:	3f 90       	pop	r3
    4b42:	2f 90       	pop	r2
    4b44:	08 95       	ret

    // Check I/O nrk_queues to add tasks with remaining cpu back...

    // Add eligable tasks back to the ready Queue
    // At the same time find the next earliest wakeup
    for (task_ID=0; task_ID < NRK_MAX_TASKS; task_ID++)
    4b46:	89 01       	movw	r16, r18
    4b48:	c1 cf       	rjmp	.-126    	; 0x4acc <_nrk_scheduler+0x4b2>

00004b4a <nrk_spin_wait_us>:
	...
        NOP();
        NOP();
        NOP();
        NOP();
    }
    while (--timeout);
    4b52:	01 97       	sbiw	r24, 0x01	; 1
    4b54:	d1 f7       	brne	.-12     	; 0x4b4a <nrk_spin_wait_us>

}
    4b56:	08 95       	ret

00004b58 <_nrk_high_speed_timer_stop>:
    _nrk_time_trigger=0;
}

void _nrk_high_speed_timer_stop()
{
    TCCR1B=0;  // no clock
    4b58:	1e bc       	out	0x2e, r1	; 46
}
    4b5a:	08 95       	ret

00004b5c <_nrk_high_speed_timer_start>:

void _nrk_high_speed_timer_start()
{
    TCCR1B=BM(CS10);  // clk I/O no prescaler
    4b5c:	81 e0       	ldi	r24, 0x01	; 1
    4b5e:	8e bd       	out	0x2e, r24	; 46
}
    4b60:	08 95       	ret

00004b62 <_nrk_high_speed_timer_reset>:


void _nrk_high_speed_timer_reset()
{
    //nrk_int_disable();
    SFIOR |= BM(PSR321);              // reset prescaler
    4b62:	80 b5       	in	r24, 0x20	; 32
    4b64:	81 60       	ori	r24, 0x01	; 1
    4b66:	80 bd       	out	0x20, r24	; 32
    TCNT1=0;
    4b68:	1d bc       	out	0x2d, r1	; 45
    4b6a:	1c bc       	out	0x2c, r1	; 44
    //nrk_int_enable();
}
    4b6c:	08 95       	ret

00004b6e <_nrk_high_speed_timer_get>:
    do {}
    while(_nrk_high_speed_timer_get()<ticks);
}

inline uint16_t _nrk_high_speed_timer_get()
{
    4b6e:	df 93       	push	r29
    4b70:	cf 93       	push	r28
    4b72:	00 d0       	rcall	.+0      	; 0x4b74 <_nrk_high_speed_timer_get+0x6>
    4b74:	cd b7       	in	r28, 0x3d	; 61
    4b76:	de b7       	in	r29, 0x3e	; 62
    volatile uint16_t tmp;
    //nrk_int_disable();
    tmp=TCNT1;
    4b78:	8c b5       	in	r24, 0x2c	; 44
    4b7a:	9d b5       	in	r25, 0x2d	; 45
    4b7c:	9a 83       	std	Y+2, r25	; 0x02
    4b7e:	89 83       	std	Y+1, r24	; 0x01
    //nrk_int_enable();
    return tmp;
    4b80:	29 81       	ldd	r18, Y+1	; 0x01
    4b82:	3a 81       	ldd	r19, Y+2	; 0x02
}
    4b84:	c9 01       	movw	r24, r18
    4b86:	0f 90       	pop	r0
    4b88:	0f 90       	pop	r0
    4b8a:	cf 91       	pop	r28
    4b8c:	df 91       	pop	r29
    4b8e:	08 95       	ret

00004b90 <nrk_high_speed_timer_wait>:
  This function blocks for n ticks of the high speed timer after the
  start number of ticks.  It will handle the overflow that can occur.
  Do not use this for delays longer than 8ms!
*/
void nrk_high_speed_timer_wait( uint16_t start, uint16_t ticks )
{
    4b90:	ef 92       	push	r14
    4b92:	ff 92       	push	r15
    4b94:	0f 93       	push	r16
    4b96:	1f 93       	push	r17
    4b98:	cf 93       	push	r28
    4b9a:	df 93       	push	r29
    4b9c:	ec 01       	movw	r28, r24
    uint32_t tmp;
    if(start>65400) start=0;
    4b9e:	8f ef       	ldi	r24, 0xFF	; 255
    4ba0:	c9 37       	cpi	r28, 0x79	; 121
    4ba2:	d8 07       	cpc	r29, r24
    4ba4:	10 f0       	brcs	.+4      	; 0x4baa <nrk_high_speed_timer_wait+0x1a>
    4ba6:	c0 e0       	ldi	r28, 0x00	; 0
    4ba8:	d0 e0       	ldi	r29, 0x00	; 0
    tmp=(uint32_t)start+(uint32_t)ticks;
    4baa:	7e 01       	movw	r14, r28
    4bac:	00 e0       	ldi	r16, 0x00	; 0
    4bae:	10 e0       	ldi	r17, 0x00	; 0
    4bb0:	80 e0       	ldi	r24, 0x00	; 0
    4bb2:	90 e0       	ldi	r25, 0x00	; 0
    4bb4:	e6 0e       	add	r14, r22
    4bb6:	f7 1e       	adc	r15, r23
    4bb8:	08 1f       	adc	r16, r24
    4bba:	19 1f       	adc	r17, r25
    if(tmp>65536)
    4bbc:	91 e0       	ldi	r25, 0x01	; 1
    4bbe:	e9 16       	cp	r14, r25
    4bc0:	90 e0       	ldi	r25, 0x00	; 0
    4bc2:	f9 06       	cpc	r15, r25
    4bc4:	91 e0       	ldi	r25, 0x01	; 1
    4bc6:	09 07       	cpc	r16, r25
    4bc8:	90 e0       	ldi	r25, 0x00	; 0
    4bca:	19 07       	cpc	r17, r25
    4bcc:	68 f0       	brcs	.+26     	; 0x4be8 <nrk_high_speed_timer_wait+0x58>
    {
        tmp-=65536;
    4bce:	80 e0       	ldi	r24, 0x00	; 0
    4bd0:	90 e0       	ldi	r25, 0x00	; 0
    4bd2:	af ef       	ldi	r26, 0xFF	; 255
    4bd4:	bf ef       	ldi	r27, 0xFF	; 255
    4bd6:	e8 0e       	add	r14, r24
    4bd8:	f9 1e       	adc	r15, r25
    4bda:	0a 1f       	adc	r16, r26
    4bdc:	1b 1f       	adc	r17, r27
        do {}
        while(_nrk_high_speed_timer_get()>start);
    4bde:	0e 94 b7 25 	call	0x4b6e	; 0x4b6e <_nrk_high_speed_timer_get>
    4be2:	c8 17       	cp	r28, r24
    4be4:	d9 07       	cpc	r29, r25
    4be6:	d8 f3       	brcs	.-10     	; 0x4bde <nrk_high_speed_timer_wait+0x4e>
    }

    ticks=tmp;
    do {}
    while(_nrk_high_speed_timer_get()<ticks);
    4be8:	0e 94 b7 25 	call	0x4b6e	; 0x4b6e <_nrk_high_speed_timer_get>
    4bec:	8e 15       	cp	r24, r14
    4bee:	9f 05       	cpc	r25, r15
    4bf0:	d8 f3       	brcs	.-10     	; 0x4be8 <nrk_high_speed_timer_wait+0x58>
}
    4bf2:	df 91       	pop	r29
    4bf4:	cf 91       	pop	r28
    4bf6:	1f 91       	pop	r17
    4bf8:	0f 91       	pop	r16
    4bfa:	ff 90       	pop	r15
    4bfc:	ef 90       	pop	r14
    4bfe:	08 95       	ret

00004c00 <_nrk_os_timer_set>:
    return tmp;
}

void _nrk_os_timer_set(uint8_t v)
{
    TCNT0=v;
    4c00:	82 bf       	out	0x32, r24	; 50
}
    4c02:	08 95       	ret

00004c04 <_nrk_os_timer_stop>:


void _nrk_os_timer_stop()
{
    TCCR0 = 0;  // stop clock
    4c04:	13 be       	out	0x33, r1	; 51
    TIMSK &=  ~BM(OCIE0) ;
    4c06:	87 b7       	in	r24, 0x37	; 55
    4c08:	8d 7f       	andi	r24, 0xFD	; 253
    4c0a:	87 bf       	out	0x37, r24	; 55
    TIMSK &=  ~BM(TOIE0) ;
    4c0c:	87 b7       	in	r24, 0x37	; 55
    4c0e:	8e 7f       	andi	r24, 0xFE	; 254
    4c10:	87 bf       	out	0x37, r24	; 55
    //ASSR = 0;
}
    4c12:	08 95       	ret

00004c14 <_nrk_os_timer_start>:
//must also include timer3
void _nrk_os_timer_start()
{
    TCCR0 = BM(WGM01) | BM(CS01) | BM(CS00); // set divider to 32
    4c14:	8b e0       	ldi	r24, 0x0B	; 11
    4c16:	83 bf       	out	0x33, r24	; 51
    TIMSK =  TIMSK| BM(OCIE0) | BM(TOIE0) ;//| BM(TICIE1);    // Enable interrupt
    4c18:	87 b7       	in	r24, 0x37	; 55
    4c1a:	83 60       	ori	r24, 0x03	; 3
    4c1c:	87 bf       	out	0x37, r24	; 55
}
    4c1e:	08 95       	ret

00004c20 <_nrk_os_timer_reset>:

inline void _nrk_os_timer_reset()
{

    SFIOR |= BM(PSR0);              // reset prescaler
    4c20:	80 b5       	in	r24, 0x20	; 32
    4c22:	82 60       	ori	r24, 0x02	; 2
    4c24:	80 bd       	out	0x20, r24	; 32
    TCNT0 = 0;                  // reset counter
    4c26:	12 be       	out	0x32, r1	; 50
    _nrk_time_trigger=0;
    4c28:	10 92 f6 04 	sts	0x04F6, r1
    _nrk_prev_timer_val=0;
    4c2c:	10 92 46 06 	sts	0x0646, r1
}
    4c30:	08 95       	ret

00004c32 <_nrk_setup_timer>:
}


void _nrk_setup_timer()
{
    _nrk_prev_timer_val=254;
    4c32:	8e ef       	ldi	r24, 0xFE	; 254
    4c34:	80 93 46 06 	sts	0x0646, r24

// Timer 0 Setup as Asynchronous timer running from 32Khz Clock
    ASSR = BM(AS0);
    4c38:	98 e0       	ldi	r25, 0x08	; 8
    4c3a:	90 bf       	out	0x30, r25	; 48
    OCR0 = _nrk_prev_timer_val;
    4c3c:	81 bf       	out	0x31, r24	; 49
    TIFR =   BM(OCF0) | BM(TOV0);       // Clear interrupt flag
    4c3e:	83 e0       	ldi	r24, 0x03	; 3
    4c40:	86 bf       	out	0x36, r24	; 54
    // TOP = OCR0, OCR0 update immediate, Overflow is set on MAX (255), Prescaler 32, Clear timer on compare match
    TCCR0 = BM(WGM01) | BM(CS01) | BM(CS00);
    4c42:	8b e0       	ldi	r24, 0x0B	; 11
    4c44:	83 bf       	out	0x33, r24	; 51
    SFIOR |= TSM;              // reset prescaler
    4c46:	80 b5       	in	r24, 0x20	; 32
    4c48:	87 60       	ori	r24, 0x07	; 7
    4c4a:	80 bd       	out	0x20, r24	; 32
    // reset prescaler
//    SFIOR |= TSM;

// Timer 1 High Precision Timer
// No interrupt, prescaler 1, Normal Operation
    TCCR1A=0;
    4c4c:	1f bc       	out	0x2f, r1	; 47
    TCCR1B=BM(CS10);  // clk I/O no prescale
    4c4e:	81 e0       	ldi	r24, 0x01	; 1
    4c50:	8e bd       	out	0x2e, r24	; 46
    TCNT1=0;  // 16 bit
    4c52:	1d bc       	out	0x2d, r1	; 45
    4c54:	1c bc       	out	0x2c, r1	; 44
    SFIOR |= BM(PSR321);              // reset prescaler
    4c56:	80 b5       	in	r24, 0x20	; 32
    4c58:	81 60       	ori	r24, 0x01	; 1
    4c5a:	80 bd       	out	0x20, r24	; 32

    _nrk_os_timer_reset();
    4c5c:	0e 94 10 26 	call	0x4c20	; 0x4c20 <_nrk_os_timer_reset>
    _nrk_os_timer_start();
    4c60:	0e 94 0a 26 	call	0x4c14	; 0x4c14 <_nrk_os_timer_start>
    _nrk_time_trigger=0;
    4c64:	10 92 f6 04 	sts	0x04F6, r1
}
    4c68:	08 95       	ret

00004c6a <_nrk_precision_os_timer_reset>:
}

void _nrk_precision_os_timer_reset()
{
//   _nrk_os_timer_reset();
}
    4c6a:	08 95       	ret

00004c6c <_nrk_get_next_wakeup>:


uint8_t _nrk_get_next_wakeup()
{
    return OCR0+1;      // pdiener: what's this +1 ?
    4c6c:	81 b7       	in	r24, 0x31	; 49
}
    4c6e:	8f 5f       	subi	r24, 0xFF	; 255
    4c70:	08 95       	ret

00004c72 <_nrk_set_next_wakeup>:

void _nrk_set_next_wakeup(uint8_t nw)
{
    OCR0 = nw-1;        // pdiener: what's this -1 ?
    4c72:	81 50       	subi	r24, 0x01	; 1
    4c74:	81 bf       	out	0x31, r24	; 49
}
    4c76:	08 95       	ret

00004c78 <_nrk_os_timer_get>:



inline uint8_t _nrk_os_timer_get()
{
    return TCNT0;
    4c78:	82 b7       	in	r24, 0x32	; 50
}
    4c7a:	08 95       	ret

00004c7c <__vector_default>:

//-------------------------------------------------------------------------------------------------------
//  Default ISR
//-------------------------------------------------------------------------------------------------------
SIGNAL(__vector_default)
{
    4c7c:	1f 92       	push	r1
    4c7e:	0f 92       	push	r0
    4c80:	0f b6       	in	r0, 0x3f	; 63
    4c82:	0f 92       	push	r0
    4c84:	0b b6       	in	r0, 0x3b	; 59
    4c86:	0f 92       	push	r0
    4c88:	11 24       	eor	r1, r1
    4c8a:	2f 93       	push	r18
    4c8c:	3f 93       	push	r19
    4c8e:	4f 93       	push	r20
    4c90:	5f 93       	push	r21
    4c92:	6f 93       	push	r22
    4c94:	7f 93       	push	r23
    4c96:	8f 93       	push	r24
    4c98:	9f 93       	push	r25
    4c9a:	af 93       	push	r26
    4c9c:	bf 93       	push	r27
    4c9e:	ef 93       	push	r30
    4ca0:	ff 93       	push	r31
    nrk_kernel_error_add(NRK_SEG_FAULT,0);
    4ca2:	8a e0       	ldi	r24, 0x0A	; 10
    4ca4:	60 e0       	ldi	r22, 0x00	; 0
    4ca6:	0e 94 5d 17 	call	0x2eba	; 0x2eba <nrk_kernel_error_add>
}
    4caa:	ff 91       	pop	r31
    4cac:	ef 91       	pop	r30
    4cae:	bf 91       	pop	r27
    4cb0:	af 91       	pop	r26
    4cb2:	9f 91       	pop	r25
    4cb4:	8f 91       	pop	r24
    4cb6:	7f 91       	pop	r23
    4cb8:	6f 91       	pop	r22
    4cba:	5f 91       	pop	r21
    4cbc:	4f 91       	pop	r20
    4cbe:	3f 91       	pop	r19
    4cc0:	2f 91       	pop	r18
    4cc2:	0f 90       	pop	r0
    4cc4:	0b be       	out	0x3b, r0	; 59
    4cc6:	0f 90       	pop	r0
    4cc8:	0f be       	out	0x3f, r0	; 63
    4cca:	0f 90       	pop	r0
    4ccc:	1f 90       	pop	r1
    4cce:	18 95       	reti

00004cd0 <__vector_15>:
// This is the SUSPEND for the OS timer Tick
// pdiener: All registers are saved and control is transfered from a task to the kernel
void SIG_OUTPUT_COMPARE0( void ) __attribute__ ( ( signal,naked ));
void SIG_OUTPUT_COMPARE0(void)
{
    asm volatile (
    4cd0:	0f 92       	push	r0
    4cd2:	0f b6       	in	r0, 0x3f	; 63
    4cd4:	0f 92       	push	r0
    4cd6:	1f 92       	push	r1
    4cd8:	2f 92       	push	r2
    4cda:	3f 92       	push	r3
    4cdc:	4f 92       	push	r4
    4cde:	5f 92       	push	r5
    4ce0:	6f 92       	push	r6
    4ce2:	7f 92       	push	r7
    4ce4:	8f 92       	push	r8
    4ce6:	9f 92       	push	r9
    4ce8:	af 92       	push	r10
    4cea:	bf 92       	push	r11
    4cec:	cf 92       	push	r12
    4cee:	df 92       	push	r13
    4cf0:	ef 92       	push	r14
    4cf2:	ff 92       	push	r15
    4cf4:	0f 93       	push	r16
    4cf6:	1f 93       	push	r17
    4cf8:	2f 93       	push	r18
    4cfa:	3f 93       	push	r19
    4cfc:	4f 93       	push	r20
    4cfe:	5f 93       	push	r21
    4d00:	6f 93       	push	r22
    4d02:	7f 93       	push	r23
    4d04:	8f 93       	push	r24
    4d06:	9f 93       	push	r25
    4d08:	af 93       	push	r26
    4d0a:	bf 93       	push	r27
    4d0c:	cf 93       	push	r28
    4d0e:	df 93       	push	r29
    4d10:	ef 93       	push	r30
    4d12:	ff 93       	push	r31
    4d14:	a0 91 d5 07 	lds	r26, 0x07D5
    4d18:	b0 91 d6 07 	lds	r27, 0x07D6
    4d1c:	0d b6       	in	r0, 0x3d	; 61
    4d1e:	0d 92       	st	X+, r0
    4d20:	0e b6       	in	r0, 0x3e	; 62
    4d22:	0d 92       	st	X+, r0
    4d24:	1f 92       	push	r1
    4d26:	a0 91 20 06 	lds	r26, 0x0620
    4d2a:	b0 91 21 06 	lds	r27, 0x0621
    4d2e:	1e 90       	ld	r1, -X
    4d30:	be bf       	out	0x3e, r27	; 62
    4d32:	ad bf       	out	0x3d, r26	; 61
    4d34:	08 95       	ret

00004d36 <nrk_timer_int_stop>:
*/


int8_t nrk_timer_int_stop(uint8_t timer )
{
    if(timer==NRK_APP_TIMER_0)
    4d36:	88 23       	and	r24, r24
    4d38:	19 f4       	brne	.+6      	; 0x4d40 <nrk_timer_int_stop+0xa>
    {
        TIMSK &= ~(BM(OCIE2));
    4d3a:	87 b7       	in	r24, 0x37	; 55
    4d3c:	8f 77       	andi	r24, 0x7F	; 127
    4d3e:	87 bf       	out	0x37, r24	; 55
    }
    return NRK_ERROR;
}
    4d40:	8f ef       	ldi	r24, 0xFF	; 255
    4d42:	08 95       	ret

00004d44 <nrk_timer_int_reset>:

int8_t nrk_timer_int_reset(uint8_t timer )
{
    if(timer==NRK_APP_TIMER_0)
    4d44:	88 23       	and	r24, r24
    4d46:	19 f4       	brne	.+6      	; 0x4d4e <nrk_timer_int_reset+0xa>
    {
        TCNT2=0;
    4d48:	14 bc       	out	0x24, r1	; 36
        return NRK_OK;
    4d4a:	81 e0       	ldi	r24, 0x01	; 1
    4d4c:	08 95       	ret
    }
    return NRK_ERROR;
    4d4e:	8f ef       	ldi	r24, 0xFF	; 255
}
    4d50:	08 95       	ret

00004d52 <nrk_timer_int_read>:

uint16_t nrk_timer_int_read(uint8_t timer )
{
    if(timer==NRK_APP_TIMER_0)
    4d52:	88 23       	and	r24, r24
    4d54:	19 f4       	brne	.+6      	; 0x4d5c <nrk_timer_int_read+0xa>
    {
        return TCNT2;
    4d56:	24 b5       	in	r18, 0x24	; 36
    4d58:	30 e0       	ldi	r19, 0x00	; 0
    4d5a:	02 c0       	rjmp	.+4      	; 0x4d60 <nrk_timer_int_read+0xe>
    }
    return 0;
    4d5c:	20 e0       	ldi	r18, 0x00	; 0
    4d5e:	30 e0       	ldi	r19, 0x00	; 0

}
    4d60:	c9 01       	movw	r24, r18
    4d62:	08 95       	ret

00004d64 <nrk_timer_int_start>:

int8_t  nrk_timer_int_start(uint8_t timer)
{
    if(timer==NRK_APP_TIMER_0)
    4d64:	88 23       	and	r24, r24
    4d66:	29 f4       	brne	.+10     	; 0x4d72 <nrk_timer_int_start+0xe>
    {
        TIMSK |= BM(OCIE2);
    4d68:	87 b7       	in	r24, 0x37	; 55
    4d6a:	80 68       	ori	r24, 0x80	; 128
    4d6c:	87 bf       	out	0x37, r24	; 55
        return NRK_OK;
    4d6e:	81 e0       	ldi	r24, 0x01	; 1
    4d70:	08 95       	ret
    }
    return NRK_ERROR;
    4d72:	8f ef       	ldi	r24, 0xFF	; 255
}
    4d74:	08 95       	ret

00004d76 <nrk_timer_int_configure>:

int8_t  nrk_timer_int_configure(uint8_t timer, uint16_t prescaler, uint16_t compare_value, void *callback_func)
{
    if(timer==NRK_APP_TIMER_0)
    4d76:	88 23       	and	r24, r24
    4d78:	59 f5       	brne	.+86     	; 0x4dd0 <nrk_timer_int_configure+0x5a>
    {
        if(prescaler>0 && prescaler<6 ) app_timer0_prescale=prescaler;
    4d7a:	cb 01       	movw	r24, r22
    4d7c:	01 97       	sbiw	r24, 0x01	; 1
    4d7e:	85 30       	cpi	r24, 0x05	; 5
    4d80:	91 05       	cpc	r25, r1
    4d82:	10 f4       	brcc	.+4      	; 0x4d88 <nrk_timer_int_configure+0x12>
    4d84:	60 93 45 06 	sts	0x0645, r22
        TCCR2 = BM(WGM32);  // Automatic restart on compare, count up
    4d88:	88 e0       	ldi	r24, 0x08	; 8
    4d8a:	85 bd       	out	0x25, r24	; 37
        OCR2 = (compare_value & 0xFF );
    4d8c:	43 bd       	out	0x23, r20	; 35
        app_timer0_callback=callback_func;
    4d8e:	30 93 f4 03 	sts	0x03F4, r19
    4d92:	20 93 f3 03 	sts	0x03F3, r18
        if(app_timer0_prescale==1) TCCR2 |= BM(CS30);
    4d96:	80 91 45 06 	lds	r24, 0x0645
    4d9a:	81 30       	cpi	r24, 0x01	; 1
    4d9c:	19 f4       	brne	.+6      	; 0x4da4 <nrk_timer_int_configure+0x2e>
    4d9e:	85 b5       	in	r24, 0x25	; 37
    4da0:	81 60       	ori	r24, 0x01	; 1
    4da2:	09 c0       	rjmp	.+18     	; 0x4db6 <nrk_timer_int_configure+0x40>
        // Divide by 1
        else if(app_timer0_prescale==2) TCCR2 |= BM(CS31);
    4da4:	82 30       	cpi	r24, 0x02	; 2
    4da6:	19 f4       	brne	.+6      	; 0x4dae <nrk_timer_int_configure+0x38>
    4da8:	85 b5       	in	r24, 0x25	; 37
    4daa:	82 60       	ori	r24, 0x02	; 2
    4dac:	04 c0       	rjmp	.+8      	; 0x4db6 <nrk_timer_int_configure+0x40>
        // Divide by 8
        else if(app_timer0_prescale==3) TCCR2 |= BM(CS31) | BM(CS30);
    4dae:	83 30       	cpi	r24, 0x03	; 3
    4db0:	29 f4       	brne	.+10     	; 0x4dbc <nrk_timer_int_configure+0x46>
    4db2:	85 b5       	in	r24, 0x25	; 37
    4db4:	83 60       	ori	r24, 0x03	; 3
    4db6:	85 bd       	out	0x25, r24	; 37
        // Divide by 64
        else if(app_timer0_prescale==4) TCCR2 |= BM(CS32) ;
        // Divide by 256
        else if(app_timer0_prescale==5) TCCR2 |= BM(CS32) | BM(CS30);
        // Divide by 1024
        return NRK_OK;
    4db8:	81 e0       	ldi	r24, 0x01	; 1
    4dba:	08 95       	ret
        // Divide by 1
        else if(app_timer0_prescale==2) TCCR2 |= BM(CS31);
        // Divide by 8
        else if(app_timer0_prescale==3) TCCR2 |= BM(CS31) | BM(CS30);
        // Divide by 64
        else if(app_timer0_prescale==4) TCCR2 |= BM(CS32) ;
    4dbc:	84 30       	cpi	r24, 0x04	; 4
    4dbe:	19 f4       	brne	.+6      	; 0x4dc6 <nrk_timer_int_configure+0x50>
    4dc0:	85 b5       	in	r24, 0x25	; 37
    4dc2:	84 60       	ori	r24, 0x04	; 4
    4dc4:	f8 cf       	rjmp	.-16     	; 0x4db6 <nrk_timer_int_configure+0x40>
        // Divide by 256
        else if(app_timer0_prescale==5) TCCR2 |= BM(CS32) | BM(CS30);
    4dc6:	85 30       	cpi	r24, 0x05	; 5
    4dc8:	29 f4       	brne	.+10     	; 0x4dd4 <nrk_timer_int_configure+0x5e>
    4dca:	85 b5       	in	r24, 0x25	; 37
    4dcc:	85 60       	ori	r24, 0x05	; 5
    4dce:	f3 cf       	rjmp	.-26     	; 0x4db6 <nrk_timer_int_configure+0x40>
        // Divide by 1024
        return NRK_OK;
    }

    return NRK_ERROR;
    4dd0:	8f ef       	ldi	r24, 0xFF	; 255
    4dd2:	08 95       	ret
        // Divide by 64
        else if(app_timer0_prescale==4) TCCR2 |= BM(CS32) ;
        // Divide by 256
        else if(app_timer0_prescale==5) TCCR2 |= BM(CS32) | BM(CS30);
        // Divide by 1024
        return NRK_OK;
    4dd4:	81 e0       	ldi	r24, 0x01	; 1
    }

    return NRK_ERROR;
}
    4dd6:	08 95       	ret

00004dd8 <__vector_9>:


SIGNAL(TIMER2_COMP_vect)
{
    4dd8:	1f 92       	push	r1
    4dda:	0f 92       	push	r0
    4ddc:	0f b6       	in	r0, 0x3f	; 63
    4dde:	0f 92       	push	r0
    4de0:	0b b6       	in	r0, 0x3b	; 59
    4de2:	0f 92       	push	r0
    4de4:	11 24       	eor	r1, r1
    4de6:	2f 93       	push	r18
    4de8:	3f 93       	push	r19
    4dea:	4f 93       	push	r20
    4dec:	5f 93       	push	r21
    4dee:	6f 93       	push	r22
    4df0:	7f 93       	push	r23
    4df2:	8f 93       	push	r24
    4df4:	9f 93       	push	r25
    4df6:	af 93       	push	r26
    4df8:	bf 93       	push	r27
    4dfa:	ef 93       	push	r30
    4dfc:	ff 93       	push	r31
    if(app_timer0_callback!=NULL) app_timer0_callback();
    4dfe:	e0 91 f3 03 	lds	r30, 0x03F3
    4e02:	f0 91 f4 03 	lds	r31, 0x03F4
    4e06:	30 97       	sbiw	r30, 0x00	; 0
    4e08:	11 f0       	breq	.+4      	; 0x4e0e <__vector_9+0x36>
    4e0a:	09 95       	icall
    4e0c:	04 c0       	rjmp	.+8      	; 0x4e16 <__vector_9+0x3e>
    else
        nrk_kernel_error_add(NRK_SEG_FAULT,0);
    4e0e:	8a e0       	ldi	r24, 0x0A	; 10
    4e10:	60 e0       	ldi	r22, 0x00	; 0
    4e12:	0e 94 5d 17 	call	0x2eba	; 0x2eba <nrk_kernel_error_add>
    return;
}
    4e16:	ff 91       	pop	r31
    4e18:	ef 91       	pop	r30
    4e1a:	bf 91       	pop	r27
    4e1c:	af 91       	pop	r26
    4e1e:	9f 91       	pop	r25
    4e20:	8f 91       	pop	r24
    4e22:	7f 91       	pop	r23
    4e24:	6f 91       	pop	r22
    4e26:	5f 91       	pop	r21
    4e28:	4f 91       	pop	r20
    4e2a:	3f 91       	pop	r19
    4e2c:	2f 91       	pop	r18
    4e2e:	0f 90       	pop	r0
    4e30:	0b be       	out	0x3b, r0	; 59
    4e32:	0f 90       	pop	r0
    4e34:	0f be       	out	0x3f, r0	; 63
    4e36:	0f 90       	pop	r0
    4e38:	1f 90       	pop	r1
    4e3a:	18 95       	reti

00004e3c <_nrk_startup_error>:
// Use the timer settings that are normally 0 on reset to detect
// if the OS has reboot by accident


// Check Watchdog timer
if( (MCUSR & (1<<WDRF)) != 0 )
    4e3c:	04 b6       	in	r0, 0x34	; 52
    4e3e:	03 fc       	sbrc	r0, 3
    4e40:	02 c0       	rjmp	.+4      	; 0x4e46 <_nrk_startup_error+0xa>
#include <nrk_status.h>

uint8_t _nrk_startup_error()
{
uint8_t error;
error=0;
    4e42:	80 e0       	ldi	r24, 0x00	; 0
    4e44:	01 c0       	rjmp	.+2      	; 0x4e48 <_nrk_startup_error+0xc>

// Check Watchdog timer
if( (MCUSR & (1<<WDRF)) != 0 )
	{
	// don't clear wdt
	error|=0x10;
    4e46:	80 e1       	ldi	r24, 0x10	; 16
	}


// Check Brown Out 
if( (MCUSR & (1<<BORF)) != 0 )
    4e48:	04 b6       	in	r0, 0x34	; 52
    4e4a:	02 fe       	sbrs	r0, 2
    4e4c:	06 c0       	rjmp	.+12     	; 0x4e5a <_nrk_startup_error+0x1e>
	{
	MCUSR &= ~(1<<BORF);	
    4e4e:	94 b7       	in	r25, 0x34	; 52
    4e50:	9b 7f       	andi	r25, 0xFB	; 251
    4e52:	94 bf       	out	0x34, r25	; 52
	// Only add brownout if it isn't the first bootup
	if( (MCUSR & (1<<PORF)) == 0 )
    4e54:	04 b6       	in	r0, 0x34	; 52
    4e56:	00 fe       	sbrs	r0, 0
		error|=0x04;
    4e58:	84 60       	ori	r24, 0x04	; 4
	}

// Check External Reset 
if( (MCUSR & (1<<EXTRF)) != 0 )
    4e5a:	04 b6       	in	r0, 0x34	; 52
    4e5c:	01 fe       	sbrs	r0, 1
    4e5e:	05 c0       	rjmp	.+10     	; 0x4e6a <_nrk_startup_error+0x2e>
	{
	MCUSR &= ~(1<<EXTRF);	
    4e60:	94 b7       	in	r25, 0x34	; 52
    4e62:	9d 7f       	andi	r25, 0xFD	; 253
    4e64:	94 bf       	out	0x34, r25	; 52
	error|=0x02;
    4e66:	82 60       	ori	r24, 0x02	; 2
    4e68:	08 95       	ret
	}

// If any of the above errors went off, then the next errors will
// incorrectly be set!  So make sure to bail early!
if(error!=0) return error;
    4e6a:	88 23       	and	r24, r24
    4e6c:	59 f4       	brne	.+22     	; 0x4e84 <_nrk_startup_error+0x48>

// Check if normal power up state is set and then clear it
if( (MCUSR & (1<<PORF)) != 0 )
    4e6e:	04 b6       	in	r0, 0x34	; 52
    4e70:	00 fe       	sbrs	r0, 0
    4e72:	04 c0       	rjmp	.+8      	; 0x4e7c <_nrk_startup_error+0x40>
	{
	MCUSR &= ~(1<<PORF);
    4e74:	94 b7       	in	r25, 0x34	; 52
    4e76:	9e 7f       	andi	r25, 0xFE	; 254
    4e78:	94 bf       	out	0x34, r25	; 52
    4e7a:	01 c0       	rjmp	.+2      	; 0x4e7e <_nrk_startup_error+0x42>
	}
	else {
	error|=0x01;
    4e7c:	81 e0       	ldi	r24, 0x01	; 1
	}

// check uart state 
if((volatile uint8_t)TCCR0!=0) error|=0x01;
    4e7e:	93 b7       	in	r25, 0x33	; 51
    4e80:	91 11       	cpse	r25, r1
    4e82:	81 60       	ori	r24, 0x01	; 1

return error;
}
    4e84:	08 95       	ret

00004e86 <nrk_ext_int_enable>:

int8_t  nrk_ext_int_enable(uint8_t pin )
{
//if(pin==NRK_EXT_INT_0) { EIMSK |= 1; return NRK_OK; }
return NRK_ERROR;
}
    4e86:	8f ef       	ldi	r24, 0xFF	; 255
    4e88:	08 95       	ret

00004e8a <nrk_ext_int_disable>:

int8_t  nrk_ext_int_disable(uint8_t pin )
{
//if(pin==NRK_EXT_INT_0) { EIMSK &= ~1; return NRK_OK; }
return NRK_ERROR;
}
    4e8a:	8f ef       	ldi	r24, 0xFF	; 255
    4e8c:	08 95       	ret

00004e8e <nrk_ext_int_configure>:
	if(mode==NRK_RISING_EDGE) EICRA |= BM(ISC01) | BM(ISC00);
	return NRK_OK;
	}
*/
return NRK_ERROR;
}
    4e8e:	8f ef       	ldi	r24, 0xFF	; 255
    4e90:	08 95       	ret

00004e92 <__vector_1>:



SIGNAL(INT0_vect) {
    4e92:	1f 92       	push	r1
    4e94:	0f 92       	push	r0
    4e96:	0f b6       	in	r0, 0x3f	; 63
    4e98:	0f 92       	push	r0
    4e9a:	0b b6       	in	r0, 0x3b	; 59
    4e9c:	0f 92       	push	r0
    4e9e:	11 24       	eor	r1, r1
    4ea0:	2f 93       	push	r18
    4ea2:	3f 93       	push	r19
    4ea4:	4f 93       	push	r20
    4ea6:	5f 93       	push	r21
    4ea8:	6f 93       	push	r22
    4eaa:	7f 93       	push	r23
    4eac:	8f 93       	push	r24
    4eae:	9f 93       	push	r25
    4eb0:	af 93       	push	r26
    4eb2:	bf 93       	push	r27
    4eb4:	ef 93       	push	r30
    4eb6:	ff 93       	push	r31
//	if(ext_int0_callback!=NULL) ext_int0_callback();
//	else
	nrk_kernel_error_add(NRK_SEG_FAULT,0);
    4eb8:	8a e0       	ldi	r24, 0x0A	; 10
    4eba:	60 e0       	ldi	r22, 0x00	; 0
    4ebc:	0e 94 5d 17 	call	0x2eba	; 0x2eba <nrk_kernel_error_add>
	return;  	
}
    4ec0:	ff 91       	pop	r31
    4ec2:	ef 91       	pop	r30
    4ec4:	bf 91       	pop	r27
    4ec6:	af 91       	pop	r26
    4ec8:	9f 91       	pop	r25
    4eca:	8f 91       	pop	r24
    4ecc:	7f 91       	pop	r23
    4ece:	6f 91       	pop	r22
    4ed0:	5f 91       	pop	r21
    4ed2:	4f 91       	pop	r20
    4ed4:	3f 91       	pop	r19
    4ed6:	2f 91       	pop	r18
    4ed8:	0f 90       	pop	r0
    4eda:	0b be       	out	0x3b, r0	; 59
    4edc:	0f 90       	pop	r0
    4ede:	0f be       	out	0x3f, r0	; 63
    4ee0:	0f 90       	pop	r0
    4ee2:	1f 90       	pop	r1
    4ee4:	18 95       	reti

00004ee6 <nrk_watchdog_disable>:
#include <avr/wdt.h>
#include <nrk.h>

void nrk_watchdog_disable()
{
    nrk_int_disable();
    4ee6:	0e 94 60 13 	call	0x26c0	; 0x26c0 <nrk_int_disable>
    return NRK_ERROR;
}

inline void nrk_watchdog_reset()
{
    wdt_reset();
    4eea:	a8 95       	wdr

void nrk_watchdog_disable()
{
    nrk_int_disable();
    nrk_watchdog_reset();
    MCUSR &= ~(1<<WDRF);
    4eec:	84 b7       	in	r24, 0x34	; 52
    4eee:	87 7f       	andi	r24, 0xF7	; 247
    4ef0:	84 bf       	out	0x34, r24	; 52
    WDTCR |= (1<<WDCE) | (1<<WDE);
    4ef2:	81 b5       	in	r24, 0x21	; 33
    4ef4:	88 61       	ori	r24, 0x18	; 24
    4ef6:	81 bd       	out	0x21, r24	; 33
    WDTCR = 0;
    4ef8:	11 bc       	out	0x21, r1	; 33
    nrk_int_enable();
    4efa:	0e 94 62 13 	call	0x26c4	; 0x26c4 <nrk_int_enable>
}
    4efe:	08 95       	ret

00004f00 <nrk_watchdog_enable>:

void nrk_watchdog_enable()
{
// Enable watchdog with 1024K cycle timeout
// No Interrupt Trigger
    nrk_int_disable();
    4f00:	0e 94 60 13 	call	0x26c0	; 0x26c0 <nrk_int_disable>
    MCUSR &= ~(1<<WDRF);
    4f04:	84 b7       	in	r24, 0x34	; 52
    4f06:	87 7f       	andi	r24, 0xF7	; 247
    4f08:	84 bf       	out	0x34, r24	; 52
    return NRK_ERROR;
}

inline void nrk_watchdog_reset()
{
    wdt_reset();
    4f0a:	a8 95       	wdr
// Enable watchdog with 1024K cycle timeout
// No Interrupt Trigger
    nrk_int_disable();
    MCUSR &= ~(1<<WDRF);
    nrk_watchdog_reset();
    WDTCR |= (1<<WDCE) | (1<<WDE);
    4f0c:	81 b5       	in	r24, 0x21	; 33
    4f0e:	88 61       	ori	r24, 0x18	; 24
    4f10:	81 bd       	out	0x21, r24	; 33
    WDTCR = (1<<WDE) | (1<<WDP2) | (1<<WDP1) | (1<<WDP0);
    4f12:	8f e0       	ldi	r24, 0x0F	; 15
    4f14:	81 bd       	out	0x21, r24	; 33
    nrk_int_enable();
    4f16:	0e 94 62 13 	call	0x26c4	; 0x26c4 <nrk_int_enable>

}
    4f1a:	08 95       	ret

00004f1c <nrk_watchdog_check>:

int8_t nrk_watchdog_check()
{

    if((MCUSR & (1<<WDRF))==0) return NRK_OK;
    4f1c:	04 b6       	in	r0, 0x34	; 52
    4f1e:	03 fc       	sbrc	r0, 3
    4f20:	02 c0       	rjmp	.+4      	; 0x4f26 <nrk_watchdog_check+0xa>
    4f22:	81 e0       	ldi	r24, 0x01	; 1
    4f24:	08 95       	ret
    return NRK_ERROR;
    4f26:	8f ef       	ldi	r24, 0xFF	; 255
}
    4f28:	08 95       	ret

00004f2a <nrk_watchdog_reset>:

inline void nrk_watchdog_reset()
{
    wdt_reset();
    4f2a:	a8 95       	wdr

}
    4f2c:	08 95       	ret

00004f2e <nrk_battery_save>:
    nrk_led_clr(2);
    nrk_led_clr(3);
    SET_VREG_INACTIVE();
    nrk_sleep();
#endif
}
    4f2e:	08 95       	ret

00004f30 <nrk_task_set_entry_function>:

void nrk_task_set_entry_function( nrk_task_type *task, void *func )
{
    task->task=func;
    4f30:	fc 01       	movw	r30, r24
    4f32:	76 83       	std	Z+6, r23	; 0x06
    4f34:	65 83       	std	Z+5, r22	; 0x05
}
    4f36:	08 95       	ret

00004f38 <nrk_sleep>:

void nrk_sleep()
{
// pdiener: Powersave stops main oscillator!
// This is in general no good idea if a fast wake up response time is needed
    set_sleep_mode (SLEEP_MODE_PWR_SAVE);
    4f38:	85 b7       	in	r24, 0x35	; 53
    4f3a:	83 7e       	andi	r24, 0xE3	; 227
    4f3c:	88 61       	ori	r24, 0x18	; 24
    4f3e:	85 bf       	out	0x35, r24	; 53
    sleep_mode ();
    4f40:	85 b7       	in	r24, 0x35	; 53
    4f42:	80 62       	ori	r24, 0x20	; 32
    4f44:	85 bf       	out	0x35, r24	; 53
    4f46:	88 95       	sleep
    4f48:	85 b7       	in	r24, 0x35	; 53
    4f4a:	8f 7d       	andi	r24, 0xDF	; 223
    4f4c:	85 bf       	out	0x35, r24	; 53

}
    4f4e:	08 95       	ret

00004f50 <nrk_idle>:

void nrk_idle()
{
// pdiener: This stops the CPU core clock and flash clock while peripheral clock is kept running
// Main and aux oscillator keep running
    set_sleep_mode( SLEEP_MODE_IDLE);
    4f50:	85 b7       	in	r24, 0x35	; 53
    4f52:	83 7e       	andi	r24, 0xE3	; 227
    4f54:	85 bf       	out	0x35, r24	; 53
    sleep_mode ();
    4f56:	85 b7       	in	r24, 0x35	; 53
    4f58:	80 62       	ori	r24, 0x20	; 32
    4f5a:	85 bf       	out	0x35, r24	; 53
    4f5c:	88 95       	sleep
    4f5e:	85 b7       	in	r24, 0x35	; 53
    4f60:	8f 7d       	andi	r24, 0xDF	; 223
    4f62:	85 bf       	out	0x35, r24	; 53

}
    4f64:	08 95       	ret

00004f66 <nrk_task_stk_init>:
    uint16_t *stk ;  // 2 bytes
    uint8_t *stkc; // 1 byte

    stk    = (unsigned int *)pbos;          /* Load stack pointer */
    stkc = (unsigned char*)stk;
    *stkc = STK_CANARY_VAL;  // Flag for Stack Overflow
    4f66:	25 e5       	ldi	r18, 0x55	; 85
    4f68:	fa 01       	movw	r30, r20
    4f6a:	20 83       	st	Z, r18
    stk    = (unsigned int *)ptos;          /* Load stack pointer */
    4f6c:	fb 01       	movw	r30, r22
     *(--stk) = 0x4748;   // G H
     *(--stk) = 0x4546;   // E F
     *(--stk) = 0x4344;   // C D
     *(--stk) = 0x4142;   // A B
    */
    --stk;
    4f6e:	32 97       	sbiw	r30, 0x02	; 2
    stkc = (unsigned char*)stk;
    *stkc++ = (unsigned char)((unsigned int)(task)/ 256);
    4f70:	90 83       	st	Z, r25
    *stkc = (unsigned char)((unsigned int)(task)%256);
    4f72:	81 83       	std	Z+1, r24	; 0x01

    *(--stk) = 0;
    4f74:	12 92       	st	-Z, r1
    4f76:	12 92       	st	-Z, r1
    *(--stk) = 0;
    4f78:	12 92       	st	-Z, r1
    4f7a:	12 92       	st	-Z, r1
    *(--stk) = 0;
    4f7c:	12 92       	st	-Z, r1
    4f7e:	12 92       	st	-Z, r1
    *(--stk) = 0;
    4f80:	12 92       	st	-Z, r1
    4f82:	12 92       	st	-Z, r1
    *(--stk) = 0;
    4f84:	12 92       	st	-Z, r1
    4f86:	12 92       	st	-Z, r1
    *(--stk) = 0;
    4f88:	12 92       	st	-Z, r1
    4f8a:	12 92       	st	-Z, r1
    *(--stk) = 0;
    4f8c:	12 92       	st	-Z, r1
    4f8e:	12 92       	st	-Z, r1
    *(--stk) = 0;
    4f90:	12 92       	st	-Z, r1
    4f92:	12 92       	st	-Z, r1

    *(--stk) = 0;
    4f94:	12 92       	st	-Z, r1
    4f96:	12 92       	st	-Z, r1
    *(--stk) = 0;
    4f98:	12 92       	st	-Z, r1
    4f9a:	12 92       	st	-Z, r1
    *(--stk) = 0;
    4f9c:	12 92       	st	-Z, r1
    4f9e:	12 92       	st	-Z, r1
    *(--stk) = 0;
    4fa0:	12 92       	st	-Z, r1
    4fa2:	12 92       	st	-Z, r1
    *(--stk) = 0;
    4fa4:	12 92       	st	-Z, r1
    4fa6:	12 92       	st	-Z, r1
    *(--stk) = 0;
    4fa8:	12 92       	st	-Z, r1
    4faa:	12 92       	st	-Z, r1
    *(--stk) = 0;
    4fac:	12 92       	st	-Z, r1
    4fae:	12 92       	st	-Z, r1
    *(--stk) = 0;
    4fb0:	12 92       	st	-Z, r1
    4fb2:	12 92       	st	-Z, r1
    *(--stk) = 0;
    4fb4:	12 92       	st	-Z, r1
    4fb6:	12 92       	st	-Z, r1


    return ((void *)stk);
}
    4fb8:	cf 01       	movw	r24, r30
    4fba:	08 95       	ret

00004fbc <nrk_task_set_stk>:

void nrk_task_set_stk( nrk_task_type *task, NRK_STK stk_base[], uint16_t stk_size )
{
    4fbc:	ef 92       	push	r14
    4fbe:	ff 92       	push	r15
    4fc0:	0f 93       	push	r16
    4fc2:	1f 93       	push	r17
    4fc4:	cf 93       	push	r28
    4fc6:	df 93       	push	r29
    4fc8:	ec 01       	movw	r28, r24
    4fca:	8b 01       	movw	r16, r22
    4fcc:	7a 01       	movw	r14, r20

    if(stk_size<32) nrk_error_add(NRK_STACK_TOO_SMALL);
    4fce:	40 32       	cpi	r20, 0x20	; 32
    4fd0:	51 05       	cpc	r21, r1
    4fd2:	18 f4       	brcc	.+6      	; 0x4fda <nrk_task_set_stk+0x1e>
    4fd4:	81 e1       	ldi	r24, 0x11	; 17
    4fd6:	0e 94 9e 17 	call	0x2f3c	; 0x2f3c <nrk_error_add>
    task->Ptos = (void *) &stk_base[stk_size-1];
    4fda:	08 94       	sec
    4fdc:	e1 08       	sbc	r14, r1
    4fde:	f1 08       	sbc	r15, r1
    4fe0:	e0 0e       	add	r14, r16
    4fe2:	f1 1e       	adc	r15, r17
    4fe4:	fa 82       	std	Y+2, r15	; 0x02
    4fe6:	e9 82       	std	Y+1, r14	; 0x01
    task->Pbos = (void *) &stk_base[0];
    4fe8:	1c 83       	std	Y+4, r17	; 0x04
    4fea:	0b 83       	std	Y+3, r16	; 0x03

}
    4fec:	df 91       	pop	r29
    4fee:	cf 91       	pop	r28
    4ff0:	1f 91       	pop	r17
    4ff2:	0f 91       	pop	r16
    4ff4:	ff 90       	pop	r15
    4ff6:	ef 90       	pop	r14
    4ff8:	08 95       	ret

00004ffa <nrk_stack_pointer_restore>:
#ifdef KERNEL_STK_ARRAY
    stkc = (uint16_t*)&nrk_kernel_stk[NRK_KERNEL_STACKSIZE-1];
#else
    stkc = (unsigned char*) NRK_KERNEL_STK_TOP;
#endif
    *stkc++ = (uint16_t)((uint16_t)_nrk_timer_tick>>8);
    4ffa:	89 e7       	ldi	r24, 0x79	; 121
    4ffc:	95 e1       	ldi	r25, 0x15	; 21
    4ffe:	90 93 99 05 	sts	0x0599, r25
    *stkc = (uint16_t)((uint16_t)_nrk_timer_tick&0xFF);
    5002:	80 93 9a 05 	sts	0x059A, r24
}
    5006:	08 95       	ret

00005008 <nrk_stack_pointer_init>:
inline void nrk_stack_pointer_init()
{
    unsigned char *stkc;
#ifdef KERNEL_STK_ARRAY
    stkc = (uint16_t*)&nrk_kernel_stk[NRK_KERNEL_STACKSIZE-1];
    nrk_kernel_stk[0]=STK_CANARY_VAL;
    5008:	85 e5       	ldi	r24, 0x55	; 85
    500a:	80 93 1a 05 	sts	0x051A, r24
    nrk_kernel_stk_ptr = &nrk_kernel_stk[NRK_KERNEL_STACKSIZE-1];
    500e:	89 e9       	ldi	r24, 0x99	; 153
    5010:	95 e0       	ldi	r25, 0x05	; 5
    5012:	90 93 21 06 	sts	0x0621, r25
    5016:	80 93 20 06 	sts	0x0620, r24
    stkc = (unsigned char *)NRK_KERNEL_STK_TOP-NRK_KERNEL_STACKSIZE;
    *stkc = STK_CANARY_VAL;
    stkc = (unsigned char *)NRK_KERNEL_STK_TOP;
    nrk_kernel_stk_ptr = (unsigned char *)NRK_KERNEL_STK_TOP;
#endif
    *stkc++ = (uint16_t)((uint16_t)_nrk_timer_tick>>8);
    501a:	89 e7       	ldi	r24, 0x79	; 121
    501c:	95 e1       	ldi	r25, 0x15	; 21
    501e:	90 93 99 05 	sts	0x0599, r25
    *stkc = (uint16_t)((uint16_t)_nrk_timer_tick&0xFF);
    5022:	80 93 9a 05 	sts	0x059A, r24

}
    5026:	08 95       	ret

00005028 <nrk_target_start>:

/* start the target running */
void nrk_target_start(void)
{

    _nrk_setup_timer();
    5028:	0e 94 19 26 	call	0x4c32	; 0x4c32 <_nrk_setup_timer>
    nrk_int_enable();
    502c:	0e 94 62 13 	call	0x26c4	; 0x26c4 <nrk_int_enable>

}
    5030:	08 95       	ret

00005032 <ad5242_init>:


// Initialize the interface
void ad5242_init()
{
	i2c_init();
    5032:	0e 94 6f 28 	call	0x50de	; 0x50de <i2c_init>
}
    5036:	08 95       	ret

00005038 <ad5242_set>:

// hwAddress is defined by the Pin settings [AD1 AD0]
// channel is 1 or 2
// value is the resistor divider value
void ad5242_set(unsigned char hwAddress, unsigned char channel, unsigned char value)
{
    5038:	1f 93       	push	r17
    503a:	df 93       	push	r29
    503c:	cf 93       	push	r28
    503e:	0f 92       	push	r0
    5040:	cd b7       	in	r28, 0x3d	; 61
    5042:	de b7       	in	r29, 0x3e	; 62
    5044:	14 2f       	mov	r17, r20
	unsigned char address = 0b0101100 | (hwAddress & 0b11);
    5046:	83 70       	andi	r24, 0x03	; 3
	
	i2c_controlByte_TX(address);
    5048:	8c 62       	ori	r24, 0x2C	; 44
    504a:	69 83       	std	Y+1, r22	; 0x01
    504c:	0e 94 da 28 	call	0x51b4	; 0x51b4 <i2c_controlByte_TX>
	
	// Instruction byte
	if (channel == 1)
    5050:	69 81       	ldd	r22, Y+1	; 0x01
    5052:	61 30       	cpi	r22, 0x01	; 1
    5054:	11 f4       	brne	.+4      	; 0x505a <ad5242_set+0x22>
		i2c_send(0x00);		// Channel A (1)
    5056:	80 e0       	ldi	r24, 0x00	; 0
    5058:	01 c0       	rjmp	.+2      	; 0x505c <ad5242_set+0x24>
	else
		i2c_send(0x80);		// Channel B (2)
    505a:	80 e8       	ldi	r24, 0x80	; 128
    505c:	0e 94 a2 28 	call	0x5144	; 0x5144 <i2c_send>
		
	// Resistor divider value
	i2c_send(value);
    5060:	81 2f       	mov	r24, r17
    5062:	0e 94 a2 28 	call	0x5144	; 0x5144 <i2c_send>
		
	i2c_stop();
    5066:	0e 94 96 28 	call	0x512c	; 0x512c <i2c_stop>
}
    506a:	0f 90       	pop	r0
    506c:	cf 91       	pop	r28
    506e:	df 91       	pop	r29
    5070:	1f 91       	pop	r17
    5072:	08 95       	ret

00005074 <adc_init>:
#include <util/delay.h>



void adc_init()
{
    5074:	df 93       	push	r29
    5076:	cf 93       	push	r28
    5078:	00 d0       	rcall	.+0      	; 0x507a <adc_init+0x6>
    507a:	cd b7       	in	r28, 0x3d	; 61
    507c:	de b7       	in	r29, 0x3e	; 62
  volatile unsigned int dummy;

  ADMUX = (0 << REFS1) | (1 << REFS0);      						// Vcc is reference
    507e:	80 e4       	ldi	r24, 0x40	; 64
    5080:	87 b9       	out	0x07, r24	; 7
  ADCSRA = (1 << ADPS2) | (1 << ADPS1) | (0 << ADPS0);       // Prescaler = 64
    5082:	86 e0       	ldi	r24, 0x06	; 6
    5084:	86 b9       	out	0x06, r24	; 6
  ADCSRA |= (1 << ADEN);                								// ADC on
    5086:	37 9a       	sbi	0x06, 7	; 6

	// One dummy read after init
  ADCSRA |= (1<<ADSC);
    5088:	36 9a       	sbi	0x06, 6	; 6
  while (ADCSRA & (1<<ADSC));
    508a:	36 99       	sbic	0x06, 6	; 6
    508c:	fe cf       	rjmp	.-4      	; 0x508a <adc_init+0x16>
  dummy = ADCW;
    508e:	84 b1       	in	r24, 0x04	; 4
    5090:	95 b1       	in	r25, 0x05	; 5
    5092:	9a 83       	std	Y+2, r25	; 0x02
    5094:	89 83       	std	Y+1, r24	; 0x01
}
    5096:	0f 90       	pop	r0
    5098:	0f 90       	pop	r0
    509a:	cf 91       	pop	r28
    509c:	df 91       	pop	r29
    509e:	08 95       	ret

000050a0 <adc_Powersave>:


// If ADC should be used after a powersave period, call init again before starting a conversion
void adc_Powersave()
{
	ADCSRA &= ~(1 << ADEN);
    50a0:	37 98       	cbi	0x06, 7	; 6
}
    50a2:	08 95       	ret

000050a4 <adc_GetChannel>:



unsigned int adc_GetChannel(unsigned char ch)
{
  ADMUX = (ADMUX & 0b11100000) | (ch & 0b00011111);	// Select channel
    50a4:	97 b1       	in	r25, 0x07	; 7
    50a6:	8f 71       	andi	r24, 0x1F	; 31
    50a8:	90 7e       	andi	r25, 0xE0	; 224
    50aa:	89 2b       	or	r24, r25
    50ac:	87 b9       	out	0x07, r24	; 7
  ADCSRA |= (1 << ADSC);										// Start a single conversion
    50ae:	36 9a       	sbi	0x06, 6	; 6
  while (ADCSRA & (1 << ADSC));  							// wait until conversion result is available
    50b0:	36 99       	sbic	0x06, 6	; 6
    50b2:	fe cf       	rjmp	.-4      	; 0x50b0 <adc_GetChannel+0xc>
  return ADCW;
    50b4:	24 b1       	in	r18, 0x04	; 4
    50b6:	35 b1       	in	r19, 0x05	; 5
}
    50b8:	c9 01       	movw	r24, r18
    50ba:	08 95       	ret

000050bc <adc_GetBatteryVoltage>:
float adc_GetBatteryVoltage()
{
// adc channel 30 is connected to the internal 1.23 V reference
	unsigned int adValue;

	adValue = adc_GetChannel(30);
    50bc:	8e e1       	ldi	r24, 0x1E	; 30
    50be:	0e 94 52 28 	call	0x50a4	; 0x50a4 <adc_GetChannel>

	return (1.23 * 1024.0 / (float)adValue);
    50c2:	bc 01       	movw	r22, r24
    50c4:	80 e0       	ldi	r24, 0x00	; 0
    50c6:	90 e0       	ldi	r25, 0x00	; 0
    50c8:	0e 94 8a 3e 	call	0x7d14	; 0x7d14 <__floatunsisf>
    50cc:	9b 01       	movw	r18, r22
    50ce:	ac 01       	movw	r20, r24
    50d0:	64 ea       	ldi	r22, 0xA4	; 164
    50d2:	70 e7       	ldi	r23, 0x70	; 112
    50d4:	8d e9       	ldi	r24, 0x9D	; 157
    50d6:	94 e4       	ldi	r25, 0x44	; 68
    50d8:	0e 94 f6 3d 	call	0x7bec	; 0x7bec <__divsf3>
}
    50dc:	08 95       	ret

000050de <i2c_init>:

// inits to ~300 kHz bus frequency
void i2c_init()
{
	// Set up clock prescaler
	TWSR |= (0 << TWPS1) | (0 << TWPS0);	// Prescaler = 1
    50de:	e1 e7       	ldi	r30, 0x71	; 113
    50e0:	f0 e0       	ldi	r31, 0x00	; 0
    50e2:	80 81       	ld	r24, Z
    50e4:	80 83       	st	Z, r24
	// Set up clock divider
	TWBR = 1;
    50e6:	81 e0       	ldi	r24, 0x01	; 1
    50e8:	80 93 70 00 	sts	0x0070, r24
	// Set up module
	TWCR = (1 << TWEN);	// I2C on, no interrupts
    50ec:	84 e0       	ldi	r24, 0x04	; 4
    50ee:	80 93 74 00 	sts	0x0074, r24
}
    50f2:	08 95       	ret

000050f4 <i2c_waitForInterruptFlag>:



void i2c_waitForInterruptFlag()
{
	while (! (TWCR & (1 << TWINT)));
    50f4:	80 91 74 00 	lds	r24, 0x0074
    50f8:	87 ff       	sbrs	r24, 7
    50fa:	fc cf       	rjmp	.-8      	; 0x50f4 <i2c_waitForInterruptFlag>
}
    50fc:	08 95       	ret

000050fe <i2c_actionStart>:



void i2c_actionStart()
{
	TWCR |= (1 << TWINT);		// clearing the interrupt flag will start the next action
    50fe:	e4 e7       	ldi	r30, 0x74	; 116
    5100:	f0 e0       	ldi	r31, 0x00	; 0
    5102:	80 81       	ld	r24, Z
    5104:	80 68       	ori	r24, 0x80	; 128
    5106:	80 83       	st	Z, r24
}
    5108:	08 95       	ret

0000510a <i2c_start>:



void i2c_start()
{
    510a:	cf 93       	push	r28
    510c:	df 93       	push	r29
	TWCR |= (1 << TWSTA);			// Set start condition flag
    510e:	c4 e7       	ldi	r28, 0x74	; 116
    5110:	d0 e0       	ldi	r29, 0x00	; 0
    5112:	88 81       	ld	r24, Y
    5114:	80 62       	ori	r24, 0x20	; 32
    5116:	88 83       	st	Y, r24
	i2c_actionStart();				// Send START
    5118:	0e 94 7f 28 	call	0x50fe	; 0x50fe <i2c_actionStart>
	i2c_waitForInterruptFlag();	// Wait until START is sent
    511c:	0e 94 7a 28 	call	0x50f4	; 0x50f4 <i2c_waitForInterruptFlag>
	TWCR &= ~(1 << TWSTA);			// Clear start condition flag
    5120:	88 81       	ld	r24, Y
    5122:	8f 7d       	andi	r24, 0xDF	; 223
    5124:	88 83       	st	Y, r24
}
    5126:	df 91       	pop	r29
    5128:	cf 91       	pop	r28
    512a:	08 95       	ret

0000512c <i2c_stop>:



void i2c_stop()
{
	TWCR |= (1 << TWSTO);			// Set stop condition flag - this will be cleared automatically
    512c:	80 91 74 00 	lds	r24, 0x0074
    5130:	80 61       	ori	r24, 0x10	; 16
    5132:	80 93 74 00 	sts	0x0074, r24
	i2c_actionStart();				// Send STOP
    5136:	0e 94 7f 28 	call	0x50fe	; 0x50fe <i2c_actionStart>
	while (TWCR & (1 << TWSTO));	// Wait until STOP is sent
    513a:	80 91 74 00 	lds	r24, 0x0074
    513e:	84 fd       	sbrc	r24, 4
    5140:	fc cf       	rjmp	.-8      	; 0x513a <i2c_stop+0xe>
}
    5142:	08 95       	ret

00005144 <i2c_send>:


// Returns 0 if ACK has been received, else 1
unsigned char i2c_send(unsigned char data)
{
	TWDR = data;
    5144:	80 93 73 00 	sts	0x0073, r24
	i2c_actionStart();
    5148:	0e 94 7f 28 	call	0x50fe	; 0x50fe <i2c_actionStart>
	i2c_waitForInterruptFlag();
    514c:	0e 94 7a 28 	call	0x50f4	; 0x50f4 <i2c_waitForInterruptFlag>
	if ((TWSR & 0xF8) == TW_MT_DATA_ACK) return 0;			// Data byte ACK
    5150:	80 91 71 00 	lds	r24, 0x0071
    5154:	88 7f       	andi	r24, 0xF8	; 248
    5156:	88 32       	cpi	r24, 0x28	; 40
    5158:	41 f0       	breq	.+16     	; 0x516a <i2c_send+0x26>
	else if ((TWSR & 0xF8) == TW_MT_SLA_ACK) return 0;	// Address byte ACK
    515a:	90 91 71 00 	lds	r25, 0x0071
    515e:	98 7f       	andi	r25, 0xF8	; 248
unsigned char i2c_send(unsigned char data)
{
	TWDR = data;
	i2c_actionStart();
	i2c_waitForInterruptFlag();
	if ((TWSR & 0xF8) == TW_MT_DATA_ACK) return 0;			// Data byte ACK
    5160:	81 e0       	ldi	r24, 0x01	; 1
    5162:	98 31       	cpi	r25, 0x18	; 24
    5164:	19 f4       	brne	.+6      	; 0x516c <i2c_send+0x28>
    5166:	80 e0       	ldi	r24, 0x00	; 0
    5168:	08 95       	ret
    516a:	80 e0       	ldi	r24, 0x00	; 0
	else if ((TWSR & 0xF8) == TW_MT_SLA_ACK) return 0;	// Address byte ACK
	else return 1;
}
    516c:	08 95       	ret

0000516e <i2c_receive>:


// if ack == 0, no-ACK will be sent
unsigned char i2c_receive(unsigned int ack)
{
	if (ack) TWCR |= (1 << TWEA);	// ACK
    516e:	00 97       	sbiw	r24, 0x00	; 0
    5170:	21 f0       	breq	.+8      	; 0x517a <i2c_receive+0xc>
    5172:	80 91 74 00 	lds	r24, 0x0074
    5176:	80 64       	ori	r24, 0x40	; 64
    5178:	03 c0       	rjmp	.+6      	; 0x5180 <i2c_receive+0x12>
	else 		TWCR &= ~(1 << TWEA);	// no ACK
    517a:	80 91 74 00 	lds	r24, 0x0074
    517e:	8f 7b       	andi	r24, 0xBF	; 191
    5180:	80 93 74 00 	sts	0x0074, r24
	i2c_actionStart();					// Start receiving
    5184:	0e 94 7f 28 	call	0x50fe	; 0x50fe <i2c_actionStart>
	i2c_waitForInterruptFlag();		// Wait until byte is received
    5188:	0e 94 7a 28 	call	0x50f4	; 0x50f4 <i2c_waitForInterruptFlag>
	return TWDR;
    518c:	80 91 73 00 	lds	r24, 0x0073
}
    5190:	08 95       	ret

00005192 <i2c_controlByte_RX>:



// This initiates an rx transfer with START + SLA + R
void i2c_controlByte_RX(unsigned char address)
{
    5192:	df 93       	push	r29
    5194:	cf 93       	push	r28
    5196:	0f 92       	push	r0
    5198:	cd b7       	in	r28, 0x3d	; 61
    519a:	de b7       	in	r29, 0x3e	; 62
	i2c_start();
    519c:	89 83       	std	Y+1, r24	; 0x01
    519e:	0e 94 85 28 	call	0x510a	; 0x510a <i2c_start>
	i2c_send((address << 1) | 0x01);
    51a2:	89 81       	ldd	r24, Y+1	; 0x01
    51a4:	88 0f       	add	r24, r24
    51a6:	81 60       	ori	r24, 0x01	; 1
    51a8:	0e 94 a2 28 	call	0x5144	; 0x5144 <i2c_send>
}
    51ac:	0f 90       	pop	r0
    51ae:	cf 91       	pop	r28
    51b0:	df 91       	pop	r29
    51b2:	08 95       	ret

000051b4 <i2c_controlByte_TX>:



// This initiates an tx transfer with START + SLA
void i2c_controlByte_TX(unsigned char address)
{
    51b4:	df 93       	push	r29
    51b6:	cf 93       	push	r28
    51b8:	0f 92       	push	r0
    51ba:	cd b7       	in	r28, 0x3d	; 61
    51bc:	de b7       	in	r29, 0x3e	; 62
	i2c_start();
    51be:	89 83       	std	Y+1, r24	; 0x01
    51c0:	0e 94 85 28 	call	0x510a	; 0x510a <i2c_start>
	i2c_send(address << 1);
    51c4:	89 81       	ldd	r24, Y+1	; 0x01
    51c6:	88 0f       	add	r24, r24
    51c8:	0e 94 a2 28 	call	0x5144	; 0x5144 <i2c_send>
}
    51cc:	0f 90       	pop	r0
    51ce:	cf 91       	pop	r28
    51d0:	df 91       	pop	r29
    51d2:	08 95       	ret

000051d4 <mda100_init>:


// Do not forget to init everything before using it
void mda100_init()
{
	adc_init();
    51d4:	0e 94 3a 28 	call	0x5074	; 0x5074 <adc_init>
	mda100_initDone = 1;
    51d8:	81 e0       	ldi	r24, 0x01	; 1
    51da:	80 93 e4 03 	sts	0x03E4, r24
}
    51de:	08 95       	ret

000051e0 <mda100_Powersave>:



void mda100_Powersave()
{
	CheckIfInitDone();
    51e0:	80 91 e4 03 	lds	r24, 0x03E4
    51e4:	88 23       	and	r24, r24
    51e6:	11 f4       	brne	.+4      	; 0x51ec <mda100_Powersave+0xc>
    51e8:	0e 94 ea 28 	call	0x51d4	; 0x51d4 <mda100_init>
	adc_Powersave();
    51ec:	0e 94 50 28 	call	0x50a0	; 0x50a0 <adc_Powersave>
}
    51f0:	08 95       	ret

000051f2 <mda100_LightSensor_Power>:


// Power control via int1 (PE5)
// This must be tristate if not in use, otherwise temperature sensor will be incorrect
void mda100_LightSensor_Power(T_Power powerstatus)
{
    51f2:	df 93       	push	r29
    51f4:	cf 93       	push	r28
    51f6:	0f 92       	push	r0
    51f8:	cd b7       	in	r28, 0x3d	; 61
    51fa:	de b7       	in	r29, 0x3e	; 62
	CheckIfInitDone();
    51fc:	90 91 e4 03 	lds	r25, 0x03E4
    5200:	99 23       	and	r25, r25
    5202:	21 f4       	brne	.+8      	; 0x520c <mda100_LightSensor_Power+0x1a>
    5204:	89 83       	std	Y+1, r24	; 0x01
    5206:	0e 94 ea 28 	call	0x51d4	; 0x51d4 <mda100_init>
    520a:	89 81       	ldd	r24, Y+1	; 0x01
	// Switch off temperature sensor power first; Only one of these may be active at a time
	PORTC &= ~(1 << 0);
    520c:	a8 98       	cbi	0x15, 0	; 21
    DDRC  &= ~(1 << 0);
    520e:	a0 98       	cbi	0x14, 0	; 20

	if (powerstatus == POWER_ON)
    5210:	81 30       	cpi	r24, 0x01	; 1
    5212:	19 f4       	brne	.+6      	; 0x521a <mda100_LightSensor_Power+0x28>
	{
		PORTE |= (1 << 5);
    5214:	1d 9a       	sbi	0x03, 5	; 3
		DDRE  |= (1 << 5);
    5216:	15 9a       	sbi	0x02, 5	; 2
    5218:	02 c0       	rjmp	.+4      	; 0x521e <mda100_LightSensor_Power+0x2c>
	}
	else
	{
		PORTE &= ~(1 << 5);
    521a:	1d 98       	cbi	0x03, 5	; 3
		DDRE  &= ~(1 << 5);
    521c:	15 98       	cbi	0x02, 5	; 2
	}
}
    521e:	0f 90       	pop	r0
    5220:	cf 91       	pop	r28
    5222:	df 91       	pop	r29
    5224:	08 95       	ret

00005226 <mda100_TemperatureSensor_Power>:


// Power control via PW0
// This must be tristate if not in use, otherwise light sensor will be incorrect
void mda100_TemperatureSensor_Power(T_Power powerstatus)
{
    5226:	df 93       	push	r29
    5228:	cf 93       	push	r28
    522a:	0f 92       	push	r0
    522c:	cd b7       	in	r28, 0x3d	; 61
    522e:	de b7       	in	r29, 0x3e	; 62
	CheckIfInitDone();
    5230:	90 91 e4 03 	lds	r25, 0x03E4
    5234:	99 23       	and	r25, r25
    5236:	21 f4       	brne	.+8      	; 0x5240 <mda100_TemperatureSensor_Power+0x1a>
    5238:	89 83       	std	Y+1, r24	; 0x01
    523a:	0e 94 ea 28 	call	0x51d4	; 0x51d4 <mda100_init>
    523e:	89 81       	ldd	r24, Y+1	; 0x01
	// Switch off light sensor power first; Only one of these may be active at a time
    PORTE &= ~(1 << 5);
    5240:	1d 98       	cbi	0x03, 5	; 3
    DDRE  &= ~(1 << 5);
    5242:	15 98       	cbi	0x02, 5	; 2

	if (powerstatus == POWER_ON)
    5244:	81 30       	cpi	r24, 0x01	; 1
    5246:	19 f4       	brne	.+6      	; 0x524e <mda100_TemperatureSensor_Power+0x28>
	{
		PORTC |= (1 << 0);
    5248:	a8 9a       	sbi	0x15, 0	; 21
		DDRC  |= (1 << 0);
    524a:	a0 9a       	sbi	0x14, 0	; 20
    524c:	02 c0       	rjmp	.+4      	; 0x5252 <mda100_TemperatureSensor_Power+0x2c>
	}
	else
	{
		PORTC &= ~(1 << 0);
    524e:	a8 98       	cbi	0x15, 0	; 21
		DDRC  &= ~(1 << 0);
    5250:	a0 98       	cbi	0x14, 0	; 20
	}
}
    5252:	0f 90       	pop	r0
    5254:	cf 91       	pop	r28
    5256:	df 91       	pop	r29
    5258:	08 95       	ret

0000525a <mda100_LightSensor_GetCounts>:


// This is a ratiometric value, so use Vcc as reference
unsigned int mda100_LightSensor_GetCounts()
{
	CheckIfInitDone();
    525a:	80 91 e4 03 	lds	r24, 0x03E4
    525e:	88 23       	and	r24, r24
    5260:	11 f4       	brne	.+4      	; 0x5266 <mda100_LightSensor_GetCounts+0xc>
    5262:	0e 94 ea 28 	call	0x51d4	; 0x51d4 <mda100_init>
	mda100_LightSensor_Power(POWER_ON);
    5266:	81 e0       	ldi	r24, 0x01	; 1
    5268:	0e 94 f9 28 	call	0x51f2	; 0x51f2 <mda100_LightSensor_Power>
	return adc_GetChannel(1);
    526c:	81 e0       	ldi	r24, 0x01	; 1
    526e:	0e 94 52 28 	call	0x50a4	; 0x50a4 <adc_GetChannel>
}
    5272:	08 95       	ret

00005274 <mda100_TemperatureSensor_GetCounts>:


// This is a ratiometric value, so use Vcc as reference
unsigned int mda100_TemperatureSensor_GetCounts()
{
	CheckIfInitDone();
    5274:	80 91 e4 03 	lds	r24, 0x03E4
    5278:	88 23       	and	r24, r24
    527a:	11 f4       	brne	.+4      	; 0x5280 <mda100_TemperatureSensor_GetCounts+0xc>
    527c:	0e 94 ea 28 	call	0x51d4	; 0x51d4 <mda100_init>
	mda100_TemperatureSensor_Power(POWER_ON);
    5280:	81 e0       	ldi	r24, 0x01	; 1
    5282:	0e 94 13 29 	call	0x5226	; 0x5226 <mda100_TemperatureSensor_Power>
	return adc_GetChannel(1);
    5286:	81 e0       	ldi	r24, 0x01	; 1
    5288:	0e 94 52 28 	call	0x50a4	; 0x50a4 <adc_GetChannel>
}
    528c:	08 95       	ret

0000528e <mda100_TemperatureSensor_GetKelvin>:



float mda100_TemperatureSensor_GetKelvin()
{
    528e:	af 92       	push	r10
    5290:	bf 92       	push	r11
    5292:	cf 92       	push	r12
    5294:	df 92       	push	r13
    5296:	ef 92       	push	r14
    5298:	ff 92       	push	r15
    529a:	0f 93       	push	r16
    529c:	1f 93       	push	r17
	float counts = mda100_TemperatureSensor_GetCounts();
    529e:	0e 94 3a 29 	call	0x5274	; 0x5274 <mda100_TemperatureSensor_GetCounts>
    52a2:	bc 01       	movw	r22, r24
    52a4:	80 e0       	ldi	r24, 0x00	; 0
    52a6:	90 e0       	ldi	r25, 0x00	; 0
    52a8:	0e 94 8a 3e 	call	0x7d14	; 0x7d14 <__floatunsisf>
    52ac:	8b 01       	movw	r16, r22
    52ae:	7c 01       	movw	r14, r24
	float lnRthr = log( 10e3 * (1023.0 - counts) / counts);
    52b0:	60 e0       	ldi	r22, 0x00	; 0
    52b2:	70 ec       	ldi	r23, 0xC0	; 192
    52b4:	8f e7       	ldi	r24, 0x7F	; 127
    52b6:	94 e4       	ldi	r25, 0x44	; 68
    52b8:	20 2f       	mov	r18, r16
    52ba:	31 2f       	mov	r19, r17
    52bc:	4e 2d       	mov	r20, r14
    52be:	5f 2d       	mov	r21, r15
    52c0:	0e 94 91 3d 	call	0x7b22	; 0x7b22 <__subsf3>
    52c4:	20 e0       	ldi	r18, 0x00	; 0
    52c6:	30 e4       	ldi	r19, 0x40	; 64
    52c8:	4c e1       	ldi	r20, 0x1C	; 28
    52ca:	56 e4       	ldi	r21, 0x46	; 70
    52cc:	0e 94 61 3f 	call	0x7ec2	; 0x7ec2 <__mulsf3>
    52d0:	20 2f       	mov	r18, r16
    52d2:	31 2f       	mov	r19, r17
    52d4:	4e 2d       	mov	r20, r14
    52d6:	5f 2d       	mov	r21, r15
    52d8:	0e 94 f6 3d 	call	0x7bec	; 0x7bec <__divsf3>
    52dc:	0e 94 21 3f 	call	0x7e42	; 0x7e42 <log>
    52e0:	7b 01       	movw	r14, r22
    52e2:	8c 01       	movw	r16, r24
	float lnRthr3 = pow(lnRthr, 3);	// lnRthr
    52e4:	20 e0       	ldi	r18, 0x00	; 0
    52e6:	30 e0       	ldi	r19, 0x00	; 0
    52e8:	40 e4       	ldi	r20, 0x40	; 64
    52ea:	50 e4       	ldi	r21, 0x40	; 64
    52ec:	0e 94 c4 3f 	call	0x7f88	; 0x7f88 <pow>
    52f0:	d6 2e       	mov	r13, r22
    52f2:	c7 2e       	mov	r12, r23
    52f4:	b8 2e       	mov	r11, r24
    52f6:	a9 2e       	mov	r10, r25
	
	float a = 0.001010024;
	float b = 0.000242127;
	float c = 0.000000146;
	
	return ( 1 / ( a + b * lnRthr + c * lnRthr3) );
    52f8:	c8 01       	movw	r24, r16
    52fa:	b7 01       	movw	r22, r14
    52fc:	29 e7       	ldi	r18, 0x79	; 121
    52fe:	33 ee       	ldi	r19, 0xE3	; 227
    5300:	4d e7       	ldi	r20, 0x7D	; 125
    5302:	59 e3       	ldi	r21, 0x39	; 57
    5304:	0e 94 61 3f 	call	0x7ec2	; 0x7ec2 <__mulsf3>
    5308:	28 ec       	ldi	r18, 0xC8	; 200
    530a:	32 e6       	ldi	r19, 0x62	; 98
    530c:	44 e8       	ldi	r20, 0x84	; 132
    530e:	5a e3       	ldi	r21, 0x3A	; 58
    5310:	0e 94 92 3d 	call	0x7b24	; 0x7b24 <__addsf3>
    5314:	7b 01       	movw	r14, r22
    5316:	8c 01       	movw	r16, r24
    5318:	a6 01       	movw	r20, r12
    531a:	95 01       	movw	r18, r10
    531c:	65 2f       	mov	r22, r21
    531e:	74 2f       	mov	r23, r20
    5320:	83 2f       	mov	r24, r19
    5322:	92 2f       	mov	r25, r18
    5324:	2d e2       	ldi	r18, 0x2D	; 45
    5326:	34 ec       	ldi	r19, 0xC4	; 196
    5328:	4c e1       	ldi	r20, 0x1C	; 28
    532a:	54 e3       	ldi	r21, 0x34	; 52
    532c:	0e 94 61 3f 	call	0x7ec2	; 0x7ec2 <__mulsf3>
    5330:	9b 01       	movw	r18, r22
    5332:	ac 01       	movw	r20, r24
    5334:	c8 01       	movw	r24, r16
    5336:	b7 01       	movw	r22, r14
    5338:	0e 94 92 3d 	call	0x7b24	; 0x7b24 <__addsf3>
    533c:	9b 01       	movw	r18, r22
    533e:	ac 01       	movw	r20, r24
    5340:	60 e0       	ldi	r22, 0x00	; 0
    5342:	70 e0       	ldi	r23, 0x00	; 0
    5344:	80 e8       	ldi	r24, 0x80	; 128
    5346:	9f e3       	ldi	r25, 0x3F	; 63
    5348:	0e 94 f6 3d 	call	0x7bec	; 0x7bec <__divsf3>
}
    534c:	1f 91       	pop	r17
    534e:	0f 91       	pop	r16
    5350:	ff 90       	pop	r15
    5352:	ef 90       	pop	r14
    5354:	df 90       	pop	r13
    5356:	cf 90       	pop	r12
    5358:	bf 90       	pop	r11
    535a:	af 90       	pop	r10
    535c:	08 95       	ret

0000535e <mda100_TemperatureSensor_GetDegreeCelsius>:



float mda100_TemperatureSensor_GetDegreeCelsius()
{
	return (mda100_TemperatureSensor_GetKelvin() - 273.15);
    535e:	0e 94 47 29 	call	0x528e	; 0x528e <mda100_TemperatureSensor_GetKelvin>
    5362:	23 e3       	ldi	r18, 0x33	; 51
    5364:	33 e9       	ldi	r19, 0x93	; 147
    5366:	48 e8       	ldi	r20, 0x88	; 136
    5368:	53 e4       	ldi	r21, 0x43	; 67
    536a:	0e 94 91 3d 	call	0x7b22	; 0x7b22 <__subsf3>
}
    536e:	08 95       	ret

00005370 <mts310cb_init>:


// Do not forget to init everything before using it
void mts310cb_init()
{
	adc_init();
    5370:	0e 94 3a 28 	call	0x5074	; 0x5074 <adc_init>
	ad5242_init();
    5374:	0e 94 19 28 	call	0x5032	; 0x5032 <ad5242_init>
	mts310cb_initDone = 1;
    5378:	81 e0       	ldi	r24, 0x01	; 1
    537a:	80 93 e5 03 	sts	0x03E5, r24
}
    537e:	08 95       	ret

00005380 <mts310cb_Powersave>:



void mts310cb_Powersave()
{
	CheckIfInitDone();
    5380:	80 91 e5 03 	lds	r24, 0x03E5
    5384:	88 23       	and	r24, r24
    5386:	11 f4       	brne	.+4      	; 0x538c <mts310cb_Powersave+0xc>
    5388:	0e 94 b8 29 	call	0x5370	; 0x5370 <mts310cb_init>
	adc_Powersave();
    538c:	0e 94 50 28 	call	0x50a0	; 0x50a0 <adc_Powersave>
}
    5390:	08 95       	ret

00005392 <mts310cb_Accelerometer_Power>:



// Power control line PW4
void mts310cb_Accelerometer_Power(T_Power powerstatus)
{
    5392:	df 93       	push	r29
    5394:	cf 93       	push	r28
    5396:	0f 92       	push	r0
    5398:	cd b7       	in	r28, 0x3d	; 61
    539a:	de b7       	in	r29, 0x3e	; 62
	CheckIfInitDone();
    539c:	90 91 e5 03 	lds	r25, 0x03E5
    53a0:	99 23       	and	r25, r25
    53a2:	21 f4       	brne	.+8      	; 0x53ac <mts310cb_Accelerometer_Power+0x1a>
    53a4:	89 83       	std	Y+1, r24	; 0x01
    53a6:	0e 94 b8 29 	call	0x5370	; 0x5370 <mts310cb_init>
    53aa:	89 81       	ldd	r24, Y+1	; 0x01
	if (powerstatus == POWER_ON)	PORTC |=  (1 << 4);
    53ac:	81 30       	cpi	r24, 0x01	; 1
    53ae:	11 f4       	brne	.+4      	; 0x53b4 <mts310cb_Accelerometer_Power+0x22>
    53b0:	ac 9a       	sbi	0x15, 4	; 21
    53b2:	01 c0       	rjmp	.+2      	; 0x53b6 <mts310cb_Accelerometer_Power+0x24>
	else									PORTC &= ~(1 << 4);
    53b4:	ac 98       	cbi	0x15, 4	; 21
}
    53b6:	0f 90       	pop	r0
    53b8:	cf 91       	pop	r28
    53ba:	df 91       	pop	r29
    53bc:	08 95       	ret

000053be <mts310cb_Magnetometer_Power>:



// Power control line PW5
void mts310cb_Magnetometer_Power(T_Power powerstatus)
{
    53be:	df 93       	push	r29
    53c0:	cf 93       	push	r28
    53c2:	0f 92       	push	r0
    53c4:	cd b7       	in	r28, 0x3d	; 61
    53c6:	de b7       	in	r29, 0x3e	; 62
	CheckIfInitDone();
    53c8:	90 91 e5 03 	lds	r25, 0x03E5
    53cc:	99 23       	and	r25, r25
    53ce:	21 f4       	brne	.+8      	; 0x53d8 <mts310cb_Magnetometer_Power+0x1a>
    53d0:	89 83       	std	Y+1, r24	; 0x01
    53d2:	0e 94 b8 29 	call	0x5370	; 0x5370 <mts310cb_init>
    53d6:	89 81       	ldd	r24, Y+1	; 0x01
	if (powerstatus == POWER_ON)	PORTC |=  (1 << 5);
    53d8:	81 30       	cpi	r24, 0x01	; 1
    53da:	11 f4       	brne	.+4      	; 0x53e0 <mts310cb_Magnetometer_Power+0x22>
    53dc:	ad 9a       	sbi	0x15, 5	; 21
    53de:	01 c0       	rjmp	.+2      	; 0x53e2 <mts310cb_Magnetometer_Power+0x24>
	else									PORTC &= ~(1 << 5);
    53e0:	ad 98       	cbi	0x15, 5	; 21
}
    53e2:	0f 90       	pop	r0
    53e4:	cf 91       	pop	r28
    53e6:	df 91       	pop	r29
    53e8:	08 95       	ret

000053ea <mts310cb_TemperatureSensor_Power>:


// Power control via PW0
// This must be tristate if not in use, otherwise light sensor will be incorrect
void mts310cb_TemperatureSensor_Power(T_Power powerstatus)
{
    53ea:	1f 93       	push	r17
    53ec:	18 2f       	mov	r17, r24
	CheckIfInitDone();
    53ee:	80 91 e5 03 	lds	r24, 0x03E5
    53f2:	88 23       	and	r24, r24
    53f4:	11 f4       	brne	.+4      	; 0x53fa <mts310cb_TemperatureSensor_Power+0x10>
    53f6:	0e 94 b8 29 	call	0x5370	; 0x5370 <mts310cb_init>
	mts310cb_LightSensor_Power(POWER_OFF);				// Only one of these may be active at a time
    53fa:	80 e0       	ldi	r24, 0x00	; 0
    53fc:	0e 94 09 2a 	call	0x5412	; 0x5412 <mts310cb_LightSensor_Power>
	if (powerstatus == POWER_ON)
    5400:	11 30       	cpi	r17, 0x01	; 1
    5402:	19 f4       	brne	.+6      	; 0x540a <mts310cb_TemperatureSensor_Power+0x20>
	{
		PORTC |= (1 << 0);
    5404:	a8 9a       	sbi	0x15, 0	; 21
		DDRC  |= (1 << 0);
    5406:	a0 9a       	sbi	0x14, 0	; 20
    5408:	02 c0       	rjmp	.+4      	; 0x540e <mts310cb_TemperatureSensor_Power+0x24>
	}
	else
	{
		PORTC &= ~(1 << 0);
    540a:	a8 98       	cbi	0x15, 0	; 21
		DDRC  &= ~(1 << 0);
    540c:	a0 98       	cbi	0x14, 0	; 20
	}
}
    540e:	1f 91       	pop	r17
    5410:	08 95       	ret

00005412 <mts310cb_LightSensor_Power>:


// Power control via int1 (PE5)
// This must be tristate if not in use, otherwise temperature sensor will be incorrect
void mts310cb_LightSensor_Power(T_Power powerstatus)
{
    5412:	1f 93       	push	r17
    5414:	18 2f       	mov	r17, r24
	CheckIfInitDone();
    5416:	80 91 e5 03 	lds	r24, 0x03E5
    541a:	88 23       	and	r24, r24
    541c:	11 f4       	brne	.+4      	; 0x5422 <mts310cb_LightSensor_Power+0x10>
    541e:	0e 94 b8 29 	call	0x5370	; 0x5370 <mts310cb_init>
	mts310cb_TemperatureSensor_Power(POWER_OFF);		// Only one of these may be active at a time
    5422:	80 e0       	ldi	r24, 0x00	; 0
    5424:	0e 94 f5 29 	call	0x53ea	; 0x53ea <mts310cb_TemperatureSensor_Power>
	if (powerstatus == POWER_ON)
    5428:	11 30       	cpi	r17, 0x01	; 1
    542a:	19 f4       	brne	.+6      	; 0x5432 <mts310cb_LightSensor_Power+0x20>
	{
		PORTE |= (1 << 5);
    542c:	1d 9a       	sbi	0x03, 5	; 3
		DDRE  |= (1 << 5);
    542e:	15 9a       	sbi	0x02, 5	; 2
    5430:	02 c0       	rjmp	.+4      	; 0x5436 <mts310cb_LightSensor_Power+0x24>
	}
	else
	{
		PORTE &= ~(1 << 5);
    5432:	1d 98       	cbi	0x03, 5	; 3
		DDRE  &= ~(1 << 5);
    5434:	15 98       	cbi	0x02, 5	; 2
	}
}
    5436:	1f 91       	pop	r17
    5438:	08 95       	ret

0000543a <mts310cb_Sounder_Power>:



// Power control line PW2
void mts310cb_Sounder_Power(T_Power powerstatus)
{
    543a:	df 93       	push	r29
    543c:	cf 93       	push	r28
    543e:	0f 92       	push	r0
    5440:	cd b7       	in	r28, 0x3d	; 61
    5442:	de b7       	in	r29, 0x3e	; 62
	CheckIfInitDone();
    5444:	90 91 e5 03 	lds	r25, 0x03E5
    5448:	99 23       	and	r25, r25
    544a:	21 f4       	brne	.+8      	; 0x5454 <mts310cb_Sounder_Power+0x1a>
    544c:	89 83       	std	Y+1, r24	; 0x01
    544e:	0e 94 b8 29 	call	0x5370	; 0x5370 <mts310cb_init>
    5452:	89 81       	ldd	r24, Y+1	; 0x01
	if (powerstatus == POWER_ON)	PORTC |=  (1 << 2);
    5454:	81 30       	cpi	r24, 0x01	; 1
    5456:	11 f4       	brne	.+4      	; 0x545c <mts310cb_Sounder_Power+0x22>
    5458:	aa 9a       	sbi	0x15, 2	; 21
    545a:	01 c0       	rjmp	.+2      	; 0x545e <mts310cb_Sounder_Power+0x24>
	else									PORTC &= ~(1 << 2);
    545c:	aa 98       	cbi	0x15, 2	; 21
}
    545e:	0f 90       	pop	r0
    5460:	cf 91       	pop	r28
    5462:	df 91       	pop	r29
    5464:	08 95       	ret

00005466 <mts310cb_Microphone_Power>:



// Power control line PW3
void mts310cb_Microphone_Power(T_Power powerstatus)
{
    5466:	df 93       	push	r29
    5468:	cf 93       	push	r28
    546a:	0f 92       	push	r0
    546c:	cd b7       	in	r28, 0x3d	; 61
    546e:	de b7       	in	r29, 0x3e	; 62
	CheckIfInitDone();
    5470:	90 91 e5 03 	lds	r25, 0x03E5
    5474:	99 23       	and	r25, r25
    5476:	21 f4       	brne	.+8      	; 0x5480 <mts310cb_Microphone_Power+0x1a>
    5478:	89 83       	std	Y+1, r24	; 0x01
    547a:	0e 94 b8 29 	call	0x5370	; 0x5370 <mts310cb_init>
    547e:	89 81       	ldd	r24, Y+1	; 0x01
	if (powerstatus == POWER_ON)	PORTC |=  (1 << 3);
    5480:	81 30       	cpi	r24, 0x01	; 1
    5482:	11 f4       	brne	.+4      	; 0x5488 <mts310cb_Microphone_Power+0x22>
    5484:	ab 9a       	sbi	0x15, 3	; 21
    5486:	01 c0       	rjmp	.+2      	; 0x548a <mts310cb_Microphone_Power+0x24>
	else									PORTC &= ~(1 << 3);
    5488:	ab 98       	cbi	0x15, 3	; 21
}
    548a:	0f 90       	pop	r0
    548c:	cf 91       	pop	r28
    548e:	df 91       	pop	r29
    5490:	08 95       	ret

00005492 <mts310cb_Magnetometer_x_SetOffset>:



// Adjust offset voltage at Opamp U6 in 256 steps
void mts310cb_Magnetometer_x_SetOffset(unsigned char value)
{
    5492:	df 93       	push	r29
    5494:	cf 93       	push	r28
    5496:	0f 92       	push	r0
    5498:	cd b7       	in	r28, 0x3d	; 61
    549a:	de b7       	in	r29, 0x3e	; 62
    549c:	48 2f       	mov	r20, r24
	CheckIfInitDone();
    549e:	80 91 e5 03 	lds	r24, 0x03E5
    54a2:	88 23       	and	r24, r24
    54a4:	21 f4       	brne	.+8      	; 0x54ae <mts310cb_Magnetometer_x_SetOffset+0x1c>
    54a6:	49 83       	std	Y+1, r20	; 0x01
    54a8:	0e 94 b8 29 	call	0x5370	; 0x5370 <mts310cb_init>
    54ac:	49 81       	ldd	r20, Y+1	; 0x01
	#define ad5242_MagnetometerAddress 0
	ad5242_set(ad5242_MagnetometerAddress, 1, value);	// Channel 1
    54ae:	80 e0       	ldi	r24, 0x00	; 0
    54b0:	61 e0       	ldi	r22, 0x01	; 1
    54b2:	0e 94 1c 28 	call	0x5038	; 0x5038 <ad5242_set>
}
    54b6:	0f 90       	pop	r0
    54b8:	cf 91       	pop	r28
    54ba:	df 91       	pop	r29
    54bc:	08 95       	ret

000054be <mts310cb_Magnetometer_y_SetOffset>:



// Adjust offset voltage at Opamp U7 in 256 steps
void mts310cb_Magnetometer_y_SetOffset(unsigned char value)
{
    54be:	df 93       	push	r29
    54c0:	cf 93       	push	r28
    54c2:	0f 92       	push	r0
    54c4:	cd b7       	in	r28, 0x3d	; 61
    54c6:	de b7       	in	r29, 0x3e	; 62
    54c8:	48 2f       	mov	r20, r24
	CheckIfInitDone();
    54ca:	80 91 e5 03 	lds	r24, 0x03E5
    54ce:	88 23       	and	r24, r24
    54d0:	21 f4       	brne	.+8      	; 0x54da <mts310cb_Magnetometer_y_SetOffset+0x1c>
    54d2:	49 83       	std	Y+1, r20	; 0x01
    54d4:	0e 94 b8 29 	call	0x5370	; 0x5370 <mts310cb_init>
    54d8:	49 81       	ldd	r20, Y+1	; 0x01
	ad5242_set(ad5242_MagnetometerAddress, 2, value);	// Channel 2
    54da:	80 e0       	ldi	r24, 0x00	; 0
    54dc:	62 e0       	ldi	r22, 0x02	; 2
    54de:	0e 94 1c 28 	call	0x5038	; 0x5038 <ad5242_set>
}
    54e2:	0f 90       	pop	r0
    54e4:	cf 91       	pop	r28
    54e6:	df 91       	pop	r29
    54e8:	08 95       	ret

000054ea <mts310cb_Microphone_SetGain>:



// Adjust gain of Mic preamp in 256 steps
void mts310cb_Microphone_SetGain(unsigned char value)
{
    54ea:	df 93       	push	r29
    54ec:	cf 93       	push	r28
    54ee:	0f 92       	push	r0
    54f0:	cd b7       	in	r28, 0x3d	; 61
    54f2:	de b7       	in	r29, 0x3e	; 62
    54f4:	48 2f       	mov	r20, r24
	CheckIfInitDone();
    54f6:	80 91 e5 03 	lds	r24, 0x03E5
    54fa:	88 23       	and	r24, r24
    54fc:	21 f4       	brne	.+8      	; 0x5506 <mts310cb_Microphone_SetGain+0x1c>
    54fe:	49 83       	std	Y+1, r20	; 0x01
    5500:	0e 94 b8 29 	call	0x5370	; 0x5370 <mts310cb_init>
    5504:	49 81       	ldd	r20, Y+1	; 0x01
	#define ad5242_MicrophoneAddress 1
	ad5242_set(ad5242_MicrophoneAddress, 1, value);		// Channel 1
    5506:	81 e0       	ldi	r24, 0x01	; 1
    5508:	61 e0       	ldi	r22, 0x01	; 1
    550a:	0e 94 1c 28 	call	0x5038	; 0x5038 <ad5242_set>
}
    550e:	0f 90       	pop	r0
    5510:	cf 91       	pop	r28
    5512:	df 91       	pop	r29
    5514:	08 95       	ret

00005516 <mts310cb_Microphone_SetMode>:



// This is set with PW6
void mts310cb_Microphone_SetMode(T_MicMode mode)
{
    5516:	df 93       	push	r29
    5518:	cf 93       	push	r28
    551a:	0f 92       	push	r0
    551c:	cd b7       	in	r28, 0x3d	; 61
    551e:	de b7       	in	r29, 0x3e	; 62
	CheckIfInitDone();
    5520:	90 91 e5 03 	lds	r25, 0x03E5
    5524:	99 23       	and	r25, r25
    5526:	21 f4       	brne	.+8      	; 0x5530 <mts310cb_Microphone_SetMode+0x1a>
    5528:	89 83       	std	Y+1, r24	; 0x01
    552a:	0e 94 b8 29 	call	0x5370	; 0x5370 <mts310cb_init>
    552e:	89 81       	ldd	r24, Y+1	; 0x01
	if (mode == MIC_RAW)                PORTC |=  (1 << 6); // tbd: is this the right logic or is it inverted?
    5530:	88 23       	and	r24, r24
    5532:	11 f4       	brne	.+4      	; 0x5538 <mts310cb_Microphone_SetMode+0x22>
    5534:	ae 9a       	sbi	0x15, 6	; 21
    5536:	03 c0       	rjmp	.+6      	; 0x553e <mts310cb_Microphone_SetMode+0x28>
	else if (mode == MIC_TONEDETECT)    PORTC &= ~(1 << 6);
    5538:	81 30       	cpi	r24, 0x01	; 1
    553a:	09 f4       	brne	.+2      	; 0x553e <mts310cb_Microphone_SetMode+0x28>
    553c:	ae 98       	cbi	0x15, 6	; 21
}
    553e:	0f 90       	pop	r0
    5540:	cf 91       	pop	r28
    5542:	df 91       	pop	r29
    5544:	08 95       	ret

00005546 <mts310cb_LightSensor_GetCounts>:


// This is a ratiometric value, so use Vcc as reference
unsigned int mts310cb_LightSensor_GetCounts()
{
	CheckIfInitDone();
    5546:	80 91 e5 03 	lds	r24, 0x03E5
    554a:	88 23       	and	r24, r24
    554c:	11 f4       	brne	.+4      	; 0x5552 <mts310cb_LightSensor_GetCounts+0xc>
    554e:	0e 94 b8 29 	call	0x5370	; 0x5370 <mts310cb_init>
	mts310cb_LightSensor_Power(POWER_ON);
    5552:	81 e0       	ldi	r24, 0x01	; 1
    5554:	0e 94 09 2a 	call	0x5412	; 0x5412 <mts310cb_LightSensor_Power>
	return adc_GetChannel(1);
    5558:	81 e0       	ldi	r24, 0x01	; 1
    555a:	0e 94 52 28 	call	0x50a4	; 0x50a4 <adc_GetChannel>
}
    555e:	08 95       	ret

00005560 <mts310cb_TemperatureSensor_GetCounts>:


// This is a ratiometric value, so use Vcc as reference
unsigned int mts310cb_TemperatureSensor_GetCounts()
{
	CheckIfInitDone();
    5560:	80 91 e5 03 	lds	r24, 0x03E5
    5564:	88 23       	and	r24, r24
    5566:	11 f4       	brne	.+4      	; 0x556c <mts310cb_TemperatureSensor_GetCounts+0xc>
    5568:	0e 94 b8 29 	call	0x5370	; 0x5370 <mts310cb_init>
	mts310cb_TemperatureSensor_Power(POWER_ON);
    556c:	81 e0       	ldi	r24, 0x01	; 1
    556e:	0e 94 f5 29 	call	0x53ea	; 0x53ea <mts310cb_TemperatureSensor_Power>
	return adc_GetChannel(1);
    5572:	81 e0       	ldi	r24, 0x01	; 1
    5574:	0e 94 52 28 	call	0x50a4	; 0x50a4 <adc_GetChannel>
}
    5578:	08 95       	ret

0000557a <mts310cb_Microphone_GetCounts>:



unsigned int mts310cb_Microphone_GetCounts()
{
	CheckIfInitDone();
    557a:	80 91 e5 03 	lds	r24, 0x03E5
    557e:	88 23       	and	r24, r24
    5580:	11 f4       	brne	.+4      	; 0x5586 <mts310cb_Microphone_GetCounts+0xc>
    5582:	0e 94 b8 29 	call	0x5370	; 0x5370 <mts310cb_init>
	return adc_GetChannel(2);
    5586:	82 e0       	ldi	r24, 0x02	; 2
    5588:	0e 94 52 28 	call	0x50a4	; 0x50a4 <adc_GetChannel>
}
    558c:	08 95       	ret

0000558e <mts310cb_Accelerometer_x_GetCounts>:



unsigned int mts310cb_Accelerometer_x_GetCounts()
{
	CheckIfInitDone();
    558e:	80 91 e5 03 	lds	r24, 0x03E5
    5592:	88 23       	and	r24, r24
    5594:	11 f4       	brne	.+4      	; 0x559a <mts310cb_Accelerometer_x_GetCounts+0xc>
    5596:	0e 94 b8 29 	call	0x5370	; 0x5370 <mts310cb_init>
	return adc_GetChannel(3);
    559a:	83 e0       	ldi	r24, 0x03	; 3
    559c:	0e 94 52 28 	call	0x50a4	; 0x50a4 <adc_GetChannel>
}
    55a0:	08 95       	ret

000055a2 <mts310cb_Accelerometer_y_GetCounts>:



unsigned int mts310cb_Accelerometer_y_GetCounts()
{
	CheckIfInitDone();
    55a2:	80 91 e5 03 	lds	r24, 0x03E5
    55a6:	88 23       	and	r24, r24
    55a8:	11 f4       	brne	.+4      	; 0x55ae <mts310cb_Accelerometer_y_GetCounts+0xc>
    55aa:	0e 94 b8 29 	call	0x5370	; 0x5370 <mts310cb_init>
	return adc_GetChannel(4);
    55ae:	84 e0       	ldi	r24, 0x04	; 4
    55b0:	0e 94 52 28 	call	0x50a4	; 0x50a4 <adc_GetChannel>
}
    55b4:	08 95       	ret

000055b6 <mts310cb_Magnetometer_x_GetCounts>:



unsigned int mts310cb_Magnetometer_x_GetCounts()
{
	CheckIfInitDone();
    55b6:	80 91 e5 03 	lds	r24, 0x03E5
    55ba:	88 23       	and	r24, r24
    55bc:	11 f4       	brne	.+4      	; 0x55c2 <mts310cb_Magnetometer_x_GetCounts+0xc>
    55be:	0e 94 b8 29 	call	0x5370	; 0x5370 <mts310cb_init>
	return adc_GetChannel(5);
    55c2:	85 e0       	ldi	r24, 0x05	; 5
    55c4:	0e 94 52 28 	call	0x50a4	; 0x50a4 <adc_GetChannel>
}
    55c8:	08 95       	ret

000055ca <mts310cb_Magnetometer_y_GetCounts>:



unsigned int mts310cb_Magnetometer_y_GetCounts()
{
	CheckIfInitDone();
    55ca:	80 91 e5 03 	lds	r24, 0x03E5
    55ce:	88 23       	and	r24, r24
    55d0:	11 f4       	brne	.+4      	; 0x55d6 <mts310cb_Magnetometer_y_GetCounts+0xc>
    55d2:	0e 94 b8 29 	call	0x5370	; 0x5370 <mts310cb_init>
	return adc_GetChannel(6);
    55d6:	86 e0       	ldi	r24, 0x06	; 6
    55d8:	0e 94 52 28 	call	0x50a4	; 0x50a4 <adc_GetChannel>
}
    55dc:	08 95       	ret

000055de <Maxim_1Wire_ResetPulse>:
	#else
		//round up by default
		__ticks_dc = (uint32_t)(ceil(fabs(__tmp)));
	#endif

	__builtin_avr_delay_cycles(__ticks_dc);
    55de:	89 e9       	ldi	r24, 0x99	; 153
    55e0:	93 e0       	ldi	r25, 0x03	; 3
    55e2:	01 97       	sbiw	r24, 0x01	; 1
    55e4:	f1 f7       	brne	.-4      	; 0x55e2 <Maxim_1Wire_ResetPulse+0x4>
    55e6:	00 c0       	rjmp	.+0      	; 0x55e8 <Maxim_1Wire_ResetPulse+0xa>
// Returns 0 if slave is present, else -1
inline signed char Maxim_1Wire_ResetPulse(void)
{
    unsigned char delaytime = 0;
    _delay_us(500);
    DataPin_DriveLow;
    55e8:	dc 98       	cbi	0x1b, 4	; 27
    55ea:	d4 9a       	sbi	0x1a, 4	; 26
    55ec:	89 e9       	ldi	r24, 0x99	; 153
    55ee:	93 e0       	ldi	r25, 0x03	; 3
    55f0:	01 97       	sbiw	r24, 0x01	; 1
    55f2:	f1 f7       	brne	.-4      	; 0x55f0 <Maxim_1Wire_ResetPulse+0x12>
    55f4:	00 c0       	rjmp	.+0      	; 0x55f6 <Maxim_1Wire_ResetPulse+0x18>
    _delay_us(500);   // datasheet value: 480 s
    DataPin_PullUp;
    55f6:	d4 98       	cbi	0x1a, 4	; 26
    55f8:	dc 9a       	sbi	0x1b, 4	; 27

    // Wait for data line to go high
    while (DataPin_State == 0);
    55fa:	cc 9b       	sbis	0x19, 4	; 25
    55fc:	fe cf       	rjmp	.-4      	; 0x55fa <Maxim_1Wire_ResetPulse+0x1c>
    55fe:	80 e0       	ldi	r24, 0x00	; 0
    5600:	07 c0       	rjmp	.+14     	; 0x5610 <Maxim_1Wire_ResetPulse+0x32>
    5602:	91 e3       	ldi	r25, 0x31	; 49
    5604:	9a 95       	dec	r25
    5606:	f1 f7       	brne	.-4      	; 0x5604 <Maxim_1Wire_ResetPulse+0x26>
    5608:	00 00       	nop

    // Wait for presence pulse
    while (DataPin_State == 1)
    {
        _delay_us(20);
        delaytime ++;
    560a:	8f 5f       	subi	r24, 0xFF	; 255
        if (delaytime > 30) return -1;  // Timeout 600 s: no presence pulse detected
    560c:	8f 31       	cpi	r24, 0x1F	; 31
    560e:	49 f0       	breq	.+18     	; 0x5622 <Maxim_1Wire_ResetPulse+0x44>

    // Wait for data line to go high
    while (DataPin_State == 0);

    // Wait for presence pulse
    while (DataPin_State == 1)
    5610:	cc 99       	sbic	0x19, 4	; 25
    5612:	f7 cf       	rjmp	.-18     	; 0x5602 <Maxim_1Wire_ResetPulse+0x24>
    5614:	89 e9       	ldi	r24, 0x99	; 153
    5616:	93 e0       	ldi	r25, 0x03	; 3
    5618:	01 97       	sbiw	r24, 0x01	; 1
    561a:	f1 f7       	brne	.-4      	; 0x5618 <Maxim_1Wire_ResetPulse+0x3a>
    561c:	00 c0       	rjmp	.+0      	; 0x561e <Maxim_1Wire_ResetPulse+0x40>
    }

    // Presence pulse detected, wait until bus is free
    _delay_us(500);   // Datasheet: Trsth

    return 0;
    561e:	80 e0       	ldi	r24, 0x00	; 0
    5620:	08 95       	ret
    // Wait for presence pulse
    while (DataPin_State == 1)
    {
        _delay_us(20);
        delaytime ++;
        if (delaytime > 30) return -1;  // Timeout 600 s: no presence pulse detected
    5622:	8f ef       	ldi	r24, 0xFF	; 255

    // Presence pulse detected, wait until bus is free
    _delay_us(500);   // Datasheet: Trsth

    return 0;
}
    5624:	08 95       	ret

00005626 <Maxim_1Wire_WriteBit>:
// Write will take a 100 s time slot and write one or zero
// Wrtie One will pull low for 10 s
// Write Zero will pull down for 80 s
inline void Maxim_1Wire_WriteBit(unsigned char databit)
{
   if (databit == 0) // Write Zero
    5626:	88 23       	and	r24, r24
    5628:	61 f4       	brne	.+24     	; 0x5642 <Maxim_1Wire_WriteBit+0x1c>
   {
      DataPin_DriveLow;
    562a:	dc 98       	cbi	0x1b, 4	; 27
    562c:	d4 9a       	sbi	0x1a, 4	; 26
    562e:	84 ec       	ldi	r24, 0xC4	; 196
    5630:	8a 95       	dec	r24
    5632:	f1 f7       	brne	.-4      	; 0x5630 <Maxim_1Wire_WriteBit+0xa>
    5634:	00 c0       	rjmp	.+0      	; 0x5636 <Maxim_1Wire_WriteBit+0x10>
      _delay_us(80);    //80
      DataPin_PullUp;
    5636:	d4 98       	cbi	0x1a, 4	; 26
    5638:	dc 9a       	sbi	0x1b, 4	; 27
    563a:	81 e3       	ldi	r24, 0x31	; 49
    563c:	8a 95       	dec	r24
    563e:	f1 f7       	brne	.-4      	; 0x563c <Maxim_1Wire_WriteBit+0x16>
    5640:	0b c0       	rjmp	.+22     	; 0x5658 <Maxim_1Wire_WriteBit+0x32>
      _delay_us(20);    //20
   }
   else              // Write One
   {
      DataPin_DriveLow;
    5642:	dc 98       	cbi	0x1b, 4	; 27
    5644:	d4 9a       	sbi	0x1a, 4	; 26
    5646:	88 e1       	ldi	r24, 0x18	; 24
    5648:	8a 95       	dec	r24
    564a:	f1 f7       	brne	.-4      	; 0x5648 <Maxim_1Wire_WriteBit+0x22>
    564c:	00 c0       	rjmp	.+0      	; 0x564e <Maxim_1Wire_WriteBit+0x28>
      _delay_us(10);    //10
      DataPin_PullUp;
    564e:	d4 98       	cbi	0x1a, 4	; 26
    5650:	dc 9a       	sbi	0x1b, 4	; 27
    5652:	8d ed       	ldi	r24, 0xDD	; 221
    5654:	8a 95       	dec	r24
    5656:	f1 f7       	brne	.-4      	; 0x5654 <Maxim_1Wire_WriteBit+0x2e>
    5658:	00 00       	nop
    565a:	08 95       	ret

0000565c <Maxim_1Wire_ReadBit>:
// Reads a bit
inline unsigned char Maxim_1Wire_ReadBit(void)
{
   unsigned char bit;

   DataPin_DriveLow;
    565c:	dc 98       	cbi	0x1b, 4	; 27
    565e:	d4 9a       	sbi	0x1a, 4	; 26
    5660:	82 e0       	ldi	r24, 0x02	; 2
    5662:	8a 95       	dec	r24
    5664:	f1 f7       	brne	.-4      	; 0x5662 <Maxim_1Wire_ReadBit+0x6>
    5666:	00 c0       	rjmp	.+0      	; 0x5668 <Maxim_1Wire_ReadBit+0xc>
   _delay_us(1);    //1
   DataPin_PullUp;
    5668:	d4 98       	cbi	0x1a, 4	; 26
    566a:	dc 9a       	sbi	0x1b, 4	; 27
    566c:	96 e1       	ldi	r25, 0x16	; 22
    566e:	9a 95       	dec	r25
    5670:	f1 f7       	brne	.-4      	; 0x566e <Maxim_1Wire_ReadBit+0x12>
    5672:	00 00       	nop
   _delay_us(9);   //9
   bit = DataPin_State;
    5674:	89 b3       	in	r24, 0x19	; 25
    5676:	94 ec       	ldi	r25, 0xC4	; 196
    5678:	9a 95       	dec	r25
    567a:	f1 f7       	brne	.-4      	; 0x5678 <Maxim_1Wire_ReadBit+0x1c>
    567c:	00 c0       	rjmp	.+0      	; 0x567e <Maxim_1Wire_ReadBit+0x22>
    567e:	90 e0       	ldi	r25, 0x00	; 0
    5680:	80 71       	andi	r24, 0x10	; 16
    5682:	90 70       	andi	r25, 0x00	; 0
    5684:	24 e0       	ldi	r18, 0x04	; 4
    5686:	95 95       	asr	r25
    5688:	87 95       	ror	r24
    568a:	2a 95       	dec	r18
    568c:	e1 f7       	brne	.-8      	; 0x5686 <Maxim_1Wire_ReadBit+0x2a>
   _delay_us(80);   //80

   return bit;
}
    568e:	08 95       	ret

00005690 <Maxim_1Wire_WriteByte>:


inline void Maxim_1Wire_WriteByte(unsigned char data)
{
    5690:	ff 92       	push	r15
    5692:	0f 93       	push	r16
    5694:	1f 93       	push	r17
    5696:	cf 93       	push	r28
    5698:	df 93       	push	r29
    569a:	f8 2e       	mov	r15, r24
    569c:	c0 e0       	ldi	r28, 0x00	; 0
    569e:	d0 e0       	ldi	r29, 0x00	; 0
   // Data order is lsb first
   unsigned char currentBit;

   for (currentBit = 0; currentBit < 8; currentBit++)
   {
      Maxim_1Wire_WriteBit(data & (1 << currentBit));
    56a0:	01 e0       	ldi	r16, 0x01	; 1
    56a2:	10 e0       	ldi	r17, 0x00	; 0
    56a4:	98 01       	movw	r18, r16
    56a6:	0c 2e       	mov	r0, r28
    56a8:	02 c0       	rjmp	.+4      	; 0x56ae <Maxim_1Wire_WriteByte+0x1e>
    56aa:	22 0f       	add	r18, r18
    56ac:	33 1f       	adc	r19, r19
    56ae:	0a 94       	dec	r0
    56b0:	e2 f7       	brpl	.-8      	; 0x56aa <Maxim_1Wire_WriteByte+0x1a>
    56b2:	8f 2d       	mov	r24, r15
    56b4:	82 23       	and	r24, r18
    56b6:	0e 94 13 2b 	call	0x5626	; 0x5626 <Maxim_1Wire_WriteBit>
    56ba:	21 96       	adiw	r28, 0x01	; 1
inline void Maxim_1Wire_WriteByte(unsigned char data)
{
   // Data order is lsb first
   unsigned char currentBit;

   for (currentBit = 0; currentBit < 8; currentBit++)
    56bc:	c8 30       	cpi	r28, 0x08	; 8
    56be:	d1 05       	cpc	r29, r1
    56c0:	89 f7       	brne	.-30     	; 0x56a4 <Maxim_1Wire_WriteByte+0x14>
   {
      Maxim_1Wire_WriteBit(data & (1 << currentBit));
   }
}
    56c2:	df 91       	pop	r29
    56c4:	cf 91       	pop	r28
    56c6:	1f 91       	pop	r17
    56c8:	0f 91       	pop	r16
    56ca:	ff 90       	pop	r15
    56cc:	08 95       	ret

000056ce <Maxim_1Wire_ReadByte>:


inline unsigned char Maxim_1Wire_ReadByte(void)
{
    56ce:	1f 93       	push	r17
    56d0:	cf 93       	push	r28
    56d2:	df 93       	push	r29
    56d4:	c0 e0       	ldi	r28, 0x00	; 0
    56d6:	d0 e0       	ldi	r29, 0x00	; 0
   // Data order is lsb first
   unsigned char data = 0;
    56d8:	10 e0       	ldi	r17, 0x00	; 0
   unsigned char currentBit;

   for (currentBit = 0; currentBit < 8; currentBit++)
   {
      data |= (Maxim_1Wire_ReadBit() << currentBit);
    56da:	0e 94 2e 2b 	call	0x565c	; 0x565c <Maxim_1Wire_ReadBit>
    56de:	28 2f       	mov	r18, r24
    56e0:	30 e0       	ldi	r19, 0x00	; 0
    56e2:	0c 2e       	mov	r0, r28
    56e4:	02 c0       	rjmp	.+4      	; 0x56ea <Maxim_1Wire_ReadByte+0x1c>
    56e6:	22 0f       	add	r18, r18
    56e8:	33 1f       	adc	r19, r19
    56ea:	0a 94       	dec	r0
    56ec:	e2 f7       	brpl	.-8      	; 0x56e6 <Maxim_1Wire_ReadByte+0x18>
    56ee:	12 2b       	or	r17, r18
    56f0:	21 96       	adiw	r28, 0x01	; 1
{
   // Data order is lsb first
   unsigned char data = 0;
   unsigned char currentBit;

   for (currentBit = 0; currentBit < 8; currentBit++)
    56f2:	c8 30       	cpi	r28, 0x08	; 8
    56f4:	d1 05       	cpc	r29, r1
    56f6:	89 f7       	brne	.-30     	; 0x56da <Maxim_1Wire_ReadByte+0xc>
   {
      data |= (Maxim_1Wire_ReadBit() << currentBit);
   }

   return data;
}
    56f8:	81 2f       	mov	r24, r17
    56fa:	df 91       	pop	r29
    56fc:	cf 91       	pop	r28
    56fe:	1f 91       	pop	r17
    5700:	08 95       	ret

00005702 <Maxim_1Wire_CommandReadRom>:



inline void Maxim_1Wire_CommandReadRom(void)
{
   Maxim_1Wire_WriteByte(0x0f);
    5702:	8f e0       	ldi	r24, 0x0F	; 15
    5704:	0e 94 48 2b 	call	0x5690	; 0x5690 <Maxim_1Wire_WriteByte>
}
    5708:	08 95       	ret

0000570a <DS2401_init>:



inline void DS2401_init(void)
{
    SFIOR &= ~(1 << PUD);
    570a:	80 b5       	in	r24, 0x20	; 32
    570c:	8b 7f       	andi	r24, 0xFB	; 251
    570e:	80 bd       	out	0x20, r24	; 32
    DataPin_PullUp;
    5710:	d4 98       	cbi	0x1a, 4	; 26
    5712:	dc 9a       	sbi	0x1b, 4	; 27
    5714:	86 ef       	ldi	r24, 0xF6	; 246
    5716:	8a 95       	dec	r24
    5718:	f1 f7       	brne	.-4      	; 0x5716 <DS2401_init+0xc>
    _delay_us(100);   // One time slot for powerup
}
    571a:	08 95       	ret

0000571c <DS2401_getSerialNumber>:


// Reads the 32 bit world wide unique serial number
// valid is set to 0 in case of success, -2 in case of family code mismatch, -1 in case of CRC error (tdb)
inline uint32_t DS2401_getSerialNumber(int8_t *valid) {
    571c:	ef 92       	push	r14
    571e:	ff 92       	push	r15
    5720:	0f 93       	push	r16
    5722:	1f 93       	push	r17
    5724:	df 93       	push	r29
    5726:	cf 93       	push	r28
    5728:	00 d0       	rcall	.+0      	; 0x572a <DS2401_getSerialNumber+0xe>
    572a:	00 d0       	rcall	.+0      	; 0x572c <DS2401_getSerialNumber+0x10>
    572c:	cd b7       	in	r28, 0x3d	; 61
    572e:	de b7       	in	r29, 0x3e	; 62
    5730:	7c 01       	movw	r14, r24
    uint32_t serialNumber = 0;
    5732:	19 82       	std	Y+1, r1	; 0x01
    5734:	1a 82       	std	Y+2, r1	; 0x02
    5736:	1b 82       	std	Y+3, r1	; 0x03
    5738:	1c 82       	std	Y+4, r1	; 0x04
    uint8_t byte;
    signed char returnVal;
    returnVal = Maxim_1Wire_ResetPulse();
    573a:	0e 94 ef 2a 	call	0x55de	; 0x55de <Maxim_1Wire_ResetPulse>
    if (returnVal != 0) return returnVal;
    573e:	88 23       	and	r24, r24
    5740:	39 f0       	breq	.+14     	; 0x5750 <DS2401_getSerialNumber+0x34>
    5742:	28 2f       	mov	r18, r24
    5744:	33 27       	eor	r19, r19
    5746:	27 fd       	sbrc	r18, 7
    5748:	30 95       	com	r19
    574a:	43 2f       	mov	r20, r19
    574c:	53 2f       	mov	r21, r19
    574e:	27 c0       	rjmp	.+78     	; 0x579e <DS2401_getSerialNumber+0x82>
    Maxim_1Wire_CommandReadRom();
    5750:	0e 94 81 2b 	call	0x5702	; 0x5702 <Maxim_1Wire_CommandReadRom>
    if (Maxim_1Wire_ReadByte() != 0x01) *valid = -2;      //  Read device code
    5754:	0e 94 67 2b 	call	0x56ce	; 0x56ce <Maxim_1Wire_ReadByte>
    5758:	81 30       	cpi	r24, 0x01	; 1
    575a:	19 f0       	breq	.+6      	; 0x5762 <DS2401_getSerialNumber+0x46>
    575c:	8e ef       	ldi	r24, 0xFE	; 254
    575e:	f7 01       	movw	r30, r14
    5760:	80 83       	st	Z, r24

    *(uint8_t*)&serialNumber = Maxim_1Wire_ReadByte();          //  Read ID Byte 0 - last significant
    5762:	8e 01       	movw	r16, r28
    5764:	0f 5f       	subi	r16, 0xFF	; 255
    5766:	1f 4f       	sbci	r17, 0xFF	; 255
    5768:	0e 94 67 2b 	call	0x56ce	; 0x56ce <Maxim_1Wire_ReadByte>
    576c:	89 83       	std	Y+1, r24	; 0x01

    *((uint8_t*)&serialNumber + 1) = Maxim_1Wire_ReadByte();    //  Read ID Byte 1
    576e:	0e 94 67 2b 	call	0x56ce	; 0x56ce <Maxim_1Wire_ReadByte>
    5772:	f8 01       	movw	r30, r16
    5774:	81 83       	std	Z+1, r24	; 0x01

    *((uint8_t*)&serialNumber + 2) = Maxim_1Wire_ReadByte();    //  Read ID Byte 2
    5776:	0e 94 67 2b 	call	0x56ce	; 0x56ce <Maxim_1Wire_ReadByte>
    577a:	f8 01       	movw	r30, r16
    577c:	82 83       	std	Z+2, r24	; 0x02

    *((uint8_t*)&serialNumber + 3) = Maxim_1Wire_ReadByte();    //  Read ID Byte 3
    577e:	0e 94 67 2b 	call	0x56ce	; 0x56ce <Maxim_1Wire_ReadByte>
    5782:	f8 01       	movw	r30, r16
    5784:	83 83       	std	Z+3, r24	; 0x03

    Maxim_1Wire_ReadByte();                                     //  Read ID Byte 4 = 0
    5786:	0e 94 67 2b 	call	0x56ce	; 0x56ce <Maxim_1Wire_ReadByte>
    Maxim_1Wire_ReadByte();                                     //  Read ID Byte 5 = 0 - most significant
    578a:	0e 94 67 2b 	call	0x56ce	; 0x56ce <Maxim_1Wire_ReadByte>
    Maxim_1Wire_ReadByte();                                     //  Read CRC, tbd.
    578e:	0e 94 67 2b 	call	0x56ce	; 0x56ce <Maxim_1Wire_ReadByte>
    *valid = 0;
    5792:	f7 01       	movw	r30, r14
    5794:	10 82       	st	Z, r1
    return serialNumber;
    5796:	29 81       	ldd	r18, Y+1	; 0x01
    5798:	3a 81       	ldd	r19, Y+2	; 0x02
    579a:	4b 81       	ldd	r20, Y+3	; 0x03
    579c:	5c 81       	ldd	r21, Y+4	; 0x04
}
    579e:	b9 01       	movw	r22, r18
    57a0:	ca 01       	movw	r24, r20
    57a2:	0f 90       	pop	r0
    57a4:	0f 90       	pop	r0
    57a6:	0f 90       	pop	r0
    57a8:	0f 90       	pop	r0
    57aa:	cf 91       	pop	r28
    57ac:	df 91       	pop	r29
    57ae:	1f 91       	pop	r17
    57b0:	0f 91       	pop	r16
    57b2:	ff 90       	pop	r15
    57b4:	ef 90       	pop	r14
    57b6:	08 95       	ret

000057b8 <DOGM128_6_usart1_sendByte>:
	garb = UDR1;
	DisCShigh;
*/


	DisCSlow;
    57b8:	aa 98       	cbi	0x15, 2	; 21
	DisSCLlow;
    57ba:	95 98       	cbi	0x12, 5	; 18
	if (ch & 0x80) DisSOhigh; else DisSOlow;
    57bc:	87 ff       	sbrs	r24, 7
    57be:	02 c0       	rjmp	.+4      	; 0x57c4 <DOGM128_6_usart1_sendByte+0xc>
    57c0:	93 9a       	sbi	0x12, 3	; 18
    57c2:	01 c0       	rjmp	.+2      	; 0x57c6 <DOGM128_6_usart1_sendByte+0xe>
    57c4:	93 98       	cbi	0x12, 3	; 18
	DisSCLhigh;
    57c6:	95 9a       	sbi	0x12, 5	; 18
	DisSCLlow;
    57c8:	95 98       	cbi	0x12, 5	; 18
	if (ch & 0x40) DisSOhigh; else DisSOlow;
    57ca:	86 ff       	sbrs	r24, 6
    57cc:	02 c0       	rjmp	.+4      	; 0x57d2 <DOGM128_6_usart1_sendByte+0x1a>
    57ce:	93 9a       	sbi	0x12, 3	; 18
    57d0:	01 c0       	rjmp	.+2      	; 0x57d4 <DOGM128_6_usart1_sendByte+0x1c>
    57d2:	93 98       	cbi	0x12, 3	; 18
	DisSCLhigh;
    57d4:	95 9a       	sbi	0x12, 5	; 18
	DisSCLlow;
    57d6:	95 98       	cbi	0x12, 5	; 18
	if (ch & 0x20) DisSOhigh; else DisSOlow;
    57d8:	85 ff       	sbrs	r24, 5
    57da:	02 c0       	rjmp	.+4      	; 0x57e0 <DOGM128_6_usart1_sendByte+0x28>
    57dc:	93 9a       	sbi	0x12, 3	; 18
    57de:	01 c0       	rjmp	.+2      	; 0x57e2 <DOGM128_6_usart1_sendByte+0x2a>
    57e0:	93 98       	cbi	0x12, 3	; 18
	DisSCLhigh;
    57e2:	95 9a       	sbi	0x12, 5	; 18
	DisSCLlow;
    57e4:	95 98       	cbi	0x12, 5	; 18
	if (ch & 0x10) DisSOhigh; else DisSOlow;
    57e6:	84 ff       	sbrs	r24, 4
    57e8:	02 c0       	rjmp	.+4      	; 0x57ee <DOGM128_6_usart1_sendByte+0x36>
    57ea:	93 9a       	sbi	0x12, 3	; 18
    57ec:	01 c0       	rjmp	.+2      	; 0x57f0 <DOGM128_6_usart1_sendByte+0x38>
    57ee:	93 98       	cbi	0x12, 3	; 18
	DisSCLhigh;
    57f0:	95 9a       	sbi	0x12, 5	; 18
	DisSCLlow;
    57f2:	95 98       	cbi	0x12, 5	; 18
	if (ch & 0x08) DisSOhigh; else DisSOlow;
    57f4:	83 ff       	sbrs	r24, 3
    57f6:	02 c0       	rjmp	.+4      	; 0x57fc <DOGM128_6_usart1_sendByte+0x44>
    57f8:	93 9a       	sbi	0x12, 3	; 18
    57fa:	01 c0       	rjmp	.+2      	; 0x57fe <DOGM128_6_usart1_sendByte+0x46>
    57fc:	93 98       	cbi	0x12, 3	; 18
	DisSCLhigh;
    57fe:	95 9a       	sbi	0x12, 5	; 18
	DisSCLlow;
    5800:	95 98       	cbi	0x12, 5	; 18
	if (ch & 0x04) DisSOhigh; else DisSOlow;
    5802:	82 ff       	sbrs	r24, 2
    5804:	02 c0       	rjmp	.+4      	; 0x580a <DOGM128_6_usart1_sendByte+0x52>
    5806:	93 9a       	sbi	0x12, 3	; 18
    5808:	01 c0       	rjmp	.+2      	; 0x580c <DOGM128_6_usart1_sendByte+0x54>
    580a:	93 98       	cbi	0x12, 3	; 18
	DisSCLhigh;
    580c:	95 9a       	sbi	0x12, 5	; 18
	DisSCLlow;
    580e:	95 98       	cbi	0x12, 5	; 18
	if (ch & 0x02) DisSOhigh; else DisSOlow;
    5810:	81 ff       	sbrs	r24, 1
    5812:	02 c0       	rjmp	.+4      	; 0x5818 <DOGM128_6_usart1_sendByte+0x60>
    5814:	93 9a       	sbi	0x12, 3	; 18
    5816:	01 c0       	rjmp	.+2      	; 0x581a <DOGM128_6_usart1_sendByte+0x62>
    5818:	93 98       	cbi	0x12, 3	; 18
	DisSCLhigh;
    581a:	95 9a       	sbi	0x12, 5	; 18
	DisSCLlow;
    581c:	95 98       	cbi	0x12, 5	; 18
	if (ch & 0x01) DisSOhigh; else DisSOlow;
    581e:	80 ff       	sbrs	r24, 0
    5820:	02 c0       	rjmp	.+4      	; 0x5826 <DOGM128_6_usart1_sendByte+0x6e>
    5822:	93 9a       	sbi	0x12, 3	; 18
    5824:	01 c0       	rjmp	.+2      	; 0x5828 <DOGM128_6_usart1_sendByte+0x70>
    5826:	93 98       	cbi	0x12, 3	; 18
	DisSCLhigh;
    5828:	95 9a       	sbi	0x12, 5	; 18
	DisSCLhigh;	//short delay (repeating the last command)
    582a:	95 9a       	sbi	0x12, 5	; 18

	DisCShigh;
    582c:	aa 9a       	sbi	0x15, 2	; 21
}
    582e:	08 95       	ret

00005830 <DOGM128_6_clear_display>:



void DOGM128_6_clear_display(void)
{
    5830:	df 93       	push	r29
    5832:	cf 93       	push	r28
    5834:	00 d0       	rcall	.+0      	; 0x5836 <DOGM128_6_clear_display+0x6>
    5836:	0f 92       	push	r0
    5838:	cd b7       	in	r28, 0x3d	; 61
    583a:	de b7       	in	r29, 0x3e	; 62
  volatile int i;
  volatile char j;

  DisA0high;
    583c:	a8 9a       	sbi	0x15, 0	; 21

  for(j=0; j<8; j++)
    583e:	19 82       	std	Y+1, r1	; 0x01
    5840:	1f c0       	rjmp	.+62     	; 0x5880 <DOGM128_6_clear_display+0x50>
  {
	DisA0low;
    5842:	a8 98       	cbi	0x15, 0	; 21
    DOGM128_6_usart1_sendByte(0xB0 + j);						//Set Page Address
    5844:	89 81       	ldd	r24, Y+1	; 0x01
    5846:	80 55       	subi	r24, 0x50	; 80
    5848:	0e 94 dc 2b 	call	0x57b8	; 0x57b8 <DOGM128_6_usart1_sendByte>
    DOGM128_6_usart1_sendByte(0x10);							//Set Column Address upper nibble to 0
    584c:	80 e1       	ldi	r24, 0x10	; 16
    584e:	0e 94 dc 2b 	call	0x57b8	; 0x57b8 <DOGM128_6_usart1_sendByte>
    DOGM128_6_usart1_sendByte(0x00);							//Set Column Address lower nibble to 0
    5852:	80 e0       	ldi	r24, 0x00	; 0
    5854:	0e 94 dc 2b 	call	0x57b8	; 0x57b8 <DOGM128_6_usart1_sendByte>
    DisA0high;
    5858:	a8 9a       	sbi	0x15, 0	; 21

    for(i=0; i<128; i++)
    585a:	1b 82       	std	Y+3, r1	; 0x03
    585c:	1a 82       	std	Y+2, r1	; 0x02
    585e:	08 c0       	rjmp	.+16     	; 0x5870 <DOGM128_6_clear_display+0x40>
    {
      DOGM128_6_usart1_sendByte(0x00);							//Write white bytes to the display
    5860:	80 e0       	ldi	r24, 0x00	; 0
    5862:	0e 94 dc 2b 	call	0x57b8	; 0x57b8 <DOGM128_6_usart1_sendByte>
    DOGM128_6_usart1_sendByte(0xB0 + j);						//Set Page Address
    DOGM128_6_usart1_sendByte(0x10);							//Set Column Address upper nibble to 0
    DOGM128_6_usart1_sendByte(0x00);							//Set Column Address lower nibble to 0
    DisA0high;

    for(i=0; i<128; i++)
    5866:	8a 81       	ldd	r24, Y+2	; 0x02
    5868:	9b 81       	ldd	r25, Y+3	; 0x03
    586a:	01 96       	adiw	r24, 0x01	; 1
    586c:	9b 83       	std	Y+3, r25	; 0x03
    586e:	8a 83       	std	Y+2, r24	; 0x02
    5870:	8a 81       	ldd	r24, Y+2	; 0x02
    5872:	9b 81       	ldd	r25, Y+3	; 0x03
    5874:	80 38       	cpi	r24, 0x80	; 128
    5876:	91 05       	cpc	r25, r1
    5878:	9c f3       	brlt	.-26     	; 0x5860 <DOGM128_6_clear_display+0x30>
  volatile int i;
  volatile char j;

  DisA0high;

  for(j=0; j<8; j++)
    587a:	89 81       	ldd	r24, Y+1	; 0x01
    587c:	8f 5f       	subi	r24, 0xFF	; 255
    587e:	89 83       	std	Y+1, r24	; 0x01
    5880:	89 81       	ldd	r24, Y+1	; 0x01
    5882:	88 30       	cpi	r24, 0x08	; 8
    5884:	f0 f2       	brcs	.-68     	; 0x5842 <DOGM128_6_clear_display+0x12>
    for(i=0; i<128; i++)
    {
      DOGM128_6_usart1_sendByte(0x00);							//Write white bytes to the display
    }
  }
}
    5886:	0f 90       	pop	r0
    5888:	0f 90       	pop	r0
    588a:	0f 90       	pop	r0
    588c:	cf 91       	pop	r28
    588e:	df 91       	pop	r29
    5890:	08 95       	ret

00005892 <DOGM128_6_display_init>:


void DOGM128_6_display_init(void)
{

  	PORTB &= b11101111;		//LED backlight at Port B4
    5892:	c4 98       	cbi	0x18, 4	; 24
  	DDRB  |= b00010000;
    5894:	bc 9a       	sbi	0x17, 4	; 23

  	PORTC |= b00000111;		//A0, Chip select and Reset at Port C0..C2
    5896:	85 b3       	in	r24, 0x15	; 21
    5898:	87 60       	ori	r24, 0x07	; 7
    589a:	85 bb       	out	0x15, r24	; 21
  	DDRC  |= b00000111;
    589c:	84 b3       	in	r24, 0x14	; 20
    589e:	87 60       	ori	r24, 0x07	; 7
    58a0:	84 bb       	out	0x14, r24	; 20

  	DDRD  |= b00101000;		//PD5 is XCK output, PD3 is serial data output
    58a2:	81 b3       	in	r24, 0x11	; 17
    58a4:	88 62       	ori	r24, 0x28	; 40
    58a6:	81 bb       	out	0x11, r24	; 17
  	PORTD |= b00001000;
    58a8:	93 9a       	sbi	0x12, 3	; 18

	PORTC = b01111000;		//enable pullups for push-buttons
    58aa:	88 e7       	ldi	r24, 0x78	; 120
    58ac:	85 bb       	out	0x15, r24	; 21
	DDRC &= b10000111;		//pins to push-buttons are inputs
    58ae:	84 b3       	in	r24, 0x14	; 20
    58b0:	87 78       	andi	r24, 0x87	; 135
    58b2:	84 bb       	out	0x14, r24	; 20

//usart doesn't work, so we use an SPI in software
//	usart1_init();

  	DisA0low;
    58b4:	a8 98       	cbi	0x15, 0	; 21

  	DisRESETlow;
    58b6:	a9 98       	cbi	0x15, 1	; 21
	#else
		//round up by default
		__ticks_dc = (uint32_t)(ceil(fabs(__tmp)));
	#endif

	__builtin_avr_delay_cycles(__ticks_dc);
    58b8:	8f ef       	ldi	r24, 0xFF	; 255
    58ba:	9f e3       	ldi	r25, 0x3F	; 63
    58bc:	a2 e0       	ldi	r26, 0x02	; 2
    58be:	81 50       	subi	r24, 0x01	; 1
    58c0:	90 40       	sbci	r25, 0x00	; 0
    58c2:	a0 40       	sbci	r26, 0x00	; 0
    58c4:	e1 f7       	brne	.-8      	; 0x58be <DOGM128_6_display_init+0x2c>
    58c6:	00 c0       	rjmp	.+0      	; 0x58c8 <DOGM128_6_display_init+0x36>
    58c8:	00 00       	nop
  	_delay_ms(100);
  	DisRESEThigh;
    58ca:	a9 9a       	sbi	0x15, 1	; 21
    58cc:	8f ef       	ldi	r24, 0xFF	; 255
    58ce:	9f e3       	ldi	r25, 0x3F	; 63
    58d0:	a2 e0       	ldi	r26, 0x02	; 2
    58d2:	81 50       	subi	r24, 0x01	; 1
    58d4:	90 40       	sbci	r25, 0x00	; 0
    58d6:	a0 40       	sbci	r26, 0x00	; 0
    58d8:	e1 f7       	brne	.-8      	; 0x58d2 <DOGM128_6_display_init+0x40>
    58da:	00 c0       	rjmp	.+0      	; 0x58dc <DOGM128_6_display_init+0x4a>
    58dc:	00 00       	nop
  	_delay_ms(100);

  	DOGM128_6_usart1_sendByte (0x40);
    58de:	80 e4       	ldi	r24, 0x40	; 64
    58e0:	0e 94 dc 2b 	call	0x57b8	; 0x57b8 <DOGM128_6_usart1_sendByte>
  	DOGM128_6_usart1_sendByte (0xA1);
    58e4:	81 ea       	ldi	r24, 0xA1	; 161
    58e6:	0e 94 dc 2b 	call	0x57b8	; 0x57b8 <DOGM128_6_usart1_sendByte>
  	DOGM128_6_usart1_sendByte (0xC0);
    58ea:	80 ec       	ldi	r24, 0xC0	; 192
    58ec:	0e 94 dc 2b 	call	0x57b8	; 0x57b8 <DOGM128_6_usart1_sendByte>
  	DOGM128_6_usart1_sendByte (0xA6);
    58f0:	86 ea       	ldi	r24, 0xA6	; 166
    58f2:	0e 94 dc 2b 	call	0x57b8	; 0x57b8 <DOGM128_6_usart1_sendByte>
  	DOGM128_6_usart1_sendByte (0xA2);
    58f6:	82 ea       	ldi	r24, 0xA2	; 162
    58f8:	0e 94 dc 2b 	call	0x57b8	; 0x57b8 <DOGM128_6_usart1_sendByte>
  	DOGM128_6_usart1_sendByte (0x2F);
    58fc:	8f e2       	ldi	r24, 0x2F	; 47
    58fe:	0e 94 dc 2b 	call	0x57b8	; 0x57b8 <DOGM128_6_usart1_sendByte>
	DOGM128_6_usart1_sendByte (0xF8);
    5902:	88 ef       	ldi	r24, 0xF8	; 248
    5904:	0e 94 dc 2b 	call	0x57b8	; 0x57b8 <DOGM128_6_usart1_sendByte>
	DOGM128_6_usart1_sendByte (0x00);
    5908:	80 e0       	ldi	r24, 0x00	; 0
    590a:	0e 94 dc 2b 	call	0x57b8	; 0x57b8 <DOGM128_6_usart1_sendByte>
	DOGM128_6_usart1_sendByte (0x27);
    590e:	87 e2       	ldi	r24, 0x27	; 39
    5910:	0e 94 dc 2b 	call	0x57b8	; 0x57b8 <DOGM128_6_usart1_sendByte>
	DOGM128_6_usart1_sendByte (0x81);							//Display contrast
    5914:	81 e8       	ldi	r24, 0x81	; 129
    5916:	0e 94 dc 2b 	call	0x57b8	; 0x57b8 <DOGM128_6_usart1_sendByte>
	DOGM128_6_usart1_sendByte (0x10);//was 16
    591a:	80 e1       	ldi	r24, 0x10	; 16
    591c:	0e 94 dc 2b 	call	0x57b8	; 0x57b8 <DOGM128_6_usart1_sendByte>
	DOGM128_6_usart1_sendByte (0xAC);
    5920:	8c ea       	ldi	r24, 0xAC	; 172
    5922:	0e 94 dc 2b 	call	0x57b8	; 0x57b8 <DOGM128_6_usart1_sendByte>
	DOGM128_6_usart1_sendByte (0x00);
    5926:	80 e0       	ldi	r24, 0x00	; 0
    5928:	0e 94 dc 2b 	call	0x57b8	; 0x57b8 <DOGM128_6_usart1_sendByte>
	DOGM128_6_usart1_sendByte (0xAF);
    592c:	8f ea       	ldi	r24, 0xAF	; 175
    592e:	0e 94 dc 2b 	call	0x57b8	; 0x57b8 <DOGM128_6_usart1_sendByte>

	DOGM128_6_clear_display();
    5932:	0e 94 18 2c 	call	0x5830	; 0x5830 <DOGM128_6_clear_display>
}
    5936:	08 95       	ret

00005938 <DOGM128_6_display_backlight>:



void DOGM128_6_display_backlight(type_ON_OFF backlight)
{
	if (backlight == ON) DisBLIGHTon;
    5938:	81 30       	cpi	r24, 0x01	; 1
    593a:	11 f4       	brne	.+4      	; 0x5940 <DOGM128_6_display_backlight+0x8>
    593c:	c4 9a       	sbi	0x18, 4	; 24
    593e:	08 95       	ret
	else DisBLIGHToff;
    5940:	c4 98       	cbi	0x18, 4	; 24
    5942:	08 95       	ret

00005944 <DOGM128_6_LCD_print>:
}



void DOGM128_6_LCD_print(char text[], unsigned char x, unsigned char y)
{
    5944:	ef 92       	push	r14
    5946:	ff 92       	push	r15
    5948:	0f 93       	push	r16
    594a:	1f 93       	push	r17
    594c:	df 93       	push	r29
    594e:	cf 93       	push	r28
    5950:	0f 92       	push	r0
    5952:	cd b7       	in	r28, 0x3d	; 61
    5954:	de b7       	in	r29, 0x3e	; 62
    5956:	08 2f       	mov	r16, r24
    5958:	16 2f       	mov	r17, r22
	int charnumber = 0, pixelcolumn;

	DisA0low;
    595a:	a8 98       	cbi	0x15, 0	; 21

	DOGM128_6_usart1_sendByte (0xB0 + y);					//Set Page Address
    595c:	84 2f       	mov	r24, r20
    595e:	80 55       	subi	r24, 0x50	; 80
    5960:	99 83       	std	Y+1, r25	; 0x01
    5962:	0e 94 dc 2b 	call	0x57b8	; 0x57b8 <DOGM128_6_usart1_sendByte>
	DOGM128_6_usart1_sendByte (0x10 | (x >> 4));		//Set Column Address upper nibble to 0
    5966:	81 2f       	mov	r24, r17
    5968:	82 95       	swap	r24
    596a:	8f 70       	andi	r24, 0x0F	; 15
    596c:	80 61       	ori	r24, 0x10	; 16
    596e:	0e 94 dc 2b 	call	0x57b8	; 0x57b8 <DOGM128_6_usart1_sendByte>
	DOGM128_6_usart1_sendByte (x & 0x0F);					//Set Column Address lower nibble to 0
    5972:	81 2f       	mov	r24, r17
    5974:	8f 70       	andi	r24, 0x0F	; 15
    5976:	0e 94 dc 2b 	call	0x57b8	; 0x57b8 <DOGM128_6_usart1_sendByte>

	DisA0high;
    597a:	a8 9a       	sbi	0x15, 0	; 21
    597c:	99 81       	ldd	r25, Y+1	; 0x01
    597e:	60 2f       	mov	r22, r16
    5980:	79 2f       	mov	r23, r25
    5982:	7b 01       	movw	r14, r22

  	while (text[charnumber])
    5984:	1a c0       	rjmp	.+52     	; 0x59ba <DOGM128_6_LCD_print+0x76>
    5986:	00 e0       	ldi	r16, 0x00	; 0
    5988:	10 e0       	ldi	r17, 0x00	; 0
  	{
    	for (pixelcolumn = 0; pixelcolumn < 5 ; pixelcolumn++)
	  	{
      		DOGM128_6_usart1_sendByte ( pgm_read_byte(&(font5x7 [(unsigned char)text[charnumber]] [pixelcolumn] )) );	//Write to the display
    598a:	d7 01       	movw	r26, r14
    598c:	ec 91       	ld	r30, X
    598e:	b5 e0       	ldi	r27, 0x05	; 5
    5990:	eb 9f       	mul	r30, r27
    5992:	f0 01       	movw	r30, r0
    5994:	11 24       	eor	r1, r1
    5996:	e0 0f       	add	r30, r16
    5998:	f1 1f       	adc	r31, r17
    599a:	e0 57       	subi	r30, 0x70	; 112
    599c:	fc 4f       	sbci	r31, 0xFC	; 252
    599e:	84 91       	lpm	r24, Z+
    59a0:	0e 94 dc 2b 	call	0x57b8	; 0x57b8 <DOGM128_6_usart1_sendByte>

	DisA0high;

  	while (text[charnumber])
  	{
    	for (pixelcolumn = 0; pixelcolumn < 5 ; pixelcolumn++)
    59a4:	0f 5f       	subi	r16, 0xFF	; 255
    59a6:	1f 4f       	sbci	r17, 0xFF	; 255
    59a8:	05 30       	cpi	r16, 0x05	; 5
    59aa:	11 05       	cpc	r17, r1
    59ac:	71 f7       	brne	.-36     	; 0x598a <DOGM128_6_LCD_print+0x46>
	  	{
      		DOGM128_6_usart1_sendByte ( pgm_read_byte(&(font5x7 [(unsigned char)text[charnumber]] [pixelcolumn] )) );	//Write to the display
	  	}
    	DOGM128_6_usart1_sendByte (0x00);														//Write white space pixels between chars to the display
    59ae:	80 e0       	ldi	r24, 0x00	; 0
    59b0:	0e 94 dc 2b 	call	0x57b8	; 0x57b8 <DOGM128_6_usart1_sendByte>
    59b4:	08 94       	sec
    59b6:	e1 1c       	adc	r14, r1
    59b8:	f1 1c       	adc	r15, r1
	DOGM128_6_usart1_sendByte (0x10 | (x >> 4));		//Set Column Address upper nibble to 0
	DOGM128_6_usart1_sendByte (x & 0x0F);					//Set Column Address lower nibble to 0

	DisA0high;

  	while (text[charnumber])
    59ba:	f7 01       	movw	r30, r14
    59bc:	80 81       	ld	r24, Z
    59be:	88 23       	and	r24, r24
    59c0:	11 f7       	brne	.-60     	; 0x5986 <DOGM128_6_LCD_print+0x42>
      		DOGM128_6_usart1_sendByte ( pgm_read_byte(&(font5x7 [(unsigned char)text[charnumber]] [pixelcolumn] )) );	//Write to the display
	  	}
    	DOGM128_6_usart1_sendByte (0x00);														//Write white space pixels between chars to the display
		charnumber++;
  	}
}
    59c2:	0f 90       	pop	r0
    59c4:	cf 91       	pop	r28
    59c6:	df 91       	pop	r29
    59c8:	1f 91       	pop	r17
    59ca:	0f 91       	pop	r16
    59cc:	ff 90       	pop	r15
    59ce:	ef 90       	pop	r14
    59d0:	08 95       	ret

000059d2 <USART0_putchar>:
#include <hal.h>

// Interface functions
void USART0_putchar(char data)
{
	putchar(data);
    59d2:	60 91 06 08 	lds	r22, 0x0806
    59d6:	70 91 07 08 	lds	r23, 0x0807
    59da:	90 e0       	ldi	r25, 0x00	; 0
    59dc:	0e 94 80 43 	call	0x8700	; 0x8700 <fputc>
}
    59e0:	08 95       	ret

000059e2 <USART0_getchar>:



signed int USART0_getchar()
{
	if (nrk_uart_data_ready(NRK_DEFAULT_UART)!=0)
    59e2:	80 e0       	ldi	r24, 0x00	; 0
    59e4:	0e 94 3a 10 	call	0x2074	; 0x2074 <nrk_uart_data_ready>
    59e8:	88 23       	and	r24, r24
    59ea:	49 f0       	breq	.+18     	; 0x59fe <USART0_getchar+0x1c>
		return (signed int)(unsigned char)getchar();
    59ec:	80 91 04 08 	lds	r24, 0x0804
    59f0:	90 91 05 08 	lds	r25, 0x0805
    59f4:	0e 94 3e 43 	call	0x867c	; 0x867c <fgetc>
    59f8:	28 2f       	mov	r18, r24
    59fa:	30 e0       	ldi	r19, 0x00	; 0
    59fc:	02 c0       	rjmp	.+4      	; 0x5a02 <USART0_getchar+0x20>
	else return -1;
    59fe:	2f ef       	ldi	r18, 0xFF	; 255
    5a00:	3f ef       	ldi	r19, 0xFF	; 255
}
    5a02:	c9 01       	movw	r24, r18
    5a04:	08 95       	ret

00005a06 <eDIP240_7_Display_send_packet>:
// Befehle/Daten zum Display senden
// Display_send_packet sends a packet to the display.
// The user has to provide a block of memory with the payload and the length of the payload
// In case of success 0 is returned, in case of an error -1 is returned
signed char eDIP240_7_Display_send_packet(char * data, unsigned char length)
{
    5a06:	bf 92       	push	r11
    5a08:	cf 92       	push	r12
    5a0a:	df 92       	push	r13
    5a0c:	ef 92       	push	r14
    5a0e:	ff 92       	push	r15
    5a10:	0f 93       	push	r16
    5a12:	1f 93       	push	r17
    5a14:	df 93       	push	r29
    5a16:	cf 93       	push	r28
    5a18:	00 d0       	rcall	.+0      	; 0x5a1a <eDIP240_7_Display_send_packet+0x14>
    5a1a:	00 d0       	rcall	.+0      	; 0x5a1c <eDIP240_7_Display_send_packet+0x16>
    5a1c:	0f 92       	push	r0
    5a1e:	cd b7       	in	r28, 0x3d	; 61
    5a20:	de b7       	in	r29, 0x3e	; 62
    5a22:	d8 2e       	mov	r13, r24
    5a24:	b6 2e       	mov	r11, r22
 unsigned char i=0, checksum=0, ack=0;
 volatile unsigned long ack_timeout=100000;
    5a26:	20 ea       	ldi	r18, 0xA0	; 160
    5a28:	36 e8       	ldi	r19, 0x86	; 134
    5a2a:	41 e0       	ldi	r20, 0x01	; 1
    5a2c:	50 e0       	ldi	r21, 0x00	; 0
    5a2e:	29 83       	std	Y+1, r18	; 0x01
    5a30:	3a 83       	std	Y+2, r19	; 0x02
    5a32:	4b 83       	std	Y+3, r20	; 0x03
    5a34:	5c 83       	std	Y+4, r21	; 0x04

 USART0_putchar(0x11);       // Send command (sending packet) to the display
    5a36:	81 e1       	ldi	r24, 0x11	; 17
    5a38:	9d 83       	std	Y+5, r25	; 0x05
    5a3a:	0e 94 e9 2c 	call	0x59d2	; 0x59d2 <USART0_putchar>
 USART0_putchar(length);     // Send payload size to the display
    5a3e:	8b 2d       	mov	r24, r11
    5a40:	0e 94 e9 2c 	call	0x59d2	; 0x59d2 <USART0_putchar>
 checksum = 0x11 + length;
    5a44:	81 e1       	ldi	r24, 0x11	; 17
    5a46:	c8 2e       	mov	r12, r24
    5a48:	cb 0c       	add	r12, r11
 while(i < length)
    5a4a:	9d 81       	ldd	r25, Y+5	; 0x05
    5a4c:	0d 2d       	mov	r16, r13
    5a4e:	19 2f       	mov	r17, r25
    5a50:	09 c0       	rjmp	.+18     	; 0x5a64 <eDIP240_7_Display_send_packet+0x5e>
// Electronic Assembly SMALLPROTOKOLL driver by P. Diener
// Befehle/Daten zum Display senden
// Display_send_packet sends a packet to the display.
// The user has to provide a block of memory with the payload and the length of the payload
// In case of success 0 is returned, in case of an error -1 is returned
signed char eDIP240_7_Display_send_packet(char * data, unsigned char length)
    5a52:	78 01       	movw	r14, r16
 USART0_putchar(0x11);       // Send command (sending packet) to the display
 USART0_putchar(length);     // Send payload size to the display
 checksum = 0x11 + length;
 while(i < length)
 {
	USART0_putchar(data[i]);  // Send payload to the display
    5a54:	f8 01       	movw	r30, r16
    5a56:	81 91       	ld	r24, Z+
    5a58:	8f 01       	movw	r16, r30
    5a5a:	0e 94 e9 2c 	call	0x59d2	; 0x59d2 <USART0_putchar>
	checksum += data[i];
    5a5e:	f7 01       	movw	r30, r14
    5a60:	80 81       	ld	r24, Z
    5a62:	c8 0e       	add	r12, r24
 volatile unsigned long ack_timeout=100000;

 USART0_putchar(0x11);       // Send command (sending packet) to the display
 USART0_putchar(length);     // Send payload size to the display
 checksum = 0x11 + length;
 while(i < length)
    5a64:	80 2f       	mov	r24, r16
    5a66:	8d 19       	sub	r24, r13
    5a68:	8b 15       	cp	r24, r11
    5a6a:	98 f3       	brcs	.-26     	; 0x5a52 <eDIP240_7_Display_send_packet+0x4c>
 {
	USART0_putchar(data[i]);  // Send payload to the display
	checksum += data[i];
	i++;
 }
 USART0_putchar(checksum);   // Send checksum to the display
    5a6c:	8c 2d       	mov	r24, r12
    5a6e:	0e 94 e9 2c 	call	0x59d2	; 0x59d2 <USART0_putchar>
// while (Tx0Empty == 0) {}    // Wait for complete transmission of the packet
 do                          // Wait for receiving ack from the display
 {
	ack = USART0_getchar();
    5a72:	0e 94 f1 2c 	call	0x59e2	; 0x59e2 <USART0_getchar>
	ack_timeout--;
    5a76:	29 81       	ldd	r18, Y+1	; 0x01
    5a78:	3a 81       	ldd	r19, Y+2	; 0x02
    5a7a:	4b 81       	ldd	r20, Y+3	; 0x03
    5a7c:	5c 81       	ldd	r21, Y+4	; 0x04
    5a7e:	21 50       	subi	r18, 0x01	; 1
    5a80:	30 40       	sbci	r19, 0x00	; 0
    5a82:	40 40       	sbci	r20, 0x00	; 0
    5a84:	50 40       	sbci	r21, 0x00	; 0
    5a86:	29 83       	std	Y+1, r18	; 0x01
    5a88:	3a 83       	std	Y+2, r19	; 0x02
    5a8a:	4b 83       	std	Y+3, r20	; 0x03
    5a8c:	5c 83       	std	Y+4, r21	; 0x04
 }while((ack != 0x06) && (ack_timeout > 0));
    5a8e:	86 30       	cpi	r24, 0x06	; 6
    5a90:	51 f0       	breq	.+20     	; 0x5aa6 <eDIP240_7_Display_send_packet+0xa0>
    5a92:	89 81       	ldd	r24, Y+1	; 0x01
    5a94:	9a 81       	ldd	r25, Y+2	; 0x02
    5a96:	ab 81       	ldd	r26, Y+3	; 0x03
    5a98:	bc 81       	ldd	r27, Y+4	; 0x04
    5a9a:	00 97       	sbiw	r24, 0x00	; 0
    5a9c:	a1 05       	cpc	r26, r1
    5a9e:	b1 05       	cpc	r27, r1
    5aa0:	41 f7       	brne	.-48     	; 0x5a72 <eDIP240_7_Display_send_packet+0x6c>

 if (ack == 0x06) return 0;  // Success!
 else return -1;             // No success! User has to repeat the packet
    5aa2:	8f ef       	ldi	r24, 0xFF	; 255
    5aa4:	01 c0       	rjmp	.+2      	; 0x5aa8 <eDIP240_7_Display_send_packet+0xa2>
 {
	ack = USART0_getchar();
	ack_timeout--;
 }while((ack != 0x06) && (ack_timeout > 0));

 if (ack == 0x06) return 0;  // Success!
    5aa6:	80 e0       	ldi	r24, 0x00	; 0
 else return -1;             // No success! User has to repeat the packet
}
    5aa8:	0f 90       	pop	r0
    5aaa:	0f 90       	pop	r0
    5aac:	0f 90       	pop	r0
    5aae:	0f 90       	pop	r0
    5ab0:	0f 90       	pop	r0
    5ab2:	cf 91       	pop	r28
    5ab4:	df 91       	pop	r29
    5ab6:	1f 91       	pop	r17
    5ab8:	0f 91       	pop	r16
    5aba:	ff 90       	pop	r15
    5abc:	ef 90       	pop	r14
    5abe:	df 90       	pop	r13
    5ac0:	cf 90       	pop	r12
    5ac2:	bf 90       	pop	r11
    5ac4:	08 95       	ret

00005ac6 <eDIP240_7_Display_get_buffer>:

// Inhalt des Sendepuffers anfordern
// Display_get_buffer reads a payload packet from the display to a memory block provided by the user
// In case of success the length of data is returned, in case of an error -1 is returned
signed char eDIP240_7_Display_get_buffer(unsigned char * data)
{
    5ac6:	cf 92       	push	r12
    5ac8:	df 92       	push	r13
    5aca:	ef 92       	push	r14
    5acc:	ff 92       	push	r15
    5ace:	0f 93       	push	r16
    5ad0:	1f 93       	push	r17
    5ad2:	df 93       	push	r29
    5ad4:	cf 93       	push	r28
    5ad6:	00 d0       	rcall	.+0      	; 0x5ad8 <eDIP240_7_Display_get_buffer+0x12>
    5ad8:	00 d0       	rcall	.+0      	; 0x5ada <eDIP240_7_Display_get_buffer+0x14>
    5ada:	cd b7       	in	r28, 0x3d	; 61
    5adc:	de b7       	in	r29, 0x3e	; 62
    5ade:	f8 2e       	mov	r15, r24
    5ae0:	09 2f       	mov	r16, r25
 unsigned char i=0, checksum=0, ack=0, error=0, length = 0;
 signed int ch;
 volatile unsigned long ack_timeout=100000;
    5ae2:	20 ea       	ldi	r18, 0xA0	; 160
    5ae4:	36 e8       	ldi	r19, 0x86	; 134
    5ae6:	41 e0       	ldi	r20, 0x01	; 1
    5ae8:	50 e0       	ldi	r21, 0x00	; 0
    5aea:	29 83       	std	Y+1, r18	; 0x01
    5aec:	3a 83       	std	Y+2, r19	; 0x02
    5aee:	4b 83       	std	Y+3, r20	; 0x03
    5af0:	5c 83       	std	Y+4, r21	; 0x04

 USART0_putchar(0x12);                 // Send command (sending packet) to the display
    5af2:	82 e1       	ldi	r24, 0x12	; 18
    5af4:	0e 94 e9 2c 	call	0x59d2	; 0x59d2 <USART0_putchar>
 USART0_putchar(0x01);                 // Send payload size to the display
    5af8:	81 e0       	ldi	r24, 0x01	; 1
    5afa:	0e 94 e9 2c 	call	0x59d2	; 0x59d2 <USART0_putchar>
 USART0_putchar(0x53);                 // Payload
    5afe:	83 e5       	ldi	r24, 0x53	; 83
    5b00:	0e 94 e9 2c 	call	0x59d2	; 0x59d2 <USART0_putchar>
 USART0_putchar(0x12 + 0x01 + 0x53);   // Send checksum to the display
    5b04:	86 e6       	ldi	r24, 0x66	; 102
    5b06:	0e 94 e9 2c 	call	0x59d2	; 0x59d2 <USART0_putchar>
// while (Tx0Empty == 0) {}              // Wait for complete transmission of the packet
 do                                    // Wait for receiving ack from the display
 {
	ack = USART0_getchar();
    5b0a:	0e 94 f1 2c 	call	0x59e2	; 0x59e2 <USART0_getchar>
	ack_timeout--;
    5b0e:	29 81       	ldd	r18, Y+1	; 0x01
    5b10:	3a 81       	ldd	r19, Y+2	; 0x02
    5b12:	4b 81       	ldd	r20, Y+3	; 0x03
    5b14:	5c 81       	ldd	r21, Y+4	; 0x04
    5b16:	21 50       	subi	r18, 0x01	; 1
    5b18:	30 40       	sbci	r19, 0x00	; 0
    5b1a:	40 40       	sbci	r20, 0x00	; 0
    5b1c:	50 40       	sbci	r21, 0x00	; 0
    5b1e:	29 83       	std	Y+1, r18	; 0x01
    5b20:	3a 83       	std	Y+2, r19	; 0x02
    5b22:	4b 83       	std	Y+3, r20	; 0x03
    5b24:	5c 83       	std	Y+4, r21	; 0x04
 }while((ack != 0x06) && (ack_timeout > 0));
    5b26:	86 30       	cpi	r24, 0x06	; 6
    5b28:	61 f0       	breq	.+24     	; 0x5b42 <eDIP240_7_Display_get_buffer+0x7c>
    5b2a:	29 81       	ldd	r18, Y+1	; 0x01
    5b2c:	3a 81       	ldd	r19, Y+2	; 0x02
    5b2e:	4b 81       	ldd	r20, Y+3	; 0x03
    5b30:	5c 81       	ldd	r21, Y+4	; 0x04
    5b32:	21 15       	cp	r18, r1
    5b34:	31 05       	cpc	r19, r1
    5b36:	41 05       	cpc	r20, r1
    5b38:	51 05       	cpc	r21, r1
    5b3a:	39 f7       	brne	.-50     	; 0x5b0a <eDIP240_7_Display_get_buffer+0x44>
 if (ack != 0x06) error = 1;
    5b3c:	ee 24       	eor	r14, r14
    5b3e:	e3 94       	inc	r14
    5b40:	01 c0       	rjmp	.+2      	; 0x5b44 <eDIP240_7_Display_get_buffer+0x7e>
// Inhalt des Sendepuffers anfordern
// Display_get_buffer reads a payload packet from the display to a memory block provided by the user
// In case of success the length of data is returned, in case of an error -1 is returned
signed char eDIP240_7_Display_get_buffer(unsigned char * data)
{
 unsigned char i=0, checksum=0, ack=0, error=0, length = 0;
    5b42:	ee 24       	eor	r14, r14
	ack_timeout--;
 }while((ack != 0x06) && (ack_timeout > 0));
 if (ack != 0x06) error = 1;

 // Now we have to receive and parse the answer from the display
 do{ ch = USART0_getchar(); }while (ch == -1);       // Get the command byte
    5b44:	0e 94 f1 2c 	call	0x59e2	; 0x59e2 <USART0_getchar>
    5b48:	2f ef       	ldi	r18, 0xFF	; 255
    5b4a:	8f 3f       	cpi	r24, 0xFF	; 255
    5b4c:	92 07       	cpc	r25, r18
    5b4e:	d1 f3       	breq	.-12     	; 0x5b44 <eDIP240_7_Display_get_buffer+0x7e>
 if (ch == 0x11)                                     // Abort if command byte is incorrect
    5b50:	81 31       	cpi	r24, 0x11	; 17
    5b52:	91 05       	cpc	r25, r1
    5b54:	59 f5       	brne	.+86     	; 0x5bac <eDIP240_7_Display_get_buffer+0xe6>
 {
	do{ ch = USART0_getchar(); }while (ch == -1);     // Get payload length
    5b56:	0e 94 f1 2c 	call	0x59e2	; 0x59e2 <USART0_getchar>
    5b5a:	ef ef       	ldi	r30, 0xFF	; 255
    5b5c:	8f 3f       	cpi	r24, 0xFF	; 255
    5b5e:	9e 07       	cpc	r25, r30
    5b60:	d1 f3       	breq	.-12     	; 0x5b56 <eDIP240_7_Display_get_buffer+0x90>
	length = ch;
    5b62:	d8 2e       	mov	r13, r24
	checksum = 0x11 + length;                         // Start checksum calculation
    5b64:	91 e1       	ldi	r25, 0x11	; 17
    5b66:	c9 2e       	mov	r12, r25
    5b68:	cd 0c       	add	r12, r13
	while (i < length)
    5b6a:	80 2f       	mov	r24, r16
    5b6c:	0f 2d       	mov	r16, r15
    5b6e:	18 2f       	mov	r17, r24
    5b70:	0a c0       	rjmp	.+20     	; 0x5b86 <eDIP240_7_Display_get_buffer+0xc0>
	{
	  do{ ch = USART0_getchar(); }while (ch == -1);   // Get payload data
    5b72:	0e 94 f1 2c 	call	0x59e2	; 0x59e2 <USART0_getchar>
    5b76:	ff ef       	ldi	r31, 0xFF	; 255
    5b78:	8f 3f       	cpi	r24, 0xFF	; 255
    5b7a:	9f 07       	cpc	r25, r31
    5b7c:	d1 f3       	breq	.-12     	; 0x5b72 <eDIP240_7_Display_get_buffer+0xac>
	  data[i] = ch;
    5b7e:	f8 01       	movw	r30, r16
    5b80:	81 93       	st	Z+, r24
    5b82:	8f 01       	movw	r16, r30
	  checksum += ch;                                 // Calculate checksum
    5b84:	c8 0e       	add	r12, r24
 if (ch == 0x11)                                     // Abort if command byte is incorrect
 {
	do{ ch = USART0_getchar(); }while (ch == -1);     // Get payload length
	length = ch;
	checksum = 0x11 + length;                         // Start checksum calculation
	while (i < length)
    5b86:	80 2f       	mov	r24, r16
    5b88:	8f 19       	sub	r24, r15
    5b8a:	8d 15       	cp	r24, r13
    5b8c:	90 f3       	brcs	.-28     	; 0x5b72 <eDIP240_7_Display_get_buffer+0xac>
	  data[i] = ch;
	  checksum += ch;                                 // Calculate checksum
	  i++;
	}
	// Now we have received all the payload bytes.
	do{ ch = USART0_getchar(); }while (ch == -1);   // Get checksum
    5b8e:	0e 94 f1 2c 	call	0x59e2	; 0x59e2 <USART0_getchar>
    5b92:	ff ef       	ldi	r31, 0xFF	; 255
    5b94:	8f 3f       	cpi	r24, 0xFF	; 255
    5b96:	9f 07       	cpc	r25, r31
    5b98:	d1 f3       	breq	.-12     	; 0x5b8e <eDIP240_7_Display_get_buffer+0xc8>
	// If received checksum and calculated checksum do not match, we have an error!
	if (ch != checksum) error = 1;
    5b9a:	2c 2d       	mov	r18, r12
    5b9c:	30 e0       	ldi	r19, 0x00	; 0
    5b9e:	82 17       	cp	r24, r18
    5ba0:	93 07       	cpc	r25, r19
    5ba2:	21 f4       	brne	.+8      	; 0x5bac <eDIP240_7_Display_get_buffer+0xe6>
 }
 else error = 1;

 if (error == 0) return length;   // Success!
    5ba4:	ee 20       	and	r14, r14
    5ba6:	11 f4       	brne	.+4      	; 0x5bac <eDIP240_7_Display_get_buffer+0xe6>
    5ba8:	8d 2d       	mov	r24, r13
    5baa:	01 c0       	rjmp	.+2      	; 0x5bae <eDIP240_7_Display_get_buffer+0xe8>
 else return -1;                   // No success! User has to repeat the packet
    5bac:	8f ef       	ldi	r24, 0xFF	; 255
}
    5bae:	0f 90       	pop	r0
    5bb0:	0f 90       	pop	r0
    5bb2:	0f 90       	pop	r0
    5bb4:	0f 90       	pop	r0
    5bb6:	cf 91       	pop	r28
    5bb8:	df 91       	pop	r29
    5bba:	1f 91       	pop	r17
    5bbc:	0f 91       	pop	r16
    5bbe:	ff 90       	pop	r15
    5bc0:	ef 90       	pop	r14
    5bc2:	df 90       	pop	r13
    5bc4:	cf 90       	pop	r12
    5bc6:	08 95       	ret

00005bc8 <eDIP240_7_Display_request_buffer_info>:
// Pufferinformationen anfordern
// Display_request_buffer_info checks if there is any payload stored in the display that can be transmitted.
// The data is provided by a call by reference method.
// Return value: 0 -> ok;  -1 -> error
signed char eDIP240_7_Display_request_buffer_info(char * bytes_ready, char * bytes_free)   //TBD
{
    5bc8:	cf 92       	push	r12
    5bca:	df 92       	push	r13
    5bcc:	ef 92       	push	r14
    5bce:	ff 92       	push	r15
    5bd0:	0f 93       	push	r16
    5bd2:	1f 93       	push	r17
    5bd4:	df 93       	push	r29
    5bd6:	cf 93       	push	r28
    5bd8:	00 d0       	rcall	.+0      	; 0x5bda <eDIP240_7_Display_request_buffer_info+0x12>
    5bda:	00 d0       	rcall	.+0      	; 0x5bdc <eDIP240_7_Display_request_buffer_info+0x14>
    5bdc:	cd b7       	in	r28, 0x3d	; 61
    5bde:	de b7       	in	r29, 0x3e	; 62
    5be0:	8c 01       	movw	r16, r24
    5be2:	7b 01       	movw	r14, r22
 unsigned char checksum=0, ack=0, error=0, length;
 signed int ch;
 volatile unsigned long ack_timeout=1000000;
    5be4:	80 e4       	ldi	r24, 0x40	; 64
    5be6:	92 e4       	ldi	r25, 0x42	; 66
    5be8:	af e0       	ldi	r26, 0x0F	; 15
    5bea:	b0 e0       	ldi	r27, 0x00	; 0
    5bec:	89 83       	std	Y+1, r24	; 0x01
    5bee:	9a 83       	std	Y+2, r25	; 0x02
    5bf0:	ab 83       	std	Y+3, r26	; 0x03
    5bf2:	bc 83       	std	Y+4, r27	; 0x04

 USART0_putchar(0x12);                 // Send command (sending packet) to the display
    5bf4:	82 e1       	ldi	r24, 0x12	; 18
    5bf6:	0e 94 e9 2c 	call	0x59d2	; 0x59d2 <USART0_putchar>
 USART0_putchar(0x01);                 // Send payload size to the display
    5bfa:	81 e0       	ldi	r24, 0x01	; 1
    5bfc:	0e 94 e9 2c 	call	0x59d2	; 0x59d2 <USART0_putchar>
 USART0_putchar(0x49);                 // Payload
    5c00:	89 e4       	ldi	r24, 0x49	; 73
    5c02:	0e 94 e9 2c 	call	0x59d2	; 0x59d2 <USART0_putchar>
 USART0_putchar(0x12 + 0x01 + 0x49);   // Send checksum to the display
    5c06:	8c e5       	ldi	r24, 0x5C	; 92
    5c08:	0e 94 e9 2c 	call	0x59d2	; 0x59d2 <USART0_putchar>
 do                                    // Wait for receiving ack from the display
 {
	ack = USART0_getchar();
    5c0c:	0e 94 f1 2c 	call	0x59e2	; 0x59e2 <USART0_getchar>
	ack_timeout--;
    5c10:	29 81       	ldd	r18, Y+1	; 0x01
    5c12:	3a 81       	ldd	r19, Y+2	; 0x02
    5c14:	4b 81       	ldd	r20, Y+3	; 0x03
    5c16:	5c 81       	ldd	r21, Y+4	; 0x04
    5c18:	21 50       	subi	r18, 0x01	; 1
    5c1a:	30 40       	sbci	r19, 0x00	; 0
    5c1c:	40 40       	sbci	r20, 0x00	; 0
    5c1e:	50 40       	sbci	r21, 0x00	; 0
    5c20:	29 83       	std	Y+1, r18	; 0x01
    5c22:	3a 83       	std	Y+2, r19	; 0x02
    5c24:	4b 83       	std	Y+3, r20	; 0x03
    5c26:	5c 83       	std	Y+4, r21	; 0x04
 }while((ack != 0x06) && (ack_timeout > 0));
    5c28:	86 30       	cpi	r24, 0x06	; 6
    5c2a:	59 f0       	breq	.+22     	; 0x5c42 <eDIP240_7_Display_request_buffer_info+0x7a>
    5c2c:	89 81       	ldd	r24, Y+1	; 0x01
    5c2e:	9a 81       	ldd	r25, Y+2	; 0x02
    5c30:	ab 81       	ldd	r26, Y+3	; 0x03
    5c32:	bc 81       	ldd	r27, Y+4	; 0x04
    5c34:	00 97       	sbiw	r24, 0x00	; 0
    5c36:	a1 05       	cpc	r26, r1
    5c38:	b1 05       	cpc	r27, r1
    5c3a:	41 f7       	brne	.-48     	; 0x5c0c <eDIP240_7_Display_request_buffer_info+0x44>
 if (ack != 0x06) error = 1;
    5c3c:	dd 24       	eor	r13, r13
    5c3e:	d3 94       	inc	r13
    5c40:	01 c0       	rjmp	.+2      	; 0x5c44 <eDIP240_7_Display_request_buffer_info+0x7c>
// Display_request_buffer_info checks if there is any payload stored in the display that can be transmitted.
// The data is provided by a call by reference method.
// Return value: 0 -> ok;  -1 -> error
signed char eDIP240_7_Display_request_buffer_info(char * bytes_ready, char * bytes_free)   //TBD
{
 unsigned char checksum=0, ack=0, error=0, length;
    5c42:	dd 24       	eor	r13, r13
	ack_timeout--;
 }while((ack != 0x06) && (ack_timeout > 0));
 if (ack != 0x06) error = 1;

 // Now we have to receive and parse the answer from the display
 do{ ch = USART0_getchar(); }while (ch == -1);       // Get the command byte
    5c44:	0e 94 f1 2c 	call	0x59e2	; 0x59e2 <USART0_getchar>
    5c48:	2f ef       	ldi	r18, 0xFF	; 255
    5c4a:	8f 3f       	cpi	r24, 0xFF	; 255
    5c4c:	92 07       	cpc	r25, r18
    5c4e:	d1 f3       	breq	.-12     	; 0x5c44 <eDIP240_7_Display_request_buffer_info+0x7c>
 if (ch == 0x12)                                     // Abort if command byte is incorrect
    5c50:	82 31       	cpi	r24, 0x12	; 18
    5c52:	91 05       	cpc	r25, r1
    5c54:	51 f5       	brne	.+84     	; 0x5caa <eDIP240_7_Display_request_buffer_info+0xe2>
 {
	do{ ch = USART0_getchar(); }while (ch == -1);     // Get payload length
    5c56:	0e 94 f1 2c 	call	0x59e2	; 0x59e2 <USART0_getchar>
    5c5a:	ef ef       	ldi	r30, 0xFF	; 255
    5c5c:	8f 3f       	cpi	r24, 0xFF	; 255
    5c5e:	9e 07       	cpc	r25, r30
    5c60:	d1 f3       	breq	.-12     	; 0x5c56 <eDIP240_7_Display_request_buffer_info+0x8e>
	length = ch;
	if (length == 2)                                  // Abort if length is incorrect
    5c62:	82 30       	cpi	r24, 0x02	; 2
    5c64:	11 f5       	brne	.+68     	; 0x5caa <eDIP240_7_Display_request_buffer_info+0xe2>
	{
	  checksum = 0x12 + length;                         // Start checksum calculation

	  do{ ch = USART0_getchar(); }while (ch == -1);   // Get payload data
    5c66:	0e 94 f1 2c 	call	0x59e2	; 0x59e2 <USART0_getchar>
    5c6a:	ff ef       	ldi	r31, 0xFF	; 255
    5c6c:	8f 3f       	cpi	r24, 0xFF	; 255
    5c6e:	9f 07       	cpc	r25, r31
    5c70:	d1 f3       	breq	.-12     	; 0x5c66 <eDIP240_7_Display_request_buffer_info+0x9e>
	  checksum += ch;                                 // Calculate checksum
    5c72:	24 e1       	ldi	r18, 0x14	; 20
    5c74:	c2 2e       	mov	r12, r18
    5c76:	c8 0e       	add	r12, r24
	  *bytes_ready = ch;
    5c78:	f8 01       	movw	r30, r16
    5c7a:	80 83       	st	Z, r24

	  do{ ch = USART0_getchar(); }while (ch == -1);   // Get payload data
    5c7c:	0e 94 f1 2c 	call	0x59e2	; 0x59e2 <USART0_getchar>
    5c80:	ff ef       	ldi	r31, 0xFF	; 255
    5c82:	8f 3f       	cpi	r24, 0xFF	; 255
    5c84:	9f 07       	cpc	r25, r31
    5c86:	d1 f3       	breq	.-12     	; 0x5c7c <eDIP240_7_Display_request_buffer_info+0xb4>
	  checksum += ch;                                 // Calculate checksum
    5c88:	0c 2d       	mov	r16, r12
    5c8a:	08 0f       	add	r16, r24
	  *bytes_free = ch;
    5c8c:	f7 01       	movw	r30, r14
    5c8e:	80 83       	st	Z, r24

	  // Now we have received all the payload bytes.
	  do{ ch = USART0_getchar(); }while (ch == -1);   // Get checksum
    5c90:	0e 94 f1 2c 	call	0x59e2	; 0x59e2 <USART0_getchar>
    5c94:	ff ef       	ldi	r31, 0xFF	; 255
    5c96:	8f 3f       	cpi	r24, 0xFF	; 255
    5c98:	9f 07       	cpc	r25, r31
    5c9a:	d1 f3       	breq	.-12     	; 0x5c90 <eDIP240_7_Display_request_buffer_info+0xc8>
	  // If received checksum and calculated checksum do not match, we have an error!
	  if (ch != checksum) error = 1;
    5c9c:	20 2f       	mov	r18, r16
    5c9e:	30 e0       	ldi	r19, 0x00	; 0
    5ca0:	82 17       	cp	r24, r18
    5ca2:	93 07       	cpc	r25, r19
    5ca4:	11 f4       	brne	.+4      	; 0x5caa <eDIP240_7_Display_request_buffer_info+0xe2>
	}
	else error = 1;
 }
 else error = 1;

 if (error == 0) return 0;  // Success!
    5ca6:	dd 20       	and	r13, r13
    5ca8:	11 f0       	breq	.+4      	; 0x5cae <eDIP240_7_Display_request_buffer_info+0xe6>
 else return -1;             // No success! User has to repeat the packet
    5caa:	8f ef       	ldi	r24, 0xFF	; 255
    5cac:	01 c0       	rjmp	.+2      	; 0x5cb0 <eDIP240_7_Display_request_buffer_info+0xe8>
	}
	else error = 1;
 }
 else error = 1;

 if (error == 0) return 0;  // Success!
    5cae:	80 e0       	ldi	r24, 0x00	; 0
 else return -1;             // No success! User has to repeat the packet
}
    5cb0:	0f 90       	pop	r0
    5cb2:	0f 90       	pop	r0
    5cb4:	0f 90       	pop	r0
    5cb6:	0f 90       	pop	r0
    5cb8:	cf 91       	pop	r28
    5cba:	df 91       	pop	r29
    5cbc:	1f 91       	pop	r17
    5cbe:	0f 91       	pop	r16
    5cc0:	ff 90       	pop	r15
    5cc2:	ef 90       	pop	r14
    5cc4:	df 90       	pop	r13
    5cc6:	cf 90       	pop	r12
    5cc8:	08 95       	ret

00005cca <eDIP240_7_Display_set_protocol>:
// Display_set_protocol can set the maximum transmission block size and the serial interface data block timeout.
// sendbuffer_size is set in bytes (1 .. 64)
// timeout is set in 1/100 seconds (0 .. 255)
// Return value: 0 -> ok;  -1 -> error
signed char eDIP240_7_Display_set_protocol(unsigned char sendbuffer_size, unsigned char timeout)
{
    5cca:	0f 93       	push	r16
    5ccc:	1f 93       	push	r17
    5cce:	df 93       	push	r29
    5cd0:	cf 93       	push	r28
    5cd2:	00 d0       	rcall	.+0      	; 0x5cd4 <eDIP240_7_Display_set_protocol+0xa>
    5cd4:	00 d0       	rcall	.+0      	; 0x5cd6 <eDIP240_7_Display_set_protocol+0xc>
    5cd6:	cd b7       	in	r28, 0x3d	; 61
    5cd8:	de b7       	in	r29, 0x3e	; 62
    5cda:	18 2f       	mov	r17, r24
    5cdc:	06 2f       	mov	r16, r22
 unsigned char ack=0;
 volatile unsigned long ack_timeout=1000000;
    5cde:	20 e4       	ldi	r18, 0x40	; 64
    5ce0:	32 e4       	ldi	r19, 0x42	; 66
    5ce2:	4f e0       	ldi	r20, 0x0F	; 15
    5ce4:	50 e0       	ldi	r21, 0x00	; 0
    5ce6:	29 83       	std	Y+1, r18	; 0x01
    5ce8:	3a 83       	std	Y+2, r19	; 0x02
    5cea:	4b 83       	std	Y+3, r20	; 0x03
    5cec:	5c 83       	std	Y+4, r21	; 0x04

 USART0_putchar(0x12);                 // Send command DC2 (sending packet) to the display
    5cee:	82 e1       	ldi	r24, 0x12	; 18
    5cf0:	0e 94 e9 2c 	call	0x59d2	; 0x59d2 <USART0_putchar>
 USART0_putchar(3);
    5cf4:	83 e0       	ldi	r24, 0x03	; 3
    5cf6:	0e 94 e9 2c 	call	0x59d2	; 0x59d2 <USART0_putchar>
 USART0_putchar('D');
    5cfa:	84 e4       	ldi	r24, 0x44	; 68
    5cfc:	0e 94 e9 2c 	call	0x59d2	; 0x59d2 <USART0_putchar>
 USART0_putchar(sendbuffer_size);
    5d00:	81 2f       	mov	r24, r17
    5d02:	0e 94 e9 2c 	call	0x59d2	; 0x59d2 <USART0_putchar>
 USART0_putchar(timeout);
    5d06:	80 2f       	mov	r24, r16
    5d08:	0e 94 e9 2c 	call	0x59d2	; 0x59d2 <USART0_putchar>
 USART0_putchar( (unsigned char) (0x12 + 3 + 'D' + sendbuffer_size + timeout) );                     // Checksum
    5d0c:	81 2f       	mov	r24, r17
    5d0e:	87 5a       	subi	r24, 0xA7	; 167
    5d10:	80 0f       	add	r24, r16
    5d12:	0e 94 e9 2c 	call	0x59d2	; 0x59d2 <USART0_putchar>
 do                                    // Wait for receiving ack from the display
 {
	ack = USART0_getchar();
    5d16:	0e 94 f1 2c 	call	0x59e2	; 0x59e2 <USART0_getchar>
	ack_timeout--;
    5d1a:	29 81       	ldd	r18, Y+1	; 0x01
    5d1c:	3a 81       	ldd	r19, Y+2	; 0x02
    5d1e:	4b 81       	ldd	r20, Y+3	; 0x03
    5d20:	5c 81       	ldd	r21, Y+4	; 0x04
    5d22:	21 50       	subi	r18, 0x01	; 1
    5d24:	30 40       	sbci	r19, 0x00	; 0
    5d26:	40 40       	sbci	r20, 0x00	; 0
    5d28:	50 40       	sbci	r21, 0x00	; 0
    5d2a:	29 83       	std	Y+1, r18	; 0x01
    5d2c:	3a 83       	std	Y+2, r19	; 0x02
    5d2e:	4b 83       	std	Y+3, r20	; 0x03
    5d30:	5c 83       	std	Y+4, r21	; 0x04
 }while((ack != 0x06) && (ack_timeout > 0));
    5d32:	86 30       	cpi	r24, 0x06	; 6
    5d34:	51 f0       	breq	.+20     	; 0x5d4a <eDIP240_7_Display_set_protocol+0x80>
    5d36:	89 81       	ldd	r24, Y+1	; 0x01
    5d38:	9a 81       	ldd	r25, Y+2	; 0x02
    5d3a:	ab 81       	ldd	r26, Y+3	; 0x03
    5d3c:	bc 81       	ldd	r27, Y+4	; 0x04
    5d3e:	00 97       	sbiw	r24, 0x00	; 0
    5d40:	a1 05       	cpc	r26, r1
    5d42:	b1 05       	cpc	r27, r1
    5d44:	41 f7       	brne	.-48     	; 0x5d16 <eDIP240_7_Display_set_protocol+0x4c>
 if (ack != 0x06) return (-1);
    5d46:	8f ef       	ldi	r24, 0xFF	; 255
    5d48:	01 c0       	rjmp	.+2      	; 0x5d4c <eDIP240_7_Display_set_protocol+0x82>
 return 0;
    5d4a:	80 e0       	ldi	r24, 0x00	; 0
}
    5d4c:	0f 90       	pop	r0
    5d4e:	0f 90       	pop	r0
    5d50:	0f 90       	pop	r0
    5d52:	0f 90       	pop	r0
    5d54:	cf 91       	pop	r28
    5d56:	df 91       	pop	r29
    5d58:	1f 91       	pop	r17
    5d5a:	0f 91       	pop	r16
    5d5c:	08 95       	ret

00005d5e <eDIP240_7_Display_get_protocoll_info>:
// Display_get_protocoll_info requests the current sendbuffer_size and timeout settings and the sendbuffer_level.
// sendbuffer_size: current setting of the maimum number of bytes that can be stored in the display-sendbuffer.
// sendbuffer_level: current number of bytes that are stored in the display-sendbuffer.
// Return value: 0 -> ok;  -1 -> error
signed char eDIP240_7_Display_get_protocoll_info(unsigned char * sendbuffer_size, unsigned char * sendbuffer_level, unsigned char * timeout)
{
    5d5e:	bf 92       	push	r11
    5d60:	cf 92       	push	r12
    5d62:	df 92       	push	r13
    5d64:	ef 92       	push	r14
    5d66:	ff 92       	push	r15
    5d68:	0f 93       	push	r16
    5d6a:	1f 93       	push	r17
    5d6c:	df 93       	push	r29
    5d6e:	cf 93       	push	r28
    5d70:	00 d0       	rcall	.+0      	; 0x5d72 <eDIP240_7_Display_get_protocoll_info+0x14>
    5d72:	00 d0       	rcall	.+0      	; 0x5d74 <eDIP240_7_Display_get_protocoll_info+0x16>
    5d74:	cd b7       	in	r28, 0x3d	; 61
    5d76:	de b7       	in	r29, 0x3e	; 62
    5d78:	6c 01       	movw	r12, r24
    5d7a:	8b 01       	movw	r16, r22
    5d7c:	7a 01       	movw	r14, r20
 unsigned char checksum=0, ack=0, error=0, length;
 signed int ch;
 volatile unsigned long ack_timeout=1000000;
    5d7e:	80 e4       	ldi	r24, 0x40	; 64
    5d80:	92 e4       	ldi	r25, 0x42	; 66
    5d82:	af e0       	ldi	r26, 0x0F	; 15
    5d84:	b0 e0       	ldi	r27, 0x00	; 0
    5d86:	89 83       	std	Y+1, r24	; 0x01
    5d88:	9a 83       	std	Y+2, r25	; 0x02
    5d8a:	ab 83       	std	Y+3, r26	; 0x03
    5d8c:	bc 83       	std	Y+4, r27	; 0x04

 USART0_putchar(0x12);                 // Send command DC2 (sending packet) to the display
    5d8e:	82 e1       	ldi	r24, 0x12	; 18
    5d90:	0e 94 e9 2c 	call	0x59d2	; 0x59d2 <USART0_putchar>
 USART0_putchar(1);
    5d94:	81 e0       	ldi	r24, 0x01	; 1
    5d96:	0e 94 e9 2c 	call	0x59d2	; 0x59d2 <USART0_putchar>
 USART0_putchar('P');
    5d9a:	80 e5       	ldi	r24, 0x50	; 80
    5d9c:	0e 94 e9 2c 	call	0x59d2	; 0x59d2 <USART0_putchar>
 USART0_putchar( (unsigned char) (0x12 + 1 + 'P') );
    5da0:	83 e6       	ldi	r24, 0x63	; 99
    5da2:	0e 94 e9 2c 	call	0x59d2	; 0x59d2 <USART0_putchar>
 do                                    // Wait for receiving ack from the display
 {
	ack = USART0_getchar();
    5da6:	0e 94 f1 2c 	call	0x59e2	; 0x59e2 <USART0_getchar>
	ack_timeout--;
    5daa:	29 81       	ldd	r18, Y+1	; 0x01
    5dac:	3a 81       	ldd	r19, Y+2	; 0x02
    5dae:	4b 81       	ldd	r20, Y+3	; 0x03
    5db0:	5c 81       	ldd	r21, Y+4	; 0x04
    5db2:	21 50       	subi	r18, 0x01	; 1
    5db4:	30 40       	sbci	r19, 0x00	; 0
    5db6:	40 40       	sbci	r20, 0x00	; 0
    5db8:	50 40       	sbci	r21, 0x00	; 0
    5dba:	29 83       	std	Y+1, r18	; 0x01
    5dbc:	3a 83       	std	Y+2, r19	; 0x02
    5dbe:	4b 83       	std	Y+3, r20	; 0x03
    5dc0:	5c 83       	std	Y+4, r21	; 0x04
 }while((ack != 0x06) && (ack_timeout > 0));
    5dc2:	86 30       	cpi	r24, 0x06	; 6
    5dc4:	49 f0       	breq	.+18     	; 0x5dd8 <eDIP240_7_Display_get_protocoll_info+0x7a>
    5dc6:	89 81       	ldd	r24, Y+1	; 0x01
    5dc8:	9a 81       	ldd	r25, Y+2	; 0x02
    5dca:	ab 81       	ldd	r26, Y+3	; 0x03
    5dcc:	bc 81       	ldd	r27, Y+4	; 0x04
    5dce:	00 97       	sbiw	r24, 0x00	; 0
    5dd0:	a1 05       	cpc	r26, r1
    5dd2:	b1 05       	cpc	r27, r1
    5dd4:	41 f7       	brne	.-48     	; 0x5da6 <eDIP240_7_Display_get_protocoll_info+0x48>
    5dd6:	3b c0       	rjmp	.+118    	; 0x5e4e <eDIP240_7_Display_get_protocoll_info+0xf0>
 if (ack != 0x06) return (-1);

 // Now we have to receive and parse the answer from the display
 do{ ch = USART0_getchar(); }while (ch == -1);       // Get the command byte
    5dd8:	0e 94 f1 2c 	call	0x59e2	; 0x59e2 <USART0_getchar>
    5ddc:	2f ef       	ldi	r18, 0xFF	; 255
    5dde:	8f 3f       	cpi	r24, 0xFF	; 255
    5de0:	92 07       	cpc	r25, r18
    5de2:	d1 f3       	breq	.-12     	; 0x5dd8 <eDIP240_7_Display_get_protocoll_info+0x7a>
 if (ch == 0x12)                                     // Abort if command byte is incorrect
    5de4:	82 31       	cpi	r24, 0x12	; 18
    5de6:	91 05       	cpc	r25, r1
    5de8:	91 f5       	brne	.+100    	; 0x5e4e <eDIP240_7_Display_get_protocoll_info+0xf0>
 {
	do{ ch = USART0_getchar(); }while (ch == -1);     // Get payload length
    5dea:	0e 94 f1 2c 	call	0x59e2	; 0x59e2 <USART0_getchar>
    5dee:	ef ef       	ldi	r30, 0xFF	; 255
    5df0:	8f 3f       	cpi	r24, 0xFF	; 255
    5df2:	9e 07       	cpc	r25, r30
    5df4:	d1 f3       	breq	.-12     	; 0x5dea <eDIP240_7_Display_get_protocoll_info+0x8c>
	length = ch;
	if (length == 3)                                  // Abort if length is incorrect
    5df6:	83 30       	cpi	r24, 0x03	; 3
    5df8:	51 f5       	brne	.+84     	; 0x5e4e <eDIP240_7_Display_get_protocoll_info+0xf0>
	{
	  checksum = 0x12 + length;                         // Start checksum calculation

	  do{ ch = USART0_getchar(); }while (ch == -1);   // Get payload data
    5dfa:	0e 94 f1 2c 	call	0x59e2	; 0x59e2 <USART0_getchar>
    5dfe:	ff ef       	ldi	r31, 0xFF	; 255
    5e00:	8f 3f       	cpi	r24, 0xFF	; 255
    5e02:	9f 07       	cpc	r25, r31
    5e04:	d1 f3       	breq	.-12     	; 0x5dfa <eDIP240_7_Display_get_protocoll_info+0x9c>
	  checksum += ch;                                 // Calculate checksum
    5e06:	35 e1       	ldi	r19, 0x15	; 21
    5e08:	b3 2e       	mov	r11, r19
    5e0a:	b8 0e       	add	r11, r24
	  *sendbuffer_size = ch;
    5e0c:	f6 01       	movw	r30, r12
    5e0e:	80 83       	st	Z, r24

	  do{ ch = USART0_getchar(); }while (ch == -1);   // Get payload data
    5e10:	0e 94 f1 2c 	call	0x59e2	; 0x59e2 <USART0_getchar>
    5e14:	ff ef       	ldi	r31, 0xFF	; 255
    5e16:	8f 3f       	cpi	r24, 0xFF	; 255
    5e18:	9f 07       	cpc	r25, r31
    5e1a:	d1 f3       	breq	.-12     	; 0x5e10 <eDIP240_7_Display_get_protocoll_info+0xb2>
	  checksum += ch;                                 // Calculate checksum
    5e1c:	cb 2c       	mov	r12, r11
    5e1e:	c8 0e       	add	r12, r24
	  *sendbuffer_level = ch;
    5e20:	f8 01       	movw	r30, r16
    5e22:	80 83       	st	Z, r24

	  do{ ch = USART0_getchar(); }while (ch == -1);   // Get payload data
    5e24:	0e 94 f1 2c 	call	0x59e2	; 0x59e2 <USART0_getchar>
    5e28:	ff ef       	ldi	r31, 0xFF	; 255
    5e2a:	8f 3f       	cpi	r24, 0xFF	; 255
    5e2c:	9f 07       	cpc	r25, r31
    5e2e:	d1 f3       	breq	.-12     	; 0x5e24 <eDIP240_7_Display_get_protocoll_info+0xc6>
	  checksum += ch;                                 // Calculate checksum
    5e30:	0c 2d       	mov	r16, r12
    5e32:	08 0f       	add	r16, r24
	  *timeout = ch;
    5e34:	f7 01       	movw	r30, r14
    5e36:	80 83       	st	Z, r24

	  // Now we have received all the payload bytes.
	  do{ ch = USART0_getchar(); }while (ch == -1);   // Get checksum
    5e38:	0e 94 f1 2c 	call	0x59e2	; 0x59e2 <USART0_getchar>
    5e3c:	ff ef       	ldi	r31, 0xFF	; 255
    5e3e:	8f 3f       	cpi	r24, 0xFF	; 255
    5e40:	9f 07       	cpc	r25, r31
    5e42:	d1 f3       	breq	.-12     	; 0x5e38 <eDIP240_7_Display_get_protocoll_info+0xda>
	  // If received checksum and calculated checksum do not match, we have an error!
	  if (ch != checksum) error = 1;
    5e44:	20 2f       	mov	r18, r16
    5e46:	30 e0       	ldi	r19, 0x00	; 0
    5e48:	82 17       	cp	r24, r18
    5e4a:	93 07       	cpc	r25, r19
    5e4c:	11 f0       	breq	.+4      	; 0x5e52 <eDIP240_7_Display_get_protocoll_info+0xf4>
	else error = 1;
 }
 else error = 1;

 if (error == 0) return 0;  // Success!
 else return -1;             // No success! User has to repeat the packet
    5e4e:	8f ef       	ldi	r24, 0xFF	; 255
    5e50:	01 c0       	rjmp	.+2      	; 0x5e54 <eDIP240_7_Display_get_protocoll_info+0xf6>
	}
	else error = 1;
 }
 else error = 1;

 if (error == 0) return 0;  // Success!
    5e52:	80 e0       	ldi	r24, 0x00	; 0
 else return -1;             // No success! User has to repeat the packet

 return 0;

}
    5e54:	0f 90       	pop	r0
    5e56:	0f 90       	pop	r0
    5e58:	0f 90       	pop	r0
    5e5a:	0f 90       	pop	r0
    5e5c:	cf 91       	pop	r28
    5e5e:	df 91       	pop	r29
    5e60:	1f 91       	pop	r17
    5e62:	0f 91       	pop	r16
    5e64:	ff 90       	pop	r15
    5e66:	ef 90       	pop	r14
    5e68:	df 90       	pop	r13
    5e6a:	cf 90       	pop	r12
    5e6c:	bf 90       	pop	r11
    5e6e:	08 95       	ret

00005e70 <eDIP240_7_Display_repeat_last_packet>:
// Letztes Datenpaket wiederholen
// Display_repeat_last_packet will cause the display to repeat the last packet.
// The user has to provide a block of memory (data) where the received packet payload will be stored.
// Return value: 0 -> ok;  -1 -> error
signed char eDIP240_7_Display_repeat_last_packet(unsigned char * data)
{
    5e70:	ef 92       	push	r14
    5e72:	ff 92       	push	r15
    5e74:	0f 93       	push	r16
    5e76:	1f 93       	push	r17
    5e78:	df 93       	push	r29
    5e7a:	cf 93       	push	r28
    5e7c:	00 d0       	rcall	.+0      	; 0x5e7e <eDIP240_7_Display_repeat_last_packet+0xe>
    5e7e:	00 d0       	rcall	.+0      	; 0x5e80 <eDIP240_7_Display_repeat_last_packet+0x10>
    5e80:	cd b7       	in	r28, 0x3d	; 61
    5e82:	de b7       	in	r29, 0x3e	; 62
    5e84:	f8 2e       	mov	r15, r24
    5e86:	09 2f       	mov	r16, r25
 unsigned char i=0, checksum=0, ack=0, error=0, length;
 signed int ch;
 volatile unsigned long ack_timeout=1000000;
    5e88:	20 e4       	ldi	r18, 0x40	; 64
    5e8a:	32 e4       	ldi	r19, 0x42	; 66
    5e8c:	4f e0       	ldi	r20, 0x0F	; 15
    5e8e:	50 e0       	ldi	r21, 0x00	; 0
    5e90:	29 83       	std	Y+1, r18	; 0x01
    5e92:	3a 83       	std	Y+2, r19	; 0x02
    5e94:	4b 83       	std	Y+3, r20	; 0x03
    5e96:	5c 83       	std	Y+4, r21	; 0x04

 USART0_putchar(0x12);                 // Send command DC2 (sending packet) to the display
    5e98:	82 e1       	ldi	r24, 0x12	; 18
    5e9a:	0e 94 e9 2c 	call	0x59d2	; 0x59d2 <USART0_putchar>
 USART0_putchar(1);
    5e9e:	81 e0       	ldi	r24, 0x01	; 1
    5ea0:	0e 94 e9 2c 	call	0x59d2	; 0x59d2 <USART0_putchar>
 USART0_putchar('R');
    5ea4:	82 e5       	ldi	r24, 0x52	; 82
    5ea6:	0e 94 e9 2c 	call	0x59d2	; 0x59d2 <USART0_putchar>
 USART0_putchar( (unsigned char) (0x12 + 1 + 'R') );                     // Checksum
    5eaa:	85 e6       	ldi	r24, 0x65	; 101
    5eac:	0e 94 e9 2c 	call	0x59d2	; 0x59d2 <USART0_putchar>
 do                                    // Wait for receiving ack from the display
 {
	ack = USART0_getchar();
    5eb0:	0e 94 f1 2c 	call	0x59e2	; 0x59e2 <USART0_getchar>
	ack_timeout--;
    5eb4:	29 81       	ldd	r18, Y+1	; 0x01
    5eb6:	3a 81       	ldd	r19, Y+2	; 0x02
    5eb8:	4b 81       	ldd	r20, Y+3	; 0x03
    5eba:	5c 81       	ldd	r21, Y+4	; 0x04
    5ebc:	21 50       	subi	r18, 0x01	; 1
    5ebe:	30 40       	sbci	r19, 0x00	; 0
    5ec0:	40 40       	sbci	r20, 0x00	; 0
    5ec2:	50 40       	sbci	r21, 0x00	; 0
    5ec4:	29 83       	std	Y+1, r18	; 0x01
    5ec6:	3a 83       	std	Y+2, r19	; 0x02
    5ec8:	4b 83       	std	Y+3, r20	; 0x03
    5eca:	5c 83       	std	Y+4, r21	; 0x04
 }while((ack != 0x06) && (ack_timeout > 0));
    5ecc:	86 30       	cpi	r24, 0x06	; 6
    5ece:	59 f0       	breq	.+22     	; 0x5ee6 <eDIP240_7_Display_repeat_last_packet+0x76>
    5ed0:	29 81       	ldd	r18, Y+1	; 0x01
    5ed2:	3a 81       	ldd	r19, Y+2	; 0x02
    5ed4:	4b 81       	ldd	r20, Y+3	; 0x03
    5ed6:	5c 81       	ldd	r21, Y+4	; 0x04
    5ed8:	21 15       	cp	r18, r1
    5eda:	31 05       	cpc	r19, r1
    5edc:	41 05       	cpc	r20, r1
    5ede:	51 05       	cpc	r21, r1
    5ee0:	39 f7       	brne	.-50     	; 0x5eb0 <eDIP240_7_Display_repeat_last_packet+0x40>
 if (ack != 0x06) return (-1);
    5ee2:	8f ef       	ldi	r24, 0xFF	; 255
    5ee4:	28 c0       	rjmp	.+80     	; 0x5f36 <eDIP240_7_Display_repeat_last_packet+0xc6>

 // Now we have to receive and parse the answer from the display
 do{ ch = USART0_getchar(); }while (ch == -1);       // Get the command byte
    5ee6:	0e 94 f1 2c 	call	0x59e2	; 0x59e2 <USART0_getchar>
    5eea:	2f ef       	ldi	r18, 0xFF	; 255
    5eec:	8f 3f       	cpi	r24, 0xFF	; 255
    5eee:	92 07       	cpc	r25, r18
    5ef0:	d1 f3       	breq	.-12     	; 0x5ee6 <eDIP240_7_Display_repeat_last_packet+0x76>
 if (ch == 0x11)                                     // Abort if command byte is incorrect
    5ef2:	81 31       	cpi	r24, 0x11	; 17
    5ef4:	91 05       	cpc	r25, r1
    5ef6:	f1 f4       	brne	.+60     	; 0x5f34 <eDIP240_7_Display_repeat_last_packet+0xc4>
 {
	do{ ch = USART0_getchar(); }while (ch == -1);     // Get payload length
    5ef8:	0e 94 f1 2c 	call	0x59e2	; 0x59e2 <USART0_getchar>
    5efc:	ef ef       	ldi	r30, 0xFF	; 255
    5efe:	8f 3f       	cpi	r24, 0xFF	; 255
    5f00:	9e 07       	cpc	r25, r30
    5f02:	d1 f3       	breq	.-12     	; 0x5ef8 <eDIP240_7_Display_repeat_last_packet+0x88>
	length = ch;
    5f04:	e8 2e       	mov	r14, r24
	checksum = 0x11 + length;                         // Start checksum calculation
	while (i < length)
    5f06:	80 2f       	mov	r24, r16
    5f08:	0f 2d       	mov	r16, r15
    5f0a:	18 2f       	mov	r17, r24
    5f0c:	09 c0       	rjmp	.+18     	; 0x5f20 <eDIP240_7_Display_repeat_last_packet+0xb0>
	{
	  do{ ch = USART0_getchar(); }while (ch == -1);   // Get payload data
    5f0e:	0e 94 f1 2c 	call	0x59e2	; 0x59e2 <USART0_getchar>
    5f12:	ff ef       	ldi	r31, 0xFF	; 255
    5f14:	8f 3f       	cpi	r24, 0xFF	; 255
    5f16:	9f 07       	cpc	r25, r31
    5f18:	d1 f3       	breq	.-12     	; 0x5f0e <eDIP240_7_Display_repeat_last_packet+0x9e>
	  data[i] = ch;
    5f1a:	f8 01       	movw	r30, r16
    5f1c:	81 93       	st	Z+, r24
    5f1e:	8f 01       	movw	r16, r30
 if (ch == 0x11)                                     // Abort if command byte is incorrect
 {
	do{ ch = USART0_getchar(); }while (ch == -1);     // Get payload length
	length = ch;
	checksum = 0x11 + length;                         // Start checksum calculation
	while (i < length)
    5f20:	80 2f       	mov	r24, r16
    5f22:	8f 19       	sub	r24, r15
    5f24:	8e 15       	cp	r24, r14
    5f26:	98 f3       	brcs	.-26     	; 0x5f0e <eDIP240_7_Display_repeat_last_packet+0x9e>
	  data[i] = ch;
	  checksum += ch;                                 // Calculate checksum
	  i++;
	}
	// Now we have received all the payload bytes.
	do{ ch = USART0_getchar(); }while (ch == -1);   // Get checksum
    5f28:	0e 94 f1 2c 	call	0x59e2	; 0x59e2 <USART0_getchar>
    5f2c:	ff ef       	ldi	r31, 0xFF	; 255
    5f2e:	8f 3f       	cpi	r24, 0xFF	; 255
    5f30:	9f 07       	cpc	r25, r31
    5f32:	d1 f3       	breq	.-12     	; 0x5f28 <eDIP240_7_Display_repeat_last_packet+0xb8>
	// If received checksum and calculated checksum do not match, we have an error!
	if (ch != checksum) error = 1;
 }
 else error = 1;

 if (ack == 0x06) return 0;  // Success!
    5f34:	80 e0       	ldi	r24, 0x00	; 0
 else return -1;             // No success! User has to repeat the packet
}
    5f36:	0f 90       	pop	r0
    5f38:	0f 90       	pop	r0
    5f3a:	0f 90       	pop	r0
    5f3c:	0f 90       	pop	r0
    5f3e:	cf 91       	pop	r28
    5f40:	df 91       	pop	r29
    5f42:	1f 91       	pop	r17
    5f44:	0f 91       	pop	r16
    5f46:	ff 90       	pop	r15
    5f48:	ef 90       	pop	r14
    5f4a:	08 95       	ret

00005f4c <eDIP240_7_Display_select>:

// Adressierung nur bei RS232/RS485 Betrieb
// Display_select will select the display with the provided address as bus receiver.
// Return value: 0 -> ok;  -1 -> error
signed char eDIP240_7_Display_select(unsigned char address)
{
    5f4c:	1f 93       	push	r17
    5f4e:	df 93       	push	r29
    5f50:	cf 93       	push	r28
    5f52:	00 d0       	rcall	.+0      	; 0x5f54 <eDIP240_7_Display_select+0x8>
    5f54:	00 d0       	rcall	.+0      	; 0x5f56 <eDIP240_7_Display_select+0xa>
    5f56:	cd b7       	in	r28, 0x3d	; 61
    5f58:	de b7       	in	r29, 0x3e	; 62
    5f5a:	18 2f       	mov	r17, r24
 unsigned char ack=0;
 volatile unsigned long ack_timeout=1000000;
    5f5c:	20 e4       	ldi	r18, 0x40	; 64
    5f5e:	32 e4       	ldi	r19, 0x42	; 66
    5f60:	4f e0       	ldi	r20, 0x0F	; 15
    5f62:	50 e0       	ldi	r21, 0x00	; 0
    5f64:	29 83       	std	Y+1, r18	; 0x01
    5f66:	3a 83       	std	Y+2, r19	; 0x02
    5f68:	4b 83       	std	Y+3, r20	; 0x03
    5f6a:	5c 83       	std	Y+4, r21	; 0x04

 USART0_putchar(0x12);                 // Send command DC2 (sending packet) to the display
    5f6c:	82 e1       	ldi	r24, 0x12	; 18
    5f6e:	0e 94 e9 2c 	call	0x59d2	; 0x59d2 <USART0_putchar>
 USART0_putchar(3);
    5f72:	83 e0       	ldi	r24, 0x03	; 3
    5f74:	0e 94 e9 2c 	call	0x59d2	; 0x59d2 <USART0_putchar>
 USART0_putchar('A');
    5f78:	81 e4       	ldi	r24, 0x41	; 65
    5f7a:	0e 94 e9 2c 	call	0x59d2	; 0x59d2 <USART0_putchar>
 USART0_putchar('S');
    5f7e:	83 e5       	ldi	r24, 0x53	; 83
    5f80:	0e 94 e9 2c 	call	0x59d2	; 0x59d2 <USART0_putchar>
 USART0_putchar(address);
    5f84:	81 2f       	mov	r24, r17
    5f86:	0e 94 e9 2c 	call	0x59d2	; 0x59d2 <USART0_putchar>
 USART0_putchar( (unsigned char) (0x12 + 3 + 'A' + 'S' + address) );                     // Checksum
    5f8a:	81 2f       	mov	r24, r17
    5f8c:	87 55       	subi	r24, 0x57	; 87
    5f8e:	0e 94 e9 2c 	call	0x59d2	; 0x59d2 <USART0_putchar>
 do                                    // Wait for receiving ack from the display
 {
	ack = USART0_getchar();
    5f92:	0e 94 f1 2c 	call	0x59e2	; 0x59e2 <USART0_getchar>
	ack_timeout--;
    5f96:	29 81       	ldd	r18, Y+1	; 0x01
    5f98:	3a 81       	ldd	r19, Y+2	; 0x02
    5f9a:	4b 81       	ldd	r20, Y+3	; 0x03
    5f9c:	5c 81       	ldd	r21, Y+4	; 0x04
    5f9e:	21 50       	subi	r18, 0x01	; 1
    5fa0:	30 40       	sbci	r19, 0x00	; 0
    5fa2:	40 40       	sbci	r20, 0x00	; 0
    5fa4:	50 40       	sbci	r21, 0x00	; 0
    5fa6:	29 83       	std	Y+1, r18	; 0x01
    5fa8:	3a 83       	std	Y+2, r19	; 0x02
    5faa:	4b 83       	std	Y+3, r20	; 0x03
    5fac:	5c 83       	std	Y+4, r21	; 0x04
 }while((ack != 0x06) && (ack_timeout > 0));
    5fae:	86 30       	cpi	r24, 0x06	; 6
    5fb0:	51 f0       	breq	.+20     	; 0x5fc6 <eDIP240_7_Display_select+0x7a>
    5fb2:	89 81       	ldd	r24, Y+1	; 0x01
    5fb4:	9a 81       	ldd	r25, Y+2	; 0x02
    5fb6:	ab 81       	ldd	r26, Y+3	; 0x03
    5fb8:	bc 81       	ldd	r27, Y+4	; 0x04
    5fba:	00 97       	sbiw	r24, 0x00	; 0
    5fbc:	a1 05       	cpc	r26, r1
    5fbe:	b1 05       	cpc	r27, r1
    5fc0:	41 f7       	brne	.-48     	; 0x5f92 <eDIP240_7_Display_select+0x46>
 if (ack != 0x06) return (-1);
    5fc2:	8f ef       	ldi	r24, 0xFF	; 255
    5fc4:	01 c0       	rjmp	.+2      	; 0x5fc8 <eDIP240_7_Display_select+0x7c>
 return 0;
    5fc6:	80 e0       	ldi	r24, 0x00	; 0
}
    5fc8:	0f 90       	pop	r0
    5fca:	0f 90       	pop	r0
    5fcc:	0f 90       	pop	r0
    5fce:	0f 90       	pop	r0
    5fd0:	cf 91       	pop	r28
    5fd2:	df 91       	pop	r29
    5fd4:	1f 91       	pop	r17
    5fd6:	08 95       	ret

00005fd8 <eDIP240_7_Display_deselect>:
// Adressierung nur bei RS232/RS485 Betrieb
// Display_deselect will deselect the display with the provided address.
// A deselected display will not listen to data sent over the serial line and will not transmit to the line.
// Return value: 0 -> ok;  -1 -> error
signed char eDIP240_7_Display_deselect(unsigned char address)
{
    5fd8:	1f 93       	push	r17
    5fda:	df 93       	push	r29
    5fdc:	cf 93       	push	r28
    5fde:	00 d0       	rcall	.+0      	; 0x5fe0 <eDIP240_7_Display_deselect+0x8>
    5fe0:	00 d0       	rcall	.+0      	; 0x5fe2 <eDIP240_7_Display_deselect+0xa>
    5fe2:	cd b7       	in	r28, 0x3d	; 61
    5fe4:	de b7       	in	r29, 0x3e	; 62
    5fe6:	18 2f       	mov	r17, r24
 unsigned char ack=0;
 volatile unsigned long ack_timeout=1000000;
    5fe8:	20 e4       	ldi	r18, 0x40	; 64
    5fea:	32 e4       	ldi	r19, 0x42	; 66
    5fec:	4f e0       	ldi	r20, 0x0F	; 15
    5fee:	50 e0       	ldi	r21, 0x00	; 0
    5ff0:	29 83       	std	Y+1, r18	; 0x01
    5ff2:	3a 83       	std	Y+2, r19	; 0x02
    5ff4:	4b 83       	std	Y+3, r20	; 0x03
    5ff6:	5c 83       	std	Y+4, r21	; 0x04

 USART0_putchar(0x12);                 // Send command DC2 (sending packet) to the display
    5ff8:	82 e1       	ldi	r24, 0x12	; 18
    5ffa:	0e 94 e9 2c 	call	0x59d2	; 0x59d2 <USART0_putchar>
 USART0_putchar(3);
    5ffe:	83 e0       	ldi	r24, 0x03	; 3
    6000:	0e 94 e9 2c 	call	0x59d2	; 0x59d2 <USART0_putchar>
 USART0_putchar('A');
    6004:	81 e4       	ldi	r24, 0x41	; 65
    6006:	0e 94 e9 2c 	call	0x59d2	; 0x59d2 <USART0_putchar>
 USART0_putchar('D');
    600a:	84 e4       	ldi	r24, 0x44	; 68
    600c:	0e 94 e9 2c 	call	0x59d2	; 0x59d2 <USART0_putchar>
 USART0_putchar(address);
    6010:	81 2f       	mov	r24, r17
    6012:	0e 94 e9 2c 	call	0x59d2	; 0x59d2 <USART0_putchar>
 USART0_putchar( (unsigned char) (0x12 + 3 + 'A' + 'D' + address) );                     // Checksum
    6016:	81 2f       	mov	r24, r17
    6018:	86 56       	subi	r24, 0x66	; 102
    601a:	0e 94 e9 2c 	call	0x59d2	; 0x59d2 <USART0_putchar>
 do                                    // Wait for receiving ack from the display
 {
	ack = USART0_getchar();
    601e:	0e 94 f1 2c 	call	0x59e2	; 0x59e2 <USART0_getchar>
	ack_timeout--;
    6022:	29 81       	ldd	r18, Y+1	; 0x01
    6024:	3a 81       	ldd	r19, Y+2	; 0x02
    6026:	4b 81       	ldd	r20, Y+3	; 0x03
    6028:	5c 81       	ldd	r21, Y+4	; 0x04
    602a:	21 50       	subi	r18, 0x01	; 1
    602c:	30 40       	sbci	r19, 0x00	; 0
    602e:	40 40       	sbci	r20, 0x00	; 0
    6030:	50 40       	sbci	r21, 0x00	; 0
    6032:	29 83       	std	Y+1, r18	; 0x01
    6034:	3a 83       	std	Y+2, r19	; 0x02
    6036:	4b 83       	std	Y+3, r20	; 0x03
    6038:	5c 83       	std	Y+4, r21	; 0x04
 }while((ack != 0x06) && (ack_timeout > 0));
    603a:	86 30       	cpi	r24, 0x06	; 6
    603c:	51 f0       	breq	.+20     	; 0x6052 <eDIP240_7_Display_deselect+0x7a>
    603e:	89 81       	ldd	r24, Y+1	; 0x01
    6040:	9a 81       	ldd	r25, Y+2	; 0x02
    6042:	ab 81       	ldd	r26, Y+3	; 0x03
    6044:	bc 81       	ldd	r27, Y+4	; 0x04
    6046:	00 97       	sbiw	r24, 0x00	; 0
    6048:	a1 05       	cpc	r26, r1
    604a:	b1 05       	cpc	r27, r1
    604c:	41 f7       	brne	.-48     	; 0x601e <eDIP240_7_Display_deselect+0x46>
 if (ack != 0x06) return (-1);
    604e:	8f ef       	ldi	r24, 0xFF	; 255
    6050:	01 c0       	rjmp	.+2      	; 0x6054 <eDIP240_7_Display_deselect+0x7c>
 return 0;
    6052:	80 e0       	ldi	r24, 0x00	; 0
}
    6054:	0f 90       	pop	r0
    6056:	0f 90       	pop	r0
    6058:	0f 90       	pop	r0
    605a:	0f 90       	pop	r0
    605c:	cf 91       	pop	r28
    605e:	df 91       	pop	r29
    6060:	1f 91       	pop	r17
    6062:	08 95       	ret

00006064 <eDIP240_7_Display_send_string>:


// Use this for sending ascii commands to the Display
void eDIP240_7_Display_send_string(char * str)
{
 eDIP240_7_Display_send_packet(str, strlen(str));
    6064:	dc 01       	movw	r26, r24
    6066:	0d 90       	ld	r0, X+
    6068:	00 20       	and	r0, r0
    606a:	e9 f7       	brne	.-6      	; 0x6066 <eDIP240_7_Display_send_string+0x2>
    606c:	bd 01       	movw	r22, r26
    606e:	61 50       	subi	r22, 0x01	; 1
    6070:	70 40       	sbci	r23, 0x00	; 0
    6072:	68 1b       	sub	r22, r24
    6074:	79 0b       	sbc	r23, r25
    6076:	0e 94 03 2d 	call	0x5a06	; 0x5a06 <eDIP240_7_Display_send_packet>
}
    607a:	08 95       	ret

0000607c <eDIP240_7_Display_send_string_with_NULL>:



void eDIP240_7_Display_send_string_with_NULL(char * str)
{
 eDIP240_7_Display_send_packet(str, strlen(str) + 1);
    607c:	dc 01       	movw	r26, r24
    607e:	0d 90       	ld	r0, X+
    6080:	00 20       	and	r0, r0
    6082:	e9 f7       	brne	.-6      	; 0x607e <eDIP240_7_Display_send_string_with_NULL+0x2>
    6084:	6a 2f       	mov	r22, r26
    6086:	68 1b       	sub	r22, r24
    6088:	0e 94 03 2d 	call	0x5a06	; 0x5a06 <eDIP240_7_Display_send_packet>
}
    608c:	08 95       	ret

0000608e <setLedMode>:



void setLedMode( uint8_t led, uint8_t mode )
{
	led = (led & 0x03) << 1;						// every LED has two bits and there are 4 LEDs
    608e:	83 70       	andi	r24, 0x03	; 3
    6090:	88 0f       	add	r24, r24
	m_ledstate &= ~(0x03 << led);					// reset affected bits
    6092:	23 e0       	ldi	r18, 0x03	; 3
    6094:	30 e0       	ldi	r19, 0x00	; 0
    6096:	08 2e       	mov	r0, r24
    6098:	02 c0       	rjmp	.+4      	; 0x609e <setLedMode+0x10>
    609a:	22 0f       	add	r18, r18
    609c:	33 1f       	adc	r19, r19
    609e:	0a 94       	dec	r0
    60a0:	e2 f7       	brpl	.-8      	; 0x609a <setLedMode+0xc>
    60a2:	92 2f       	mov	r25, r18
    60a4:	90 95       	com	r25
    60a6:	40 91 f0 03 	lds	r20, 0x03F0
    60aa:	94 23       	and	r25, r20
	m_ledstate |= (mode << led) & (0x03 << led);		// and write the new value
    60ac:	01 c0       	rjmp	.+2      	; 0x60b0 <setLedMode+0x22>
    60ae:	66 0f       	add	r22, r22
    60b0:	8a 95       	dec	r24
    60b2:	ea f7       	brpl	.-6      	; 0x60ae <setLedMode+0x20>
    60b4:	62 23       	and	r22, r18
    60b6:	96 2b       	or	r25, r22
    60b8:	90 93 f0 03 	sts	0x03F0, r25
}
    60bc:	08 95       	ret

000060be <getLedMode>:



uint8_t getLedMode( uint8_t led )
{
	led = (led & 0x03) << 1;						// ...
    60be:	48 2f       	mov	r20, r24
    60c0:	43 70       	andi	r20, 0x03	; 3
    60c2:	44 0f       	add	r20, r20
	return( (m_ledstate & (0x03 << led)) >> led );	// return the bits corresponding to the LED
    60c4:	83 e0       	ldi	r24, 0x03	; 3
    60c6:	90 e0       	ldi	r25, 0x00	; 0
    60c8:	04 2e       	mov	r0, r20
    60ca:	02 c0       	rjmp	.+4      	; 0x60d0 <getLedMode+0x12>
    60cc:	88 0f       	add	r24, r24
    60ce:	99 1f       	adc	r25, r25
    60d0:	0a 94       	dec	r0
    60d2:	e2 f7       	brpl	.-8      	; 0x60cc <getLedMode+0xe>
    60d4:	20 91 f0 03 	lds	r18, 0x03F0
    60d8:	30 e0       	ldi	r19, 0x00	; 0
    60da:	82 23       	and	r24, r18
    60dc:	93 23       	and	r25, r19
    60de:	02 c0       	rjmp	.+4      	; 0x60e4 <getLedMode+0x26>
    60e0:	95 95       	asr	r25
    60e2:	87 95       	ror	r24
    60e4:	4a 95       	dec	r20
    60e6:	e2 f7       	brpl	.-8      	; 0x60e0 <getLedMode+0x22>
}
    60e8:	08 95       	ret

000060ea <S2V>:


// Conversion functions

double S2V( uint8_t s ) { return (m_vbatt * ((double)s)) / 256.; }
    60ea:	68 2f       	mov	r22, r24
    60ec:	70 e0       	ldi	r23, 0x00	; 0
    60ee:	80 e0       	ldi	r24, 0x00	; 0
    60f0:	90 e0       	ldi	r25, 0x00	; 0
    60f2:	0e 94 8a 3e 	call	0x7d14	; 0x7d14 <__floatunsisf>
    60f6:	20 91 d4 02 	lds	r18, 0x02D4
    60fa:	30 91 d5 02 	lds	r19, 0x02D5
    60fe:	40 91 d6 02 	lds	r20, 0x02D6
    6102:	50 91 d7 02 	lds	r21, 0x02D7
    6106:	0e 94 61 3f 	call	0x7ec2	; 0x7ec2 <__mulsf3>
    610a:	20 e0       	ldi	r18, 0x00	; 0
    610c:	30 e0       	ldi	r19, 0x00	; 0
    610e:	40 e8       	ldi	r20, 0x80	; 128
    6110:	5b e3       	ldi	r21, 0x3B	; 59
    6112:	0e 94 61 3f 	call	0x7ec2	; 0x7ec2 <__mulsf3>
    6116:	08 95       	ret

00006118 <V2S>:
uint8_t V2S( double v ) { return (uint8_t) ( (v * 256.) / m_vbatt ); }
    6118:	20 e0       	ldi	r18, 0x00	; 0
    611a:	30 e0       	ldi	r19, 0x00	; 0
    611c:	40 e8       	ldi	r20, 0x80	; 128
    611e:	53 e4       	ldi	r21, 0x43	; 67
    6120:	0e 94 61 3f 	call	0x7ec2	; 0x7ec2 <__mulsf3>
    6124:	20 91 d4 02 	lds	r18, 0x02D4
    6128:	30 91 d5 02 	lds	r19, 0x02D5
    612c:	40 91 d6 02 	lds	r20, 0x02D6
    6130:	50 91 d7 02 	lds	r21, 0x02D7
    6134:	0e 94 f6 3d 	call	0x7bec	; 0x7bec <__divsf3>
    6138:	0e 94 5e 3e 	call	0x7cbc	; 0x7cbc <__fixunssfsi>
    613c:	86 2f       	mov	r24, r22
    613e:	08 95       	ret

00006140 <setBits>:

uint8_t setBits( uint8_t data, uint8_t mask, uint8_t bits ) { return( ( data & mask ) | bits ); }
    6140:	68 23       	and	r22, r24
    6142:	84 2f       	mov	r24, r20
    6144:	86 2b       	or	r24, r22
    6146:	08 95       	ret

00006148 <prescalerSec2Hex>:



// For a given time period (s), compute the value for the prescaler register
uint8_t prescalerSec2Hex(double t)
{
    6148:	ef 92       	push	r14
    614a:	ff 92       	push	r15
    614c:	0f 93       	push	r16
    614e:	1f 93       	push	r17
    6150:	7b 01       	movw	r14, r22
    6152:	8c 01       	movw	r16, r24
	if (t > 255.0 * 152.0)   // 38760 sec = 10h46'00''
    6154:	20 e0       	ldi	r18, 0x00	; 0
    6156:	38 e6       	ldi	r19, 0x68	; 104
    6158:	47 e1       	ldi	r20, 0x17	; 23
    615a:	57 e4       	ldi	r21, 0x47	; 71
    615c:	0e 94 18 3f 	call	0x7e30	; 0x7e30 <__gesf2>
    6160:	18 16       	cp	r1, r24
    6162:	e4 f0       	brlt	.+56     	; 0x619c <prescalerSec2Hex+0x54>
		return( 0xFF );
	else if (t >= 1./152.0)
    6164:	c8 01       	movw	r24, r16
    6166:	b7 01       	movw	r22, r14
    6168:	26 e3       	ldi	r18, 0x36	; 54
    616a:	34 e9       	ldi	r19, 0x94	; 148
    616c:	47 ed       	ldi	r20, 0xD7	; 215
    616e:	5b e3       	ldi	r21, 0x3B	; 59
    6170:	0e 94 18 3f 	call	0x7e30	; 0x7e30 <__gesf2>
    6174:	87 fd       	sbrc	r24, 7
    6176:	14 c0       	rjmp	.+40     	; 0x61a0 <prescalerSec2Hex+0x58>
		return( (uint8_t) (t * 152 - 1) );
    6178:	c8 01       	movw	r24, r16
    617a:	b7 01       	movw	r22, r14
    617c:	20 e0       	ldi	r18, 0x00	; 0
    617e:	30 e0       	ldi	r19, 0x00	; 0
    6180:	48 e1       	ldi	r20, 0x18	; 24
    6182:	53 e4       	ldi	r21, 0x43	; 67
    6184:	0e 94 61 3f 	call	0x7ec2	; 0x7ec2 <__mulsf3>
    6188:	20 e0       	ldi	r18, 0x00	; 0
    618a:	30 e0       	ldi	r19, 0x00	; 0
    618c:	40 e8       	ldi	r20, 0x80	; 128
    618e:	5f e3       	ldi	r21, 0x3F	; 63
    6190:	0e 94 91 3d 	call	0x7b22	; 0x7b22 <__subsf3>
    6194:	0e 94 5e 3e 	call	0x7cbc	; 0x7cbc <__fixunssfsi>
    6198:	86 2f       	mov	r24, r22
    619a:	03 c0       	rjmp	.+6      	; 0x61a2 <prescalerSec2Hex+0x5a>

// For a given time period (s), compute the value for the prescaler register
uint8_t prescalerSec2Hex(double t)
{
	if (t > 255.0 * 152.0)   // 38760 sec = 10h46'00''
		return( 0xFF );
    619c:	8f ef       	ldi	r24, 0xFF	; 255
    619e:	01 c0       	rjmp	.+2      	; 0x61a2 <prescalerSec2Hex+0x5a>
	else if (t >= 1./152.0)
		return( (uint8_t) (t * 152 - 1) );
	else
		return( 0x00 );
    61a0:	80 e0       	ldi	r24, 0x00	; 0
}
    61a2:	1f 91       	pop	r17
    61a4:	0f 91       	pop	r16
    61a6:	ff 90       	pop	r15
    61a8:	ef 90       	pop	r14
    61aa:	08 95       	ret

000061ac <pwmFrac2Hex>:



// For a given fraction ([0; 1]), compute the value for the PWM register
uint8_t pwmFrac2Hex(double fraction)
{
    61ac:	ef 92       	push	r14
    61ae:	ff 92       	push	r15
    61b0:	0f 93       	push	r16
    61b2:	1f 93       	push	r17
    61b4:	7b 01       	movw	r14, r22
    61b6:	8c 01       	movw	r16, r24
	if (fraction >= 1.0)
    61b8:	20 e0       	ldi	r18, 0x00	; 0
    61ba:	30 e0       	ldi	r19, 0x00	; 0
    61bc:	40 e8       	ldi	r20, 0x80	; 128
    61be:	5f e3       	ldi	r21, 0x3F	; 63
    61c0:	0e 94 18 3f 	call	0x7e30	; 0x7e30 <__gesf2>
    61c4:	87 ff       	sbrs	r24, 7
    61c6:	16 c0       	rjmp	.+44     	; 0x61f4 <pwmFrac2Hex+0x48>
		return( 0xFF );
	else if (fraction >= 1.0/256.0)
    61c8:	c8 01       	movw	r24, r16
    61ca:	b7 01       	movw	r22, r14
    61cc:	20 e0       	ldi	r18, 0x00	; 0
    61ce:	30 e0       	ldi	r19, 0x00	; 0
    61d0:	40 e8       	ldi	r20, 0x80	; 128
    61d2:	5b e3       	ldi	r21, 0x3B	; 59
    61d4:	0e 94 18 3f 	call	0x7e30	; 0x7e30 <__gesf2>
    61d8:	87 fd       	sbrc	r24, 7
    61da:	0e c0       	rjmp	.+28     	; 0x61f8 <pwmFrac2Hex+0x4c>
		return( (uint8_t) (fraction * 256) );
    61dc:	c8 01       	movw	r24, r16
    61de:	b7 01       	movw	r22, r14
    61e0:	20 e0       	ldi	r18, 0x00	; 0
    61e2:	30 e0       	ldi	r19, 0x00	; 0
    61e4:	40 e8       	ldi	r20, 0x80	; 128
    61e6:	53 e4       	ldi	r21, 0x43	; 67
    61e8:	0e 94 61 3f 	call	0x7ec2	; 0x7ec2 <__mulsf3>
    61ec:	0e 94 5e 3e 	call	0x7cbc	; 0x7cbc <__fixunssfsi>
    61f0:	86 2f       	mov	r24, r22
    61f2:	03 c0       	rjmp	.+6      	; 0x61fa <pwmFrac2Hex+0x4e>

// For a given fraction ([0; 1]), compute the value for the PWM register
uint8_t pwmFrac2Hex(double fraction)
{
	if (fraction >= 1.0)
		return( 0xFF );
    61f4:	8f ef       	ldi	r24, 0xFF	; 255
    61f6:	01 c0       	rjmp	.+2      	; 0x61fa <pwmFrac2Hex+0x4e>
	else if (fraction >= 1.0/256.0)
		return( (uint8_t) (fraction * 256) );
	else
		return( 0x00 );
    61f8:	80 e0       	ldi	r24, 0x00	; 0
}
    61fa:	1f 91       	pop	r17
    61fc:	0f 91       	pop	r16
    61fe:	ff 90       	pop	r15
    6200:	ef 90       	pop	r14
    6202:	08 95       	ret

00006204 <TUM_LKN_Sensorboard_getCurrentStep>:
	m_currentstep = (m_currentstep + 7) & 0x07;
}



unsigned char TUM_LKN_Sensorboard_getCurrentStep() { return m_currentstep; }
    6204:	80 91 e6 03 	lds	r24, 0x03E6
    6208:	08 95       	ret

0000620a <TUM_LKN_Sensorboard_setControl0>:


// We can define two pairs of prescaler/PWM.
// blinkPeriod is in seconds, dutyCycle is in [0; 1]
void TUM_LKN_Sensorboard_setControl0( double blinkPeriod, double dutyCycle )
{
    620a:	ef 92       	push	r14
    620c:	ff 92       	push	r15
    620e:	0f 93       	push	r16
    6210:	1f 93       	push	r17
    6212:	79 01       	movw	r14, r18
    6214:	8a 01       	movw	r16, r20
	m_prescaler[ 0 ] = prescalerSec2Hex( blinkPeriod );
    6216:	0e 94 a4 30 	call	0x6148	; 0x6148 <prescalerSec2Hex>
    621a:	80 93 f1 03 	sts	0x03F1, r24
	m_pwm[ 0 ] = pwmFrac2Hex( dutyCycle );
    621e:	c8 01       	movw	r24, r16
    6220:	b7 01       	movw	r22, r14
    6222:	0e 94 d6 30 	call	0x61ac	; 0x61ac <pwmFrac2Hex>
    6226:	80 93 d8 02 	sts	0x02D8, r24
}
    622a:	1f 91       	pop	r17
    622c:	0f 91       	pop	r16
    622e:	ff 90       	pop	r15
    6230:	ef 90       	pop	r14
    6232:	08 95       	ret

00006234 <TUM_LKN_Sensorboard_setControl1>:



void TUM_LKN_Sensorboard_setControl1( double blinkPeriod, double dutyCycle )
{
    6234:	ef 92       	push	r14
    6236:	ff 92       	push	r15
    6238:	0f 93       	push	r16
    623a:	1f 93       	push	r17
    623c:	79 01       	movw	r14, r18
    623e:	8a 01       	movw	r16, r20
	m_prescaler[ 1 ] = prescalerSec2Hex( blinkPeriod );
    6240:	0e 94 a4 30 	call	0x6148	; 0x6148 <prescalerSec2Hex>
    6244:	80 93 f2 03 	sts	0x03F2, r24
	m_pwm[ 1 ] = pwmFrac2Hex( dutyCycle );
    6248:	c8 01       	movw	r24, r16
    624a:	b7 01       	movw	r22, r14
    624c:	0e 94 d6 30 	call	0x61ac	; 0x61ac <pwmFrac2Hex>
    6250:	80 93 d9 02 	sts	0x02D9, r24
}
    6254:	1f 91       	pop	r17
    6256:	0f 91       	pop	r16
    6258:	ff 90       	pop	r15
    625a:	ef 90       	pop	r14
    625c:	08 95       	ret

0000625e <TUM_LKN_Sensorboard_setBrightness0>:



void TUM_LKN_Sensorboard_setBrightness0( double dutyCycle )
{
	m_prescaler[ 0 ] = 0x00;   // Highest frequency possible
    625e:	10 92 f1 03 	sts	0x03F1, r1
	m_pwm[ 0 ] = pwmFrac2Hex( dutyCycle );
    6262:	0e 94 d6 30 	call	0x61ac	; 0x61ac <pwmFrac2Hex>
    6266:	80 93 d8 02 	sts	0x02D8, r24
}
    626a:	08 95       	ret

0000626c <TUM_LKN_Sensorboard_setBrightness1>:



void TUM_LKN_Sensorboard_setBrightness1( double dutyCycle )
{
	m_prescaler[ 1 ] = 0x00;   // Highest frequency possible
    626c:	10 92 f2 03 	sts	0x03F2, r1
	m_pwm[ 1 ] = pwmFrac2Hex( dutyCycle );
    6270:	0e 94 d6 30 	call	0x61ac	; 0x61ac <pwmFrac2Hex>
    6274:	80 93 d9 02 	sts	0x02D9, r24
}
    6278:	08 95       	ret

0000627a <TWI_write>:

void TWI_write(unsigned char address, unsigned char length, unsigned char* payload)
{
	unsigned char datapointer;

	PORTD |= 0x03;		//enable Portpin pullups
    627a:	92 b3       	in	r25, 0x12	; 18
    627c:	93 60       	ori	r25, 0x03	; 3
    627e:	92 bb       	out	0x12, r25	; 18

	TWSR = 0;                             // set prescaler == 0
    6280:	10 92 71 00 	sts	0x0071, r1
	//TWBR = (F_CPU / 50000UL - 16) / 2;   // set I2C baud rate
	TWBR = 62;
    6284:	9e e3       	ldi	r25, 0x3E	; 62
    6286:	90 93 70 00 	sts	0x0070, r25
	TWAR = 0;
    628a:	10 92 72 00 	sts	0x0072, r1
	TWCR = 0;
    628e:	10 92 74 00 	sts	0x0074, r1

	TWCR = (1<<TWINT)|(1<<TWSTA)|(1<<TWEN);
    6292:	94 ea       	ldi	r25, 0xA4	; 164
    6294:	90 93 74 00 	sts	0x0074, r25
	while (!(TWCR & (1<<TWINT)));
    6298:	90 91 74 00 	lds	r25, 0x0074
    629c:	97 ff       	sbrs	r25, 7
    629e:	fc cf       	rjmp	.-8      	; 0x6298 <TWI_write+0x1e>
//		if ((TWSR & 0xF8) != START) {} //ERROR
	TWDR = address;
    62a0:	80 93 73 00 	sts	0x0073, r24
	TWCR = (1<<TWINT) | (1<<TWEN);								//clear TWINT to start transmission of address
    62a4:	84 e8       	ldi	r24, 0x84	; 132
    62a6:	80 93 74 00 	sts	0x0074, r24
	while (!(TWCR & (1<<TWINT)));									//wait until transmission is complete
    62aa:	80 91 74 00 	lds	r24, 0x0074
    62ae:	87 ff       	sbrs	r24, 7
    62b0:	fc cf       	rjmp	.-8      	; 0x62aa <TWI_write+0x30>
    62b2:	84 2f       	mov	r24, r20
    62b4:	95 2f       	mov	r25, r21
    62b6:	fc 01       	movw	r30, r24
    62b8:	80 e0       	ldi	r24, 0x00	; 0
//	  if ((TWSR & 0xF8) != MT_SLA_ACK) {}  //ERROR
	for(datapointer = 0; datapointer < length; datapointer++)
	{
		TWDR = payload[datapointer];
		TWCR = (1<<TWINT) | (1<<TWEN);							//clear TWINT to start transmission of data
    62ba:	94 e8       	ldi	r25, 0x84	; 132
    62bc:	0a c0       	rjmp	.+20     	; 0x62d2 <TWI_write+0x58>
	TWCR = (1<<TWINT) | (1<<TWEN);								//clear TWINT to start transmission of address
	while (!(TWCR & (1<<TWINT)));									//wait until transmission is complete
//	  if ((TWSR & 0xF8) != MT_SLA_ACK) {}  //ERROR
	for(datapointer = 0; datapointer < length; datapointer++)
	{
		TWDR = payload[datapointer];
    62be:	21 91       	ld	r18, Z+
    62c0:	20 93 73 00 	sts	0x0073, r18
		TWCR = (1<<TWINT) | (1<<TWEN);							//clear TWINT to start transmission of data
    62c4:	90 93 74 00 	sts	0x0074, r25
		while (!(TWCR & (1<<TWINT)));								//wait until transmission is complete
    62c8:	20 91 74 00 	lds	r18, 0x0074
    62cc:	27 ff       	sbrs	r18, 7
    62ce:	fc cf       	rjmp	.-8      	; 0x62c8 <TWI_write+0x4e>
//		if ((TWSR & 0xF8) != START) {} //ERROR
	TWDR = address;
	TWCR = (1<<TWINT) | (1<<TWEN);								//clear TWINT to start transmission of address
	while (!(TWCR & (1<<TWINT)));									//wait until transmission is complete
//	  if ((TWSR & 0xF8) != MT_SLA_ACK) {}  //ERROR
	for(datapointer = 0; datapointer < length; datapointer++)
    62d0:	8f 5f       	subi	r24, 0xFF	; 255
    62d2:	86 17       	cp	r24, r22
    62d4:	a0 f3       	brcs	.-24     	; 0x62be <TWI_write+0x44>
		TWDR = payload[datapointer];
		TWCR = (1<<TWINT) | (1<<TWEN);							//clear TWINT to start transmission of data
		while (!(TWCR & (1<<TWINT)));								//wait until transmission is complete
//	  if ((TWSR & 0xF8) != MT_DATA_ACK) {} //ERROR
	}
	TWCR = (1<<TWINT)|(1<<TWEN)|(1<<TWSTO);				//Stop condition
    62d6:	84 e9       	ldi	r24, 0x94	; 148
    62d8:	80 93 74 00 	sts	0x0074, r24
}
    62dc:	08 95       	ret

000062de <TWI_read>:

void TWI_read(unsigned char address, unsigned char length, unsigned char* payload)
{
	unsigned char datapointer;

	address |= 0x01;	//Set read mode on i2c
    62de:	81 60       	ori	r24, 0x01	; 1

	PORTD |= 0x03;		//enable Portpin pullups
    62e0:	92 b3       	in	r25, 0x12	; 18
    62e2:	93 60       	ori	r25, 0x03	; 3
    62e4:	92 bb       	out	0x12, r25	; 18

	TWSR = 0;                             				// set prescaler == 0
    62e6:	10 92 71 00 	sts	0x0071, r1
	//TWBR = (F_CPU / 50000UL - 16) / 2;   				// set I2C baud rate
	TWBR = 62;
    62ea:	9e e3       	ldi	r25, 0x3E	; 62
    62ec:	90 93 70 00 	sts	0x0070, r25
	TWAR = 0;
    62f0:	10 92 72 00 	sts	0x0072, r1
	TWCR = 0;
    62f4:	10 92 74 00 	sts	0x0074, r1

	TWCR = (1<<TWINT)|(1<<TWSTA)|(1<<TWEN);
    62f8:	94 ea       	ldi	r25, 0xA4	; 164
    62fa:	90 93 74 00 	sts	0x0074, r25
	while (!(TWCR & (1<<TWINT)));
    62fe:	90 91 74 00 	lds	r25, 0x0074
    6302:	97 ff       	sbrs	r25, 7
    6304:	fc cf       	rjmp	.-8      	; 0x62fe <TWI_read+0x20>
//		if ((TWSR & 0xF8) != START) {} //ERROR
	TWDR = address;
    6306:	80 93 73 00 	sts	0x0073, r24
	TWCR = (1<<TWINT) | (1<<TWEN);								//clear TWINT to start transmission of address
    630a:	84 e8       	ldi	r24, 0x84	; 132
    630c:	80 93 74 00 	sts	0x0074, r24
	while (!(TWCR & (1<<TWINT)));									//wait until transmission is complete
    6310:	80 91 74 00 	lds	r24, 0x0074
    6314:	87 ff       	sbrs	r24, 7
    6316:	fc cf       	rjmp	.-8      	; 0x6310 <TWI_read+0x32>
    6318:	84 2f       	mov	r24, r20
    631a:	95 2f       	mov	r25, r21
    631c:	fc 01       	movw	r30, r24
    631e:	80 e0       	ldi	r24, 0x00	; 0
    6320:	90 e0       	ldi	r25, 0x00	; 0
//	  if ((TWSR & 0xF8) != MT_SLA_ACK) {}  //ERROR
	for(datapointer = 0; datapointer < length; datapointer++)
	{
		//is this the correct place for reading???
		if (datapointer < (length - 1))	TWCR = (1<<TWINT)|(1<<TWEN)|(1<<TWEA);			//clear TWINT to start transmission of data, send acknowledge
    6322:	26 2f       	mov	r18, r22
    6324:	30 e0       	ldi	r19, 0x00	; 0
    6326:	21 50       	subi	r18, 0x01	; 1
    6328:	30 40       	sbci	r19, 0x00	; 0
		else 														TWCR = (1<<TWINT)|(1<<TWEN);								//clear TWINT to start transmission of data, send not acknowledge (last byte)
    632a:	54 e8       	ldi	r21, 0x84	; 132
	while (!(TWCR & (1<<TWINT)));									//wait until transmission is complete
//	  if ((TWSR & 0xF8) != MT_SLA_ACK) {}  //ERROR
	for(datapointer = 0; datapointer < length; datapointer++)
	{
		//is this the correct place for reading???
		if (datapointer < (length - 1))	TWCR = (1<<TWINT)|(1<<TWEN)|(1<<TWEA);			//clear TWINT to start transmission of data, send acknowledge
    632c:	44 ec       	ldi	r20, 0xC4	; 196
    632e:	10 c0       	rjmp	.+32     	; 0x6350 <TWI_read+0x72>
    6330:	82 17       	cp	r24, r18
    6332:	93 07       	cpc	r25, r19
    6334:	1c f4       	brge	.+6      	; 0x633c <TWI_read+0x5e>
    6336:	40 93 74 00 	sts	0x0074, r20
    633a:	02 c0       	rjmp	.+4      	; 0x6340 <TWI_read+0x62>
		else 														TWCR = (1<<TWINT)|(1<<TWEN);								//clear TWINT to start transmission of data, send not acknowledge (last byte)
    633c:	50 93 74 00 	sts	0x0074, r21
		while (!(TWCR & (1<<TWINT)));								//wait until transmission is complete
    6340:	70 91 74 00 	lds	r23, 0x0074
    6344:	77 ff       	sbrs	r23, 7
    6346:	fc cf       	rjmp	.-8      	; 0x6340 <TWI_read+0x62>
		payload[datapointer] = TWDR;
    6348:	70 91 73 00 	lds	r23, 0x0073
    634c:	71 93       	st	Z+, r23
    634e:	01 96       	adiw	r24, 0x01	; 1
//		if ((TWSR & 0xF8) != START) {} //ERROR
	TWDR = address;
	TWCR = (1<<TWINT) | (1<<TWEN);								//clear TWINT to start transmission of address
	while (!(TWCR & (1<<TWINT)));									//wait until transmission is complete
//	  if ((TWSR & 0xF8) != MT_SLA_ACK) {}  //ERROR
	for(datapointer = 0; datapointer < length; datapointer++)
    6350:	86 17       	cp	r24, r22
    6352:	70 f3       	brcs	.-36     	; 0x6330 <TWI_read+0x52>
		else 														TWCR = (1<<TWINT)|(1<<TWEN);								//clear TWINT to start transmission of data, send not acknowledge (last byte)
		while (!(TWCR & (1<<TWINT)));								//wait until transmission is complete
		payload[datapointer] = TWDR;
		//or should be read here???
	}
	TWCR = (1<<TWINT)|(1<<TWEN)|(1<<TWSTO);				//Stop condition
    6354:	84 e9       	ldi	r24, 0x94	; 148
    6356:	80 93 74 00 	sts	0x0074, r24
}
    635a:	08 95       	ret

0000635c <i2cAction>:



void i2cAction()
{
	if( i2cDataDirection == i2cWrite )
    635c:	80 91 00 08 	lds	r24, 0x0800
    6360:	88 23       	and	r24, r24
    6362:	49 f4       	brne	.+18     	; 0x6376 <i2cAction+0x1a>
	{
		TWI_write(i2cDestination, i2cDataLen, i2cData);
    6364:	80 91 02 08 	lds	r24, 0x0802
    6368:	60 91 ff 07 	lds	r22, 0x07FF
    636c:	47 ee       	ldi	r20, 0xE7	; 231
    636e:	53 e0       	ldi	r21, 0x03	; 3
    6370:	0e 94 3d 31 	call	0x627a	; 0x627a <TWI_write>
    6374:	08 95       	ret
	}
	else
	{
		TWI_read(i2cDestination, i2cDataLen, i2cData);
    6376:	80 91 02 08 	lds	r24, 0x0802
    637a:	60 91 ff 07 	lds	r22, 0x07FF
    637e:	47 ee       	ldi	r20, 0xE7	; 231
    6380:	53 e0       	ldi	r21, 0x03	; 3
    6382:	0e 94 6f 31 	call	0x62de	; 0x62de <TWI_read>
    6386:	08 95       	ret

00006388 <setLeds>:

// Apply current values of m_led0... m_led3
void setLeds()
{
	// This is setting both prescalers and both PWMs
	i2cDataLen = 6;
    6388:	86 e0       	ldi	r24, 0x06	; 6
    638a:	80 93 ff 07 	sts	0x07FF, r24
	i2cData[0] = REG_LED_PSC0 | REG_LED_AUTOINCREMENT;
    638e:	81 e1       	ldi	r24, 0x11	; 17
    6390:	80 93 e7 03 	sts	0x03E7, r24
	i2cData[1] = m_prescaler[ 0 ];
    6394:	80 91 f1 03 	lds	r24, 0x03F1
    6398:	80 93 e8 03 	sts	0x03E8, r24
	i2cData[2] = m_pwm[ 0 ];
    639c:	80 91 d8 02 	lds	r24, 0x02D8
    63a0:	80 93 e9 03 	sts	0x03E9, r24
	i2cData[3] = m_prescaler[ 1 ];
    63a4:	80 91 f2 03 	lds	r24, 0x03F2
    63a8:	80 93 ea 03 	sts	0x03EA, r24
	i2cData[4] = m_pwm[ 1 ];
    63ac:	80 91 d9 02 	lds	r24, 0x02D9
    63b0:	80 93 eb 03 	sts	0x03EB, r24
	i2cData[5] = m_ledstate;
    63b4:	80 91 f0 03 	lds	r24, 0x03F0
    63b8:	80 93 ec 03 	sts	0x03EC, r24
	i2cDataDirection = i2cWrite;
    63bc:	10 92 00 08 	sts	0x0800, r1
	i2cDestination = PCA9533;
    63c0:	86 ec       	ldi	r24, 0xC6	; 198
    63c2:	90 e0       	ldi	r25, 0x00	; 0
    63c4:	90 93 03 08 	sts	0x0803, r25
    63c8:	80 93 02 08 	sts	0x0802, r24

	i2cAction();
    63cc:	0e 94 ae 31 	call	0x635c	; 0x635c <i2cAction>
}
    63d0:	08 95       	ret

000063d2 <TUM_LKN_Sensorboard_greenBlink>:
void TUM_LKN_Sensorboard_yellowBlink( uint8_t ctl )	{ setLedMode( 1, 0x02 | (ctl & 0x01) ); setLeds(); }

void TUM_LKN_Sensorboard_greenOn() 							{ setLedMode( 2, REG_LED_ON ); setLeds(); }
void TUM_LKN_Sensorboard_greenOff() 						{ setLedMode( 2, REG_LED_OFF ); setLeds(); }
void TUM_LKN_Sensorboard_greenToggle() 					{ setLedMode( 2, getLedMode( 2 ) ^ 0x01 ); setLeds(); }
void TUM_LKN_Sensorboard_greenBlink( uint8_t ctl ) 	{ setLedMode( 2, 0x02 | (ctl & 0x01) ); setLeds(); }
    63d2:	68 2f       	mov	r22, r24
    63d4:	61 70       	andi	r22, 0x01	; 1
    63d6:	62 60       	ori	r22, 0x02	; 2
    63d8:	82 e0       	ldi	r24, 0x02	; 2
    63da:	0e 94 47 30 	call	0x608e	; 0x608e <setLedMode>
    63de:	0e 94 c4 31 	call	0x6388	; 0x6388 <setLeds>
    63e2:	08 95       	ret

000063e4 <TUM_LKN_Sensorboard_greenToggle>:
void TUM_LKN_Sensorboard_yellowToggle() 					{ setLedMode( 1, getLedMode( 1 ) ^ 0x01 ); setLeds(); }
void TUM_LKN_Sensorboard_yellowBlink( uint8_t ctl )	{ setLedMode( 1, 0x02 | (ctl & 0x01) ); setLeds(); }

void TUM_LKN_Sensorboard_greenOn() 							{ setLedMode( 2, REG_LED_ON ); setLeds(); }
void TUM_LKN_Sensorboard_greenOff() 						{ setLedMode( 2, REG_LED_OFF ); setLeds(); }
void TUM_LKN_Sensorboard_greenToggle() 					{ setLedMode( 2, getLedMode( 2 ) ^ 0x01 ); setLeds(); }
    63e4:	82 e0       	ldi	r24, 0x02	; 2
    63e6:	0e 94 5f 30 	call	0x60be	; 0x60be <getLedMode>
    63ea:	61 e0       	ldi	r22, 0x01	; 1
    63ec:	68 27       	eor	r22, r24
    63ee:	82 e0       	ldi	r24, 0x02	; 2
    63f0:	0e 94 47 30 	call	0x608e	; 0x608e <setLedMode>
    63f4:	0e 94 c4 31 	call	0x6388	; 0x6388 <setLeds>
    63f8:	08 95       	ret

000063fa <TUM_LKN_Sensorboard_greenOff>:
void TUM_LKN_Sensorboard_yellowOff() 						{ setLedMode( 1, REG_LED_OFF ); setLeds(); }
void TUM_LKN_Sensorboard_yellowToggle() 					{ setLedMode( 1, getLedMode( 1 ) ^ 0x01 ); setLeds(); }
void TUM_LKN_Sensorboard_yellowBlink( uint8_t ctl )	{ setLedMode( 1, 0x02 | (ctl & 0x01) ); setLeds(); }

void TUM_LKN_Sensorboard_greenOn() 							{ setLedMode( 2, REG_LED_ON ); setLeds(); }
void TUM_LKN_Sensorboard_greenOff() 						{ setLedMode( 2, REG_LED_OFF ); setLeds(); }
    63fa:	82 e0       	ldi	r24, 0x02	; 2
    63fc:	60 e0       	ldi	r22, 0x00	; 0
    63fe:	0e 94 47 30 	call	0x608e	; 0x608e <setLedMode>
    6402:	0e 94 c4 31 	call	0x6388	; 0x6388 <setLeds>
    6406:	08 95       	ret

00006408 <TUM_LKN_Sensorboard_greenOn>:
void TUM_LKN_Sensorboard_yellowOn() 						{ setLedMode( 1, REG_LED_ON ); setLeds(); }
void TUM_LKN_Sensorboard_yellowOff() 						{ setLedMode( 1, REG_LED_OFF ); setLeds(); }
void TUM_LKN_Sensorboard_yellowToggle() 					{ setLedMode( 1, getLedMode( 1 ) ^ 0x01 ); setLeds(); }
void TUM_LKN_Sensorboard_yellowBlink( uint8_t ctl )	{ setLedMode( 1, 0x02 | (ctl & 0x01) ); setLeds(); }

void TUM_LKN_Sensorboard_greenOn() 							{ setLedMode( 2, REG_LED_ON ); setLeds(); }
    6408:	82 e0       	ldi	r24, 0x02	; 2
    640a:	61 e0       	ldi	r22, 0x01	; 1
    640c:	0e 94 47 30 	call	0x608e	; 0x608e <setLedMode>
    6410:	0e 94 c4 31 	call	0x6388	; 0x6388 <setLeds>
    6414:	08 95       	ret

00006416 <TUM_LKN_Sensorboard_yellowBlink>:
void TUM_LKN_Sensorboard_redBlink( uint8_t ctl ) 		{ setLedMode( 0, 0x02 | (ctl & 0x01) ); setLeds(); }

void TUM_LKN_Sensorboard_yellowOn() 						{ setLedMode( 1, REG_LED_ON ); setLeds(); }
void TUM_LKN_Sensorboard_yellowOff() 						{ setLedMode( 1, REG_LED_OFF ); setLeds(); }
void TUM_LKN_Sensorboard_yellowToggle() 					{ setLedMode( 1, getLedMode( 1 ) ^ 0x01 ); setLeds(); }
void TUM_LKN_Sensorboard_yellowBlink( uint8_t ctl )	{ setLedMode( 1, 0x02 | (ctl & 0x01) ); setLeds(); }
    6416:	68 2f       	mov	r22, r24
    6418:	61 70       	andi	r22, 0x01	; 1
    641a:	62 60       	ori	r22, 0x02	; 2
    641c:	81 e0       	ldi	r24, 0x01	; 1
    641e:	0e 94 47 30 	call	0x608e	; 0x608e <setLedMode>
    6422:	0e 94 c4 31 	call	0x6388	; 0x6388 <setLeds>
    6426:	08 95       	ret

00006428 <TUM_LKN_Sensorboard_yellowToggle>:
void TUM_LKN_Sensorboard_redToggle() 						{ setLedMode( 0, getLedMode( 0 ) ^ 0x01 ); setLeds(); }
void TUM_LKN_Sensorboard_redBlink( uint8_t ctl ) 		{ setLedMode( 0, 0x02 | (ctl & 0x01) ); setLeds(); }

void TUM_LKN_Sensorboard_yellowOn() 						{ setLedMode( 1, REG_LED_ON ); setLeds(); }
void TUM_LKN_Sensorboard_yellowOff() 						{ setLedMode( 1, REG_LED_OFF ); setLeds(); }
void TUM_LKN_Sensorboard_yellowToggle() 					{ setLedMode( 1, getLedMode( 1 ) ^ 0x01 ); setLeds(); }
    6428:	81 e0       	ldi	r24, 0x01	; 1
    642a:	0e 94 5f 30 	call	0x60be	; 0x60be <getLedMode>
    642e:	61 e0       	ldi	r22, 0x01	; 1
    6430:	68 27       	eor	r22, r24
    6432:	81 e0       	ldi	r24, 0x01	; 1
    6434:	0e 94 47 30 	call	0x608e	; 0x608e <setLedMode>
    6438:	0e 94 c4 31 	call	0x6388	; 0x6388 <setLeds>
    643c:	08 95       	ret

0000643e <TUM_LKN_Sensorboard_yellowOff>:
void TUM_LKN_Sensorboard_redOff() 							{ setLedMode( 0, REG_LED_OFF ); setLeds(); }
void TUM_LKN_Sensorboard_redToggle() 						{ setLedMode( 0, getLedMode( 0 ) ^ 0x01 ); setLeds(); }
void TUM_LKN_Sensorboard_redBlink( uint8_t ctl ) 		{ setLedMode( 0, 0x02 | (ctl & 0x01) ); setLeds(); }

void TUM_LKN_Sensorboard_yellowOn() 						{ setLedMode( 1, REG_LED_ON ); setLeds(); }
void TUM_LKN_Sensorboard_yellowOff() 						{ setLedMode( 1, REG_LED_OFF ); setLeds(); }
    643e:	81 e0       	ldi	r24, 0x01	; 1
    6440:	60 e0       	ldi	r22, 0x00	; 0
    6442:	0e 94 47 30 	call	0x608e	; 0x608e <setLedMode>
    6446:	0e 94 c4 31 	call	0x6388	; 0x6388 <setLeds>
    644a:	08 95       	ret

0000644c <TUM_LKN_Sensorboard_yellowOn>:
void TUM_LKN_Sensorboard_redOn() 							{ setLedMode( 0, REG_LED_ON ); setLeds(); }
void TUM_LKN_Sensorboard_redOff() 							{ setLedMode( 0, REG_LED_OFF ); setLeds(); }
void TUM_LKN_Sensorboard_redToggle() 						{ setLedMode( 0, getLedMode( 0 ) ^ 0x01 ); setLeds(); }
void TUM_LKN_Sensorboard_redBlink( uint8_t ctl ) 		{ setLedMode( 0, 0x02 | (ctl & 0x01) ); setLeds(); }

void TUM_LKN_Sensorboard_yellowOn() 						{ setLedMode( 1, REG_LED_ON ); setLeds(); }
    644c:	81 e0       	ldi	r24, 0x01	; 1
    644e:	61 e0       	ldi	r22, 0x01	; 1
    6450:	0e 94 47 30 	call	0x608e	; 0x608e <setLedMode>
    6454:	0e 94 c4 31 	call	0x6388	; 0x6388 <setLeds>
    6458:	08 95       	ret

0000645a <TUM_LKN_Sensorboard_redBlink>:
void TUM_LKN_Sensorboard_laserBlink( uint8_t ctl ) 	{ setLedMode( 3, 0x02 | (ctl & 0x01) ); setLeds(); }

void TUM_LKN_Sensorboard_redOn() 							{ setLedMode( 0, REG_LED_ON ); setLeds(); }
void TUM_LKN_Sensorboard_redOff() 							{ setLedMode( 0, REG_LED_OFF ); setLeds(); }
void TUM_LKN_Sensorboard_redToggle() 						{ setLedMode( 0, getLedMode( 0 ) ^ 0x01 ); setLeds(); }
void TUM_LKN_Sensorboard_redBlink( uint8_t ctl ) 		{ setLedMode( 0, 0x02 | (ctl & 0x01) ); setLeds(); }
    645a:	68 2f       	mov	r22, r24
    645c:	61 70       	andi	r22, 0x01	; 1
    645e:	62 60       	ori	r22, 0x02	; 2
    6460:	80 e0       	ldi	r24, 0x00	; 0
    6462:	0e 94 47 30 	call	0x608e	; 0x608e <setLedMode>
    6466:	0e 94 c4 31 	call	0x6388	; 0x6388 <setLeds>
    646a:	08 95       	ret

0000646c <TUM_LKN_Sensorboard_redToggle>:
void TUM_LKN_Sensorboard_laserToggle() 					{ setLedMode( 3, getLedMode( 3 ) ^ 0x01 ); setLeds(); }
void TUM_LKN_Sensorboard_laserBlink( uint8_t ctl ) 	{ setLedMode( 3, 0x02 | (ctl & 0x01) ); setLeds(); }

void TUM_LKN_Sensorboard_redOn() 							{ setLedMode( 0, REG_LED_ON ); setLeds(); }
void TUM_LKN_Sensorboard_redOff() 							{ setLedMode( 0, REG_LED_OFF ); setLeds(); }
void TUM_LKN_Sensorboard_redToggle() 						{ setLedMode( 0, getLedMode( 0 ) ^ 0x01 ); setLeds(); }
    646c:	80 e0       	ldi	r24, 0x00	; 0
    646e:	0e 94 5f 30 	call	0x60be	; 0x60be <getLedMode>
    6472:	61 e0       	ldi	r22, 0x01	; 1
    6474:	68 27       	eor	r22, r24
    6476:	80 e0       	ldi	r24, 0x00	; 0
    6478:	0e 94 47 30 	call	0x608e	; 0x608e <setLedMode>
    647c:	0e 94 c4 31 	call	0x6388	; 0x6388 <setLeds>
    6480:	08 95       	ret

00006482 <TUM_LKN_Sensorboard_redOff>:
void TUM_LKN_Sensorboard_laserOff() 						{ setLedMode( 3, REG_LED_OFF ); setLeds(); }
void TUM_LKN_Sensorboard_laserToggle() 					{ setLedMode( 3, getLedMode( 3 ) ^ 0x01 ); setLeds(); }
void TUM_LKN_Sensorboard_laserBlink( uint8_t ctl ) 	{ setLedMode( 3, 0x02 | (ctl & 0x01) ); setLeds(); }

void TUM_LKN_Sensorboard_redOn() 							{ setLedMode( 0, REG_LED_ON ); setLeds(); }
void TUM_LKN_Sensorboard_redOff() 							{ setLedMode( 0, REG_LED_OFF ); setLeds(); }
    6482:	80 e0       	ldi	r24, 0x00	; 0
    6484:	60 e0       	ldi	r22, 0x00	; 0
    6486:	0e 94 47 30 	call	0x608e	; 0x608e <setLedMode>
    648a:	0e 94 c4 31 	call	0x6388	; 0x6388 <setLeds>
    648e:	08 95       	ret

00006490 <TUM_LKN_Sensorboard_redOn>:
void TUM_LKN_Sensorboard_laserOn() 							{ setLedMode( 3, REG_LED_ON ); setLeds(); }
void TUM_LKN_Sensorboard_laserOff() 						{ setLedMode( 3, REG_LED_OFF ); setLeds(); }
void TUM_LKN_Sensorboard_laserToggle() 					{ setLedMode( 3, getLedMode( 3 ) ^ 0x01 ); setLeds(); }
void TUM_LKN_Sensorboard_laserBlink( uint8_t ctl ) 	{ setLedMode( 3, 0x02 | (ctl & 0x01) ); setLeds(); }

void TUM_LKN_Sensorboard_redOn() 							{ setLedMode( 0, REG_LED_ON ); setLeds(); }
    6490:	80 e0       	ldi	r24, 0x00	; 0
    6492:	61 e0       	ldi	r22, 0x01	; 1
    6494:	0e 94 47 30 	call	0x608e	; 0x608e <setLedMode>
    6498:	0e 94 c4 31 	call	0x6388	; 0x6388 <setLeds>
    649c:	08 95       	ret

0000649e <TUM_LKN_Sensorboard_laserBlink>:


void TUM_LKN_Sensorboard_laserOn() 							{ setLedMode( 3, REG_LED_ON ); setLeds(); }
void TUM_LKN_Sensorboard_laserOff() 						{ setLedMode( 3, REG_LED_OFF ); setLeds(); }
void TUM_LKN_Sensorboard_laserToggle() 					{ setLedMode( 3, getLedMode( 3 ) ^ 0x01 ); setLeds(); }
void TUM_LKN_Sensorboard_laserBlink( uint8_t ctl ) 	{ setLedMode( 3, 0x02 | (ctl & 0x01) ); setLeds(); }
    649e:	68 2f       	mov	r22, r24
    64a0:	61 70       	andi	r22, 0x01	; 1
    64a2:	62 60       	ori	r22, 0x02	; 2
    64a4:	83 e0       	ldi	r24, 0x03	; 3
    64a6:	0e 94 47 30 	call	0x608e	; 0x608e <setLedMode>
    64aa:	0e 94 c4 31 	call	0x6388	; 0x6388 <setLeds>
    64ae:	08 95       	ret

000064b0 <TUM_LKN_Sensorboard_laserToggle>:



void TUM_LKN_Sensorboard_laserOn() 							{ setLedMode( 3, REG_LED_ON ); setLeds(); }
void TUM_LKN_Sensorboard_laserOff() 						{ setLedMode( 3, REG_LED_OFF ); setLeds(); }
void TUM_LKN_Sensorboard_laserToggle() 					{ setLedMode( 3, getLedMode( 3 ) ^ 0x01 ); setLeds(); }
    64b0:	83 e0       	ldi	r24, 0x03	; 3
    64b2:	0e 94 5f 30 	call	0x60be	; 0x60be <getLedMode>
    64b6:	61 e0       	ldi	r22, 0x01	; 1
    64b8:	68 27       	eor	r22, r24
    64ba:	83 e0       	ldi	r24, 0x03	; 3
    64bc:	0e 94 47 30 	call	0x608e	; 0x608e <setLedMode>
    64c0:	0e 94 c4 31 	call	0x6388	; 0x6388 <setLeds>
    64c4:	08 95       	ret

000064c6 <TUM_LKN_Sensorboard_laserOff>:
}



void TUM_LKN_Sensorboard_laserOn() 							{ setLedMode( 3, REG_LED_ON ); setLeds(); }
void TUM_LKN_Sensorboard_laserOff() 						{ setLedMode( 3, REG_LED_OFF ); setLeds(); }
    64c6:	83 e0       	ldi	r24, 0x03	; 3
    64c8:	60 e0       	ldi	r22, 0x00	; 0
    64ca:	0e 94 47 30 	call	0x608e	; 0x608e <setLedMode>
    64ce:	0e 94 c4 31 	call	0x6388	; 0x6388 <setLeds>
    64d2:	08 95       	ret

000064d4 <TUM_LKN_Sensorboard_laserOn>:
	m_pwm[ 1 ] = pwmFrac2Hex( dutyCycle );
}



void TUM_LKN_Sensorboard_laserOn() 							{ setLedMode( 3, REG_LED_ON ); setLeds(); }
    64d4:	83 e0       	ldi	r24, 0x03	; 3
    64d6:	61 e0       	ldi	r22, 0x01	; 1
    64d8:	0e 94 47 30 	call	0x608e	; 0x608e <setLedMode>
    64dc:	0e 94 c4 31 	call	0x6388	; 0x6388 <setLeds>
    64e0:	08 95       	ret

000064e2 <readADC>:
}



void readADC( uint8_t channel )
{
    64e2:	1f 93       	push	r17
    64e4:	cf 93       	push	r28
    64e6:	df 93       	push	r29
	//set the correct channel first
	channel &= 0x03;
    64e8:	83 70       	andi	r24, 0x03	; 3
	m_channel = channel;
    64ea:	80 93 01 08 	sts	0x0801, r24
	i2cDataDirection = i2cWrite;		// write to the i2c bus
    64ee:	10 92 00 08 	sts	0x0800, r1
	i2cDataLen = 1;
    64f2:	11 e0       	ldi	r17, 0x01	; 1
    64f4:	10 93 ff 07 	sts	0x07FF, r17
	i2cData[ 0 ] = REG_ADC_FOURSE | REG_ADC_AOUTENABLE | channel;
    64f8:	80 64       	ori	r24, 0x40	; 64
    64fa:	80 93 e7 03 	sts	0x03E7, r24
	i2cDestination = PCF8591;
    64fe:	c0 e9       	ldi	r28, 0x90	; 144
    6500:	d0 e0       	ldi	r29, 0x00	; 0
    6502:	d0 93 03 08 	sts	0x0803, r29
    6506:	c0 93 02 08 	sts	0x0802, r28

	i2cAction();
    650a:	0e 94 ae 31 	call	0x635c	; 0x635c <i2cAction>

	//and now read the analog input
	i2cDataDirection = i2cRead;	// read from the i2c bus
    650e:	10 93 00 08 	sts	0x0800, r17
	i2cDataLen = 2;
    6512:	82 e0       	ldi	r24, 0x02	; 2
    6514:	80 93 ff 07 	sts	0x07FF, r24
	i2cDestination = PCF8591;
    6518:	d0 93 03 08 	sts	0x0803, r29
    651c:	c0 93 02 08 	sts	0x0802, r28

	i2cAction();
    6520:	0e 94 ae 31 	call	0x635c	; 0x635c <i2cAction>
}
    6524:	df 91       	pop	r29
    6526:	cf 91       	pop	r28
    6528:	1f 91       	pop	r17
    652a:	08 95       	ret

0000652c <TUM_LKN_Sensorboard_readChannel>:

void TUM_LKN_Sensorboard_readPhotoVoltage() { readADC( 0 ); }
void TUM_LKN_Sensorboard_readChannel1() { readADC( 1 ); }
void TUM_LKN_Sensorboard_readChannel2() { readADC( 2 ); }
void TUM_LKN_Sensorboard_readChannel3() { readADC( 3 ); }
void TUM_LKN_Sensorboard_readChannel( uint8_t ch ) { readADC( ch ); }
    652c:	0e 94 71 32 	call	0x64e2	; 0x64e2 <readADC>
    6530:	08 95       	ret

00006532 <TUM_LKN_Sensorboard_readChannel3>:
unsigned char TUM_LKN_Sensorboard_getCurrentStep() { return m_currentstep; }

void TUM_LKN_Sensorboard_readPhotoVoltage() { readADC( 0 ); }
void TUM_LKN_Sensorboard_readChannel1() { readADC( 1 ); }
void TUM_LKN_Sensorboard_readChannel2() { readADC( 2 ); }
void TUM_LKN_Sensorboard_readChannel3() { readADC( 3 ); }
    6532:	83 e0       	ldi	r24, 0x03	; 3
    6534:	0e 94 71 32 	call	0x64e2	; 0x64e2 <readADC>
    6538:	08 95       	ret

0000653a <TUM_LKN_Sensorboard_readChannel2>:

unsigned char TUM_LKN_Sensorboard_getCurrentStep() { return m_currentstep; }

void TUM_LKN_Sensorboard_readPhotoVoltage() { readADC( 0 ); }
void TUM_LKN_Sensorboard_readChannel1() { readADC( 1 ); }
void TUM_LKN_Sensorboard_readChannel2() { readADC( 2 ); }
    653a:	82 e0       	ldi	r24, 0x02	; 2
    653c:	0e 94 71 32 	call	0x64e2	; 0x64e2 <readADC>
    6540:	08 95       	ret

00006542 <TUM_LKN_Sensorboard_readChannel1>:


unsigned char TUM_LKN_Sensorboard_getCurrentStep() { return m_currentstep; }

void TUM_LKN_Sensorboard_readPhotoVoltage() { readADC( 0 ); }
void TUM_LKN_Sensorboard_readChannel1() { readADC( 1 ); }
    6542:	81 e0       	ldi	r24, 0x01	; 1
    6544:	0e 94 71 32 	call	0x64e2	; 0x64e2 <readADC>
    6548:	08 95       	ret

0000654a <TUM_LKN_Sensorboard_readPhotoVoltage>:



unsigned char TUM_LKN_Sensorboard_getCurrentStep() { return m_currentstep; }

void TUM_LKN_Sensorboard_readPhotoVoltage() { readADC( 0 ); }
    654a:	80 e0       	ldi	r24, 0x00	; 0
    654c:	0e 94 71 32 	call	0x64e2	; 0x64e2 <readADC>
    6550:	08 95       	ret

00006552 <writeDAC>:



void writeDAC( uint8_t value )
{
	i2cDataDirection = i2cWrite;		// write to the i2c bus
    6552:	10 92 00 08 	sts	0x0800, r1
	i2cDataLen = 2;
    6556:	92 e0       	ldi	r25, 0x02	; 2
    6558:	90 93 ff 07 	sts	0x07FF, r25
	i2cData[ 0 ] = REG_ADC_FOURSE | REG_ADC_AOUTENABLE;
    655c:	90 e4       	ldi	r25, 0x40	; 64
    655e:	90 93 e7 03 	sts	0x03E7, r25
	i2cData[ 1 ] = value;
    6562:	80 93 e8 03 	sts	0x03E8, r24
	i2cDestination = PCF8591;
    6566:	80 e9       	ldi	r24, 0x90	; 144
    6568:	90 e0       	ldi	r25, 0x00	; 0
    656a:	90 93 03 08 	sts	0x0803, r25
    656e:	80 93 02 08 	sts	0x0802, r24

	i2cAction();
    6572:	0e 94 ae 31 	call	0x635c	; 0x635c <i2cAction>
}
    6576:	08 95       	ret

00006578 <TUM_LKN_Sensorboard_writeValue>:
void TUM_LKN_Sensorboard_readPhotoVoltage() { readADC( 0 ); }
void TUM_LKN_Sensorboard_readChannel1() { readADC( 1 ); }
void TUM_LKN_Sensorboard_readChannel2() { readADC( 2 ); }
void TUM_LKN_Sensorboard_readChannel3() { readADC( 3 ); }
void TUM_LKN_Sensorboard_readChannel( uint8_t ch ) { readADC( ch ); }
void TUM_LKN_Sensorboard_writeValue( double voltage ) { writeDAC( V2S( voltage ) ); }
    6578:	0e 94 8c 30 	call	0x6118	; 0x6118 <V2S>
    657c:	0e 94 a9 32 	call	0x6552	; 0x6552 <writeDAC>
    6580:	08 95       	ret

00006582 <readIOs>:



void readIOs()
{
	i2cDataDirection = i2cRead;
    6582:	81 e0       	ldi	r24, 0x01	; 1
    6584:	80 93 00 08 	sts	0x0800, r24
	i2cDataLen = 1;
    6588:	80 93 ff 07 	sts	0x07FF, r24
	i2cDestination = PCF8574;
    658c:	80 e4       	ldi	r24, 0x40	; 64
    658e:	90 e0       	ldi	r25, 0x00	; 0
    6590:	90 93 03 08 	sts	0x0803, r25
    6594:	80 93 02 08 	sts	0x0802, r24

	i2cAction();
    6598:	0e 94 ae 31 	call	0x635c	; 0x635c <i2cAction>
}
    659c:	08 95       	ret

0000659e <writeIOs>:


//this is ok
void writeIOs( uint8_t data )
{
	i2cData[ 0 ] = m_lastxs = data;
    659e:	80 93 ef 03 	sts	0x03EF, r24
    65a2:	80 93 e7 03 	sts	0x03E7, r24
	i2cDataLen = 1;
    65a6:	81 e0       	ldi	r24, 0x01	; 1
    65a8:	80 93 ff 07 	sts	0x07FF, r24
	i2cDataDirection = i2cWrite;
    65ac:	10 92 00 08 	sts	0x0800, r1
	i2cDestination = PCF8574;
    65b0:	80 e4       	ldi	r24, 0x40	; 64
    65b2:	90 e0       	ldi	r25, 0x00	; 0
    65b4:	90 93 03 08 	sts	0x0803, r25
    65b8:	80 93 02 08 	sts	0x0802, r24

	i2cAction();
    65bc:	0e 94 ae 31 	call	0x635c	; 0x635c <i2cAction>
}
    65c0:	08 95       	ret

000065c2 <TUM_LKN_Sensorboard_halfStepCW>:



void TUM_LKN_Sensorboard_halfStepCW()
{
	writeIOs( setBits( m_lastxs, 0x0F, steps[ m_currentstep ] ) );
    65c2:	80 91 e6 03 	lds	r24, 0x03E6
    65c6:	ec ec       	ldi	r30, 0xCC	; 204
    65c8:	f2 e0       	ldi	r31, 0x02	; 2
    65ca:	e8 0f       	add	r30, r24
    65cc:	f1 1d       	adc	r31, r1
// Conversion functions

double S2V( uint8_t s ) { return (m_vbatt * ((double)s)) / 256.; }
uint8_t V2S( double v ) { return (uint8_t) ( (v * 256.) / m_vbatt ); }

uint8_t setBits( uint8_t data, uint8_t mask, uint8_t bits ) { return( ( data & mask ) | bits ); }
    65ce:	80 91 ef 03 	lds	r24, 0x03EF
    65d2:	8f 70       	andi	r24, 0x0F	; 15
    65d4:	90 81       	ld	r25, Z



void TUM_LKN_Sensorboard_halfStepCW()
{
	writeIOs( setBits( m_lastxs, 0x0F, steps[ m_currentstep ] ) );
    65d6:	89 2b       	or	r24, r25
    65d8:	0e 94 cf 32 	call	0x659e	; 0x659e <writeIOs>
	m_currentstep = (m_currentstep + 7) & 0x07;
    65dc:	80 91 e6 03 	lds	r24, 0x03E6
    65e0:	89 5f       	subi	r24, 0xF9	; 249
    65e2:	87 70       	andi	r24, 0x07	; 7
    65e4:	80 93 e6 03 	sts	0x03E6, r24
}
    65e8:	08 95       	ret

000065ea <TUM_LKN_Sensorboard_halfStepCCW>:



void TUM_LKN_Sensorboard_halfStepCCW()
{
	writeIOs( setBits( m_lastxs, 0x0F, steps[ m_currentstep ] ) );
    65ea:	80 91 e6 03 	lds	r24, 0x03E6
    65ee:	ec ec       	ldi	r30, 0xCC	; 204
    65f0:	f2 e0       	ldi	r31, 0x02	; 2
    65f2:	e8 0f       	add	r30, r24
    65f4:	f1 1d       	adc	r31, r1
// Conversion functions

double S2V( uint8_t s ) { return (m_vbatt * ((double)s)) / 256.; }
uint8_t V2S( double v ) { return (uint8_t) ( (v * 256.) / m_vbatt ); }

uint8_t setBits( uint8_t data, uint8_t mask, uint8_t bits ) { return( ( data & mask ) | bits ); }
    65f6:	80 91 ef 03 	lds	r24, 0x03EF
    65fa:	8f 70       	andi	r24, 0x0F	; 15
    65fc:	90 81       	ld	r25, Z



void TUM_LKN_Sensorboard_halfStepCCW()
{
	writeIOs( setBits( m_lastxs, 0x0F, steps[ m_currentstep ] ) );
    65fe:	89 2b       	or	r24, r25
    6600:	0e 94 cf 32 	call	0x659e	; 0x659e <writeIOs>
	m_currentstep = (m_currentstep + 1) & 0x07;
    6604:	80 91 e6 03 	lds	r24, 0x03E6
    6608:	8f 5f       	subi	r24, 0xFF	; 255
    660a:	87 70       	andi	r24, 0x07	; 7
    660c:	80 93 e6 03 	sts	0x03E6, r24
}
    6610:	08 95       	ret

00006612 <TUM_LKN_Sensorboard_stepCW>:



void TUM_LKN_Sensorboard_stepCW()
{
	writeIOs( setBits( m_lastxs, 0x0F, steps[ m_currentstep ] ) );
    6612:	80 91 e6 03 	lds	r24, 0x03E6
    6616:	ec ec       	ldi	r30, 0xCC	; 204
    6618:	f2 e0       	ldi	r31, 0x02	; 2
    661a:	e8 0f       	add	r30, r24
    661c:	f1 1d       	adc	r31, r1
// Conversion functions

double S2V( uint8_t s ) { return (m_vbatt * ((double)s)) / 256.; }
uint8_t V2S( double v ) { return (uint8_t) ( (v * 256.) / m_vbatt ); }

uint8_t setBits( uint8_t data, uint8_t mask, uint8_t bits ) { return( ( data & mask ) | bits ); }
    661e:	80 91 ef 03 	lds	r24, 0x03EF
    6622:	8f 70       	andi	r24, 0x0F	; 15
    6624:	90 81       	ld	r25, Z



void TUM_LKN_Sensorboard_stepCW()
{
	writeIOs( setBits( m_lastxs, 0x0F, steps[ m_currentstep ] ) );
    6626:	89 2b       	or	r24, r25
    6628:	0e 94 cf 32 	call	0x659e	; 0x659e <writeIOs>
	m_currentstep = (m_currentstep + 6) & 0x06;
    662c:	80 91 e6 03 	lds	r24, 0x03E6
    6630:	8a 5f       	subi	r24, 0xFA	; 250
    6632:	86 70       	andi	r24, 0x06	; 6
    6634:	80 93 e6 03 	sts	0x03E6, r24
}
    6638:	08 95       	ret

0000663a <TUM_LKN_Sensorboard_stepCCW>:
    writeIOs( setBits( m_lastxs, 0x0F, 0xF0 ) );
}

void TUM_LKN_Sensorboard_stepCCW()
{
	writeIOs( setBits( m_lastxs, 0x0F, steps[ m_currentstep ] ) );
    663a:	80 91 e6 03 	lds	r24, 0x03E6
    663e:	ec ec       	ldi	r30, 0xCC	; 204
    6640:	f2 e0       	ldi	r31, 0x02	; 2
    6642:	e8 0f       	add	r30, r24
    6644:	f1 1d       	adc	r31, r1
// Conversion functions

double S2V( uint8_t s ) { return (m_vbatt * ((double)s)) / 256.; }
uint8_t V2S( double v ) { return (uint8_t) ( (v * 256.) / m_vbatt ); }

uint8_t setBits( uint8_t data, uint8_t mask, uint8_t bits ) { return( ( data & mask ) | bits ); }
    6646:	80 91 ef 03 	lds	r24, 0x03EF
    664a:	8f 70       	andi	r24, 0x0F	; 15
    664c:	90 81       	ld	r25, Z
    writeIOs( setBits( m_lastxs, 0x0F, 0xF0 ) );
}

void TUM_LKN_Sensorboard_stepCCW()
{
	writeIOs( setBits( m_lastxs, 0x0F, steps[ m_currentstep ] ) );
    664e:	89 2b       	or	r24, r25
    6650:	0e 94 cf 32 	call	0x659e	; 0x659e <writeIOs>
	m_currentstep = (m_currentstep + 2) & 0x06;
    6654:	80 91 e6 03 	lds	r24, 0x03E6
    6658:	8e 5f       	subi	r24, 0xFE	; 254
    665a:	86 70       	andi	r24, 0x06	; 6
    665c:	80 93 e6 03 	sts	0x03E6, r24
}
    6660:	08 95       	ret

00006662 <TUM_LKN_Sensorboard_StepperIdle>:
// Conversion functions

double S2V( uint8_t s ) { return (m_vbatt * ((double)s)) / 256.; }
uint8_t V2S( double v ) { return (uint8_t) ( (v * 256.) / m_vbatt ); }

uint8_t setBits( uint8_t data, uint8_t mask, uint8_t bits ) { return( ( data & mask ) | bits ); }
    6662:	80 91 ef 03 	lds	r24, 0x03EF
void TUM_LKN_Sensorboard_setBeeper( bool set ) 				{ writeIOs( setBits( m_lastxs, 0xF7, (set == FALSE) ? 0x08 : 0x00 ) ); }


void TUM_LKN_Sensorboard_StepperIdle()
{
    writeIOs( setBits( m_lastxs, 0x0F, 0xF0 ) );
    6666:	80 6f       	ori	r24, 0xF0	; 240
    6668:	0e 94 cf 32 	call	0x659e	; 0x659e <writeIOs>
}
    666c:	08 95       	ret

0000666e <TUM_LKN_Sensorboard_setBeeper>:
// Convenience functions
void TUM_LKN_Sensorboard_init() 									{ writeIOs( 0xFF ); writeDAC( 0x00 ); }
//TUM_LKN_Sensorboard_readIOs() 								{ readIOs(); }
void TUM_LKN_Sensorboard_writeIOs( uint8_t data ) 			{ writeIOs( data ); }
void TUM_LKN_Sensorboard_writeIO( uint8_t io, bool set ) { writeIOs( setBits( m_lastxs, ~(0x01 << io), (set == TRUE) ? (0x01 << io) : 0x00 ) ); }
void TUM_LKN_Sensorboard_setBeeper( bool set ) 				{ writeIOs( setBits( m_lastxs, 0xF7, (set == FALSE) ? 0x08 : 0x00 ) ); }
    666e:	90 91 ef 03 	lds	r25, 0x03EF
    6672:	88 23       	and	r24, r24
    6674:	11 f4       	brne	.+4      	; 0x667a <TUM_LKN_Sensorboard_setBeeper+0xc>
    6676:	88 e0       	ldi	r24, 0x08	; 8
    6678:	01 c0       	rjmp	.+2      	; 0x667c <TUM_LKN_Sensorboard_setBeeper+0xe>
    667a:	80 e0       	ldi	r24, 0x00	; 0
// Conversion functions

double S2V( uint8_t s ) { return (m_vbatt * ((double)s)) / 256.; }
uint8_t V2S( double v ) { return (uint8_t) ( (v * 256.) / m_vbatt ); }

uint8_t setBits( uint8_t data, uint8_t mask, uint8_t bits ) { return( ( data & mask ) | bits ); }
    667c:	97 7f       	andi	r25, 0xF7	; 247
// Convenience functions
void TUM_LKN_Sensorboard_init() 									{ writeIOs( 0xFF ); writeDAC( 0x00 ); }
//TUM_LKN_Sensorboard_readIOs() 								{ readIOs(); }
void TUM_LKN_Sensorboard_writeIOs( uint8_t data ) 			{ writeIOs( data ); }
void TUM_LKN_Sensorboard_writeIO( uint8_t io, bool set ) { writeIOs( setBits( m_lastxs, ~(0x01 << io), (set == TRUE) ? (0x01 << io) : 0x00 ) ); }
void TUM_LKN_Sensorboard_setBeeper( bool set ) 				{ writeIOs( setBits( m_lastxs, 0xF7, (set == FALSE) ? 0x08 : 0x00 ) ); }
    667e:	89 2b       	or	r24, r25
    6680:	0e 94 cf 32 	call	0x659e	; 0x659e <writeIOs>
    6684:	08 95       	ret

00006686 <TUM_LKN_Sensorboard_writeIO>:

// Convenience functions
void TUM_LKN_Sensorboard_init() 									{ writeIOs( 0xFF ); writeDAC( 0x00 ); }
//TUM_LKN_Sensorboard_readIOs() 								{ readIOs(); }
void TUM_LKN_Sensorboard_writeIOs( uint8_t data ) 			{ writeIOs( data ); }
void TUM_LKN_Sensorboard_writeIO( uint8_t io, bool set ) { writeIOs( setBits( m_lastxs, ~(0x01 << io), (set == TRUE) ? (0x01 << io) : 0x00 ) ); }
    6686:	90 91 ef 03 	lds	r25, 0x03EF
    668a:	21 e0       	ldi	r18, 0x01	; 1
    668c:	30 e0       	ldi	r19, 0x00	; 0
    668e:	02 c0       	rjmp	.+4      	; 0x6694 <TUM_LKN_Sensorboard_writeIO+0xe>
    6690:	22 0f       	add	r18, r18
    6692:	33 1f       	adc	r19, r19
    6694:	8a 95       	dec	r24
    6696:	e2 f7       	brpl	.-8      	; 0x6690 <TUM_LKN_Sensorboard_writeIO+0xa>
    6698:	82 2f       	mov	r24, r18
    669a:	80 95       	com	r24
    669c:	66 23       	and	r22, r22
    669e:	09 f4       	brne	.+2      	; 0x66a2 <TUM_LKN_Sensorboard_writeIO+0x1c>
    66a0:	20 e0       	ldi	r18, 0x00	; 0
// Conversion functions

double S2V( uint8_t s ) { return (m_vbatt * ((double)s)) / 256.; }
uint8_t V2S( double v ) { return (uint8_t) ( (v * 256.) / m_vbatt ); }

uint8_t setBits( uint8_t data, uint8_t mask, uint8_t bits ) { return( ( data & mask ) | bits ); }
    66a2:	98 23       	and	r25, r24

// Convenience functions
void TUM_LKN_Sensorboard_init() 									{ writeIOs( 0xFF ); writeDAC( 0x00 ); }
//TUM_LKN_Sensorboard_readIOs() 								{ readIOs(); }
void TUM_LKN_Sensorboard_writeIOs( uint8_t data ) 			{ writeIOs( data ); }
void TUM_LKN_Sensorboard_writeIO( uint8_t io, bool set ) { writeIOs( setBits( m_lastxs, ~(0x01 << io), (set == TRUE) ? (0x01 << io) : 0x00 ) ); }
    66a4:	82 2f       	mov	r24, r18
    66a6:	89 2b       	or	r24, r25
    66a8:	0e 94 cf 32 	call	0x659e	; 0x659e <writeIOs>
    66ac:	08 95       	ret

000066ae <TUM_LKN_Sensorboard_writeIOs>:


// Convenience functions
void TUM_LKN_Sensorboard_init() 									{ writeIOs( 0xFF ); writeDAC( 0x00 ); }
//TUM_LKN_Sensorboard_readIOs() 								{ readIOs(); }
void TUM_LKN_Sensorboard_writeIOs( uint8_t data ) 			{ writeIOs( data ); }
    66ae:	0e 94 cf 32 	call	0x659e	; 0x659e <writeIOs>
    66b2:	08 95       	ret

000066b4 <TUM_LKN_Sensorboard_init>:
}



// Convenience functions
void TUM_LKN_Sensorboard_init() 									{ writeIOs( 0xFF ); writeDAC( 0x00 ); }
    66b4:	8f ef       	ldi	r24, 0xFF	; 255
    66b6:	0e 94 cf 32 	call	0x659e	; 0x659e <writeIOs>
    66ba:	80 e0       	ldi	r24, 0x00	; 0
    66bc:	0e 94 a9 32 	call	0x6552	; 0x6552 <writeDAC>
    66c0:	08 95       	ret

000066c2 <nrk_start_high_ready_task>:

.global nrk_start_high_ready_task 

nrk_start_high_ready_task:

	lds r26,nrk_high_ready_TCB		
    66c2:	a0 91 c6 07 	lds	r26, 0x07C6
	lds r27,nrk_high_ready_TCB+1
    66c6:	b0 91 c7 07 	lds	r27, 0x07C7

    	;x points to &OSTCB[x]
    
	ld r28,x+
    66ca:	cd 91       	ld	r28, X+
	out __SP_L__, r28
    66cc:	cd bf       	out	0x3d, r28	; 61
	ld r29,x+
    66ce:	dd 91       	ld	r29, X+
	out __SP_H__, r29
    66d0:	de bf       	out	0x3e, r29	; 62
  
	pop r31	
    66d2:	ff 91       	pop	r31
	pop r30
    66d4:	ef 91       	pop	r30
	pop r29
    66d6:	df 91       	pop	r29
	pop r28
    66d8:	cf 91       	pop	r28
	pop r27
    66da:	bf 91       	pop	r27
	pop r26
    66dc:	af 91       	pop	r26
	pop r25
    66de:	9f 91       	pop	r25
	pop r24			
    66e0:	8f 91       	pop	r24
	pop r23
    66e2:	7f 91       	pop	r23
	pop r22
    66e4:	6f 91       	pop	r22
	pop r21
    66e6:	5f 91       	pop	r21
	pop r20	
    66e8:	4f 91       	pop	r20
	pop r19
    66ea:	3f 91       	pop	r19
	pop r18	
    66ec:	2f 91       	pop	r18
	pop r17
    66ee:	1f 91       	pop	r17
	pop r16
    66f0:	0f 91       	pop	r16
	pop r15
    66f2:	ff 90       	pop	r15
	pop r14
    66f4:	ef 90       	pop	r14
	pop r13
    66f6:	df 90       	pop	r13
	pop r12
    66f8:	cf 90       	pop	r12
	pop r11
    66fa:	bf 90       	pop	r11
	pop r10
    66fc:	af 90       	pop	r10
	pop r9
    66fe:	9f 90       	pop	r9
	pop r8
    6700:	8f 90       	pop	r8
	pop r7
    6702:	7f 90       	pop	r7
	pop r6
    6704:	6f 90       	pop	r6
	pop r5
    6706:	5f 90       	pop	r5
	pop r4
    6708:	4f 90       	pop	r4
	pop r3
    670a:	3f 90       	pop	r3
	pop r2
    670c:	2f 90       	pop	r2
	pop r1
    670e:	1f 90       	pop	r1
	pop r0
    6710:	0f 90       	pop	r0
	out __SREG__, r0
    6712:	0f be       	out	0x3f, r0	; 63
	pop r0	
    6714:	0f 90       	pop	r0
	   
    	reti 
    6716:	18 95       	reti

00006718 <__udivdi3>:
    6718:	a8 e3       	ldi	r26, 0x38	; 56
    671a:	b0 e0       	ldi	r27, 0x00	; 0
    671c:	e2 e9       	ldi	r30, 0x92	; 146
    671e:	f3 e3       	ldi	r31, 0x33	; 51
    6720:	0c 94 70 41 	jmp	0x82e0	; 0x82e0 <__prologue_saves__>
    6724:	29 83       	std	Y+1, r18	; 0x01
    6726:	3a 83       	std	Y+2, r19	; 0x02
    6728:	4b 83       	std	Y+3, r20	; 0x03
    672a:	5c 83       	std	Y+4, r21	; 0x04
    672c:	6d 83       	std	Y+5, r22	; 0x05
    672e:	7e 83       	std	Y+6, r23	; 0x06
    6730:	8f 83       	std	Y+7, r24	; 0x07
    6732:	98 87       	std	Y+8, r25	; 0x08
    6734:	a9 86       	std	Y+9, r10	; 0x09
    6736:	ba 86       	std	Y+10, r11	; 0x0a
    6738:	cb 86       	std	Y+11, r12	; 0x0b
    673a:	dc 86       	std	Y+12, r13	; 0x0c
    673c:	ed 86       	std	Y+13, r14	; 0x0d
    673e:	fe 86       	std	Y+14, r15	; 0x0e
    6740:	0f 87       	std	Y+15, r16	; 0x0f
    6742:	18 8b       	std	Y+16, r17	; 0x10
    6744:	e9 84       	ldd	r14, Y+9	; 0x09
    6746:	fa 84       	ldd	r15, Y+10	; 0x0a
    6748:	0b 85       	ldd	r16, Y+11	; 0x0b
    674a:	1c 85       	ldd	r17, Y+12	; 0x0c
    674c:	2d 85       	ldd	r18, Y+13	; 0x0d
    674e:	3e 85       	ldd	r19, Y+14	; 0x0e
    6750:	4f 85       	ldd	r20, Y+15	; 0x0f
    6752:	58 89       	ldd	r21, Y+16	; 0x10
    6754:	29 80       	ldd	r2, Y+1	; 0x01
    6756:	3a 80       	ldd	r3, Y+2	; 0x02
    6758:	4b 80       	ldd	r4, Y+3	; 0x03
    675a:	5c 80       	ldd	r5, Y+4	; 0x04
    675c:	2d a2       	std	Y+37, r2	; 0x25
    675e:	3e a2       	std	Y+38, r3	; 0x26
    6760:	4f a2       	std	Y+39, r4	; 0x27
    6762:	58 a6       	std	Y+40, r5	; 0x28
    6764:	ad 80       	ldd	r10, Y+5	; 0x05
    6766:	be 80       	ldd	r11, Y+6	; 0x06
    6768:	cf 80       	ldd	r12, Y+7	; 0x07
    676a:	d8 84       	ldd	r13, Y+8	; 0x08
    676c:	21 15       	cp	r18, r1
    676e:	31 05       	cpc	r19, r1
    6770:	41 05       	cpc	r20, r1
    6772:	51 05       	cpc	r21, r1
    6774:	09 f0       	breq	.+2      	; 0x6778 <__udivdi3+0x60>
    6776:	be c3       	rjmp	.+1916   	; 0x6ef4 <__udivdi3+0x7dc>
    6778:	ae 14       	cp	r10, r14
    677a:	bf 04       	cpc	r11, r15
    677c:	c0 06       	cpc	r12, r16
    677e:	d1 06       	cpc	r13, r17
    6780:	08 f0       	brcs	.+2      	; 0x6784 <__udivdi3+0x6c>
    6782:	4f c1       	rjmp	.+670    	; 0x6a22 <__udivdi3+0x30a>
    6784:	20 e0       	ldi	r18, 0x00	; 0
    6786:	e2 16       	cp	r14, r18
    6788:	20 e0       	ldi	r18, 0x00	; 0
    678a:	f2 06       	cpc	r15, r18
    678c:	21 e0       	ldi	r18, 0x01	; 1
    678e:	02 07       	cpc	r16, r18
    6790:	20 e0       	ldi	r18, 0x00	; 0
    6792:	12 07       	cpc	r17, r18
    6794:	58 f4       	brcc	.+22     	; 0x67ac <__udivdi3+0x94>
    6796:	3f ef       	ldi	r19, 0xFF	; 255
    6798:	e3 16       	cp	r14, r19
    679a:	f1 04       	cpc	r15, r1
    679c:	01 05       	cpc	r16, r1
    679e:	11 05       	cpc	r17, r1
    67a0:	09 f0       	breq	.+2      	; 0x67a4 <__udivdi3+0x8c>
    67a2:	90 f4       	brcc	.+36     	; 0x67c8 <__udivdi3+0xb0>
    67a4:	20 e0       	ldi	r18, 0x00	; 0
    67a6:	30 e0       	ldi	r19, 0x00	; 0
    67a8:	a9 01       	movw	r20, r18
    67aa:	17 c0       	rjmp	.+46     	; 0x67da <__udivdi3+0xc2>
    67ac:	40 e0       	ldi	r20, 0x00	; 0
    67ae:	e4 16       	cp	r14, r20
    67b0:	40 e0       	ldi	r20, 0x00	; 0
    67b2:	f4 06       	cpc	r15, r20
    67b4:	40 e0       	ldi	r20, 0x00	; 0
    67b6:	04 07       	cpc	r16, r20
    67b8:	41 e0       	ldi	r20, 0x01	; 1
    67ba:	14 07       	cpc	r17, r20
    67bc:	50 f4       	brcc	.+20     	; 0x67d2 <__udivdi3+0xba>
    67be:	20 e1       	ldi	r18, 0x10	; 16
    67c0:	30 e0       	ldi	r19, 0x00	; 0
    67c2:	40 e0       	ldi	r20, 0x00	; 0
    67c4:	50 e0       	ldi	r21, 0x00	; 0
    67c6:	09 c0       	rjmp	.+18     	; 0x67da <__udivdi3+0xc2>
    67c8:	28 e0       	ldi	r18, 0x08	; 8
    67ca:	30 e0       	ldi	r19, 0x00	; 0
    67cc:	40 e0       	ldi	r20, 0x00	; 0
    67ce:	50 e0       	ldi	r21, 0x00	; 0
    67d0:	04 c0       	rjmp	.+8      	; 0x67da <__udivdi3+0xc2>
    67d2:	28 e1       	ldi	r18, 0x18	; 24
    67d4:	30 e0       	ldi	r19, 0x00	; 0
    67d6:	40 e0       	ldi	r20, 0x00	; 0
    67d8:	50 e0       	ldi	r21, 0x00	; 0
    67da:	d8 01       	movw	r26, r16
    67dc:	c7 01       	movw	r24, r14
    67de:	02 2e       	mov	r0, r18
    67e0:	04 c0       	rjmp	.+8      	; 0x67ea <__udivdi3+0xd2>
    67e2:	b6 95       	lsr	r27
    67e4:	a7 95       	ror	r26
    67e6:	97 95       	ror	r25
    67e8:	87 95       	ror	r24
    67ea:	0a 94       	dec	r0
    67ec:	d2 f7       	brpl	.-12     	; 0x67e2 <__udivdi3+0xca>
    67ee:	86 52       	subi	r24, 0x26	; 38
    67f0:	9d 4f       	sbci	r25, 0xFD	; 253
    67f2:	dc 01       	movw	r26, r24
    67f4:	6c 91       	ld	r22, X
    67f6:	80 e2       	ldi	r24, 0x20	; 32
    67f8:	90 e0       	ldi	r25, 0x00	; 0
    67fa:	a0 e0       	ldi	r26, 0x00	; 0
    67fc:	b0 e0       	ldi	r27, 0x00	; 0
    67fe:	82 1b       	sub	r24, r18
    6800:	93 0b       	sbc	r25, r19
    6802:	a4 0b       	sbc	r26, r20
    6804:	b5 0b       	sbc	r27, r21
    6806:	86 1b       	sub	r24, r22
    6808:	91 09       	sbc	r25, r1
    680a:	a1 09       	sbc	r26, r1
    680c:	b1 09       	sbc	r27, r1
    680e:	00 97       	sbiw	r24, 0x00	; 0
    6810:	a1 05       	cpc	r26, r1
    6812:	b1 05       	cpc	r27, r1
    6814:	a1 f1       	breq	.+104    	; 0x687e <__udivdi3+0x166>
    6816:	08 2e       	mov	r0, r24
    6818:	04 c0       	rjmp	.+8      	; 0x6822 <__udivdi3+0x10a>
    681a:	ee 0c       	add	r14, r14
    681c:	ff 1c       	adc	r15, r15
    681e:	00 1f       	adc	r16, r16
    6820:	11 1f       	adc	r17, r17
    6822:	0a 94       	dec	r0
    6824:	d2 f7       	brpl	.-12     	; 0x681a <__udivdi3+0x102>
    6826:	a6 01       	movw	r20, r12
    6828:	95 01       	movw	r18, r10
    682a:	08 2e       	mov	r0, r24
    682c:	04 c0       	rjmp	.+8      	; 0x6836 <__udivdi3+0x11e>
    682e:	22 0f       	add	r18, r18
    6830:	33 1f       	adc	r19, r19
    6832:	44 1f       	adc	r20, r20
    6834:	55 1f       	adc	r21, r21
    6836:	0a 94       	dec	r0
    6838:	d2 f7       	brpl	.-12     	; 0x682e <__udivdi3+0x116>
    683a:	60 e2       	ldi	r22, 0x20	; 32
    683c:	70 e0       	ldi	r23, 0x00	; 0
    683e:	68 1b       	sub	r22, r24
    6840:	79 0b       	sbc	r23, r25
    6842:	ad a0       	ldd	r10, Y+37	; 0x25
    6844:	be a0       	ldd	r11, Y+38	; 0x26
    6846:	cf a0       	ldd	r12, Y+39	; 0x27
    6848:	d8 a4       	ldd	r13, Y+40	; 0x28
    684a:	04 c0       	rjmp	.+8      	; 0x6854 <__udivdi3+0x13c>
    684c:	d6 94       	lsr	r13
    684e:	c7 94       	ror	r12
    6850:	b7 94       	ror	r11
    6852:	a7 94       	ror	r10
    6854:	6a 95       	dec	r22
    6856:	d2 f7       	brpl	.-12     	; 0x684c <__udivdi3+0x134>
    6858:	a2 2a       	or	r10, r18
    685a:	b3 2a       	or	r11, r19
    685c:	c4 2a       	or	r12, r20
    685e:	d5 2a       	or	r13, r21
    6860:	2d a0       	ldd	r2, Y+37	; 0x25
    6862:	3e a0       	ldd	r3, Y+38	; 0x26
    6864:	4f a0       	ldd	r4, Y+39	; 0x27
    6866:	58 a4       	ldd	r5, Y+40	; 0x28
    6868:	04 c0       	rjmp	.+8      	; 0x6872 <__udivdi3+0x15a>
    686a:	22 0c       	add	r2, r2
    686c:	33 1c       	adc	r3, r3
    686e:	44 1c       	adc	r4, r4
    6870:	55 1c       	adc	r5, r5
    6872:	8a 95       	dec	r24
    6874:	d2 f7       	brpl	.-12     	; 0x686a <__udivdi3+0x152>
    6876:	2d a2       	std	Y+37, r2	; 0x25
    6878:	3e a2       	std	Y+38, r3	; 0x26
    687a:	4f a2       	std	Y+39, r4	; 0x27
    687c:	58 a6       	std	Y+40, r5	; 0x28
    687e:	38 01       	movw	r6, r16
    6880:	88 24       	eor	r8, r8
    6882:	99 24       	eor	r9, r9
    6884:	a8 01       	movw	r20, r16
    6886:	97 01       	movw	r18, r14
    6888:	40 70       	andi	r20, 0x00	; 0
    688a:	50 70       	andi	r21, 0x00	; 0
    688c:	2d 8f       	std	Y+29, r18	; 0x1d
    688e:	3e 8f       	std	Y+30, r19	; 0x1e
    6890:	4f 8f       	std	Y+31, r20	; 0x1f
    6892:	58 a3       	std	Y+32, r21	; 0x20
    6894:	c6 01       	movw	r24, r12
    6896:	b5 01       	movw	r22, r10
    6898:	a4 01       	movw	r20, r8
    689a:	93 01       	movw	r18, r6
    689c:	0e 94 4e 41 	call	0x829c	; 0x829c <__udivmodsi4>
    68a0:	22 2e       	mov	r2, r18
    68a2:	53 2e       	mov	r5, r19
    68a4:	44 2e       	mov	r4, r20
    68a6:	35 2e       	mov	r3, r21
    68a8:	69 a3       	std	Y+33, r22	; 0x21
    68aa:	7a a3       	std	Y+34, r23	; 0x22
    68ac:	8b a3       	std	Y+35, r24	; 0x23
    68ae:	9c a3       	std	Y+36, r25	; 0x24
    68b0:	c6 01       	movw	r24, r12
    68b2:	b5 01       	movw	r22, r10
    68b4:	a4 01       	movw	r20, r8
    68b6:	93 01       	movw	r18, r6
    68b8:	0e 94 4e 41 	call	0x829c	; 0x829c <__udivmodsi4>
    68bc:	82 2d       	mov	r24, r2
    68be:	95 2d       	mov	r25, r5
    68c0:	a4 2d       	mov	r26, r4
    68c2:	b3 2d       	mov	r27, r3
    68c4:	89 8f       	std	Y+25, r24	; 0x19
    68c6:	9a 8f       	std	Y+26, r25	; 0x1a
    68c8:	ab 8f       	std	Y+27, r26	; 0x1b
    68ca:	bc 8f       	std	Y+28, r27	; 0x1c
    68cc:	bc 01       	movw	r22, r24
    68ce:	cd 01       	movw	r24, r26
    68d0:	2d 8d       	ldd	r18, Y+29	; 0x1d
    68d2:	3e 8d       	ldd	r19, Y+30	; 0x1e
    68d4:	4f 8d       	ldd	r20, Y+31	; 0x1f
    68d6:	58 a1       	ldd	r21, Y+32	; 0x20
    68d8:	0e 94 08 41 	call	0x8210	; 0x8210 <__mulsi3>
    68dc:	5b 01       	movw	r10, r22
    68de:	6c 01       	movw	r12, r24
    68e0:	49 a1       	ldd	r20, Y+33	; 0x21
    68e2:	5a a1       	ldd	r21, Y+34	; 0x22
    68e4:	6b a1       	ldd	r22, Y+35	; 0x23
    68e6:	7c a1       	ldd	r23, Y+36	; 0x24
    68e8:	da 01       	movw	r26, r20
    68ea:	99 27       	eor	r25, r25
    68ec:	88 27       	eor	r24, r24
    68ee:	2d a0       	ldd	r2, Y+37	; 0x25
    68f0:	3e a0       	ldd	r3, Y+38	; 0x26
    68f2:	4f a0       	ldd	r4, Y+39	; 0x27
    68f4:	58 a4       	ldd	r5, Y+40	; 0x28
    68f6:	92 01       	movw	r18, r4
    68f8:	44 27       	eor	r20, r20
    68fa:	55 27       	eor	r21, r21
    68fc:	82 2b       	or	r24, r18
    68fe:	93 2b       	or	r25, r19
    6900:	a4 2b       	or	r26, r20
    6902:	b5 2b       	or	r27, r21
    6904:	8a 15       	cp	r24, r10
    6906:	9b 05       	cpc	r25, r11
    6908:	ac 05       	cpc	r26, r12
    690a:	bd 05       	cpc	r27, r13
    690c:	30 f5       	brcc	.+76     	; 0x695a <__udivdi3+0x242>
    690e:	29 8d       	ldd	r18, Y+25	; 0x19
    6910:	3a 8d       	ldd	r19, Y+26	; 0x1a
    6912:	4b 8d       	ldd	r20, Y+27	; 0x1b
    6914:	5c 8d       	ldd	r21, Y+28	; 0x1c
    6916:	21 50       	subi	r18, 0x01	; 1
    6918:	30 40       	sbci	r19, 0x00	; 0
    691a:	40 40       	sbci	r20, 0x00	; 0
    691c:	50 40       	sbci	r21, 0x00	; 0
    691e:	29 8f       	std	Y+25, r18	; 0x19
    6920:	3a 8f       	std	Y+26, r19	; 0x1a
    6922:	4b 8f       	std	Y+27, r20	; 0x1b
    6924:	5c 8f       	std	Y+28, r21	; 0x1c
    6926:	8e 0d       	add	r24, r14
    6928:	9f 1d       	adc	r25, r15
    692a:	a0 1f       	adc	r26, r16
    692c:	b1 1f       	adc	r27, r17
    692e:	8e 15       	cp	r24, r14
    6930:	9f 05       	cpc	r25, r15
    6932:	a0 07       	cpc	r26, r16
    6934:	b1 07       	cpc	r27, r17
    6936:	88 f0       	brcs	.+34     	; 0x695a <__udivdi3+0x242>
    6938:	8a 15       	cp	r24, r10
    693a:	9b 05       	cpc	r25, r11
    693c:	ac 05       	cpc	r26, r12
    693e:	bd 05       	cpc	r27, r13
    6940:	60 f4       	brcc	.+24     	; 0x695a <__udivdi3+0x242>
    6942:	21 50       	subi	r18, 0x01	; 1
    6944:	30 40       	sbci	r19, 0x00	; 0
    6946:	40 40       	sbci	r20, 0x00	; 0
    6948:	50 40       	sbci	r21, 0x00	; 0
    694a:	29 8f       	std	Y+25, r18	; 0x19
    694c:	3a 8f       	std	Y+26, r19	; 0x1a
    694e:	4b 8f       	std	Y+27, r20	; 0x1b
    6950:	5c 8f       	std	Y+28, r21	; 0x1c
    6952:	8e 0d       	add	r24, r14
    6954:	9f 1d       	adc	r25, r15
    6956:	a0 1f       	adc	r26, r16
    6958:	b1 1f       	adc	r27, r17
    695a:	ac 01       	movw	r20, r24
    695c:	bd 01       	movw	r22, r26
    695e:	4a 19       	sub	r20, r10
    6960:	5b 09       	sbc	r21, r11
    6962:	6c 09       	sbc	r22, r12
    6964:	7d 09       	sbc	r23, r13
    6966:	5a 01       	movw	r10, r20
    6968:	6b 01       	movw	r12, r22
    696a:	cb 01       	movw	r24, r22
    696c:	ba 01       	movw	r22, r20
    696e:	a4 01       	movw	r20, r8
    6970:	93 01       	movw	r18, r6
    6972:	0e 94 4e 41 	call	0x829c	; 0x829c <__udivmodsi4>
    6976:	22 2e       	mov	r2, r18
    6978:	53 2e       	mov	r5, r19
    697a:	44 2e       	mov	r4, r20
    697c:	35 2e       	mov	r3, r21
    697e:	69 a3       	std	Y+33, r22	; 0x21
    6980:	7a a3       	std	Y+34, r23	; 0x22
    6982:	8b a3       	std	Y+35, r24	; 0x23
    6984:	9c a3       	std	Y+36, r25	; 0x24
    6986:	c6 01       	movw	r24, r12
    6988:	b5 01       	movw	r22, r10
    698a:	a4 01       	movw	r20, r8
    698c:	93 01       	movw	r18, r6
    698e:	0e 94 4e 41 	call	0x829c	; 0x829c <__udivmodsi4>
    6992:	a2 2c       	mov	r10, r2
    6994:	b5 2c       	mov	r11, r5
    6996:	c4 2c       	mov	r12, r4
    6998:	d3 2c       	mov	r13, r3
    699a:	c6 01       	movw	r24, r12
    699c:	b5 01       	movw	r22, r10
    699e:	2d 8d       	ldd	r18, Y+29	; 0x1d
    69a0:	3e 8d       	ldd	r19, Y+30	; 0x1e
    69a2:	4f 8d       	ldd	r20, Y+31	; 0x1f
    69a4:	58 a1       	ldd	r21, Y+32	; 0x20
    69a6:	0e 94 08 41 	call	0x8210	; 0x8210 <__mulsi3>
    69aa:	3b 01       	movw	r6, r22
    69ac:	4c 01       	movw	r8, r24
    69ae:	69 a1       	ldd	r22, Y+33	; 0x21
    69b0:	7a a1       	ldd	r23, Y+34	; 0x22
    69b2:	8b a1       	ldd	r24, Y+35	; 0x23
    69b4:	9c a1       	ldd	r25, Y+36	; 0x24
    69b6:	ab 01       	movw	r20, r22
    69b8:	33 27       	eor	r19, r19
    69ba:	22 27       	eor	r18, r18
    69bc:	8d a1       	ldd	r24, Y+37	; 0x25
    69be:	9e a1       	ldd	r25, Y+38	; 0x26
    69c0:	af a1       	ldd	r26, Y+39	; 0x27
    69c2:	b8 a5       	ldd	r27, Y+40	; 0x28
    69c4:	a0 70       	andi	r26, 0x00	; 0
    69c6:	b0 70       	andi	r27, 0x00	; 0
    69c8:	28 2b       	or	r18, r24
    69ca:	39 2b       	or	r19, r25
    69cc:	4a 2b       	or	r20, r26
    69ce:	5b 2b       	or	r21, r27
    69d0:	26 15       	cp	r18, r6
    69d2:	37 05       	cpc	r19, r7
    69d4:	48 05       	cpc	r20, r8
    69d6:	59 05       	cpc	r21, r9
    69d8:	c0 f4       	brcc	.+48     	; 0x6a0a <__udivdi3+0x2f2>
    69da:	08 94       	sec
    69dc:	a1 08       	sbc	r10, r1
    69de:	b1 08       	sbc	r11, r1
    69e0:	c1 08       	sbc	r12, r1
    69e2:	d1 08       	sbc	r13, r1
    69e4:	2e 0d       	add	r18, r14
    69e6:	3f 1d       	adc	r19, r15
    69e8:	40 1f       	adc	r20, r16
    69ea:	51 1f       	adc	r21, r17
    69ec:	2e 15       	cp	r18, r14
    69ee:	3f 05       	cpc	r19, r15
    69f0:	40 07       	cpc	r20, r16
    69f2:	51 07       	cpc	r21, r17
    69f4:	50 f0       	brcs	.+20     	; 0x6a0a <__udivdi3+0x2f2>
    69f6:	26 15       	cp	r18, r6
    69f8:	37 05       	cpc	r19, r7
    69fa:	48 05       	cpc	r20, r8
    69fc:	59 05       	cpc	r21, r9
    69fe:	28 f4       	brcc	.+10     	; 0x6a0a <__udivdi3+0x2f2>
    6a00:	08 94       	sec
    6a02:	a1 08       	sbc	r10, r1
    6a04:	b1 08       	sbc	r11, r1
    6a06:	c1 08       	sbc	r12, r1
    6a08:	d1 08       	sbc	r13, r1
    6a0a:	89 8d       	ldd	r24, Y+25	; 0x19
    6a0c:	9a 8d       	ldd	r25, Y+26	; 0x1a
    6a0e:	ab 8d       	ldd	r26, Y+27	; 0x1b
    6a10:	bc 8d       	ldd	r27, Y+28	; 0x1c
    6a12:	8c 01       	movw	r16, r24
    6a14:	ff 24       	eor	r15, r15
    6a16:	ee 24       	eor	r14, r14
    6a18:	ea 28       	or	r14, r10
    6a1a:	fb 28       	or	r15, r11
    6a1c:	0c 29       	or	r16, r12
    6a1e:	1d 29       	or	r17, r13
    6a20:	b3 c4       	rjmp	.+2406   	; 0x7388 <__udivdi3+0xc70>
    6a22:	e1 14       	cp	r14, r1
    6a24:	f1 04       	cpc	r15, r1
    6a26:	01 05       	cpc	r16, r1
    6a28:	11 05       	cpc	r17, r1
    6a2a:	59 f4       	brne	.+22     	; 0x6a42 <__udivdi3+0x32a>
    6a2c:	61 e0       	ldi	r22, 0x01	; 1
    6a2e:	70 e0       	ldi	r23, 0x00	; 0
    6a30:	80 e0       	ldi	r24, 0x00	; 0
    6a32:	90 e0       	ldi	r25, 0x00	; 0
    6a34:	a8 01       	movw	r20, r16
    6a36:	97 01       	movw	r18, r14
    6a38:	0e 94 4e 41 	call	0x829c	; 0x829c <__udivmodsi4>
    6a3c:	79 01       	movw	r14, r18
    6a3e:	8a 01       	movw	r16, r20
    6a40:	10 c0       	rjmp	.+32     	; 0x6a62 <__udivdi3+0x34a>
    6a42:	90 e0       	ldi	r25, 0x00	; 0
    6a44:	e9 16       	cp	r14, r25
    6a46:	90 e0       	ldi	r25, 0x00	; 0
    6a48:	f9 06       	cpc	r15, r25
    6a4a:	91 e0       	ldi	r25, 0x01	; 1
    6a4c:	09 07       	cpc	r16, r25
    6a4e:	90 e0       	ldi	r25, 0x00	; 0
    6a50:	19 07       	cpc	r17, r25
    6a52:	58 f4       	brcc	.+22     	; 0x6a6a <__udivdi3+0x352>
    6a54:	af ef       	ldi	r26, 0xFF	; 255
    6a56:	ea 16       	cp	r14, r26
    6a58:	f1 04       	cpc	r15, r1
    6a5a:	01 05       	cpc	r16, r1
    6a5c:	11 05       	cpc	r17, r1
    6a5e:	09 f0       	breq	.+2      	; 0x6a62 <__udivdi3+0x34a>
    6a60:	90 f4       	brcc	.+36     	; 0x6a86 <__udivdi3+0x36e>
    6a62:	20 e0       	ldi	r18, 0x00	; 0
    6a64:	30 e0       	ldi	r19, 0x00	; 0
    6a66:	a9 01       	movw	r20, r18
    6a68:	17 c0       	rjmp	.+46     	; 0x6a98 <__udivdi3+0x380>
    6a6a:	b0 e0       	ldi	r27, 0x00	; 0
    6a6c:	eb 16       	cp	r14, r27
    6a6e:	b0 e0       	ldi	r27, 0x00	; 0
    6a70:	fb 06       	cpc	r15, r27
    6a72:	b0 e0       	ldi	r27, 0x00	; 0
    6a74:	0b 07       	cpc	r16, r27
    6a76:	b1 e0       	ldi	r27, 0x01	; 1
    6a78:	1b 07       	cpc	r17, r27
    6a7a:	50 f4       	brcc	.+20     	; 0x6a90 <__udivdi3+0x378>
    6a7c:	20 e1       	ldi	r18, 0x10	; 16
    6a7e:	30 e0       	ldi	r19, 0x00	; 0
    6a80:	40 e0       	ldi	r20, 0x00	; 0
    6a82:	50 e0       	ldi	r21, 0x00	; 0
    6a84:	09 c0       	rjmp	.+18     	; 0x6a98 <__udivdi3+0x380>
    6a86:	28 e0       	ldi	r18, 0x08	; 8
    6a88:	30 e0       	ldi	r19, 0x00	; 0
    6a8a:	40 e0       	ldi	r20, 0x00	; 0
    6a8c:	50 e0       	ldi	r21, 0x00	; 0
    6a8e:	04 c0       	rjmp	.+8      	; 0x6a98 <__udivdi3+0x380>
    6a90:	28 e1       	ldi	r18, 0x18	; 24
    6a92:	30 e0       	ldi	r19, 0x00	; 0
    6a94:	40 e0       	ldi	r20, 0x00	; 0
    6a96:	50 e0       	ldi	r21, 0x00	; 0
    6a98:	d8 01       	movw	r26, r16
    6a9a:	c7 01       	movw	r24, r14
    6a9c:	02 2e       	mov	r0, r18
    6a9e:	04 c0       	rjmp	.+8      	; 0x6aa8 <__udivdi3+0x390>
    6aa0:	b6 95       	lsr	r27
    6aa2:	a7 95       	ror	r26
    6aa4:	97 95       	ror	r25
    6aa6:	87 95       	ror	r24
    6aa8:	0a 94       	dec	r0
    6aaa:	d2 f7       	brpl	.-12     	; 0x6aa0 <__udivdi3+0x388>
    6aac:	86 52       	subi	r24, 0x26	; 38
    6aae:	9d 4f       	sbci	r25, 0xFD	; 253
    6ab0:	fc 01       	movw	r30, r24
    6ab2:	80 81       	ld	r24, Z
    6ab4:	28 0f       	add	r18, r24
    6ab6:	31 1d       	adc	r19, r1
    6ab8:	41 1d       	adc	r20, r1
    6aba:	51 1d       	adc	r21, r1
    6abc:	80 e2       	ldi	r24, 0x20	; 32
    6abe:	90 e0       	ldi	r25, 0x00	; 0
    6ac0:	a0 e0       	ldi	r26, 0x00	; 0
    6ac2:	b0 e0       	ldi	r27, 0x00	; 0
    6ac4:	82 1b       	sub	r24, r18
    6ac6:	93 0b       	sbc	r25, r19
    6ac8:	a4 0b       	sbc	r26, r20
    6aca:	b5 0b       	sbc	r27, r21
    6acc:	61 f4       	brne	.+24     	; 0x6ae6 <__udivdi3+0x3ce>
    6ace:	15 01       	movw	r2, r10
    6ad0:	26 01       	movw	r4, r12
    6ad2:	2e 18       	sub	r2, r14
    6ad4:	3f 08       	sbc	r3, r15
    6ad6:	40 0a       	sbc	r4, r16
    6ad8:	51 0a       	sbc	r5, r17
    6ada:	81 e0       	ldi	r24, 0x01	; 1
    6adc:	a8 2e       	mov	r10, r24
    6ade:	b1 2c       	mov	r11, r1
    6ae0:	c1 2c       	mov	r12, r1
    6ae2:	d1 2c       	mov	r13, r1
    6ae4:	29 c1       	rjmp	.+594    	; 0x6d38 <__udivdi3+0x620>
    6ae6:	08 2e       	mov	r0, r24
    6ae8:	04 c0       	rjmp	.+8      	; 0x6af2 <__udivdi3+0x3da>
    6aea:	ee 0c       	add	r14, r14
    6aec:	ff 1c       	adc	r15, r15
    6aee:	00 1f       	adc	r16, r16
    6af0:	11 1f       	adc	r17, r17
    6af2:	0a 94       	dec	r0
    6af4:	d2 f7       	brpl	.-12     	; 0x6aea <__udivdi3+0x3d2>
    6af6:	15 01       	movw	r2, r10
    6af8:	26 01       	movw	r4, r12
    6afa:	02 2e       	mov	r0, r18
    6afc:	04 c0       	rjmp	.+8      	; 0x6b06 <__udivdi3+0x3ee>
    6afe:	56 94       	lsr	r5
    6b00:	47 94       	ror	r4
    6b02:	37 94       	ror	r3
    6b04:	27 94       	ror	r2
    6b06:	0a 94       	dec	r0
    6b08:	d2 f7       	brpl	.-12     	; 0x6afe <__udivdi3+0x3e6>
    6b0a:	29 8e       	std	Y+25, r2	; 0x19
    6b0c:	3a 8e       	std	Y+26, r3	; 0x1a
    6b0e:	4b 8e       	std	Y+27, r4	; 0x1b
    6b10:	5c 8e       	std	Y+28, r5	; 0x1c
    6b12:	b6 01       	movw	r22, r12
    6b14:	a5 01       	movw	r20, r10
    6b16:	08 2e       	mov	r0, r24
    6b18:	04 c0       	rjmp	.+8      	; 0x6b22 <__udivdi3+0x40a>
    6b1a:	44 0f       	add	r20, r20
    6b1c:	55 1f       	adc	r21, r21
    6b1e:	66 1f       	adc	r22, r22
    6b20:	77 1f       	adc	r23, r23
    6b22:	0a 94       	dec	r0
    6b24:	d2 f7       	brpl	.-12     	; 0x6b1a <__udivdi3+0x402>
    6b26:	4d 8f       	std	Y+29, r20	; 0x1d
    6b28:	5e 8f       	std	Y+30, r21	; 0x1e
    6b2a:	6f 8f       	std	Y+31, r22	; 0x1f
    6b2c:	78 a3       	std	Y+32, r23	; 0x20
    6b2e:	2d a0       	ldd	r2, Y+37	; 0x25
    6b30:	3e a0       	ldd	r3, Y+38	; 0x26
    6b32:	4f a0       	ldd	r4, Y+39	; 0x27
    6b34:	58 a4       	ldd	r5, Y+40	; 0x28
    6b36:	04 c0       	rjmp	.+8      	; 0x6b40 <__udivdi3+0x428>
    6b38:	56 94       	lsr	r5
    6b3a:	47 94       	ror	r4
    6b3c:	37 94       	ror	r3
    6b3e:	27 94       	ror	r2
    6b40:	2a 95       	dec	r18
    6b42:	d2 f7       	brpl	.-12     	; 0x6b38 <__udivdi3+0x420>
    6b44:	ad 8c       	ldd	r10, Y+29	; 0x1d
    6b46:	be 8c       	ldd	r11, Y+30	; 0x1e
    6b48:	cf 8c       	ldd	r12, Y+31	; 0x1f
    6b4a:	d8 a0       	ldd	r13, Y+32	; 0x20
    6b4c:	a2 28       	or	r10, r2
    6b4e:	b3 28       	or	r11, r3
    6b50:	c4 28       	or	r12, r4
    6b52:	d5 28       	or	r13, r5
    6b54:	ad 8e       	std	Y+29, r10	; 0x1d
    6b56:	be 8e       	std	Y+30, r11	; 0x1e
    6b58:	cf 8e       	std	Y+31, r12	; 0x1f
    6b5a:	d8 a2       	std	Y+32, r13	; 0x20
    6b5c:	2d a1       	ldd	r18, Y+37	; 0x25
    6b5e:	3e a1       	ldd	r19, Y+38	; 0x26
    6b60:	4f a1       	ldd	r20, Y+39	; 0x27
    6b62:	58 a5       	ldd	r21, Y+40	; 0x28
    6b64:	04 c0       	rjmp	.+8      	; 0x6b6e <__udivdi3+0x456>
    6b66:	22 0f       	add	r18, r18
    6b68:	33 1f       	adc	r19, r19
    6b6a:	44 1f       	adc	r20, r20
    6b6c:	55 1f       	adc	r21, r21
    6b6e:	8a 95       	dec	r24
    6b70:	d2 f7       	brpl	.-12     	; 0x6b66 <__udivdi3+0x44e>
    6b72:	2d a3       	std	Y+37, r18	; 0x25
    6b74:	3e a3       	std	Y+38, r19	; 0x26
    6b76:	4f a3       	std	Y+39, r20	; 0x27
    6b78:	58 a7       	std	Y+40, r21	; 0x28
    6b7a:	38 01       	movw	r6, r16
    6b7c:	88 24       	eor	r8, r8
    6b7e:	99 24       	eor	r9, r9
    6b80:	b8 01       	movw	r22, r16
    6b82:	a7 01       	movw	r20, r14
    6b84:	60 70       	andi	r22, 0x00	; 0
    6b86:	70 70       	andi	r23, 0x00	; 0
    6b88:	49 a3       	std	Y+33, r20	; 0x21
    6b8a:	5a a3       	std	Y+34, r21	; 0x22
    6b8c:	6b a3       	std	Y+35, r22	; 0x23
    6b8e:	7c a3       	std	Y+36, r23	; 0x24
    6b90:	69 8d       	ldd	r22, Y+25	; 0x19
    6b92:	7a 8d       	ldd	r23, Y+26	; 0x1a
    6b94:	8b 8d       	ldd	r24, Y+27	; 0x1b
    6b96:	9c 8d       	ldd	r25, Y+28	; 0x1c
    6b98:	a4 01       	movw	r20, r8
    6b9a:	93 01       	movw	r18, r6
    6b9c:	0e 94 4e 41 	call	0x829c	; 0x829c <__udivmodsi4>
    6ba0:	22 2e       	mov	r2, r18
    6ba2:	53 2e       	mov	r5, r19
    6ba4:	44 2e       	mov	r4, r20
    6ba6:	35 2e       	mov	r3, r21
    6ba8:	69 a7       	std	Y+41, r22	; 0x29
    6baa:	7a a7       	std	Y+42, r23	; 0x2a
    6bac:	8b a7       	std	Y+43, r24	; 0x2b
    6bae:	9c a7       	std	Y+44, r25	; 0x2c
    6bb0:	69 8d       	ldd	r22, Y+25	; 0x19
    6bb2:	7a 8d       	ldd	r23, Y+26	; 0x1a
    6bb4:	8b 8d       	ldd	r24, Y+27	; 0x1b
    6bb6:	9c 8d       	ldd	r25, Y+28	; 0x1c
    6bb8:	a4 01       	movw	r20, r8
    6bba:	93 01       	movw	r18, r6
    6bbc:	0e 94 4e 41 	call	0x829c	; 0x829c <__udivmodsi4>
    6bc0:	a2 2c       	mov	r10, r2
    6bc2:	b5 2c       	mov	r11, r5
    6bc4:	c4 2c       	mov	r12, r4
    6bc6:	d3 2c       	mov	r13, r3
    6bc8:	a9 8e       	std	Y+25, r10	; 0x19
    6bca:	ba 8e       	std	Y+26, r11	; 0x1a
    6bcc:	cb 8e       	std	Y+27, r12	; 0x1b
    6bce:	dc 8e       	std	Y+28, r13	; 0x1c
    6bd0:	c6 01       	movw	r24, r12
    6bd2:	b5 01       	movw	r22, r10
    6bd4:	29 a1       	ldd	r18, Y+33	; 0x21
    6bd6:	3a a1       	ldd	r19, Y+34	; 0x22
    6bd8:	4b a1       	ldd	r20, Y+35	; 0x23
    6bda:	5c a1       	ldd	r21, Y+36	; 0x24
    6bdc:	0e 94 08 41 	call	0x8210	; 0x8210 <__mulsi3>
    6be0:	5b 01       	movw	r10, r22
    6be2:	6c 01       	movw	r12, r24
    6be4:	29 a4       	ldd	r2, Y+41	; 0x29
    6be6:	3a a4       	ldd	r3, Y+42	; 0x2a
    6be8:	4b a4       	ldd	r4, Y+43	; 0x2b
    6bea:	5c a4       	ldd	r5, Y+44	; 0x2c
    6bec:	d1 01       	movw	r26, r2
    6bee:	99 27       	eor	r25, r25
    6bf0:	88 27       	eor	r24, r24
    6bf2:	2d 8c       	ldd	r2, Y+29	; 0x1d
    6bf4:	3e 8c       	ldd	r3, Y+30	; 0x1e
    6bf6:	4f 8c       	ldd	r4, Y+31	; 0x1f
    6bf8:	58 a0       	ldd	r5, Y+32	; 0x20
    6bfa:	92 01       	movw	r18, r4
    6bfc:	44 27       	eor	r20, r20
    6bfe:	55 27       	eor	r21, r21
    6c00:	82 2b       	or	r24, r18
    6c02:	93 2b       	or	r25, r19
    6c04:	a4 2b       	or	r26, r20
    6c06:	b5 2b       	or	r27, r21
    6c08:	8a 15       	cp	r24, r10
    6c0a:	9b 05       	cpc	r25, r11
    6c0c:	ac 05       	cpc	r26, r12
    6c0e:	bd 05       	cpc	r27, r13
    6c10:	30 f5       	brcc	.+76     	; 0x6c5e <__udivdi3+0x546>
    6c12:	29 8d       	ldd	r18, Y+25	; 0x19
    6c14:	3a 8d       	ldd	r19, Y+26	; 0x1a
    6c16:	4b 8d       	ldd	r20, Y+27	; 0x1b
    6c18:	5c 8d       	ldd	r21, Y+28	; 0x1c
    6c1a:	21 50       	subi	r18, 0x01	; 1
    6c1c:	30 40       	sbci	r19, 0x00	; 0
    6c1e:	40 40       	sbci	r20, 0x00	; 0
    6c20:	50 40       	sbci	r21, 0x00	; 0
    6c22:	29 8f       	std	Y+25, r18	; 0x19
    6c24:	3a 8f       	std	Y+26, r19	; 0x1a
    6c26:	4b 8f       	std	Y+27, r20	; 0x1b
    6c28:	5c 8f       	std	Y+28, r21	; 0x1c
    6c2a:	8e 0d       	add	r24, r14
    6c2c:	9f 1d       	adc	r25, r15
    6c2e:	a0 1f       	adc	r26, r16
    6c30:	b1 1f       	adc	r27, r17
    6c32:	8e 15       	cp	r24, r14
    6c34:	9f 05       	cpc	r25, r15
    6c36:	a0 07       	cpc	r26, r16
    6c38:	b1 07       	cpc	r27, r17
    6c3a:	88 f0       	brcs	.+34     	; 0x6c5e <__udivdi3+0x546>
    6c3c:	8a 15       	cp	r24, r10
    6c3e:	9b 05       	cpc	r25, r11
    6c40:	ac 05       	cpc	r26, r12
    6c42:	bd 05       	cpc	r27, r13
    6c44:	60 f4       	brcc	.+24     	; 0x6c5e <__udivdi3+0x546>
    6c46:	21 50       	subi	r18, 0x01	; 1
    6c48:	30 40       	sbci	r19, 0x00	; 0
    6c4a:	40 40       	sbci	r20, 0x00	; 0
    6c4c:	50 40       	sbci	r21, 0x00	; 0
    6c4e:	29 8f       	std	Y+25, r18	; 0x19
    6c50:	3a 8f       	std	Y+26, r19	; 0x1a
    6c52:	4b 8f       	std	Y+27, r20	; 0x1b
    6c54:	5c 8f       	std	Y+28, r21	; 0x1c
    6c56:	8e 0d       	add	r24, r14
    6c58:	9f 1d       	adc	r25, r15
    6c5a:	a0 1f       	adc	r26, r16
    6c5c:	b1 1f       	adc	r27, r17
    6c5e:	ac 01       	movw	r20, r24
    6c60:	bd 01       	movw	r22, r26
    6c62:	4a 19       	sub	r20, r10
    6c64:	5b 09       	sbc	r21, r11
    6c66:	6c 09       	sbc	r22, r12
    6c68:	7d 09       	sbc	r23, r13
    6c6a:	5a 01       	movw	r10, r20
    6c6c:	6b 01       	movw	r12, r22
    6c6e:	cb 01       	movw	r24, r22
    6c70:	ba 01       	movw	r22, r20
    6c72:	a4 01       	movw	r20, r8
    6c74:	93 01       	movw	r18, r6
    6c76:	0e 94 4e 41 	call	0x829c	; 0x829c <__udivmodsi4>
    6c7a:	22 2e       	mov	r2, r18
    6c7c:	53 2e       	mov	r5, r19
    6c7e:	44 2e       	mov	r4, r20
    6c80:	35 2e       	mov	r3, r21
    6c82:	69 a7       	std	Y+41, r22	; 0x29
    6c84:	7a a7       	std	Y+42, r23	; 0x2a
    6c86:	8b a7       	std	Y+43, r24	; 0x2b
    6c88:	9c a7       	std	Y+44, r25	; 0x2c
    6c8a:	c6 01       	movw	r24, r12
    6c8c:	b5 01       	movw	r22, r10
    6c8e:	a4 01       	movw	r20, r8
    6c90:	93 01       	movw	r18, r6
    6c92:	0e 94 4e 41 	call	0x829c	; 0x829c <__udivmodsi4>
    6c96:	62 2c       	mov	r6, r2
    6c98:	75 2c       	mov	r7, r5
    6c9a:	84 2c       	mov	r8, r4
    6c9c:	93 2c       	mov	r9, r3
    6c9e:	c4 01       	movw	r24, r8
    6ca0:	b3 01       	movw	r22, r6
    6ca2:	29 a1       	ldd	r18, Y+33	; 0x21
    6ca4:	3a a1       	ldd	r19, Y+34	; 0x22
    6ca6:	4b a1       	ldd	r20, Y+35	; 0x23
    6ca8:	5c a1       	ldd	r21, Y+36	; 0x24
    6caa:	0e 94 08 41 	call	0x8210	; 0x8210 <__mulsi3>
    6cae:	9b 01       	movw	r18, r22
    6cb0:	ac 01       	movw	r20, r24
    6cb2:	69 a5       	ldd	r22, Y+41	; 0x29
    6cb4:	7a a5       	ldd	r23, Y+42	; 0x2a
    6cb6:	8b a5       	ldd	r24, Y+43	; 0x2b
    6cb8:	9c a5       	ldd	r25, Y+44	; 0x2c
    6cba:	6b 01       	movw	r12, r22
    6cbc:	bb 24       	eor	r11, r11
    6cbe:	aa 24       	eor	r10, r10
    6cc0:	8d 8d       	ldd	r24, Y+29	; 0x1d
    6cc2:	9e 8d       	ldd	r25, Y+30	; 0x1e
    6cc4:	af 8d       	ldd	r26, Y+31	; 0x1f
    6cc6:	b8 a1       	ldd	r27, Y+32	; 0x20
    6cc8:	a0 70       	andi	r26, 0x00	; 0
    6cca:	b0 70       	andi	r27, 0x00	; 0
    6ccc:	a8 2a       	or	r10, r24
    6cce:	b9 2a       	or	r11, r25
    6cd0:	ca 2a       	or	r12, r26
    6cd2:	db 2a       	or	r13, r27
    6cd4:	a2 16       	cp	r10, r18
    6cd6:	b3 06       	cpc	r11, r19
    6cd8:	c4 06       	cpc	r12, r20
    6cda:	d5 06       	cpc	r13, r21
    6cdc:	e0 f4       	brcc	.+56     	; 0x6d16 <__udivdi3+0x5fe>
    6cde:	08 94       	sec
    6ce0:	61 08       	sbc	r6, r1
    6ce2:	71 08       	sbc	r7, r1
    6ce4:	81 08       	sbc	r8, r1
    6ce6:	91 08       	sbc	r9, r1
    6ce8:	ae 0c       	add	r10, r14
    6cea:	bf 1c       	adc	r11, r15
    6cec:	c0 1e       	adc	r12, r16
    6cee:	d1 1e       	adc	r13, r17
    6cf0:	ae 14       	cp	r10, r14
    6cf2:	bf 04       	cpc	r11, r15
    6cf4:	c0 06       	cpc	r12, r16
    6cf6:	d1 06       	cpc	r13, r17
    6cf8:	70 f0       	brcs	.+28     	; 0x6d16 <__udivdi3+0x5fe>
    6cfa:	a2 16       	cp	r10, r18
    6cfc:	b3 06       	cpc	r11, r19
    6cfe:	c4 06       	cpc	r12, r20
    6d00:	d5 06       	cpc	r13, r21
    6d02:	48 f4       	brcc	.+18     	; 0x6d16 <__udivdi3+0x5fe>
    6d04:	08 94       	sec
    6d06:	61 08       	sbc	r6, r1
    6d08:	71 08       	sbc	r7, r1
    6d0a:	81 08       	sbc	r8, r1
    6d0c:	91 08       	sbc	r9, r1
    6d0e:	ae 0c       	add	r10, r14
    6d10:	bf 1c       	adc	r11, r15
    6d12:	c0 1e       	adc	r12, r16
    6d14:	d1 1e       	adc	r13, r17
    6d16:	15 01       	movw	r2, r10
    6d18:	26 01       	movw	r4, r12
    6d1a:	22 1a       	sub	r2, r18
    6d1c:	33 0a       	sbc	r3, r19
    6d1e:	44 0a       	sbc	r4, r20
    6d20:	55 0a       	sbc	r5, r21
    6d22:	89 8d       	ldd	r24, Y+25	; 0x19
    6d24:	9a 8d       	ldd	r25, Y+26	; 0x1a
    6d26:	ab 8d       	ldd	r26, Y+27	; 0x1b
    6d28:	bc 8d       	ldd	r27, Y+28	; 0x1c
    6d2a:	6c 01       	movw	r12, r24
    6d2c:	bb 24       	eor	r11, r11
    6d2e:	aa 24       	eor	r10, r10
    6d30:	a6 28       	or	r10, r6
    6d32:	b7 28       	or	r11, r7
    6d34:	c8 28       	or	r12, r8
    6d36:	d9 28       	or	r13, r9
    6d38:	98 01       	movw	r18, r16
    6d3a:	44 27       	eor	r20, r20
    6d3c:	55 27       	eor	r21, r21
    6d3e:	2d 8f       	std	Y+29, r18	; 0x1d
    6d40:	3e 8f       	std	Y+30, r19	; 0x1e
    6d42:	4f 8f       	std	Y+31, r20	; 0x1f
    6d44:	58 a3       	std	Y+32, r21	; 0x20
    6d46:	b8 01       	movw	r22, r16
    6d48:	a7 01       	movw	r20, r14
    6d4a:	60 70       	andi	r22, 0x00	; 0
    6d4c:	70 70       	andi	r23, 0x00	; 0
    6d4e:	49 a3       	std	Y+33, r20	; 0x21
    6d50:	5a a3       	std	Y+34, r21	; 0x22
    6d52:	6b a3       	std	Y+35, r22	; 0x23
    6d54:	7c a3       	std	Y+36, r23	; 0x24
    6d56:	c2 01       	movw	r24, r4
    6d58:	b1 01       	movw	r22, r2
    6d5a:	2d 8d       	ldd	r18, Y+29	; 0x1d
    6d5c:	3e 8d       	ldd	r19, Y+30	; 0x1e
    6d5e:	4f 8d       	ldd	r20, Y+31	; 0x1f
    6d60:	58 a1       	ldd	r21, Y+32	; 0x20
    6d62:	0e 94 4e 41 	call	0x829c	; 0x829c <__udivmodsi4>
    6d66:	62 2e       	mov	r6, r18
    6d68:	93 2e       	mov	r9, r19
    6d6a:	84 2e       	mov	r8, r20
    6d6c:	75 2e       	mov	r7, r21
    6d6e:	69 a7       	std	Y+41, r22	; 0x29
    6d70:	7a a7       	std	Y+42, r23	; 0x2a
    6d72:	8b a7       	std	Y+43, r24	; 0x2b
    6d74:	9c a7       	std	Y+44, r25	; 0x2c
    6d76:	c2 01       	movw	r24, r4
    6d78:	b1 01       	movw	r22, r2
    6d7a:	2d 8d       	ldd	r18, Y+29	; 0x1d
    6d7c:	3e 8d       	ldd	r19, Y+30	; 0x1e
    6d7e:	4f 8d       	ldd	r20, Y+31	; 0x1f
    6d80:	58 a1       	ldd	r21, Y+32	; 0x20
    6d82:	0e 94 4e 41 	call	0x829c	; 0x829c <__udivmodsi4>
    6d86:	86 2d       	mov	r24, r6
    6d88:	99 2d       	mov	r25, r9
    6d8a:	a8 2d       	mov	r26, r8
    6d8c:	b7 2d       	mov	r27, r7
    6d8e:	89 8f       	std	Y+25, r24	; 0x19
    6d90:	9a 8f       	std	Y+26, r25	; 0x1a
    6d92:	ab 8f       	std	Y+27, r26	; 0x1b
    6d94:	bc 8f       	std	Y+28, r27	; 0x1c
    6d96:	bc 01       	movw	r22, r24
    6d98:	cd 01       	movw	r24, r26
    6d9a:	29 a1       	ldd	r18, Y+33	; 0x21
    6d9c:	3a a1       	ldd	r19, Y+34	; 0x22
    6d9e:	4b a1       	ldd	r20, Y+35	; 0x23
    6da0:	5c a1       	ldd	r21, Y+36	; 0x24
    6da2:	0e 94 08 41 	call	0x8210	; 0x8210 <__mulsi3>
    6da6:	3b 01       	movw	r6, r22
    6da8:	4c 01       	movw	r8, r24
    6daa:	29 a4       	ldd	r2, Y+41	; 0x29
    6dac:	3a a4       	ldd	r3, Y+42	; 0x2a
    6dae:	4b a4       	ldd	r4, Y+43	; 0x2b
    6db0:	5c a4       	ldd	r5, Y+44	; 0x2c
    6db2:	d1 01       	movw	r26, r2
    6db4:	99 27       	eor	r25, r25
    6db6:	88 27       	eor	r24, r24
    6db8:	2d a0       	ldd	r2, Y+37	; 0x25
    6dba:	3e a0       	ldd	r3, Y+38	; 0x26
    6dbc:	4f a0       	ldd	r4, Y+39	; 0x27
    6dbe:	58 a4       	ldd	r5, Y+40	; 0x28
    6dc0:	92 01       	movw	r18, r4
    6dc2:	44 27       	eor	r20, r20
    6dc4:	55 27       	eor	r21, r21
    6dc6:	82 2b       	or	r24, r18
    6dc8:	93 2b       	or	r25, r19
    6dca:	a4 2b       	or	r26, r20
    6dcc:	b5 2b       	or	r27, r21
    6dce:	86 15       	cp	r24, r6
    6dd0:	97 05       	cpc	r25, r7
    6dd2:	a8 05       	cpc	r26, r8
    6dd4:	b9 05       	cpc	r27, r9
    6dd6:	30 f5       	brcc	.+76     	; 0x6e24 <__udivdi3+0x70c>
    6dd8:	29 8d       	ldd	r18, Y+25	; 0x19
    6dda:	3a 8d       	ldd	r19, Y+26	; 0x1a
    6ddc:	4b 8d       	ldd	r20, Y+27	; 0x1b
    6dde:	5c 8d       	ldd	r21, Y+28	; 0x1c
    6de0:	21 50       	subi	r18, 0x01	; 1
    6de2:	30 40       	sbci	r19, 0x00	; 0
    6de4:	40 40       	sbci	r20, 0x00	; 0
    6de6:	50 40       	sbci	r21, 0x00	; 0
    6de8:	29 8f       	std	Y+25, r18	; 0x19
    6dea:	3a 8f       	std	Y+26, r19	; 0x1a
    6dec:	4b 8f       	std	Y+27, r20	; 0x1b
    6dee:	5c 8f       	std	Y+28, r21	; 0x1c
    6df0:	8e 0d       	add	r24, r14
    6df2:	9f 1d       	adc	r25, r15
    6df4:	a0 1f       	adc	r26, r16
    6df6:	b1 1f       	adc	r27, r17
    6df8:	8e 15       	cp	r24, r14
    6dfa:	9f 05       	cpc	r25, r15
    6dfc:	a0 07       	cpc	r26, r16
    6dfe:	b1 07       	cpc	r27, r17
    6e00:	88 f0       	brcs	.+34     	; 0x6e24 <__udivdi3+0x70c>
    6e02:	86 15       	cp	r24, r6
    6e04:	97 05       	cpc	r25, r7
    6e06:	a8 05       	cpc	r26, r8
    6e08:	b9 05       	cpc	r27, r9
    6e0a:	60 f4       	brcc	.+24     	; 0x6e24 <__udivdi3+0x70c>
    6e0c:	21 50       	subi	r18, 0x01	; 1
    6e0e:	30 40       	sbci	r19, 0x00	; 0
    6e10:	40 40       	sbci	r20, 0x00	; 0
    6e12:	50 40       	sbci	r21, 0x00	; 0
    6e14:	29 8f       	std	Y+25, r18	; 0x19
    6e16:	3a 8f       	std	Y+26, r19	; 0x1a
    6e18:	4b 8f       	std	Y+27, r20	; 0x1b
    6e1a:	5c 8f       	std	Y+28, r21	; 0x1c
    6e1c:	8e 0d       	add	r24, r14
    6e1e:	9f 1d       	adc	r25, r15
    6e20:	a0 1f       	adc	r26, r16
    6e22:	b1 1f       	adc	r27, r17
    6e24:	ac 01       	movw	r20, r24
    6e26:	bd 01       	movw	r22, r26
    6e28:	46 19       	sub	r20, r6
    6e2a:	57 09       	sbc	r21, r7
    6e2c:	68 09       	sbc	r22, r8
    6e2e:	79 09       	sbc	r23, r9
    6e30:	3a 01       	movw	r6, r20
    6e32:	4b 01       	movw	r8, r22
    6e34:	cb 01       	movw	r24, r22
    6e36:	ba 01       	movw	r22, r20
    6e38:	2d 8d       	ldd	r18, Y+29	; 0x1d
    6e3a:	3e 8d       	ldd	r19, Y+30	; 0x1e
    6e3c:	4f 8d       	ldd	r20, Y+31	; 0x1f
    6e3e:	58 a1       	ldd	r21, Y+32	; 0x20
    6e40:	0e 94 4e 41 	call	0x829c	; 0x829c <__udivmodsi4>
    6e44:	52 2e       	mov	r5, r18
    6e46:	43 2e       	mov	r4, r19
    6e48:	34 2e       	mov	r3, r20
    6e4a:	25 2e       	mov	r2, r21
    6e4c:	69 a7       	std	Y+41, r22	; 0x29
    6e4e:	7a a7       	std	Y+42, r23	; 0x2a
    6e50:	8b a7       	std	Y+43, r24	; 0x2b
    6e52:	9c a7       	std	Y+44, r25	; 0x2c
    6e54:	c4 01       	movw	r24, r8
    6e56:	b3 01       	movw	r22, r6
    6e58:	2d 8d       	ldd	r18, Y+29	; 0x1d
    6e5a:	3e 8d       	ldd	r19, Y+30	; 0x1e
    6e5c:	4f 8d       	ldd	r20, Y+31	; 0x1f
    6e5e:	58 a1       	ldd	r21, Y+32	; 0x20
    6e60:	0e 94 4e 41 	call	0x829c	; 0x829c <__udivmodsi4>
    6e64:	65 2c       	mov	r6, r5
    6e66:	74 2c       	mov	r7, r4
    6e68:	83 2c       	mov	r8, r3
    6e6a:	92 2c       	mov	r9, r2
    6e6c:	c4 01       	movw	r24, r8
    6e6e:	b3 01       	movw	r22, r6
    6e70:	29 a1       	ldd	r18, Y+33	; 0x21
    6e72:	3a a1       	ldd	r19, Y+34	; 0x22
    6e74:	4b a1       	ldd	r20, Y+35	; 0x23
    6e76:	5c a1       	ldd	r21, Y+36	; 0x24
    6e78:	0e 94 08 41 	call	0x8210	; 0x8210 <__mulsi3>
    6e7c:	1b 01       	movw	r2, r22
    6e7e:	2c 01       	movw	r4, r24
    6e80:	69 a5       	ldd	r22, Y+41	; 0x29
    6e82:	7a a5       	ldd	r23, Y+42	; 0x2a
    6e84:	8b a5       	ldd	r24, Y+43	; 0x2b
    6e86:	9c a5       	ldd	r25, Y+44	; 0x2c
    6e88:	ab 01       	movw	r20, r22
    6e8a:	33 27       	eor	r19, r19
    6e8c:	22 27       	eor	r18, r18
    6e8e:	8d a1       	ldd	r24, Y+37	; 0x25
    6e90:	9e a1       	ldd	r25, Y+38	; 0x26
    6e92:	af a1       	ldd	r26, Y+39	; 0x27
    6e94:	b8 a5       	ldd	r27, Y+40	; 0x28
    6e96:	a0 70       	andi	r26, 0x00	; 0
    6e98:	b0 70       	andi	r27, 0x00	; 0
    6e9a:	28 2b       	or	r18, r24
    6e9c:	39 2b       	or	r19, r25
    6e9e:	4a 2b       	or	r20, r26
    6ea0:	5b 2b       	or	r21, r27
    6ea2:	22 15       	cp	r18, r2
    6ea4:	33 05       	cpc	r19, r3
    6ea6:	44 05       	cpc	r20, r4
    6ea8:	55 05       	cpc	r21, r5
    6eaa:	c0 f4       	brcc	.+48     	; 0x6edc <__udivdi3+0x7c4>
    6eac:	08 94       	sec
    6eae:	61 08       	sbc	r6, r1
    6eb0:	71 08       	sbc	r7, r1
    6eb2:	81 08       	sbc	r8, r1
    6eb4:	91 08       	sbc	r9, r1
    6eb6:	2e 0d       	add	r18, r14
    6eb8:	3f 1d       	adc	r19, r15
    6eba:	40 1f       	adc	r20, r16
    6ebc:	51 1f       	adc	r21, r17
    6ebe:	2e 15       	cp	r18, r14
    6ec0:	3f 05       	cpc	r19, r15
    6ec2:	40 07       	cpc	r20, r16
    6ec4:	51 07       	cpc	r21, r17
    6ec6:	50 f0       	brcs	.+20     	; 0x6edc <__udivdi3+0x7c4>
    6ec8:	22 15       	cp	r18, r2
    6eca:	33 05       	cpc	r19, r3
    6ecc:	44 05       	cpc	r20, r4
    6ece:	55 05       	cpc	r21, r5
    6ed0:	28 f4       	brcc	.+10     	; 0x6edc <__udivdi3+0x7c4>
    6ed2:	08 94       	sec
    6ed4:	61 08       	sbc	r6, r1
    6ed6:	71 08       	sbc	r7, r1
    6ed8:	81 08       	sbc	r8, r1
    6eda:	91 08       	sbc	r9, r1
    6edc:	89 8d       	ldd	r24, Y+25	; 0x19
    6ede:	9a 8d       	ldd	r25, Y+26	; 0x1a
    6ee0:	ab 8d       	ldd	r26, Y+27	; 0x1b
    6ee2:	bc 8d       	ldd	r27, Y+28	; 0x1c
    6ee4:	8c 01       	movw	r16, r24
    6ee6:	ff 24       	eor	r15, r15
    6ee8:	ee 24       	eor	r14, r14
    6eea:	e6 28       	or	r14, r6
    6eec:	f7 28       	or	r15, r7
    6eee:	08 29       	or	r16, r8
    6ef0:	19 29       	or	r17, r9
    6ef2:	4d c2       	rjmp	.+1178   	; 0x738e <__udivdi3+0xc76>
    6ef4:	a2 16       	cp	r10, r18
    6ef6:	b3 06       	cpc	r11, r19
    6ef8:	c4 06       	cpc	r12, r20
    6efa:	d5 06       	cpc	r13, r21
    6efc:	08 f4       	brcc	.+2      	; 0x6f00 <__udivdi3+0x7e8>
    6efe:	34 c2       	rjmp	.+1128   	; 0x7368 <__udivdi3+0xc50>
    6f00:	20 30       	cpi	r18, 0x00	; 0
    6f02:	90 e0       	ldi	r25, 0x00	; 0
    6f04:	39 07       	cpc	r19, r25
    6f06:	91 e0       	ldi	r25, 0x01	; 1
    6f08:	49 07       	cpc	r20, r25
    6f0a:	90 e0       	ldi	r25, 0x00	; 0
    6f0c:	59 07       	cpc	r21, r25
    6f0e:	50 f4       	brcc	.+20     	; 0x6f24 <__udivdi3+0x80c>
    6f10:	2f 3f       	cpi	r18, 0xFF	; 255
    6f12:	31 05       	cpc	r19, r1
    6f14:	41 05       	cpc	r20, r1
    6f16:	51 05       	cpc	r21, r1
    6f18:	09 f0       	breq	.+2      	; 0x6f1c <__udivdi3+0x804>
    6f1a:	90 f4       	brcc	.+36     	; 0x6f40 <__udivdi3+0x828>
    6f1c:	66 24       	eor	r6, r6
    6f1e:	77 24       	eor	r7, r7
    6f20:	43 01       	movw	r8, r6
    6f22:	19 c0       	rjmp	.+50     	; 0x6f56 <__udivdi3+0x83e>
    6f24:	20 30       	cpi	r18, 0x00	; 0
    6f26:	a0 e0       	ldi	r26, 0x00	; 0
    6f28:	3a 07       	cpc	r19, r26
    6f2a:	a0 e0       	ldi	r26, 0x00	; 0
    6f2c:	4a 07       	cpc	r20, r26
    6f2e:	a1 e0       	ldi	r26, 0x01	; 1
    6f30:	5a 07       	cpc	r21, r26
    6f32:	60 f4       	brcc	.+24     	; 0x6f4c <__udivdi3+0x834>
    6f34:	90 e1       	ldi	r25, 0x10	; 16
    6f36:	69 2e       	mov	r6, r25
    6f38:	71 2c       	mov	r7, r1
    6f3a:	81 2c       	mov	r8, r1
    6f3c:	91 2c       	mov	r9, r1
    6f3e:	0b c0       	rjmp	.+22     	; 0x6f56 <__udivdi3+0x83e>
    6f40:	88 e0       	ldi	r24, 0x08	; 8
    6f42:	68 2e       	mov	r6, r24
    6f44:	71 2c       	mov	r7, r1
    6f46:	81 2c       	mov	r8, r1
    6f48:	91 2c       	mov	r9, r1
    6f4a:	05 c0       	rjmp	.+10     	; 0x6f56 <__udivdi3+0x83e>
    6f4c:	b8 e1       	ldi	r27, 0x18	; 24
    6f4e:	6b 2e       	mov	r6, r27
    6f50:	71 2c       	mov	r7, r1
    6f52:	81 2c       	mov	r8, r1
    6f54:	91 2c       	mov	r9, r1
    6f56:	da 01       	movw	r26, r20
    6f58:	c9 01       	movw	r24, r18
    6f5a:	06 2c       	mov	r0, r6
    6f5c:	04 c0       	rjmp	.+8      	; 0x6f66 <__udivdi3+0x84e>
    6f5e:	b6 95       	lsr	r27
    6f60:	a7 95       	ror	r26
    6f62:	97 95       	ror	r25
    6f64:	87 95       	ror	r24
    6f66:	0a 94       	dec	r0
    6f68:	d2 f7       	brpl	.-12     	; 0x6f5e <__udivdi3+0x846>
    6f6a:	86 52       	subi	r24, 0x26	; 38
    6f6c:	9d 4f       	sbci	r25, 0xFD	; 253
    6f6e:	fc 01       	movw	r30, r24
    6f70:	80 81       	ld	r24, Z
    6f72:	68 0e       	add	r6, r24
    6f74:	71 1c       	adc	r7, r1
    6f76:	81 1c       	adc	r8, r1
    6f78:	91 1c       	adc	r9, r1
    6f7a:	80 e2       	ldi	r24, 0x20	; 32
    6f7c:	90 e0       	ldi	r25, 0x00	; 0
    6f7e:	a0 e0       	ldi	r26, 0x00	; 0
    6f80:	b0 e0       	ldi	r27, 0x00	; 0
    6f82:	86 19       	sub	r24, r6
    6f84:	97 09       	sbc	r25, r7
    6f86:	a8 09       	sbc	r26, r8
    6f88:	b9 09       	sbc	r27, r9
    6f8a:	89 f4       	brne	.+34     	; 0x6fae <__udivdi3+0x896>
    6f8c:	2a 15       	cp	r18, r10
    6f8e:	3b 05       	cpc	r19, r11
    6f90:	4c 05       	cpc	r20, r12
    6f92:	5d 05       	cpc	r21, r13
    6f94:	08 f4       	brcc	.+2      	; 0x6f98 <__udivdi3+0x880>
    6f96:	ef c1       	rjmp	.+990    	; 0x7376 <__udivdi3+0xc5e>
    6f98:	2d a0       	ldd	r2, Y+37	; 0x25
    6f9a:	3e a0       	ldd	r3, Y+38	; 0x26
    6f9c:	4f a0       	ldd	r4, Y+39	; 0x27
    6f9e:	58 a4       	ldd	r5, Y+40	; 0x28
    6fa0:	2e 14       	cp	r2, r14
    6fa2:	3f 04       	cpc	r3, r15
    6fa4:	40 06       	cpc	r4, r16
    6fa6:	51 06       	cpc	r5, r17
    6fa8:	08 f0       	brcs	.+2      	; 0x6fac <__udivdi3+0x894>
    6faa:	e5 c1       	rjmp	.+970    	; 0x7376 <__udivdi3+0xc5e>
    6fac:	dd c1       	rjmp	.+954    	; 0x7368 <__udivdi3+0xc50>
    6fae:	89 a7       	std	Y+41, r24	; 0x29
    6fb0:	19 01       	movw	r2, r18
    6fb2:	2a 01       	movw	r4, r20
    6fb4:	04 c0       	rjmp	.+8      	; 0x6fbe <__udivdi3+0x8a6>
    6fb6:	22 0c       	add	r2, r2
    6fb8:	33 1c       	adc	r3, r3
    6fba:	44 1c       	adc	r4, r4
    6fbc:	55 1c       	adc	r5, r5
    6fbe:	8a 95       	dec	r24
    6fc0:	d2 f7       	brpl	.-12     	; 0x6fb6 <__udivdi3+0x89e>
    6fc2:	d8 01       	movw	r26, r16
    6fc4:	c7 01       	movw	r24, r14
    6fc6:	06 2c       	mov	r0, r6
    6fc8:	04 c0       	rjmp	.+8      	; 0x6fd2 <__udivdi3+0x8ba>
    6fca:	b6 95       	lsr	r27
    6fcc:	a7 95       	ror	r26
    6fce:	97 95       	ror	r25
    6fd0:	87 95       	ror	r24
    6fd2:	0a 94       	dec	r0
    6fd4:	d2 f7       	brpl	.-12     	; 0x6fca <__udivdi3+0x8b2>
    6fd6:	28 2a       	or	r2, r24
    6fd8:	39 2a       	or	r3, r25
    6fda:	4a 2a       	or	r4, r26
    6fdc:	5b 2a       	or	r5, r27
    6fde:	a8 01       	movw	r20, r16
    6fe0:	97 01       	movw	r18, r14
    6fe2:	09 a4       	ldd	r0, Y+41	; 0x29
    6fe4:	04 c0       	rjmp	.+8      	; 0x6fee <__udivdi3+0x8d6>
    6fe6:	22 0f       	add	r18, r18
    6fe8:	33 1f       	adc	r19, r19
    6fea:	44 1f       	adc	r20, r20
    6fec:	55 1f       	adc	r21, r21
    6fee:	0a 94       	dec	r0
    6ff0:	d2 f7       	brpl	.-12     	; 0x6fe6 <__udivdi3+0x8ce>
    6ff2:	29 ab       	std	Y+49, r18	; 0x31
    6ff4:	3a ab       	std	Y+50, r19	; 0x32
    6ff6:	4b ab       	std	Y+51, r20	; 0x33
    6ff8:	5c ab       	std	Y+52, r21	; 0x34
    6ffa:	86 01       	movw	r16, r12
    6ffc:	75 01       	movw	r14, r10
    6ffe:	06 2c       	mov	r0, r6
    7000:	04 c0       	rjmp	.+8      	; 0x700a <__udivdi3+0x8f2>
    7002:	16 95       	lsr	r17
    7004:	07 95       	ror	r16
    7006:	f7 94       	ror	r15
    7008:	e7 94       	ror	r14
    700a:	0a 94       	dec	r0
    700c:	d2 f7       	brpl	.-12     	; 0x7002 <__udivdi3+0x8ea>
    700e:	b6 01       	movw	r22, r12
    7010:	a5 01       	movw	r20, r10
    7012:	09 a4       	ldd	r0, Y+41	; 0x29
    7014:	04 c0       	rjmp	.+8      	; 0x701e <__udivdi3+0x906>
    7016:	44 0f       	add	r20, r20
    7018:	55 1f       	adc	r21, r21
    701a:	66 1f       	adc	r22, r22
    701c:	77 1f       	adc	r23, r23
    701e:	0a 94       	dec	r0
    7020:	d2 f7       	brpl	.-12     	; 0x7016 <__udivdi3+0x8fe>
    7022:	4d 8f       	std	Y+29, r20	; 0x1d
    7024:	5e 8f       	std	Y+30, r21	; 0x1e
    7026:	6f 8f       	std	Y+31, r22	; 0x1f
    7028:	78 a3       	std	Y+32, r23	; 0x20
    702a:	6d a1       	ldd	r22, Y+37	; 0x25
    702c:	7e a1       	ldd	r23, Y+38	; 0x26
    702e:	8f a1       	ldd	r24, Y+39	; 0x27
    7030:	98 a5       	ldd	r25, Y+40	; 0x28
    7032:	04 c0       	rjmp	.+8      	; 0x703c <__udivdi3+0x924>
    7034:	96 95       	lsr	r25
    7036:	87 95       	ror	r24
    7038:	77 95       	ror	r23
    703a:	67 95       	ror	r22
    703c:	6a 94       	dec	r6
    703e:	d2 f7       	brpl	.-12     	; 0x7034 <__udivdi3+0x91c>
    7040:	3b 01       	movw	r6, r22
    7042:	4c 01       	movw	r8, r24
    7044:	8d 8d       	ldd	r24, Y+29	; 0x1d
    7046:	9e 8d       	ldd	r25, Y+30	; 0x1e
    7048:	af 8d       	ldd	r26, Y+31	; 0x1f
    704a:	b8 a1       	ldd	r27, Y+32	; 0x20
    704c:	86 29       	or	r24, r6
    704e:	97 29       	or	r25, r7
    7050:	a8 29       	or	r26, r8
    7052:	b9 29       	or	r27, r9
    7054:	8d 8f       	std	Y+29, r24	; 0x1d
    7056:	9e 8f       	std	Y+30, r25	; 0x1e
    7058:	af 8f       	std	Y+31, r26	; 0x1f
    705a:	b8 a3       	std	Y+32, r27	; 0x20
    705c:	52 01       	movw	r10, r4
    705e:	cc 24       	eor	r12, r12
    7060:	dd 24       	eor	r13, r13
    7062:	a9 a2       	std	Y+33, r10	; 0x21
    7064:	ba a2       	std	Y+34, r11	; 0x22
    7066:	cb a2       	std	Y+35, r12	; 0x23
    7068:	dc a2       	std	Y+36, r13	; 0x24
    706a:	a2 01       	movw	r20, r4
    706c:	91 01       	movw	r18, r2
    706e:	40 70       	andi	r20, 0x00	; 0
    7070:	50 70       	andi	r21, 0x00	; 0
    7072:	2d ab       	std	Y+53, r18	; 0x35
    7074:	3e ab       	std	Y+54, r19	; 0x36
    7076:	4f ab       	std	Y+55, r20	; 0x37
    7078:	58 af       	std	Y+56, r21	; 0x38
    707a:	c8 01       	movw	r24, r16
    707c:	b7 01       	movw	r22, r14
    707e:	a6 01       	movw	r20, r12
    7080:	95 01       	movw	r18, r10
    7082:	0e 94 4e 41 	call	0x829c	; 0x829c <__udivmodsi4>
    7086:	62 2e       	mov	r6, r18
    7088:	a3 2e       	mov	r10, r19
    708a:	d4 2e       	mov	r13, r20
    708c:	c5 2e       	mov	r12, r21
    708e:	6d a7       	std	Y+45, r22	; 0x2d
    7090:	7e a7       	std	Y+46, r23	; 0x2e
    7092:	8f a7       	std	Y+47, r24	; 0x2f
    7094:	98 ab       	std	Y+48, r25	; 0x30
    7096:	c8 01       	movw	r24, r16
    7098:	b7 01       	movw	r22, r14
    709a:	29 a1       	ldd	r18, Y+33	; 0x21
    709c:	3a a1       	ldd	r19, Y+34	; 0x22
    709e:	4b a1       	ldd	r20, Y+35	; 0x23
    70a0:	5c a1       	ldd	r21, Y+36	; 0x24
    70a2:	0e 94 4e 41 	call	0x829c	; 0x829c <__udivmodsi4>
    70a6:	e6 2c       	mov	r14, r6
    70a8:	fa 2c       	mov	r15, r10
    70aa:	0d 2d       	mov	r16, r13
    70ac:	1c 2d       	mov	r17, r12
    70ae:	e9 8e       	std	Y+25, r14	; 0x19
    70b0:	fa 8e       	std	Y+26, r15	; 0x1a
    70b2:	0b 8f       	std	Y+27, r16	; 0x1b
    70b4:	1c 8f       	std	Y+28, r17	; 0x1c
    70b6:	c8 01       	movw	r24, r16
    70b8:	b7 01       	movw	r22, r14
    70ba:	2d a9       	ldd	r18, Y+53	; 0x35
    70bc:	3e a9       	ldd	r19, Y+54	; 0x36
    70be:	4f a9       	ldd	r20, Y+55	; 0x37
    70c0:	58 ad       	ldd	r21, Y+56	; 0x38
    70c2:	0e 94 08 41 	call	0x8210	; 0x8210 <__mulsi3>
    70c6:	ad a4       	ldd	r10, Y+45	; 0x2d
    70c8:	be a4       	ldd	r11, Y+46	; 0x2e
    70ca:	cf a4       	ldd	r12, Y+47	; 0x2f
    70cc:	d8 a8       	ldd	r13, Y+48	; 0x30
    70ce:	85 01       	movw	r16, r10
    70d0:	ff 24       	eor	r15, r15
    70d2:	ee 24       	eor	r14, r14
    70d4:	ad 8c       	ldd	r10, Y+29	; 0x1d
    70d6:	be 8c       	ldd	r11, Y+30	; 0x1e
    70d8:	cf 8c       	ldd	r12, Y+31	; 0x1f
    70da:	d8 a0       	ldd	r13, Y+32	; 0x20
    70dc:	96 01       	movw	r18, r12
    70de:	44 27       	eor	r20, r20
    70e0:	55 27       	eor	r21, r21
    70e2:	e2 2a       	or	r14, r18
    70e4:	f3 2a       	or	r15, r19
    70e6:	04 2b       	or	r16, r20
    70e8:	15 2b       	or	r17, r21
    70ea:	e6 16       	cp	r14, r22
    70ec:	f7 06       	cpc	r15, r23
    70ee:	08 07       	cpc	r16, r24
    70f0:	19 07       	cpc	r17, r25
    70f2:	30 f5       	brcc	.+76     	; 0x7140 <__udivdi3+0xa28>
    70f4:	29 8d       	ldd	r18, Y+25	; 0x19
    70f6:	3a 8d       	ldd	r19, Y+26	; 0x1a
    70f8:	4b 8d       	ldd	r20, Y+27	; 0x1b
    70fa:	5c 8d       	ldd	r21, Y+28	; 0x1c
    70fc:	21 50       	subi	r18, 0x01	; 1
    70fe:	30 40       	sbci	r19, 0x00	; 0
    7100:	40 40       	sbci	r20, 0x00	; 0
    7102:	50 40       	sbci	r21, 0x00	; 0
    7104:	29 8f       	std	Y+25, r18	; 0x19
    7106:	3a 8f       	std	Y+26, r19	; 0x1a
    7108:	4b 8f       	std	Y+27, r20	; 0x1b
    710a:	5c 8f       	std	Y+28, r21	; 0x1c
    710c:	e2 0c       	add	r14, r2
    710e:	f3 1c       	adc	r15, r3
    7110:	04 1d       	adc	r16, r4
    7112:	15 1d       	adc	r17, r5
    7114:	e2 14       	cp	r14, r2
    7116:	f3 04       	cpc	r15, r3
    7118:	04 05       	cpc	r16, r4
    711a:	15 05       	cpc	r17, r5
    711c:	88 f0       	brcs	.+34     	; 0x7140 <__udivdi3+0xa28>
    711e:	e6 16       	cp	r14, r22
    7120:	f7 06       	cpc	r15, r23
    7122:	08 07       	cpc	r16, r24
    7124:	19 07       	cpc	r17, r25
    7126:	60 f4       	brcc	.+24     	; 0x7140 <__udivdi3+0xa28>
    7128:	21 50       	subi	r18, 0x01	; 1
    712a:	30 40       	sbci	r19, 0x00	; 0
    712c:	40 40       	sbci	r20, 0x00	; 0
    712e:	50 40       	sbci	r21, 0x00	; 0
    7130:	29 8f       	std	Y+25, r18	; 0x19
    7132:	3a 8f       	std	Y+26, r19	; 0x1a
    7134:	4b 8f       	std	Y+27, r20	; 0x1b
    7136:	5c 8f       	std	Y+28, r21	; 0x1c
    7138:	e2 0c       	add	r14, r2
    713a:	f3 1c       	adc	r15, r3
    713c:	04 1d       	adc	r16, r4
    713e:	15 1d       	adc	r17, r5
    7140:	e6 1a       	sub	r14, r22
    7142:	f7 0a       	sbc	r15, r23
    7144:	08 0b       	sbc	r16, r24
    7146:	19 0b       	sbc	r17, r25
    7148:	c8 01       	movw	r24, r16
    714a:	b7 01       	movw	r22, r14
    714c:	29 a1       	ldd	r18, Y+33	; 0x21
    714e:	3a a1       	ldd	r19, Y+34	; 0x22
    7150:	4b a1       	ldd	r20, Y+35	; 0x23
    7152:	5c a1       	ldd	r21, Y+36	; 0x24
    7154:	0e 94 4e 41 	call	0x829c	; 0x829c <__udivmodsi4>
    7158:	a2 2e       	mov	r10, r18
    715a:	d3 2e       	mov	r13, r19
    715c:	c4 2e       	mov	r12, r20
    715e:	b5 2e       	mov	r11, r21
    7160:	6d a7       	std	Y+45, r22	; 0x2d
    7162:	7e a7       	std	Y+46, r23	; 0x2e
    7164:	8f a7       	std	Y+47, r24	; 0x2f
    7166:	98 ab       	std	Y+48, r25	; 0x30
    7168:	c8 01       	movw	r24, r16
    716a:	b7 01       	movw	r22, r14
    716c:	29 a1       	ldd	r18, Y+33	; 0x21
    716e:	3a a1       	ldd	r19, Y+34	; 0x22
    7170:	4b a1       	ldd	r20, Y+35	; 0x23
    7172:	5c a1       	ldd	r21, Y+36	; 0x24
    7174:	0e 94 4e 41 	call	0x829c	; 0x829c <__udivmodsi4>
    7178:	6a 2c       	mov	r6, r10
    717a:	7d 2c       	mov	r7, r13
    717c:	8c 2c       	mov	r8, r12
    717e:	9b 2c       	mov	r9, r11
    7180:	c4 01       	movw	r24, r8
    7182:	b3 01       	movw	r22, r6
    7184:	2d a9       	ldd	r18, Y+53	; 0x35
    7186:	3e a9       	ldd	r19, Y+54	; 0x36
    7188:	4f a9       	ldd	r20, Y+55	; 0x37
    718a:	58 ad       	ldd	r21, Y+56	; 0x38
    718c:	0e 94 08 41 	call	0x8210	; 0x8210 <__mulsi3>
    7190:	9b 01       	movw	r18, r22
    7192:	ac 01       	movw	r20, r24
    7194:	ad a4       	ldd	r10, Y+45	; 0x2d
    7196:	be a4       	ldd	r11, Y+46	; 0x2e
    7198:	cf a4       	ldd	r12, Y+47	; 0x2f
    719a:	d8 a8       	ldd	r13, Y+48	; 0x30
    719c:	d5 01       	movw	r26, r10
    719e:	99 27       	eor	r25, r25
    71a0:	88 27       	eor	r24, r24
    71a2:	ad 8c       	ldd	r10, Y+29	; 0x1d
    71a4:	be 8c       	ldd	r11, Y+30	; 0x1e
    71a6:	cf 8c       	ldd	r12, Y+31	; 0x1f
    71a8:	d8 a0       	ldd	r13, Y+32	; 0x20
    71aa:	6f ef       	ldi	r22, 0xFF	; 255
    71ac:	e6 2e       	mov	r14, r22
    71ae:	6f ef       	ldi	r22, 0xFF	; 255
    71b0:	f6 2e       	mov	r15, r22
    71b2:	01 2d       	mov	r16, r1
    71b4:	11 2d       	mov	r17, r1
    71b6:	ae 20       	and	r10, r14
    71b8:	bf 20       	and	r11, r15
    71ba:	c0 22       	and	r12, r16
    71bc:	d1 22       	and	r13, r17
    71be:	8a 29       	or	r24, r10
    71c0:	9b 29       	or	r25, r11
    71c2:	ac 29       	or	r26, r12
    71c4:	bd 29       	or	r27, r13
    71c6:	82 17       	cp	r24, r18
    71c8:	93 07       	cpc	r25, r19
    71ca:	a4 07       	cpc	r26, r20
    71cc:	b5 07       	cpc	r27, r21
    71ce:	e0 f4       	brcc	.+56     	; 0x7208 <__udivdi3+0xaf0>
    71d0:	08 94       	sec
    71d2:	61 08       	sbc	r6, r1
    71d4:	71 08       	sbc	r7, r1
    71d6:	81 08       	sbc	r8, r1
    71d8:	91 08       	sbc	r9, r1
    71da:	82 0d       	add	r24, r2
    71dc:	93 1d       	adc	r25, r3
    71de:	a4 1d       	adc	r26, r4
    71e0:	b5 1d       	adc	r27, r5
    71e2:	82 15       	cp	r24, r2
    71e4:	93 05       	cpc	r25, r3
    71e6:	a4 05       	cpc	r26, r4
    71e8:	b5 05       	cpc	r27, r5
    71ea:	70 f0       	brcs	.+28     	; 0x7208 <__udivdi3+0xaf0>
    71ec:	82 17       	cp	r24, r18
    71ee:	93 07       	cpc	r25, r19
    71f0:	a4 07       	cpc	r26, r20
    71f2:	b5 07       	cpc	r27, r21
    71f4:	48 f4       	brcc	.+18     	; 0x7208 <__udivdi3+0xaf0>
    71f6:	08 94       	sec
    71f8:	61 08       	sbc	r6, r1
    71fa:	71 08       	sbc	r7, r1
    71fc:	81 08       	sbc	r8, r1
    71fe:	91 08       	sbc	r9, r1
    7200:	82 0d       	add	r24, r2
    7202:	93 1d       	adc	r25, r3
    7204:	a4 1d       	adc	r26, r4
    7206:	b5 1d       	adc	r27, r5
    7208:	1c 01       	movw	r2, r24
    720a:	2d 01       	movw	r4, r26
    720c:	22 1a       	sub	r2, r18
    720e:	33 0a       	sbc	r3, r19
    7210:	44 0a       	sbc	r4, r20
    7212:	55 0a       	sbc	r5, r21
    7214:	2d 8e       	std	Y+29, r2	; 0x1d
    7216:	3e 8e       	std	Y+30, r3	; 0x1e
    7218:	4f 8e       	std	Y+31, r4	; 0x1f
    721a:	58 a2       	std	Y+32, r5	; 0x20
    721c:	a9 8c       	ldd	r10, Y+25	; 0x19
    721e:	ba 8c       	ldd	r11, Y+26	; 0x1a
    7220:	cb 8c       	ldd	r12, Y+27	; 0x1b
    7222:	dc 8c       	ldd	r13, Y+28	; 0x1c
    7224:	85 01       	movw	r16, r10
    7226:	ff 24       	eor	r15, r15
    7228:	ee 24       	eor	r14, r14
    722a:	e6 28       	or	r14, r6
    722c:	f7 28       	or	r15, r7
    722e:	08 29       	or	r16, r8
    7230:	19 29       	or	r17, r9
    7232:	af ef       	ldi	r26, 0xFF	; 255
    7234:	aa 2e       	mov	r10, r26
    7236:	af ef       	ldi	r26, 0xFF	; 255
    7238:	ba 2e       	mov	r11, r26
    723a:	c1 2c       	mov	r12, r1
    723c:	d1 2c       	mov	r13, r1
    723e:	ae 20       	and	r10, r14
    7240:	bf 20       	and	r11, r15
    7242:	c0 22       	and	r12, r16
    7244:	d1 22       	and	r13, r17
    7246:	18 01       	movw	r2, r16
    7248:	44 24       	eor	r4, r4
    724a:	55 24       	eor	r5, r5
    724c:	69 a8       	ldd	r6, Y+49	; 0x31
    724e:	7a a8       	ldd	r7, Y+50	; 0x32
    7250:	8b a8       	ldd	r8, Y+51	; 0x33
    7252:	9c a8       	ldd	r9, Y+52	; 0x34
    7254:	2f ef       	ldi	r18, 0xFF	; 255
    7256:	3f ef       	ldi	r19, 0xFF	; 255
    7258:	40 e0       	ldi	r20, 0x00	; 0
    725a:	50 e0       	ldi	r21, 0x00	; 0
    725c:	62 22       	and	r6, r18
    725e:	73 22       	and	r7, r19
    7260:	84 22       	and	r8, r20
    7262:	95 22       	and	r9, r21
    7264:	69 a9       	ldd	r22, Y+49	; 0x31
    7266:	7a a9       	ldd	r23, Y+50	; 0x32
    7268:	8b a9       	ldd	r24, Y+51	; 0x33
    726a:	9c a9       	ldd	r25, Y+52	; 0x34
    726c:	ac 01       	movw	r20, r24
    726e:	66 27       	eor	r22, r22
    7270:	77 27       	eor	r23, r23
    7272:	49 8f       	std	Y+25, r20	; 0x19
    7274:	5a 8f       	std	Y+26, r21	; 0x1a
    7276:	6b 8f       	std	Y+27, r22	; 0x1b
    7278:	7c 8f       	std	Y+28, r23	; 0x1c
    727a:	c6 01       	movw	r24, r12
    727c:	b5 01       	movw	r22, r10
    727e:	a4 01       	movw	r20, r8
    7280:	93 01       	movw	r18, r6
    7282:	0e 94 08 41 	call	0x8210	; 0x8210 <__mulsi3>
    7286:	69 a3       	std	Y+33, r22	; 0x21
    7288:	7a a3       	std	Y+34, r23	; 0x22
    728a:	8b a3       	std	Y+35, r24	; 0x23
    728c:	9c a3       	std	Y+36, r25	; 0x24
    728e:	c6 01       	movw	r24, r12
    7290:	b5 01       	movw	r22, r10
    7292:	29 8d       	ldd	r18, Y+25	; 0x19
    7294:	3a 8d       	ldd	r19, Y+26	; 0x1a
    7296:	4b 8d       	ldd	r20, Y+27	; 0x1b
    7298:	5c 8d       	ldd	r21, Y+28	; 0x1c
    729a:	0e 94 08 41 	call	0x8210	; 0x8210 <__mulsi3>
    729e:	5b 01       	movw	r10, r22
    72a0:	6c 01       	movw	r12, r24
    72a2:	c2 01       	movw	r24, r4
    72a4:	b1 01       	movw	r22, r2
    72a6:	a4 01       	movw	r20, r8
    72a8:	93 01       	movw	r18, r6
    72aa:	0e 94 08 41 	call	0x8210	; 0x8210 <__mulsi3>
    72ae:	3b 01       	movw	r6, r22
    72b0:	4c 01       	movw	r8, r24
    72b2:	c2 01       	movw	r24, r4
    72b4:	b1 01       	movw	r22, r2
    72b6:	29 8d       	ldd	r18, Y+25	; 0x19
    72b8:	3a 8d       	ldd	r19, Y+26	; 0x1a
    72ba:	4b 8d       	ldd	r20, Y+27	; 0x1b
    72bc:	5c 8d       	ldd	r21, Y+28	; 0x1c
    72be:	0e 94 08 41 	call	0x8210	; 0x8210 <__mulsi3>
    72c2:	9b 01       	movw	r18, r22
    72c4:	ac 01       	movw	r20, r24
    72c6:	a6 0c       	add	r10, r6
    72c8:	b7 1c       	adc	r11, r7
    72ca:	c8 1c       	adc	r12, r8
    72cc:	d9 1c       	adc	r13, r9
    72ce:	29 a0       	ldd	r2, Y+33	; 0x21
    72d0:	3a a0       	ldd	r3, Y+34	; 0x22
    72d2:	4b a0       	ldd	r4, Y+35	; 0x23
    72d4:	5c a0       	ldd	r5, Y+36	; 0x24
    72d6:	c2 01       	movw	r24, r4
    72d8:	aa 27       	eor	r26, r26
    72da:	bb 27       	eor	r27, r27
    72dc:	a8 0e       	add	r10, r24
    72de:	b9 1e       	adc	r11, r25
    72e0:	ca 1e       	adc	r12, r26
    72e2:	db 1e       	adc	r13, r27
    72e4:	a6 14       	cp	r10, r6
    72e6:	b7 04       	cpc	r11, r7
    72e8:	c8 04       	cpc	r12, r8
    72ea:	d9 04       	cpc	r13, r9
    72ec:	20 f4       	brcc	.+8      	; 0x72f6 <__udivdi3+0xbde>
    72ee:	20 50       	subi	r18, 0x00	; 0
    72f0:	30 40       	sbci	r19, 0x00	; 0
    72f2:	4f 4f       	sbci	r20, 0xFF	; 255
    72f4:	5f 4f       	sbci	r21, 0xFF	; 255
    72f6:	c6 01       	movw	r24, r12
    72f8:	aa 27       	eor	r26, r26
    72fa:	bb 27       	eor	r27, r27
    72fc:	82 0f       	add	r24, r18
    72fe:	93 1f       	adc	r25, r19
    7300:	a4 1f       	adc	r26, r20
    7302:	b5 1f       	adc	r27, r21
    7304:	2d 8d       	ldd	r18, Y+29	; 0x1d
    7306:	3e 8d       	ldd	r19, Y+30	; 0x1e
    7308:	4f 8d       	ldd	r20, Y+31	; 0x1f
    730a:	58 a1       	ldd	r21, Y+32	; 0x20
    730c:	28 17       	cp	r18, r24
    730e:	39 07       	cpc	r19, r25
    7310:	4a 07       	cpc	r20, r26
    7312:	5b 07       	cpc	r21, r27
    7314:	18 f1       	brcs	.+70     	; 0x735c <__udivdi3+0xc44>
    7316:	82 17       	cp	r24, r18
    7318:	93 07       	cpc	r25, r19
    731a:	a4 07       	cpc	r26, r20
    731c:	b5 07       	cpc	r27, r21
    731e:	a1 f5       	brne	.+104    	; 0x7388 <__udivdi3+0xc70>
    7320:	65 01       	movw	r12, r10
    7322:	bb 24       	eor	r11, r11
    7324:	aa 24       	eor	r10, r10
    7326:	89 a1       	ldd	r24, Y+33	; 0x21
    7328:	9a a1       	ldd	r25, Y+34	; 0x22
    732a:	ab a1       	ldd	r26, Y+35	; 0x23
    732c:	bc a1       	ldd	r27, Y+36	; 0x24
    732e:	a0 70       	andi	r26, 0x00	; 0
    7330:	b0 70       	andi	r27, 0x00	; 0
    7332:	a8 0e       	add	r10, r24
    7334:	b9 1e       	adc	r11, r25
    7336:	ca 1e       	adc	r12, r26
    7338:	db 1e       	adc	r13, r27
    733a:	8d a1       	ldd	r24, Y+37	; 0x25
    733c:	9e a1       	ldd	r25, Y+38	; 0x26
    733e:	af a1       	ldd	r26, Y+39	; 0x27
    7340:	b8 a5       	ldd	r27, Y+40	; 0x28
    7342:	09 a4       	ldd	r0, Y+41	; 0x29
    7344:	04 c0       	rjmp	.+8      	; 0x734e <__udivdi3+0xc36>
    7346:	88 0f       	add	r24, r24
    7348:	99 1f       	adc	r25, r25
    734a:	aa 1f       	adc	r26, r26
    734c:	bb 1f       	adc	r27, r27
    734e:	0a 94       	dec	r0
    7350:	d2 f7       	brpl	.-12     	; 0x7346 <__udivdi3+0xc2e>
    7352:	8a 15       	cp	r24, r10
    7354:	9b 05       	cpc	r25, r11
    7356:	ac 05       	cpc	r26, r12
    7358:	bd 05       	cpc	r27, r13
    735a:	b0 f4       	brcc	.+44     	; 0x7388 <__udivdi3+0xc70>
    735c:	08 94       	sec
    735e:	e1 08       	sbc	r14, r1
    7360:	f1 08       	sbc	r15, r1
    7362:	01 09       	sbc	r16, r1
    7364:	11 09       	sbc	r17, r1
    7366:	10 c0       	rjmp	.+32     	; 0x7388 <__udivdi3+0xc70>
    7368:	aa 24       	eor	r10, r10
    736a:	bb 24       	eor	r11, r11
    736c:	65 01       	movw	r12, r10
    736e:	ee 24       	eor	r14, r14
    7370:	ff 24       	eor	r15, r15
    7372:	87 01       	movw	r16, r14
    7374:	0c c0       	rjmp	.+24     	; 0x738e <__udivdi3+0xc76>
    7376:	aa 24       	eor	r10, r10
    7378:	bb 24       	eor	r11, r11
    737a:	65 01       	movw	r12, r10
    737c:	81 e0       	ldi	r24, 0x01	; 1
    737e:	e8 2e       	mov	r14, r24
    7380:	f1 2c       	mov	r15, r1
    7382:	01 2d       	mov	r16, r1
    7384:	11 2d       	mov	r17, r1
    7386:	03 c0       	rjmp	.+6      	; 0x738e <__udivdi3+0xc76>
    7388:	aa 24       	eor	r10, r10
    738a:	bb 24       	eor	r11, r11
    738c:	65 01       	movw	r12, r10
    738e:	fe 01       	movw	r30, r28
    7390:	71 96       	adiw	r30, 0x11	; 17
    7392:	88 e0       	ldi	r24, 0x08	; 8
    7394:	df 01       	movw	r26, r30
    7396:	1d 92       	st	X+, r1
    7398:	8a 95       	dec	r24
    739a:	e9 f7       	brne	.-6      	; 0x7396 <__udivdi3+0xc7e>
    739c:	e9 8a       	std	Y+17, r14	; 0x11
    739e:	fa 8a       	std	Y+18, r15	; 0x12
    73a0:	0b 8b       	std	Y+19, r16	; 0x13
    73a2:	1c 8b       	std	Y+20, r17	; 0x14
    73a4:	ad 8a       	std	Y+21, r10	; 0x15
    73a6:	be 8a       	std	Y+22, r11	; 0x16
    73a8:	cf 8a       	std	Y+23, r12	; 0x17
    73aa:	d8 8e       	std	Y+24, r13	; 0x18
    73ac:	2e 2d       	mov	r18, r14
    73ae:	3a 89       	ldd	r19, Y+18	; 0x12
    73b0:	4b 89       	ldd	r20, Y+19	; 0x13
    73b2:	5c 89       	ldd	r21, Y+20	; 0x14
    73b4:	6a 2d       	mov	r22, r10
    73b6:	7e 89       	ldd	r23, Y+22	; 0x16
    73b8:	8f 89       	ldd	r24, Y+23	; 0x17
    73ba:	98 8d       	ldd	r25, Y+24	; 0x18
    73bc:	e8 96       	adiw	r28, 0x38	; 56
    73be:	e2 e1       	ldi	r30, 0x12	; 18
    73c0:	0c 94 8c 41 	jmp	0x8318	; 0x8318 <__epilogue_restores__>

000073c4 <vfprintf>:
    73c4:	2f 92       	push	r2
    73c6:	3f 92       	push	r3
    73c8:	4f 92       	push	r4
    73ca:	5f 92       	push	r5
    73cc:	6f 92       	push	r6
    73ce:	7f 92       	push	r7
    73d0:	8f 92       	push	r8
    73d2:	9f 92       	push	r9
    73d4:	af 92       	push	r10
    73d6:	bf 92       	push	r11
    73d8:	cf 92       	push	r12
    73da:	df 92       	push	r13
    73dc:	ef 92       	push	r14
    73de:	ff 92       	push	r15
    73e0:	0f 93       	push	r16
    73e2:	1f 93       	push	r17
    73e4:	df 93       	push	r29
    73e6:	cf 93       	push	r28
    73e8:	cd b7       	in	r28, 0x3d	; 61
    73ea:	de b7       	in	r29, 0x3e	; 62
    73ec:	63 97       	sbiw	r28, 0x13	; 19
    73ee:	0f b6       	in	r0, 0x3f	; 63
    73f0:	f8 94       	cli
    73f2:	de bf       	out	0x3e, r29	; 62
    73f4:	0f be       	out	0x3f, r0	; 63
    73f6:	cd bf       	out	0x3d, r28	; 61
    73f8:	6c 01       	movw	r12, r24
    73fa:	7f 87       	std	Y+15, r23	; 0x0f
    73fc:	6e 87       	std	Y+14, r22	; 0x0e
    73fe:	fc 01       	movw	r30, r24
    7400:	17 82       	std	Z+7, r1	; 0x07
    7402:	16 82       	std	Z+6, r1	; 0x06
    7404:	83 81       	ldd	r24, Z+3	; 0x03
    7406:	81 fd       	sbrc	r24, 1
    7408:	04 c0       	rjmp	.+8      	; 0x7412 <vfprintf+0x4e>
    740a:	6f c3       	rjmp	.+1758   	; 0x7aea <vfprintf+0x726>
    740c:	4c 85       	ldd	r20, Y+12	; 0x0c
    740e:	5d 85       	ldd	r21, Y+13	; 0x0d
    7410:	04 c0       	rjmp	.+8      	; 0x741a <vfprintf+0x56>
    7412:	1e 01       	movw	r2, r28
    7414:	08 94       	sec
    7416:	21 1c       	adc	r2, r1
    7418:	31 1c       	adc	r3, r1
    741a:	f6 01       	movw	r30, r12
    741c:	93 81       	ldd	r25, Z+3	; 0x03
    741e:	ee 85       	ldd	r30, Y+14	; 0x0e
    7420:	ff 85       	ldd	r31, Y+15	; 0x0f
    7422:	93 fd       	sbrc	r25, 3
    7424:	85 91       	lpm	r24, Z+
    7426:	93 ff       	sbrs	r25, 3
    7428:	81 91       	ld	r24, Z+
    742a:	ff 87       	std	Y+15, r31	; 0x0f
    742c:	ee 87       	std	Y+14, r30	; 0x0e
    742e:	88 23       	and	r24, r24
    7430:	09 f4       	brne	.+2      	; 0x7434 <vfprintf+0x70>
    7432:	57 c3       	rjmp	.+1710   	; 0x7ae2 <vfprintf+0x71e>
    7434:	85 32       	cpi	r24, 0x25	; 37
    7436:	41 f4       	brne	.+16     	; 0x7448 <vfprintf+0x84>
    7438:	93 fd       	sbrc	r25, 3
    743a:	85 91       	lpm	r24, Z+
    743c:	93 ff       	sbrs	r25, 3
    743e:	81 91       	ld	r24, Z+
    7440:	ff 87       	std	Y+15, r31	; 0x0f
    7442:	ee 87       	std	Y+14, r30	; 0x0e
    7444:	85 32       	cpi	r24, 0x25	; 37
    7446:	59 f4       	brne	.+22     	; 0x745e <vfprintf+0x9a>
    7448:	90 e0       	ldi	r25, 0x00	; 0
    744a:	b6 01       	movw	r22, r12
    744c:	4a 8b       	std	Y+18, r20	; 0x12
    744e:	5b 8b       	std	Y+19, r21	; 0x13
    7450:	0e 94 80 43 	call	0x8700	; 0x8700 <fputc>
    7454:	4a 89       	ldd	r20, Y+18	; 0x12
    7456:	5b 89       	ldd	r21, Y+19	; 0x13
    7458:	5d 87       	std	Y+13, r21	; 0x0d
    745a:	4c 87       	std	Y+12, r20	; 0x0c
    745c:	d7 cf       	rjmp	.-82     	; 0x740c <vfprintf+0x48>
    745e:	10 e0       	ldi	r17, 0x00	; 0
    7460:	ff 24       	eor	r15, r15
    7462:	00 e0       	ldi	r16, 0x00	; 0
    7464:	00 32       	cpi	r16, 0x20	; 32
    7466:	b0 f4       	brcc	.+44     	; 0x7494 <vfprintf+0xd0>
    7468:	8b 32       	cpi	r24, 0x2B	; 43
    746a:	69 f0       	breq	.+26     	; 0x7486 <vfprintf+0xc2>
    746c:	8c 32       	cpi	r24, 0x2C	; 44
    746e:	28 f4       	brcc	.+10     	; 0x747a <vfprintf+0xb6>
    7470:	80 32       	cpi	r24, 0x20	; 32
    7472:	51 f0       	breq	.+20     	; 0x7488 <vfprintf+0xc4>
    7474:	83 32       	cpi	r24, 0x23	; 35
    7476:	71 f4       	brne	.+28     	; 0x7494 <vfprintf+0xd0>
    7478:	0b c0       	rjmp	.+22     	; 0x7490 <vfprintf+0xcc>
    747a:	8d 32       	cpi	r24, 0x2D	; 45
    747c:	39 f0       	breq	.+14     	; 0x748c <vfprintf+0xc8>
    747e:	80 33       	cpi	r24, 0x30	; 48
    7480:	49 f4       	brne	.+18     	; 0x7494 <vfprintf+0xd0>
    7482:	01 60       	ori	r16, 0x01	; 1
    7484:	2c c0       	rjmp	.+88     	; 0x74de <vfprintf+0x11a>
    7486:	02 60       	ori	r16, 0x02	; 2
    7488:	04 60       	ori	r16, 0x04	; 4
    748a:	29 c0       	rjmp	.+82     	; 0x74de <vfprintf+0x11a>
    748c:	08 60       	ori	r16, 0x08	; 8
    748e:	27 c0       	rjmp	.+78     	; 0x74de <vfprintf+0x11a>
    7490:	00 61       	ori	r16, 0x10	; 16
    7492:	25 c0       	rjmp	.+74     	; 0x74de <vfprintf+0x11a>
    7494:	07 fd       	sbrc	r16, 7
    7496:	2e c0       	rjmp	.+92     	; 0x74f4 <vfprintf+0x130>
    7498:	28 2f       	mov	r18, r24
    749a:	20 53       	subi	r18, 0x30	; 48
    749c:	2a 30       	cpi	r18, 0x0A	; 10
    749e:	98 f4       	brcc	.+38     	; 0x74c6 <vfprintf+0x102>
    74a0:	06 ff       	sbrs	r16, 6
    74a2:	08 c0       	rjmp	.+16     	; 0x74b4 <vfprintf+0xf0>
    74a4:	81 2f       	mov	r24, r17
    74a6:	88 0f       	add	r24, r24
    74a8:	18 2f       	mov	r17, r24
    74aa:	11 0f       	add	r17, r17
    74ac:	11 0f       	add	r17, r17
    74ae:	18 0f       	add	r17, r24
    74b0:	12 0f       	add	r17, r18
    74b2:	15 c0       	rjmp	.+42     	; 0x74de <vfprintf+0x11a>
    74b4:	8f 2d       	mov	r24, r15
    74b6:	88 0f       	add	r24, r24
    74b8:	f8 2e       	mov	r15, r24
    74ba:	ff 0c       	add	r15, r15
    74bc:	ff 0c       	add	r15, r15
    74be:	f8 0e       	add	r15, r24
    74c0:	f2 0e       	add	r15, r18
    74c2:	00 62       	ori	r16, 0x20	; 32
    74c4:	0c c0       	rjmp	.+24     	; 0x74de <vfprintf+0x11a>
    74c6:	8e 32       	cpi	r24, 0x2E	; 46
    74c8:	21 f4       	brne	.+8      	; 0x74d2 <vfprintf+0x10e>
    74ca:	06 fd       	sbrc	r16, 6
    74cc:	0a c3       	rjmp	.+1556   	; 0x7ae2 <vfprintf+0x71e>
    74ce:	00 64       	ori	r16, 0x40	; 64
    74d0:	06 c0       	rjmp	.+12     	; 0x74de <vfprintf+0x11a>
    74d2:	8c 36       	cpi	r24, 0x6C	; 108
    74d4:	11 f4       	brne	.+4      	; 0x74da <vfprintf+0x116>
    74d6:	00 68       	ori	r16, 0x80	; 128
    74d8:	02 c0       	rjmp	.+4      	; 0x74de <vfprintf+0x11a>
    74da:	88 36       	cpi	r24, 0x68	; 104
    74dc:	59 f4       	brne	.+22     	; 0x74f4 <vfprintf+0x130>
    74de:	ee 85       	ldd	r30, Y+14	; 0x0e
    74e0:	ff 85       	ldd	r31, Y+15	; 0x0f
    74e2:	93 fd       	sbrc	r25, 3
    74e4:	85 91       	lpm	r24, Z+
    74e6:	93 ff       	sbrs	r25, 3
    74e8:	81 91       	ld	r24, Z+
    74ea:	ff 87       	std	Y+15, r31	; 0x0f
    74ec:	ee 87       	std	Y+14, r30	; 0x0e
    74ee:	88 23       	and	r24, r24
    74f0:	09 f0       	breq	.+2      	; 0x74f4 <vfprintf+0x130>
    74f2:	b8 cf       	rjmp	.-144    	; 0x7464 <vfprintf+0xa0>
    74f4:	98 2f       	mov	r25, r24
    74f6:	95 54       	subi	r25, 0x45	; 69
    74f8:	93 30       	cpi	r25, 0x03	; 3
    74fa:	18 f4       	brcc	.+6      	; 0x7502 <vfprintf+0x13e>
    74fc:	00 61       	ori	r16, 0x10	; 16
    74fe:	80 5e       	subi	r24, 0xE0	; 224
    7500:	06 c0       	rjmp	.+12     	; 0x750e <vfprintf+0x14a>
    7502:	98 2f       	mov	r25, r24
    7504:	95 56       	subi	r25, 0x65	; 101
    7506:	93 30       	cpi	r25, 0x03	; 3
    7508:	08 f0       	brcs	.+2      	; 0x750c <vfprintf+0x148>
    750a:	9b c1       	rjmp	.+822    	; 0x7842 <vfprintf+0x47e>
    750c:	0f 7e       	andi	r16, 0xEF	; 239
    750e:	06 ff       	sbrs	r16, 6
    7510:	16 e0       	ldi	r17, 0x06	; 6
    7512:	6f e3       	ldi	r22, 0x3F	; 63
    7514:	e6 2e       	mov	r14, r22
    7516:	e0 22       	and	r14, r16
    7518:	85 36       	cpi	r24, 0x65	; 101
    751a:	19 f4       	brne	.+6      	; 0x7522 <vfprintf+0x15e>
    751c:	f0 e4       	ldi	r31, 0x40	; 64
    751e:	ef 2a       	or	r14, r31
    7520:	07 c0       	rjmp	.+14     	; 0x7530 <vfprintf+0x16c>
    7522:	86 36       	cpi	r24, 0x66	; 102
    7524:	19 f4       	brne	.+6      	; 0x752c <vfprintf+0x168>
    7526:	20 e8       	ldi	r18, 0x80	; 128
    7528:	e2 2a       	or	r14, r18
    752a:	02 c0       	rjmp	.+4      	; 0x7530 <vfprintf+0x16c>
    752c:	11 11       	cpse	r17, r1
    752e:	11 50       	subi	r17, 0x01	; 1
    7530:	e7 fe       	sbrs	r14, 7
    7532:	06 c0       	rjmp	.+12     	; 0x7540 <vfprintf+0x17c>
    7534:	1c 33       	cpi	r17, 0x3C	; 60
    7536:	40 f4       	brcc	.+16     	; 0x7548 <vfprintf+0x184>
    7538:	91 2e       	mov	r9, r17
    753a:	93 94       	inc	r9
    753c:	27 e0       	ldi	r18, 0x07	; 7
    753e:	0b c0       	rjmp	.+22     	; 0x7556 <vfprintf+0x192>
    7540:	18 30       	cpi	r17, 0x08	; 8
    7542:	30 f4       	brcc	.+12     	; 0x7550 <vfprintf+0x18c>
    7544:	21 2f       	mov	r18, r17
    7546:	06 c0       	rjmp	.+12     	; 0x7554 <vfprintf+0x190>
    7548:	27 e0       	ldi	r18, 0x07	; 7
    754a:	3c e3       	ldi	r19, 0x3C	; 60
    754c:	93 2e       	mov	r9, r19
    754e:	03 c0       	rjmp	.+6      	; 0x7556 <vfprintf+0x192>
    7550:	27 e0       	ldi	r18, 0x07	; 7
    7552:	17 e0       	ldi	r17, 0x07	; 7
    7554:	99 24       	eor	r9, r9
    7556:	ca 01       	movw	r24, r20
    7558:	04 96       	adiw	r24, 0x04	; 4
    755a:	9d 87       	std	Y+13, r25	; 0x0d
    755c:	8c 87       	std	Y+12, r24	; 0x0c
    755e:	fa 01       	movw	r30, r20
    7560:	60 81       	ld	r22, Z
    7562:	71 81       	ldd	r23, Z+1	; 0x01
    7564:	82 81       	ldd	r24, Z+2	; 0x02
    7566:	93 81       	ldd	r25, Z+3	; 0x03
    7568:	a1 01       	movw	r20, r2
    756a:	09 2d       	mov	r16, r9
    756c:	0e 94 05 42 	call	0x840a	; 0x840a <__ftoa_engine>
    7570:	5c 01       	movw	r10, r24
    7572:	69 80       	ldd	r6, Y+1	; 0x01
    7574:	26 2d       	mov	r18, r6
    7576:	30 e0       	ldi	r19, 0x00	; 0
    7578:	39 8b       	std	Y+17, r19	; 0x11
    757a:	28 8b       	std	Y+16, r18	; 0x10
    757c:	60 fe       	sbrs	r6, 0
    757e:	03 c0       	rjmp	.+6      	; 0x7586 <vfprintf+0x1c2>
    7580:	38 89       	ldd	r19, Y+16	; 0x10
    7582:	33 ff       	sbrs	r19, 3
    7584:	06 c0       	rjmp	.+12     	; 0x7592 <vfprintf+0x1ce>
    7586:	e1 fc       	sbrc	r14, 1
    7588:	06 c0       	rjmp	.+12     	; 0x7596 <vfprintf+0x1d2>
    758a:	e2 fe       	sbrs	r14, 2
    758c:	06 c0       	rjmp	.+12     	; 0x759a <vfprintf+0x1d6>
    758e:	00 e2       	ldi	r16, 0x20	; 32
    7590:	05 c0       	rjmp	.+10     	; 0x759c <vfprintf+0x1d8>
    7592:	0d e2       	ldi	r16, 0x2D	; 45
    7594:	03 c0       	rjmp	.+6      	; 0x759c <vfprintf+0x1d8>
    7596:	0b e2       	ldi	r16, 0x2B	; 43
    7598:	01 c0       	rjmp	.+2      	; 0x759c <vfprintf+0x1d8>
    759a:	00 e0       	ldi	r16, 0x00	; 0
    759c:	88 89       	ldd	r24, Y+16	; 0x10
    759e:	99 89       	ldd	r25, Y+17	; 0x11
    75a0:	8c 70       	andi	r24, 0x0C	; 12
    75a2:	90 70       	andi	r25, 0x00	; 0
    75a4:	00 97       	sbiw	r24, 0x00	; 0
    75a6:	c1 f1       	breq	.+112    	; 0x7618 <vfprintf+0x254>
    75a8:	00 23       	and	r16, r16
    75aa:	11 f0       	breq	.+4      	; 0x75b0 <vfprintf+0x1ec>
    75ac:	84 e0       	ldi	r24, 0x04	; 4
    75ae:	01 c0       	rjmp	.+2      	; 0x75b2 <vfprintf+0x1ee>
    75b0:	83 e0       	ldi	r24, 0x03	; 3
    75b2:	8f 15       	cp	r24, r15
    75b4:	58 f4       	brcc	.+22     	; 0x75cc <vfprintf+0x208>
    75b6:	f8 1a       	sub	r15, r24
    75b8:	e3 fc       	sbrc	r14, 3
    75ba:	09 c0       	rjmp	.+18     	; 0x75ce <vfprintf+0x20a>
    75bc:	80 e2       	ldi	r24, 0x20	; 32
    75be:	90 e0       	ldi	r25, 0x00	; 0
    75c0:	b6 01       	movw	r22, r12
    75c2:	0e 94 80 43 	call	0x8700	; 0x8700 <fputc>
    75c6:	fa 94       	dec	r15
    75c8:	c9 f7       	brne	.-14     	; 0x75bc <vfprintf+0x1f8>
    75ca:	01 c0       	rjmp	.+2      	; 0x75ce <vfprintf+0x20a>
    75cc:	ff 24       	eor	r15, r15
    75ce:	00 23       	and	r16, r16
    75d0:	29 f0       	breq	.+10     	; 0x75dc <vfprintf+0x218>
    75d2:	80 2f       	mov	r24, r16
    75d4:	90 e0       	ldi	r25, 0x00	; 0
    75d6:	b6 01       	movw	r22, r12
    75d8:	0e 94 80 43 	call	0x8700	; 0x8700 <fputc>
    75dc:	88 89       	ldd	r24, Y+16	; 0x10
    75de:	83 fd       	sbrc	r24, 3
    75e0:	03 c0       	rjmp	.+6      	; 0x75e8 <vfprintf+0x224>
    75e2:	04 e9       	ldi	r16, 0x94	; 148
    75e4:	18 e0       	ldi	r17, 0x08	; 8
    75e6:	0e c0       	rjmp	.+28     	; 0x7604 <vfprintf+0x240>
    75e8:	00 e9       	ldi	r16, 0x90	; 144
    75ea:	18 e0       	ldi	r17, 0x08	; 8
    75ec:	0b c0       	rjmp	.+22     	; 0x7604 <vfprintf+0x240>
    75ee:	a1 14       	cp	r10, r1
    75f0:	b1 04       	cpc	r11, r1
    75f2:	09 f0       	breq	.+2      	; 0x75f6 <vfprintf+0x232>
    75f4:	80 52       	subi	r24, 0x20	; 32
    75f6:	90 e0       	ldi	r25, 0x00	; 0
    75f8:	b6 01       	movw	r22, r12
    75fa:	0e 94 80 43 	call	0x8700	; 0x8700 <fputc>
    75fe:	0f 5f       	subi	r16, 0xFF	; 255
    7600:	1f 4f       	sbci	r17, 0xFF	; 255
    7602:	05 c0       	rjmp	.+10     	; 0x760e <vfprintf+0x24a>
    7604:	ae 2c       	mov	r10, r14
    7606:	bb 24       	eor	r11, r11
    7608:	90 e1       	ldi	r25, 0x10	; 16
    760a:	a9 22       	and	r10, r25
    760c:	bb 24       	eor	r11, r11
    760e:	f8 01       	movw	r30, r16
    7610:	84 91       	lpm	r24, Z+
    7612:	88 23       	and	r24, r24
    7614:	61 f7       	brne	.-40     	; 0x75ee <vfprintf+0x22a>
    7616:	62 c2       	rjmp	.+1220   	; 0x7adc <vfprintf+0x718>
    7618:	e7 fe       	sbrs	r14, 7
    761a:	0e c0       	rjmp	.+28     	; 0x7638 <vfprintf+0x274>
    761c:	9a 0c       	add	r9, r10
    761e:	f8 89       	ldd	r31, Y+16	; 0x10
    7620:	f4 ff       	sbrs	r31, 4
    7622:	04 c0       	rjmp	.+8      	; 0x762c <vfprintf+0x268>
    7624:	8a 81       	ldd	r24, Y+2	; 0x02
    7626:	81 33       	cpi	r24, 0x31	; 49
    7628:	09 f4       	brne	.+2      	; 0x762c <vfprintf+0x268>
    762a:	9a 94       	dec	r9
    762c:	19 14       	cp	r1, r9
    762e:	54 f5       	brge	.+84     	; 0x7684 <vfprintf+0x2c0>
    7630:	29 2d       	mov	r18, r9
    7632:	29 30       	cpi	r18, 0x09	; 9
    7634:	50 f5       	brcc	.+84     	; 0x768a <vfprintf+0x2c6>
    7636:	2d c0       	rjmp	.+90     	; 0x7692 <vfprintf+0x2ce>
    7638:	e6 fc       	sbrc	r14, 6
    763a:	2b c0       	rjmp	.+86     	; 0x7692 <vfprintf+0x2ce>
    763c:	81 2f       	mov	r24, r17
    763e:	90 e0       	ldi	r25, 0x00	; 0
    7640:	8a 15       	cp	r24, r10
    7642:	9b 05       	cpc	r25, r11
    7644:	4c f0       	brlt	.+18     	; 0x7658 <vfprintf+0x294>
    7646:	3c ef       	ldi	r19, 0xFC	; 252
    7648:	a3 16       	cp	r10, r19
    764a:	3f ef       	ldi	r19, 0xFF	; 255
    764c:	b3 06       	cpc	r11, r19
    764e:	24 f0       	brlt	.+8      	; 0x7658 <vfprintf+0x294>
    7650:	80 e8       	ldi	r24, 0x80	; 128
    7652:	e8 2a       	or	r14, r24
    7654:	01 c0       	rjmp	.+2      	; 0x7658 <vfprintf+0x294>
    7656:	11 50       	subi	r17, 0x01	; 1
    7658:	11 23       	and	r17, r17
    765a:	49 f0       	breq	.+18     	; 0x766e <vfprintf+0x2aa>
    765c:	e2 e0       	ldi	r30, 0x02	; 2
    765e:	f0 e0       	ldi	r31, 0x00	; 0
    7660:	ec 0f       	add	r30, r28
    7662:	fd 1f       	adc	r31, r29
    7664:	e1 0f       	add	r30, r17
    7666:	f1 1d       	adc	r31, r1
    7668:	80 81       	ld	r24, Z
    766a:	80 33       	cpi	r24, 0x30	; 48
    766c:	a1 f3       	breq	.-24     	; 0x7656 <vfprintf+0x292>
    766e:	e7 fe       	sbrs	r14, 7
    7670:	10 c0       	rjmp	.+32     	; 0x7692 <vfprintf+0x2ce>
    7672:	91 2e       	mov	r9, r17
    7674:	93 94       	inc	r9
    7676:	81 2f       	mov	r24, r17
    7678:	90 e0       	ldi	r25, 0x00	; 0
    767a:	a8 16       	cp	r10, r24
    767c:	b9 06       	cpc	r11, r25
    767e:	44 f4       	brge	.+16     	; 0x7690 <vfprintf+0x2cc>
    7680:	1a 19       	sub	r17, r10
    7682:	07 c0       	rjmp	.+14     	; 0x7692 <vfprintf+0x2ce>
    7684:	99 24       	eor	r9, r9
    7686:	93 94       	inc	r9
    7688:	04 c0       	rjmp	.+8      	; 0x7692 <vfprintf+0x2ce>
    768a:	98 e0       	ldi	r25, 0x08	; 8
    768c:	99 2e       	mov	r9, r25
    768e:	01 c0       	rjmp	.+2      	; 0x7692 <vfprintf+0x2ce>
    7690:	10 e0       	ldi	r17, 0x00	; 0
    7692:	e7 fe       	sbrs	r14, 7
    7694:	07 c0       	rjmp	.+14     	; 0x76a4 <vfprintf+0x2e0>
    7696:	1a 14       	cp	r1, r10
    7698:	1b 04       	cpc	r1, r11
    769a:	3c f4       	brge	.+14     	; 0x76aa <vfprintf+0x2e6>
    769c:	95 01       	movw	r18, r10
    769e:	2f 5f       	subi	r18, 0xFF	; 255
    76a0:	3f 4f       	sbci	r19, 0xFF	; 255
    76a2:	05 c0       	rjmp	.+10     	; 0x76ae <vfprintf+0x2ea>
    76a4:	25 e0       	ldi	r18, 0x05	; 5
    76a6:	30 e0       	ldi	r19, 0x00	; 0
    76a8:	02 c0       	rjmp	.+4      	; 0x76ae <vfprintf+0x2ea>
    76aa:	21 e0       	ldi	r18, 0x01	; 1
    76ac:	30 e0       	ldi	r19, 0x00	; 0
    76ae:	00 23       	and	r16, r16
    76b0:	11 f0       	breq	.+4      	; 0x76b6 <vfprintf+0x2f2>
    76b2:	2f 5f       	subi	r18, 0xFF	; 255
    76b4:	3f 4f       	sbci	r19, 0xFF	; 255
    76b6:	11 23       	and	r17, r17
    76b8:	29 f0       	breq	.+10     	; 0x76c4 <vfprintf+0x300>
    76ba:	81 2f       	mov	r24, r17
    76bc:	90 e0       	ldi	r25, 0x00	; 0
    76be:	01 96       	adiw	r24, 0x01	; 1
    76c0:	28 0f       	add	r18, r24
    76c2:	39 1f       	adc	r19, r25
    76c4:	8f 2d       	mov	r24, r15
    76c6:	90 e0       	ldi	r25, 0x00	; 0
    76c8:	28 17       	cp	r18, r24
    76ca:	39 07       	cpc	r19, r25
    76cc:	14 f4       	brge	.+4      	; 0x76d2 <vfprintf+0x30e>
    76ce:	f2 1a       	sub	r15, r18
    76d0:	01 c0       	rjmp	.+2      	; 0x76d4 <vfprintf+0x310>
    76d2:	ff 24       	eor	r15, r15
    76d4:	4e 2c       	mov	r4, r14
    76d6:	55 24       	eor	r5, r5
    76d8:	c2 01       	movw	r24, r4
    76da:	89 70       	andi	r24, 0x09	; 9
    76dc:	90 70       	andi	r25, 0x00	; 0
    76de:	00 97       	sbiw	r24, 0x00	; 0
    76e0:	49 f4       	brne	.+18     	; 0x76f4 <vfprintf+0x330>
    76e2:	06 c0       	rjmp	.+12     	; 0x76f0 <vfprintf+0x32c>
    76e4:	80 e2       	ldi	r24, 0x20	; 32
    76e6:	90 e0       	ldi	r25, 0x00	; 0
    76e8:	b6 01       	movw	r22, r12
    76ea:	0e 94 80 43 	call	0x8700	; 0x8700 <fputc>
    76ee:	fa 94       	dec	r15
    76f0:	ff 20       	and	r15, r15
    76f2:	c1 f7       	brne	.-16     	; 0x76e4 <vfprintf+0x320>
    76f4:	00 23       	and	r16, r16
    76f6:	29 f0       	breq	.+10     	; 0x7702 <vfprintf+0x33e>
    76f8:	80 2f       	mov	r24, r16
    76fa:	90 e0       	ldi	r25, 0x00	; 0
    76fc:	b6 01       	movw	r22, r12
    76fe:	0e 94 80 43 	call	0x8700	; 0x8700 <fputc>
    7702:	43 fc       	sbrc	r4, 3
    7704:	09 c0       	rjmp	.+18     	; 0x7718 <vfprintf+0x354>
    7706:	06 c0       	rjmp	.+12     	; 0x7714 <vfprintf+0x350>
    7708:	80 e3       	ldi	r24, 0x30	; 48
    770a:	90 e0       	ldi	r25, 0x00	; 0
    770c:	b6 01       	movw	r22, r12
    770e:	0e 94 80 43 	call	0x8700	; 0x8700 <fputc>
    7712:	fa 94       	dec	r15
    7714:	ff 20       	and	r15, r15
    7716:	c1 f7       	brne	.-16     	; 0x7708 <vfprintf+0x344>
    7718:	e7 fe       	sbrs	r14, 7
    771a:	46 c0       	rjmp	.+140    	; 0x77a8 <vfprintf+0x3e4>
    771c:	35 01       	movw	r6, r10
    771e:	b7 fe       	sbrs	r11, 7
    7720:	02 c0       	rjmp	.+4      	; 0x7726 <vfprintf+0x362>
    7722:	66 24       	eor	r6, r6
    7724:	77 24       	eor	r7, r7
    7726:	25 01       	movw	r4, r10
    7728:	08 94       	sec
    772a:	41 1c       	adc	r4, r1
    772c:	51 1c       	adc	r5, r1
    772e:	46 18       	sub	r4, r6
    7730:	57 08       	sbc	r5, r7
    7732:	42 0c       	add	r4, r2
    7734:	53 1c       	adc	r5, r3
    7736:	f5 01       	movw	r30, r10
    7738:	e9 19       	sub	r30, r9
    773a:	f1 09       	sbc	r31, r1
    773c:	4f 01       	movw	r8, r30
    773e:	81 2f       	mov	r24, r17
    7740:	90 e0       	ldi	r25, 0x00	; 0
    7742:	00 27       	eor	r16, r16
    7744:	11 27       	eor	r17, r17
    7746:	08 1b       	sub	r16, r24
    7748:	19 0b       	sbc	r17, r25
    774a:	ff ef       	ldi	r31, 0xFF	; 255
    774c:	6f 16       	cp	r6, r31
    774e:	ff ef       	ldi	r31, 0xFF	; 255
    7750:	7f 06       	cpc	r7, r31
    7752:	29 f4       	brne	.+10     	; 0x775e <vfprintf+0x39a>
    7754:	8e e2       	ldi	r24, 0x2E	; 46
    7756:	90 e0       	ldi	r25, 0x00	; 0
    7758:	b6 01       	movw	r22, r12
    775a:	0e 94 80 43 	call	0x8700	; 0x8700 <fputc>
    775e:	a6 14       	cp	r10, r6
    7760:	b7 04       	cpc	r11, r7
    7762:	34 f0       	brlt	.+12     	; 0x7770 <vfprintf+0x3ac>
    7764:	86 14       	cp	r8, r6
    7766:	97 04       	cpc	r9, r7
    7768:	1c f4       	brge	.+6      	; 0x7770 <vfprintf+0x3ac>
    776a:	f2 01       	movw	r30, r4
    776c:	80 81       	ld	r24, Z
    776e:	01 c0       	rjmp	.+2      	; 0x7772 <vfprintf+0x3ae>
    7770:	80 e3       	ldi	r24, 0x30	; 48
    7772:	08 94       	sec
    7774:	61 08       	sbc	r6, r1
    7776:	71 08       	sbc	r7, r1
    7778:	08 94       	sec
    777a:	41 1c       	adc	r4, r1
    777c:	51 1c       	adc	r5, r1
    777e:	60 16       	cp	r6, r16
    7780:	71 06       	cpc	r7, r17
    7782:	2c f0       	brlt	.+10     	; 0x778e <vfprintf+0x3ca>
    7784:	90 e0       	ldi	r25, 0x00	; 0
    7786:	b6 01       	movw	r22, r12
    7788:	0e 94 80 43 	call	0x8700	; 0x8700 <fputc>
    778c:	de cf       	rjmp	.-68     	; 0x774a <vfprintf+0x386>
    778e:	6a 14       	cp	r6, r10
    7790:	7b 04       	cpc	r7, r11
    7792:	41 f4       	brne	.+16     	; 0x77a4 <vfprintf+0x3e0>
    7794:	9a 81       	ldd	r25, Y+2	; 0x02
    7796:	96 33       	cpi	r25, 0x36	; 54
    7798:	20 f4       	brcc	.+8      	; 0x77a2 <vfprintf+0x3de>
    779a:	95 33       	cpi	r25, 0x35	; 53
    779c:	19 f4       	brne	.+6      	; 0x77a4 <vfprintf+0x3e0>
    779e:	f8 89       	ldd	r31, Y+16	; 0x10
    77a0:	f4 ff       	sbrs	r31, 4
    77a2:	81 e3       	ldi	r24, 0x31	; 49
    77a4:	90 e0       	ldi	r25, 0x00	; 0
    77a6:	49 c0       	rjmp	.+146    	; 0x783a <vfprintf+0x476>
    77a8:	8a 81       	ldd	r24, Y+2	; 0x02
    77aa:	81 33       	cpi	r24, 0x31	; 49
    77ac:	11 f0       	breq	.+4      	; 0x77b2 <vfprintf+0x3ee>
    77ae:	2f ee       	ldi	r18, 0xEF	; 239
    77b0:	62 22       	and	r6, r18
    77b2:	90 e0       	ldi	r25, 0x00	; 0
    77b4:	b6 01       	movw	r22, r12
    77b6:	0e 94 80 43 	call	0x8700	; 0x8700 <fputc>
    77ba:	11 23       	and	r17, r17
    77bc:	89 f0       	breq	.+34     	; 0x77e0 <vfprintf+0x41c>
    77be:	8e e2       	ldi	r24, 0x2E	; 46
    77c0:	90 e0       	ldi	r25, 0x00	; 0
    77c2:	b6 01       	movw	r22, r12
    77c4:	0e 94 80 43 	call	0x8700	; 0x8700 <fputc>
    77c8:	02 e0       	ldi	r16, 0x02	; 2
    77ca:	f1 01       	movw	r30, r2
    77cc:	e0 0f       	add	r30, r16
    77ce:	f1 1d       	adc	r31, r1
    77d0:	0f 5f       	subi	r16, 0xFF	; 255
    77d2:	80 81       	ld	r24, Z
    77d4:	90 e0       	ldi	r25, 0x00	; 0
    77d6:	b6 01       	movw	r22, r12
    77d8:	0e 94 80 43 	call	0x8700	; 0x8700 <fputc>
    77dc:	11 50       	subi	r17, 0x01	; 1
    77de:	a9 f7       	brne	.-22     	; 0x77ca <vfprintf+0x406>
    77e0:	44 fe       	sbrs	r4, 4
    77e2:	03 c0       	rjmp	.+6      	; 0x77ea <vfprintf+0x426>
    77e4:	85 e4       	ldi	r24, 0x45	; 69
    77e6:	90 e0       	ldi	r25, 0x00	; 0
    77e8:	02 c0       	rjmp	.+4      	; 0x77ee <vfprintf+0x42a>
    77ea:	85 e6       	ldi	r24, 0x65	; 101
    77ec:	90 e0       	ldi	r25, 0x00	; 0
    77ee:	b6 01       	movw	r22, r12
    77f0:	0e 94 80 43 	call	0x8700	; 0x8700 <fputc>
    77f4:	b7 fc       	sbrc	r11, 7
    77f6:	05 c0       	rjmp	.+10     	; 0x7802 <vfprintf+0x43e>
    77f8:	a1 14       	cp	r10, r1
    77fa:	b1 04       	cpc	r11, r1
    77fc:	41 f4       	brne	.+16     	; 0x780e <vfprintf+0x44a>
    77fe:	64 fe       	sbrs	r6, 4
    7800:	06 c0       	rjmp	.+12     	; 0x780e <vfprintf+0x44a>
    7802:	b0 94       	com	r11
    7804:	a1 94       	neg	r10
    7806:	b1 08       	sbc	r11, r1
    7808:	b3 94       	inc	r11
    780a:	8d e2       	ldi	r24, 0x2D	; 45
    780c:	01 c0       	rjmp	.+2      	; 0x7810 <vfprintf+0x44c>
    780e:	8b e2       	ldi	r24, 0x2B	; 43
    7810:	90 e0       	ldi	r25, 0x00	; 0
    7812:	b6 01       	movw	r22, r12
    7814:	0e 94 80 43 	call	0x8700	; 0x8700 <fputc>
    7818:	80 e3       	ldi	r24, 0x30	; 48
    781a:	05 c0       	rjmp	.+10     	; 0x7826 <vfprintf+0x462>
    781c:	8f 5f       	subi	r24, 0xFF	; 255
    781e:	e6 ef       	ldi	r30, 0xF6	; 246
    7820:	ff ef       	ldi	r31, 0xFF	; 255
    7822:	ae 0e       	add	r10, r30
    7824:	bf 1e       	adc	r11, r31
    7826:	fa e0       	ldi	r31, 0x0A	; 10
    7828:	af 16       	cp	r10, r31
    782a:	b1 04       	cpc	r11, r1
    782c:	bc f7       	brge	.-18     	; 0x781c <vfprintf+0x458>
    782e:	90 e0       	ldi	r25, 0x00	; 0
    7830:	b6 01       	movw	r22, r12
    7832:	0e 94 80 43 	call	0x8700	; 0x8700 <fputc>
    7836:	c5 01       	movw	r24, r10
    7838:	c0 96       	adiw	r24, 0x30	; 48
    783a:	b6 01       	movw	r22, r12
    783c:	0e 94 80 43 	call	0x8700	; 0x8700 <fputc>
    7840:	4d c1       	rjmp	.+666    	; 0x7adc <vfprintf+0x718>
    7842:	83 36       	cpi	r24, 0x63	; 99
    7844:	31 f0       	breq	.+12     	; 0x7852 <vfprintf+0x48e>
    7846:	83 37       	cpi	r24, 0x73	; 115
    7848:	89 f0       	breq	.+34     	; 0x786c <vfprintf+0x4a8>
    784a:	83 35       	cpi	r24, 0x53	; 83
    784c:	09 f0       	breq	.+2      	; 0x7850 <vfprintf+0x48c>
    784e:	59 c0       	rjmp	.+178    	; 0x7902 <vfprintf+0x53e>
    7850:	22 c0       	rjmp	.+68     	; 0x7896 <vfprintf+0x4d2>
    7852:	9a 01       	movw	r18, r20
    7854:	2e 5f       	subi	r18, 0xFE	; 254
    7856:	3f 4f       	sbci	r19, 0xFF	; 255
    7858:	3d 87       	std	Y+13, r19	; 0x0d
    785a:	2c 87       	std	Y+12, r18	; 0x0c
    785c:	fa 01       	movw	r30, r20
    785e:	80 81       	ld	r24, Z
    7860:	89 83       	std	Y+1, r24	; 0x01
    7862:	31 01       	movw	r6, r2
    7864:	81 e0       	ldi	r24, 0x01	; 1
    7866:	a8 2e       	mov	r10, r24
    7868:	b1 2c       	mov	r11, r1
    786a:	13 c0       	rjmp	.+38     	; 0x7892 <vfprintf+0x4ce>
    786c:	9a 01       	movw	r18, r20
    786e:	2e 5f       	subi	r18, 0xFE	; 254
    7870:	3f 4f       	sbci	r19, 0xFF	; 255
    7872:	3d 87       	std	Y+13, r19	; 0x0d
    7874:	2c 87       	std	Y+12, r18	; 0x0c
    7876:	fa 01       	movw	r30, r20
    7878:	60 80       	ld	r6, Z
    787a:	71 80       	ldd	r7, Z+1	; 0x01
    787c:	06 ff       	sbrs	r16, 6
    787e:	03 c0       	rjmp	.+6      	; 0x7886 <vfprintf+0x4c2>
    7880:	61 2f       	mov	r22, r17
    7882:	70 e0       	ldi	r23, 0x00	; 0
    7884:	02 c0       	rjmp	.+4      	; 0x788a <vfprintf+0x4c6>
    7886:	6f ef       	ldi	r22, 0xFF	; 255
    7888:	7f ef       	ldi	r23, 0xFF	; 255
    788a:	c3 01       	movw	r24, r6
    788c:	0e 94 e8 42 	call	0x85d0	; 0x85d0 <strnlen>
    7890:	5c 01       	movw	r10, r24
    7892:	0f 77       	andi	r16, 0x7F	; 127
    7894:	14 c0       	rjmp	.+40     	; 0x78be <vfprintf+0x4fa>
    7896:	9a 01       	movw	r18, r20
    7898:	2e 5f       	subi	r18, 0xFE	; 254
    789a:	3f 4f       	sbci	r19, 0xFF	; 255
    789c:	3d 87       	std	Y+13, r19	; 0x0d
    789e:	2c 87       	std	Y+12, r18	; 0x0c
    78a0:	fa 01       	movw	r30, r20
    78a2:	60 80       	ld	r6, Z
    78a4:	71 80       	ldd	r7, Z+1	; 0x01
    78a6:	06 ff       	sbrs	r16, 6
    78a8:	03 c0       	rjmp	.+6      	; 0x78b0 <vfprintf+0x4ec>
    78aa:	61 2f       	mov	r22, r17
    78ac:	70 e0       	ldi	r23, 0x00	; 0
    78ae:	02 c0       	rjmp	.+4      	; 0x78b4 <vfprintf+0x4f0>
    78b0:	6f ef       	ldi	r22, 0xFF	; 255
    78b2:	7f ef       	ldi	r23, 0xFF	; 255
    78b4:	c3 01       	movw	r24, r6
    78b6:	0e 94 dd 42 	call	0x85ba	; 0x85ba <strnlen_P>
    78ba:	5c 01       	movw	r10, r24
    78bc:	00 68       	ori	r16, 0x80	; 128
    78be:	03 fd       	sbrc	r16, 3
    78c0:	1c c0       	rjmp	.+56     	; 0x78fa <vfprintf+0x536>
    78c2:	06 c0       	rjmp	.+12     	; 0x78d0 <vfprintf+0x50c>
    78c4:	80 e2       	ldi	r24, 0x20	; 32
    78c6:	90 e0       	ldi	r25, 0x00	; 0
    78c8:	b6 01       	movw	r22, r12
    78ca:	0e 94 80 43 	call	0x8700	; 0x8700 <fputc>
    78ce:	fa 94       	dec	r15
    78d0:	8f 2d       	mov	r24, r15
    78d2:	90 e0       	ldi	r25, 0x00	; 0
    78d4:	a8 16       	cp	r10, r24
    78d6:	b9 06       	cpc	r11, r25
    78d8:	a8 f3       	brcs	.-22     	; 0x78c4 <vfprintf+0x500>
    78da:	0f c0       	rjmp	.+30     	; 0x78fa <vfprintf+0x536>
    78dc:	f3 01       	movw	r30, r6
    78de:	07 fd       	sbrc	r16, 7
    78e0:	85 91       	lpm	r24, Z+
    78e2:	07 ff       	sbrs	r16, 7
    78e4:	81 91       	ld	r24, Z+
    78e6:	3f 01       	movw	r6, r30
    78e8:	90 e0       	ldi	r25, 0x00	; 0
    78ea:	b6 01       	movw	r22, r12
    78ec:	0e 94 80 43 	call	0x8700	; 0x8700 <fputc>
    78f0:	f1 10       	cpse	r15, r1
    78f2:	fa 94       	dec	r15
    78f4:	08 94       	sec
    78f6:	a1 08       	sbc	r10, r1
    78f8:	b1 08       	sbc	r11, r1
    78fa:	a1 14       	cp	r10, r1
    78fc:	b1 04       	cpc	r11, r1
    78fe:	71 f7       	brne	.-36     	; 0x78dc <vfprintf+0x518>
    7900:	ed c0       	rjmp	.+474    	; 0x7adc <vfprintf+0x718>
    7902:	84 36       	cpi	r24, 0x64	; 100
    7904:	11 f0       	breq	.+4      	; 0x790a <vfprintf+0x546>
    7906:	89 36       	cpi	r24, 0x69	; 105
    7908:	61 f5       	brne	.+88     	; 0x7962 <vfprintf+0x59e>
    790a:	07 ff       	sbrs	r16, 7
    790c:	0b c0       	rjmp	.+22     	; 0x7924 <vfprintf+0x560>
    790e:	9a 01       	movw	r18, r20
    7910:	2c 5f       	subi	r18, 0xFC	; 252
    7912:	3f 4f       	sbci	r19, 0xFF	; 255
    7914:	3d 87       	std	Y+13, r19	; 0x0d
    7916:	2c 87       	std	Y+12, r18	; 0x0c
    7918:	fa 01       	movw	r30, r20
    791a:	60 81       	ld	r22, Z
    791c:	71 81       	ldd	r23, Z+1	; 0x01
    791e:	82 81       	ldd	r24, Z+2	; 0x02
    7920:	93 81       	ldd	r25, Z+3	; 0x03
    7922:	0c c0       	rjmp	.+24     	; 0x793c <vfprintf+0x578>
    7924:	9a 01       	movw	r18, r20
    7926:	2e 5f       	subi	r18, 0xFE	; 254
    7928:	3f 4f       	sbci	r19, 0xFF	; 255
    792a:	3d 87       	std	Y+13, r19	; 0x0d
    792c:	2c 87       	std	Y+12, r18	; 0x0c
    792e:	fa 01       	movw	r30, r20
    7930:	60 81       	ld	r22, Z
    7932:	71 81       	ldd	r23, Z+1	; 0x01
    7934:	88 27       	eor	r24, r24
    7936:	77 fd       	sbrc	r23, 7
    7938:	80 95       	com	r24
    793a:	98 2f       	mov	r25, r24
    793c:	0f 76       	andi	r16, 0x6F	; 111
    793e:	97 ff       	sbrs	r25, 7
    7940:	08 c0       	rjmp	.+16     	; 0x7952 <vfprintf+0x58e>
    7942:	90 95       	com	r25
    7944:	80 95       	com	r24
    7946:	70 95       	com	r23
    7948:	61 95       	neg	r22
    794a:	7f 4f       	sbci	r23, 0xFF	; 255
    794c:	8f 4f       	sbci	r24, 0xFF	; 255
    794e:	9f 4f       	sbci	r25, 0xFF	; 255
    7950:	00 68       	ori	r16, 0x80	; 128
    7952:	a1 01       	movw	r20, r2
    7954:	2a e0       	ldi	r18, 0x0A	; 10
    7956:	30 e0       	ldi	r19, 0x00	; 0
    7958:	0e 94 25 44 	call	0x884a	; 0x884a <__ultoa_invert>
    795c:	98 2e       	mov	r9, r24
    795e:	92 18       	sub	r9, r2
    7960:	41 c0       	rjmp	.+130    	; 0x79e4 <vfprintf+0x620>
    7962:	85 37       	cpi	r24, 0x75	; 117
    7964:	21 f4       	brne	.+8      	; 0x796e <vfprintf+0x5aa>
    7966:	0f 7e       	andi	r16, 0xEF	; 239
    7968:	2a e0       	ldi	r18, 0x0A	; 10
    796a:	30 e0       	ldi	r19, 0x00	; 0
    796c:	20 c0       	rjmp	.+64     	; 0x79ae <vfprintf+0x5ea>
    796e:	09 7f       	andi	r16, 0xF9	; 249
    7970:	8f 36       	cpi	r24, 0x6F	; 111
    7972:	a9 f0       	breq	.+42     	; 0x799e <vfprintf+0x5da>
    7974:	80 37       	cpi	r24, 0x70	; 112
    7976:	20 f4       	brcc	.+8      	; 0x7980 <vfprintf+0x5bc>
    7978:	88 35       	cpi	r24, 0x58	; 88
    797a:	09 f0       	breq	.+2      	; 0x797e <vfprintf+0x5ba>
    797c:	b2 c0       	rjmp	.+356    	; 0x7ae2 <vfprintf+0x71e>
    797e:	0b c0       	rjmp	.+22     	; 0x7996 <vfprintf+0x5d2>
    7980:	80 37       	cpi	r24, 0x70	; 112
    7982:	21 f0       	breq	.+8      	; 0x798c <vfprintf+0x5c8>
    7984:	88 37       	cpi	r24, 0x78	; 120
    7986:	09 f0       	breq	.+2      	; 0x798a <vfprintf+0x5c6>
    7988:	ac c0       	rjmp	.+344    	; 0x7ae2 <vfprintf+0x71e>
    798a:	01 c0       	rjmp	.+2      	; 0x798e <vfprintf+0x5ca>
    798c:	00 61       	ori	r16, 0x10	; 16
    798e:	04 ff       	sbrs	r16, 4
    7990:	09 c0       	rjmp	.+18     	; 0x79a4 <vfprintf+0x5e0>
    7992:	04 60       	ori	r16, 0x04	; 4
    7994:	07 c0       	rjmp	.+14     	; 0x79a4 <vfprintf+0x5e0>
    7996:	04 ff       	sbrs	r16, 4
    7998:	08 c0       	rjmp	.+16     	; 0x79aa <vfprintf+0x5e6>
    799a:	06 60       	ori	r16, 0x06	; 6
    799c:	06 c0       	rjmp	.+12     	; 0x79aa <vfprintf+0x5e6>
    799e:	28 e0       	ldi	r18, 0x08	; 8
    79a0:	30 e0       	ldi	r19, 0x00	; 0
    79a2:	05 c0       	rjmp	.+10     	; 0x79ae <vfprintf+0x5ea>
    79a4:	20 e1       	ldi	r18, 0x10	; 16
    79a6:	30 e0       	ldi	r19, 0x00	; 0
    79a8:	02 c0       	rjmp	.+4      	; 0x79ae <vfprintf+0x5ea>
    79aa:	20 e1       	ldi	r18, 0x10	; 16
    79ac:	32 e0       	ldi	r19, 0x02	; 2
    79ae:	07 ff       	sbrs	r16, 7
    79b0:	0a c0       	rjmp	.+20     	; 0x79c6 <vfprintf+0x602>
    79b2:	ca 01       	movw	r24, r20
    79b4:	04 96       	adiw	r24, 0x04	; 4
    79b6:	9d 87       	std	Y+13, r25	; 0x0d
    79b8:	8c 87       	std	Y+12, r24	; 0x0c
    79ba:	fa 01       	movw	r30, r20
    79bc:	60 81       	ld	r22, Z
    79be:	71 81       	ldd	r23, Z+1	; 0x01
    79c0:	82 81       	ldd	r24, Z+2	; 0x02
    79c2:	93 81       	ldd	r25, Z+3	; 0x03
    79c4:	09 c0       	rjmp	.+18     	; 0x79d8 <vfprintf+0x614>
    79c6:	ca 01       	movw	r24, r20
    79c8:	02 96       	adiw	r24, 0x02	; 2
    79ca:	9d 87       	std	Y+13, r25	; 0x0d
    79cc:	8c 87       	std	Y+12, r24	; 0x0c
    79ce:	fa 01       	movw	r30, r20
    79d0:	60 81       	ld	r22, Z
    79d2:	71 81       	ldd	r23, Z+1	; 0x01
    79d4:	80 e0       	ldi	r24, 0x00	; 0
    79d6:	90 e0       	ldi	r25, 0x00	; 0
    79d8:	a1 01       	movw	r20, r2
    79da:	0e 94 25 44 	call	0x884a	; 0x884a <__ultoa_invert>
    79de:	98 2e       	mov	r9, r24
    79e0:	92 18       	sub	r9, r2
    79e2:	0f 77       	andi	r16, 0x7F	; 127
    79e4:	06 ff       	sbrs	r16, 6
    79e6:	09 c0       	rjmp	.+18     	; 0x79fa <vfprintf+0x636>
    79e8:	0e 7f       	andi	r16, 0xFE	; 254
    79ea:	91 16       	cp	r9, r17
    79ec:	30 f4       	brcc	.+12     	; 0x79fa <vfprintf+0x636>
    79ee:	04 ff       	sbrs	r16, 4
    79f0:	06 c0       	rjmp	.+12     	; 0x79fe <vfprintf+0x63a>
    79f2:	02 fd       	sbrc	r16, 2
    79f4:	04 c0       	rjmp	.+8      	; 0x79fe <vfprintf+0x63a>
    79f6:	0f 7e       	andi	r16, 0xEF	; 239
    79f8:	02 c0       	rjmp	.+4      	; 0x79fe <vfprintf+0x63a>
    79fa:	e9 2c       	mov	r14, r9
    79fc:	01 c0       	rjmp	.+2      	; 0x7a00 <vfprintf+0x63c>
    79fe:	e1 2e       	mov	r14, r17
    7a00:	80 2f       	mov	r24, r16
    7a02:	90 e0       	ldi	r25, 0x00	; 0
    7a04:	04 ff       	sbrs	r16, 4
    7a06:	0c c0       	rjmp	.+24     	; 0x7a20 <vfprintf+0x65c>
    7a08:	fe 01       	movw	r30, r28
    7a0a:	e9 0d       	add	r30, r9
    7a0c:	f1 1d       	adc	r31, r1
    7a0e:	20 81       	ld	r18, Z
    7a10:	20 33       	cpi	r18, 0x30	; 48
    7a12:	11 f4       	brne	.+4      	; 0x7a18 <vfprintf+0x654>
    7a14:	09 7e       	andi	r16, 0xE9	; 233
    7a16:	09 c0       	rjmp	.+18     	; 0x7a2a <vfprintf+0x666>
    7a18:	e3 94       	inc	r14
    7a1a:	02 ff       	sbrs	r16, 2
    7a1c:	06 c0       	rjmp	.+12     	; 0x7a2a <vfprintf+0x666>
    7a1e:	04 c0       	rjmp	.+8      	; 0x7a28 <vfprintf+0x664>
    7a20:	86 78       	andi	r24, 0x86	; 134
    7a22:	90 70       	andi	r25, 0x00	; 0
    7a24:	00 97       	sbiw	r24, 0x00	; 0
    7a26:	09 f0       	breq	.+2      	; 0x7a2a <vfprintf+0x666>
    7a28:	e3 94       	inc	r14
    7a2a:	a0 2e       	mov	r10, r16
    7a2c:	bb 24       	eor	r11, r11
    7a2e:	03 fd       	sbrc	r16, 3
    7a30:	14 c0       	rjmp	.+40     	; 0x7a5a <vfprintf+0x696>
    7a32:	00 ff       	sbrs	r16, 0
    7a34:	0f c0       	rjmp	.+30     	; 0x7a54 <vfprintf+0x690>
    7a36:	ef 14       	cp	r14, r15
    7a38:	28 f4       	brcc	.+10     	; 0x7a44 <vfprintf+0x680>
    7a3a:	19 2d       	mov	r17, r9
    7a3c:	1f 0d       	add	r17, r15
    7a3e:	1e 19       	sub	r17, r14
    7a40:	ef 2c       	mov	r14, r15
    7a42:	08 c0       	rjmp	.+16     	; 0x7a54 <vfprintf+0x690>
    7a44:	19 2d       	mov	r17, r9
    7a46:	06 c0       	rjmp	.+12     	; 0x7a54 <vfprintf+0x690>
    7a48:	80 e2       	ldi	r24, 0x20	; 32
    7a4a:	90 e0       	ldi	r25, 0x00	; 0
    7a4c:	b6 01       	movw	r22, r12
    7a4e:	0e 94 80 43 	call	0x8700	; 0x8700 <fputc>
    7a52:	e3 94       	inc	r14
    7a54:	ef 14       	cp	r14, r15
    7a56:	c0 f3       	brcs	.-16     	; 0x7a48 <vfprintf+0x684>
    7a58:	04 c0       	rjmp	.+8      	; 0x7a62 <vfprintf+0x69e>
    7a5a:	ef 14       	cp	r14, r15
    7a5c:	10 f4       	brcc	.+4      	; 0x7a62 <vfprintf+0x69e>
    7a5e:	fe 18       	sub	r15, r14
    7a60:	01 c0       	rjmp	.+2      	; 0x7a64 <vfprintf+0x6a0>
    7a62:	ff 24       	eor	r15, r15
    7a64:	a4 fe       	sbrs	r10, 4
    7a66:	0f c0       	rjmp	.+30     	; 0x7a86 <vfprintf+0x6c2>
    7a68:	80 e3       	ldi	r24, 0x30	; 48
    7a6a:	90 e0       	ldi	r25, 0x00	; 0
    7a6c:	b6 01       	movw	r22, r12
    7a6e:	0e 94 80 43 	call	0x8700	; 0x8700 <fputc>
    7a72:	a2 fe       	sbrs	r10, 2
    7a74:	1f c0       	rjmp	.+62     	; 0x7ab4 <vfprintf+0x6f0>
    7a76:	a1 fe       	sbrs	r10, 1
    7a78:	03 c0       	rjmp	.+6      	; 0x7a80 <vfprintf+0x6bc>
    7a7a:	88 e5       	ldi	r24, 0x58	; 88
    7a7c:	90 e0       	ldi	r25, 0x00	; 0
    7a7e:	10 c0       	rjmp	.+32     	; 0x7aa0 <vfprintf+0x6dc>
    7a80:	88 e7       	ldi	r24, 0x78	; 120
    7a82:	90 e0       	ldi	r25, 0x00	; 0
    7a84:	0d c0       	rjmp	.+26     	; 0x7aa0 <vfprintf+0x6dc>
    7a86:	c5 01       	movw	r24, r10
    7a88:	86 78       	andi	r24, 0x86	; 134
    7a8a:	90 70       	andi	r25, 0x00	; 0
    7a8c:	00 97       	sbiw	r24, 0x00	; 0
    7a8e:	91 f0       	breq	.+36     	; 0x7ab4 <vfprintf+0x6f0>
    7a90:	a1 fc       	sbrc	r10, 1
    7a92:	02 c0       	rjmp	.+4      	; 0x7a98 <vfprintf+0x6d4>
    7a94:	80 e2       	ldi	r24, 0x20	; 32
    7a96:	01 c0       	rjmp	.+2      	; 0x7a9a <vfprintf+0x6d6>
    7a98:	8b e2       	ldi	r24, 0x2B	; 43
    7a9a:	07 fd       	sbrc	r16, 7
    7a9c:	8d e2       	ldi	r24, 0x2D	; 45
    7a9e:	90 e0       	ldi	r25, 0x00	; 0
    7aa0:	b6 01       	movw	r22, r12
    7aa2:	0e 94 80 43 	call	0x8700	; 0x8700 <fputc>
    7aa6:	06 c0       	rjmp	.+12     	; 0x7ab4 <vfprintf+0x6f0>
    7aa8:	80 e3       	ldi	r24, 0x30	; 48
    7aaa:	90 e0       	ldi	r25, 0x00	; 0
    7aac:	b6 01       	movw	r22, r12
    7aae:	0e 94 80 43 	call	0x8700	; 0x8700 <fputc>
    7ab2:	11 50       	subi	r17, 0x01	; 1
    7ab4:	91 16       	cp	r9, r17
    7ab6:	c0 f3       	brcs	.-16     	; 0x7aa8 <vfprintf+0x6e4>
    7ab8:	9a 94       	dec	r9
    7aba:	f1 01       	movw	r30, r2
    7abc:	e9 0d       	add	r30, r9
    7abe:	f1 1d       	adc	r31, r1
    7ac0:	80 81       	ld	r24, Z
    7ac2:	90 e0       	ldi	r25, 0x00	; 0
    7ac4:	b6 01       	movw	r22, r12
    7ac6:	0e 94 80 43 	call	0x8700	; 0x8700 <fputc>
    7aca:	99 20       	and	r9, r9
    7acc:	a9 f7       	brne	.-22     	; 0x7ab8 <vfprintf+0x6f4>
    7ace:	06 c0       	rjmp	.+12     	; 0x7adc <vfprintf+0x718>
    7ad0:	80 e2       	ldi	r24, 0x20	; 32
    7ad2:	90 e0       	ldi	r25, 0x00	; 0
    7ad4:	b6 01       	movw	r22, r12
    7ad6:	0e 94 80 43 	call	0x8700	; 0x8700 <fputc>
    7ada:	fa 94       	dec	r15
    7adc:	ff 20       	and	r15, r15
    7ade:	c1 f7       	brne	.-16     	; 0x7ad0 <vfprintf+0x70c>
    7ae0:	95 cc       	rjmp	.-1750   	; 0x740c <vfprintf+0x48>
    7ae2:	f6 01       	movw	r30, r12
    7ae4:	26 81       	ldd	r18, Z+6	; 0x06
    7ae6:	37 81       	ldd	r19, Z+7	; 0x07
    7ae8:	02 c0       	rjmp	.+4      	; 0x7aee <vfprintf+0x72a>
    7aea:	2f ef       	ldi	r18, 0xFF	; 255
    7aec:	3f ef       	ldi	r19, 0xFF	; 255
    7aee:	c9 01       	movw	r24, r18
    7af0:	63 96       	adiw	r28, 0x13	; 19
    7af2:	0f b6       	in	r0, 0x3f	; 63
    7af4:	f8 94       	cli
    7af6:	de bf       	out	0x3e, r29	; 62
    7af8:	0f be       	out	0x3f, r0	; 63
    7afa:	cd bf       	out	0x3d, r28	; 61
    7afc:	cf 91       	pop	r28
    7afe:	df 91       	pop	r29
    7b00:	1f 91       	pop	r17
    7b02:	0f 91       	pop	r16
    7b04:	ff 90       	pop	r15
    7b06:	ef 90       	pop	r14
    7b08:	df 90       	pop	r13
    7b0a:	cf 90       	pop	r12
    7b0c:	bf 90       	pop	r11
    7b0e:	af 90       	pop	r10
    7b10:	9f 90       	pop	r9
    7b12:	8f 90       	pop	r8
    7b14:	7f 90       	pop	r7
    7b16:	6f 90       	pop	r6
    7b18:	5f 90       	pop	r5
    7b1a:	4f 90       	pop	r4
    7b1c:	3f 90       	pop	r3
    7b1e:	2f 90       	pop	r2
    7b20:	08 95       	ret

00007b22 <__subsf3>:
    7b22:	50 58       	subi	r21, 0x80	; 128

00007b24 <__addsf3>:
    7b24:	bb 27       	eor	r27, r27
    7b26:	aa 27       	eor	r26, r26
    7b28:	0e d0       	rcall	.+28     	; 0x7b46 <__addsf3x>
    7b2a:	48 c1       	rjmp	.+656    	; 0x7dbc <__fp_round>
    7b2c:	39 d1       	rcall	.+626    	; 0x7da0 <__fp_pscA>
    7b2e:	30 f0       	brcs	.+12     	; 0x7b3c <__addsf3+0x18>
    7b30:	3e d1       	rcall	.+636    	; 0x7dae <__fp_pscB>
    7b32:	20 f0       	brcs	.+8      	; 0x7b3c <__addsf3+0x18>
    7b34:	31 f4       	brne	.+12     	; 0x7b42 <__addsf3+0x1e>
    7b36:	9f 3f       	cpi	r25, 0xFF	; 255
    7b38:	11 f4       	brne	.+4      	; 0x7b3e <__addsf3+0x1a>
    7b3a:	1e f4       	brtc	.+6      	; 0x7b42 <__addsf3+0x1e>
    7b3c:	2e c1       	rjmp	.+604    	; 0x7d9a <__fp_nan>
    7b3e:	0e f4       	brtc	.+2      	; 0x7b42 <__addsf3+0x1e>
    7b40:	e0 95       	com	r30
    7b42:	e7 fb       	bst	r30, 7
    7b44:	24 c1       	rjmp	.+584    	; 0x7d8e <__fp_inf>

00007b46 <__addsf3x>:
    7b46:	e9 2f       	mov	r30, r25
    7b48:	4a d1       	rcall	.+660    	; 0x7dde <__fp_split3>
    7b4a:	80 f3       	brcs	.-32     	; 0x7b2c <__addsf3+0x8>
    7b4c:	ba 17       	cp	r27, r26
    7b4e:	62 07       	cpc	r22, r18
    7b50:	73 07       	cpc	r23, r19
    7b52:	84 07       	cpc	r24, r20
    7b54:	95 07       	cpc	r25, r21
    7b56:	18 f0       	brcs	.+6      	; 0x7b5e <__addsf3x+0x18>
    7b58:	71 f4       	brne	.+28     	; 0x7b76 <__addsf3x+0x30>
    7b5a:	9e f5       	brtc	.+102    	; 0x7bc2 <__addsf3x+0x7c>
    7b5c:	62 c1       	rjmp	.+708    	; 0x7e22 <__fp_zero>
    7b5e:	0e f4       	brtc	.+2      	; 0x7b62 <__addsf3x+0x1c>
    7b60:	e0 95       	com	r30
    7b62:	0b 2e       	mov	r0, r27
    7b64:	ba 2f       	mov	r27, r26
    7b66:	a0 2d       	mov	r26, r0
    7b68:	0b 01       	movw	r0, r22
    7b6a:	b9 01       	movw	r22, r18
    7b6c:	90 01       	movw	r18, r0
    7b6e:	0c 01       	movw	r0, r24
    7b70:	ca 01       	movw	r24, r20
    7b72:	a0 01       	movw	r20, r0
    7b74:	11 24       	eor	r1, r1
    7b76:	ff 27       	eor	r31, r31
    7b78:	59 1b       	sub	r21, r25
    7b7a:	99 f0       	breq	.+38     	; 0x7ba2 <__addsf3x+0x5c>
    7b7c:	59 3f       	cpi	r21, 0xF9	; 249
    7b7e:	50 f4       	brcc	.+20     	; 0x7b94 <__addsf3x+0x4e>
    7b80:	50 3e       	cpi	r21, 0xE0	; 224
    7b82:	68 f1       	brcs	.+90     	; 0x7bde <__addsf3x+0x98>
    7b84:	1a 16       	cp	r1, r26
    7b86:	f0 40       	sbci	r31, 0x00	; 0
    7b88:	a2 2f       	mov	r26, r18
    7b8a:	23 2f       	mov	r18, r19
    7b8c:	34 2f       	mov	r19, r20
    7b8e:	44 27       	eor	r20, r20
    7b90:	58 5f       	subi	r21, 0xF8	; 248
    7b92:	f3 cf       	rjmp	.-26     	; 0x7b7a <__addsf3x+0x34>
    7b94:	46 95       	lsr	r20
    7b96:	37 95       	ror	r19
    7b98:	27 95       	ror	r18
    7b9a:	a7 95       	ror	r26
    7b9c:	f0 40       	sbci	r31, 0x00	; 0
    7b9e:	53 95       	inc	r21
    7ba0:	c9 f7       	brne	.-14     	; 0x7b94 <__addsf3x+0x4e>
    7ba2:	7e f4       	brtc	.+30     	; 0x7bc2 <__addsf3x+0x7c>
    7ba4:	1f 16       	cp	r1, r31
    7ba6:	ba 0b       	sbc	r27, r26
    7ba8:	62 0b       	sbc	r22, r18
    7baa:	73 0b       	sbc	r23, r19
    7bac:	84 0b       	sbc	r24, r20
    7bae:	ba f0       	brmi	.+46     	; 0x7bde <__addsf3x+0x98>
    7bb0:	91 50       	subi	r25, 0x01	; 1
    7bb2:	a1 f0       	breq	.+40     	; 0x7bdc <__addsf3x+0x96>
    7bb4:	ff 0f       	add	r31, r31
    7bb6:	bb 1f       	adc	r27, r27
    7bb8:	66 1f       	adc	r22, r22
    7bba:	77 1f       	adc	r23, r23
    7bbc:	88 1f       	adc	r24, r24
    7bbe:	c2 f7       	brpl	.-16     	; 0x7bb0 <__addsf3x+0x6a>
    7bc0:	0e c0       	rjmp	.+28     	; 0x7bde <__addsf3x+0x98>
    7bc2:	ba 0f       	add	r27, r26
    7bc4:	62 1f       	adc	r22, r18
    7bc6:	73 1f       	adc	r23, r19
    7bc8:	84 1f       	adc	r24, r20
    7bca:	48 f4       	brcc	.+18     	; 0x7bde <__addsf3x+0x98>
    7bcc:	87 95       	ror	r24
    7bce:	77 95       	ror	r23
    7bd0:	67 95       	ror	r22
    7bd2:	b7 95       	ror	r27
    7bd4:	f7 95       	ror	r31
    7bd6:	9e 3f       	cpi	r25, 0xFE	; 254
    7bd8:	08 f0       	brcs	.+2      	; 0x7bdc <__addsf3x+0x96>
    7bda:	b3 cf       	rjmp	.-154    	; 0x7b42 <__addsf3+0x1e>
    7bdc:	93 95       	inc	r25
    7bde:	88 0f       	add	r24, r24
    7be0:	08 f0       	brcs	.+2      	; 0x7be4 <__addsf3x+0x9e>
    7be2:	99 27       	eor	r25, r25
    7be4:	ee 0f       	add	r30, r30
    7be6:	97 95       	ror	r25
    7be8:	87 95       	ror	r24
    7bea:	08 95       	ret

00007bec <__divsf3>:
    7bec:	0c d0       	rcall	.+24     	; 0x7c06 <__divsf3x>
    7bee:	e6 c0       	rjmp	.+460    	; 0x7dbc <__fp_round>
    7bf0:	de d0       	rcall	.+444    	; 0x7dae <__fp_pscB>
    7bf2:	40 f0       	brcs	.+16     	; 0x7c04 <__divsf3+0x18>
    7bf4:	d5 d0       	rcall	.+426    	; 0x7da0 <__fp_pscA>
    7bf6:	30 f0       	brcs	.+12     	; 0x7c04 <__divsf3+0x18>
    7bf8:	21 f4       	brne	.+8      	; 0x7c02 <__divsf3+0x16>
    7bfa:	5f 3f       	cpi	r21, 0xFF	; 255
    7bfc:	19 f0       	breq	.+6      	; 0x7c04 <__divsf3+0x18>
    7bfe:	c7 c0       	rjmp	.+398    	; 0x7d8e <__fp_inf>
    7c00:	51 11       	cpse	r21, r1
    7c02:	10 c1       	rjmp	.+544    	; 0x7e24 <__fp_szero>
    7c04:	ca c0       	rjmp	.+404    	; 0x7d9a <__fp_nan>

00007c06 <__divsf3x>:
    7c06:	eb d0       	rcall	.+470    	; 0x7dde <__fp_split3>
    7c08:	98 f3       	brcs	.-26     	; 0x7bf0 <__divsf3+0x4>

00007c0a <__divsf3_pse>:
    7c0a:	99 23       	and	r25, r25
    7c0c:	c9 f3       	breq	.-14     	; 0x7c00 <__divsf3+0x14>
    7c0e:	55 23       	and	r21, r21
    7c10:	b1 f3       	breq	.-20     	; 0x7bfe <__divsf3+0x12>
    7c12:	95 1b       	sub	r25, r21
    7c14:	55 0b       	sbc	r21, r21
    7c16:	bb 27       	eor	r27, r27
    7c18:	aa 27       	eor	r26, r26
    7c1a:	62 17       	cp	r22, r18
    7c1c:	73 07       	cpc	r23, r19
    7c1e:	84 07       	cpc	r24, r20
    7c20:	38 f0       	brcs	.+14     	; 0x7c30 <__divsf3_pse+0x26>
    7c22:	9f 5f       	subi	r25, 0xFF	; 255
    7c24:	5f 4f       	sbci	r21, 0xFF	; 255
    7c26:	22 0f       	add	r18, r18
    7c28:	33 1f       	adc	r19, r19
    7c2a:	44 1f       	adc	r20, r20
    7c2c:	aa 1f       	adc	r26, r26
    7c2e:	a9 f3       	breq	.-22     	; 0x7c1a <__divsf3_pse+0x10>
    7c30:	33 d0       	rcall	.+102    	; 0x7c98 <__divsf3_pse+0x8e>
    7c32:	0e 2e       	mov	r0, r30
    7c34:	3a f0       	brmi	.+14     	; 0x7c44 <__divsf3_pse+0x3a>
    7c36:	e0 e8       	ldi	r30, 0x80	; 128
    7c38:	30 d0       	rcall	.+96     	; 0x7c9a <__divsf3_pse+0x90>
    7c3a:	91 50       	subi	r25, 0x01	; 1
    7c3c:	50 40       	sbci	r21, 0x00	; 0
    7c3e:	e6 95       	lsr	r30
    7c40:	00 1c       	adc	r0, r0
    7c42:	ca f7       	brpl	.-14     	; 0x7c36 <__divsf3_pse+0x2c>
    7c44:	29 d0       	rcall	.+82     	; 0x7c98 <__divsf3_pse+0x8e>
    7c46:	fe 2f       	mov	r31, r30
    7c48:	27 d0       	rcall	.+78     	; 0x7c98 <__divsf3_pse+0x8e>
    7c4a:	66 0f       	add	r22, r22
    7c4c:	77 1f       	adc	r23, r23
    7c4e:	88 1f       	adc	r24, r24
    7c50:	bb 1f       	adc	r27, r27
    7c52:	26 17       	cp	r18, r22
    7c54:	37 07       	cpc	r19, r23
    7c56:	48 07       	cpc	r20, r24
    7c58:	ab 07       	cpc	r26, r27
    7c5a:	b0 e8       	ldi	r27, 0x80	; 128
    7c5c:	09 f0       	breq	.+2      	; 0x7c60 <__divsf3_pse+0x56>
    7c5e:	bb 0b       	sbc	r27, r27
    7c60:	80 2d       	mov	r24, r0
    7c62:	bf 01       	movw	r22, r30
    7c64:	ff 27       	eor	r31, r31
    7c66:	93 58       	subi	r25, 0x83	; 131
    7c68:	5f 4f       	sbci	r21, 0xFF	; 255
    7c6a:	2a f0       	brmi	.+10     	; 0x7c76 <__divsf3_pse+0x6c>
    7c6c:	9e 3f       	cpi	r25, 0xFE	; 254
    7c6e:	51 05       	cpc	r21, r1
    7c70:	68 f0       	brcs	.+26     	; 0x7c8c <__divsf3_pse+0x82>
    7c72:	8d c0       	rjmp	.+282    	; 0x7d8e <__fp_inf>
    7c74:	d7 c0       	rjmp	.+430    	; 0x7e24 <__fp_szero>
    7c76:	5f 3f       	cpi	r21, 0xFF	; 255
    7c78:	ec f3       	brlt	.-6      	; 0x7c74 <__divsf3_pse+0x6a>
    7c7a:	98 3e       	cpi	r25, 0xE8	; 232
    7c7c:	dc f3       	brlt	.-10     	; 0x7c74 <__divsf3_pse+0x6a>
    7c7e:	86 95       	lsr	r24
    7c80:	77 95       	ror	r23
    7c82:	67 95       	ror	r22
    7c84:	b7 95       	ror	r27
    7c86:	f7 95       	ror	r31
    7c88:	9f 5f       	subi	r25, 0xFF	; 255
    7c8a:	c9 f7       	brne	.-14     	; 0x7c7e <__divsf3_pse+0x74>
    7c8c:	88 0f       	add	r24, r24
    7c8e:	91 1d       	adc	r25, r1
    7c90:	96 95       	lsr	r25
    7c92:	87 95       	ror	r24
    7c94:	97 f9       	bld	r25, 7
    7c96:	08 95       	ret
    7c98:	e1 e0       	ldi	r30, 0x01	; 1
    7c9a:	66 0f       	add	r22, r22
    7c9c:	77 1f       	adc	r23, r23
    7c9e:	88 1f       	adc	r24, r24
    7ca0:	bb 1f       	adc	r27, r27
    7ca2:	62 17       	cp	r22, r18
    7ca4:	73 07       	cpc	r23, r19
    7ca6:	84 07       	cpc	r24, r20
    7ca8:	ba 07       	cpc	r27, r26
    7caa:	20 f0       	brcs	.+8      	; 0x7cb4 <__divsf3_pse+0xaa>
    7cac:	62 1b       	sub	r22, r18
    7cae:	73 0b       	sbc	r23, r19
    7cb0:	84 0b       	sbc	r24, r20
    7cb2:	ba 0b       	sbc	r27, r26
    7cb4:	ee 1f       	adc	r30, r30
    7cb6:	88 f7       	brcc	.-30     	; 0x7c9a <__divsf3_pse+0x90>
    7cb8:	e0 95       	com	r30
    7cba:	08 95       	ret

00007cbc <__fixunssfsi>:
    7cbc:	98 d0       	rcall	.+304    	; 0x7dee <__fp_splitA>
    7cbe:	88 f0       	brcs	.+34     	; 0x7ce2 <__fixunssfsi+0x26>
    7cc0:	9f 57       	subi	r25, 0x7F	; 127
    7cc2:	90 f0       	brcs	.+36     	; 0x7ce8 <__fixunssfsi+0x2c>
    7cc4:	b9 2f       	mov	r27, r25
    7cc6:	99 27       	eor	r25, r25
    7cc8:	b7 51       	subi	r27, 0x17	; 23
    7cca:	a0 f0       	brcs	.+40     	; 0x7cf4 <__fixunssfsi+0x38>
    7ccc:	d1 f0       	breq	.+52     	; 0x7d02 <__fixunssfsi+0x46>
    7cce:	66 0f       	add	r22, r22
    7cd0:	77 1f       	adc	r23, r23
    7cd2:	88 1f       	adc	r24, r24
    7cd4:	99 1f       	adc	r25, r25
    7cd6:	1a f0       	brmi	.+6      	; 0x7cde <__fixunssfsi+0x22>
    7cd8:	ba 95       	dec	r27
    7cda:	c9 f7       	brne	.-14     	; 0x7cce <__fixunssfsi+0x12>
    7cdc:	12 c0       	rjmp	.+36     	; 0x7d02 <__fixunssfsi+0x46>
    7cde:	b1 30       	cpi	r27, 0x01	; 1
    7ce0:	81 f0       	breq	.+32     	; 0x7d02 <__fixunssfsi+0x46>
    7ce2:	9f d0       	rcall	.+318    	; 0x7e22 <__fp_zero>
    7ce4:	b1 e0       	ldi	r27, 0x01	; 1
    7ce6:	08 95       	ret
    7ce8:	9c c0       	rjmp	.+312    	; 0x7e22 <__fp_zero>
    7cea:	67 2f       	mov	r22, r23
    7cec:	78 2f       	mov	r23, r24
    7cee:	88 27       	eor	r24, r24
    7cf0:	b8 5f       	subi	r27, 0xF8	; 248
    7cf2:	39 f0       	breq	.+14     	; 0x7d02 <__fixunssfsi+0x46>
    7cf4:	b9 3f       	cpi	r27, 0xF9	; 249
    7cf6:	cc f3       	brlt	.-14     	; 0x7cea <__fixunssfsi+0x2e>
    7cf8:	86 95       	lsr	r24
    7cfa:	77 95       	ror	r23
    7cfc:	67 95       	ror	r22
    7cfe:	b3 95       	inc	r27
    7d00:	d9 f7       	brne	.-10     	; 0x7cf8 <__fixunssfsi+0x3c>
    7d02:	3e f4       	brtc	.+14     	; 0x7d12 <__fixunssfsi+0x56>
    7d04:	90 95       	com	r25
    7d06:	80 95       	com	r24
    7d08:	70 95       	com	r23
    7d0a:	61 95       	neg	r22
    7d0c:	7f 4f       	sbci	r23, 0xFF	; 255
    7d0e:	8f 4f       	sbci	r24, 0xFF	; 255
    7d10:	9f 4f       	sbci	r25, 0xFF	; 255
    7d12:	08 95       	ret

00007d14 <__floatunsisf>:
    7d14:	e8 94       	clt
    7d16:	09 c0       	rjmp	.+18     	; 0x7d2a <__floatsisf+0x12>

00007d18 <__floatsisf>:
    7d18:	97 fb       	bst	r25, 7
    7d1a:	3e f4       	brtc	.+14     	; 0x7d2a <__floatsisf+0x12>
    7d1c:	90 95       	com	r25
    7d1e:	80 95       	com	r24
    7d20:	70 95       	com	r23
    7d22:	61 95       	neg	r22
    7d24:	7f 4f       	sbci	r23, 0xFF	; 255
    7d26:	8f 4f       	sbci	r24, 0xFF	; 255
    7d28:	9f 4f       	sbci	r25, 0xFF	; 255
    7d2a:	99 23       	and	r25, r25
    7d2c:	a9 f0       	breq	.+42     	; 0x7d58 <__floatsisf+0x40>
    7d2e:	f9 2f       	mov	r31, r25
    7d30:	96 e9       	ldi	r25, 0x96	; 150
    7d32:	bb 27       	eor	r27, r27
    7d34:	93 95       	inc	r25
    7d36:	f6 95       	lsr	r31
    7d38:	87 95       	ror	r24
    7d3a:	77 95       	ror	r23
    7d3c:	67 95       	ror	r22
    7d3e:	b7 95       	ror	r27
    7d40:	f1 11       	cpse	r31, r1
    7d42:	f8 cf       	rjmp	.-16     	; 0x7d34 <__floatsisf+0x1c>
    7d44:	fa f4       	brpl	.+62     	; 0x7d84 <__floatsisf+0x6c>
    7d46:	bb 0f       	add	r27, r27
    7d48:	11 f4       	brne	.+4      	; 0x7d4e <__floatsisf+0x36>
    7d4a:	60 ff       	sbrs	r22, 0
    7d4c:	1b c0       	rjmp	.+54     	; 0x7d84 <__floatsisf+0x6c>
    7d4e:	6f 5f       	subi	r22, 0xFF	; 255
    7d50:	7f 4f       	sbci	r23, 0xFF	; 255
    7d52:	8f 4f       	sbci	r24, 0xFF	; 255
    7d54:	9f 4f       	sbci	r25, 0xFF	; 255
    7d56:	16 c0       	rjmp	.+44     	; 0x7d84 <__floatsisf+0x6c>
    7d58:	88 23       	and	r24, r24
    7d5a:	11 f0       	breq	.+4      	; 0x7d60 <__floatsisf+0x48>
    7d5c:	96 e9       	ldi	r25, 0x96	; 150
    7d5e:	11 c0       	rjmp	.+34     	; 0x7d82 <__floatsisf+0x6a>
    7d60:	77 23       	and	r23, r23
    7d62:	21 f0       	breq	.+8      	; 0x7d6c <__floatsisf+0x54>
    7d64:	9e e8       	ldi	r25, 0x8E	; 142
    7d66:	87 2f       	mov	r24, r23
    7d68:	76 2f       	mov	r23, r22
    7d6a:	05 c0       	rjmp	.+10     	; 0x7d76 <__floatsisf+0x5e>
    7d6c:	66 23       	and	r22, r22
    7d6e:	71 f0       	breq	.+28     	; 0x7d8c <__floatsisf+0x74>
    7d70:	96 e8       	ldi	r25, 0x86	; 134
    7d72:	86 2f       	mov	r24, r22
    7d74:	70 e0       	ldi	r23, 0x00	; 0
    7d76:	60 e0       	ldi	r22, 0x00	; 0
    7d78:	2a f0       	brmi	.+10     	; 0x7d84 <__floatsisf+0x6c>
    7d7a:	9a 95       	dec	r25
    7d7c:	66 0f       	add	r22, r22
    7d7e:	77 1f       	adc	r23, r23
    7d80:	88 1f       	adc	r24, r24
    7d82:	da f7       	brpl	.-10     	; 0x7d7a <__floatsisf+0x62>
    7d84:	88 0f       	add	r24, r24
    7d86:	96 95       	lsr	r25
    7d88:	87 95       	ror	r24
    7d8a:	97 f9       	bld	r25, 7
    7d8c:	08 95       	ret

00007d8e <__fp_inf>:
    7d8e:	97 f9       	bld	r25, 7
    7d90:	9f 67       	ori	r25, 0x7F	; 127
    7d92:	80 e8       	ldi	r24, 0x80	; 128
    7d94:	70 e0       	ldi	r23, 0x00	; 0
    7d96:	60 e0       	ldi	r22, 0x00	; 0
    7d98:	08 95       	ret

00007d9a <__fp_nan>:
    7d9a:	9f ef       	ldi	r25, 0xFF	; 255
    7d9c:	80 ec       	ldi	r24, 0xC0	; 192
    7d9e:	08 95       	ret

00007da0 <__fp_pscA>:
    7da0:	00 24       	eor	r0, r0
    7da2:	0a 94       	dec	r0
    7da4:	16 16       	cp	r1, r22
    7da6:	17 06       	cpc	r1, r23
    7da8:	18 06       	cpc	r1, r24
    7daa:	09 06       	cpc	r0, r25
    7dac:	08 95       	ret

00007dae <__fp_pscB>:
    7dae:	00 24       	eor	r0, r0
    7db0:	0a 94       	dec	r0
    7db2:	12 16       	cp	r1, r18
    7db4:	13 06       	cpc	r1, r19
    7db6:	14 06       	cpc	r1, r20
    7db8:	05 06       	cpc	r0, r21
    7dba:	08 95       	ret

00007dbc <__fp_round>:
    7dbc:	09 2e       	mov	r0, r25
    7dbe:	03 94       	inc	r0
    7dc0:	00 0c       	add	r0, r0
    7dc2:	11 f4       	brne	.+4      	; 0x7dc8 <__fp_round+0xc>
    7dc4:	88 23       	and	r24, r24
    7dc6:	52 f0       	brmi	.+20     	; 0x7ddc <__fp_round+0x20>
    7dc8:	bb 0f       	add	r27, r27
    7dca:	40 f4       	brcc	.+16     	; 0x7ddc <__fp_round+0x20>
    7dcc:	bf 2b       	or	r27, r31
    7dce:	11 f4       	brne	.+4      	; 0x7dd4 <__fp_round+0x18>
    7dd0:	60 ff       	sbrs	r22, 0
    7dd2:	04 c0       	rjmp	.+8      	; 0x7ddc <__fp_round+0x20>
    7dd4:	6f 5f       	subi	r22, 0xFF	; 255
    7dd6:	7f 4f       	sbci	r23, 0xFF	; 255
    7dd8:	8f 4f       	sbci	r24, 0xFF	; 255
    7dda:	9f 4f       	sbci	r25, 0xFF	; 255
    7ddc:	08 95       	ret

00007dde <__fp_split3>:
    7dde:	57 fd       	sbrc	r21, 7
    7de0:	90 58       	subi	r25, 0x80	; 128
    7de2:	44 0f       	add	r20, r20
    7de4:	55 1f       	adc	r21, r21
    7de6:	59 f0       	breq	.+22     	; 0x7dfe <__fp_splitA+0x10>
    7de8:	5f 3f       	cpi	r21, 0xFF	; 255
    7dea:	71 f0       	breq	.+28     	; 0x7e08 <__fp_splitA+0x1a>
    7dec:	47 95       	ror	r20

00007dee <__fp_splitA>:
    7dee:	88 0f       	add	r24, r24
    7df0:	97 fb       	bst	r25, 7
    7df2:	99 1f       	adc	r25, r25
    7df4:	61 f0       	breq	.+24     	; 0x7e0e <__fp_splitA+0x20>
    7df6:	9f 3f       	cpi	r25, 0xFF	; 255
    7df8:	79 f0       	breq	.+30     	; 0x7e18 <__fp_splitA+0x2a>
    7dfa:	87 95       	ror	r24
    7dfc:	08 95       	ret
    7dfe:	12 16       	cp	r1, r18
    7e00:	13 06       	cpc	r1, r19
    7e02:	14 06       	cpc	r1, r20
    7e04:	55 1f       	adc	r21, r21
    7e06:	f2 cf       	rjmp	.-28     	; 0x7dec <__fp_split3+0xe>
    7e08:	46 95       	lsr	r20
    7e0a:	f1 df       	rcall	.-30     	; 0x7dee <__fp_splitA>
    7e0c:	08 c0       	rjmp	.+16     	; 0x7e1e <__fp_splitA+0x30>
    7e0e:	16 16       	cp	r1, r22
    7e10:	17 06       	cpc	r1, r23
    7e12:	18 06       	cpc	r1, r24
    7e14:	99 1f       	adc	r25, r25
    7e16:	f1 cf       	rjmp	.-30     	; 0x7dfa <__fp_splitA+0xc>
    7e18:	86 95       	lsr	r24
    7e1a:	71 05       	cpc	r23, r1
    7e1c:	61 05       	cpc	r22, r1
    7e1e:	08 94       	sec
    7e20:	08 95       	ret

00007e22 <__fp_zero>:
    7e22:	e8 94       	clt

00007e24 <__fp_szero>:
    7e24:	bb 27       	eor	r27, r27
    7e26:	66 27       	eor	r22, r22
    7e28:	77 27       	eor	r23, r23
    7e2a:	cb 01       	movw	r24, r22
    7e2c:	97 f9       	bld	r25, 7
    7e2e:	08 95       	ret

00007e30 <__gesf2>:
    7e30:	28 d1       	rcall	.+592    	; 0x8082 <__fp_cmp>
    7e32:	08 f4       	brcc	.+2      	; 0x7e36 <__gesf2+0x6>
    7e34:	8f ef       	ldi	r24, 0xFF	; 255
    7e36:	08 95       	ret
    7e38:	0e f0       	brts	.+2      	; 0x7e3c <__gesf2+0xc>
    7e3a:	47 c1       	rjmp	.+654    	; 0x80ca <__fp_mpack>
    7e3c:	ae cf       	rjmp	.-164    	; 0x7d9a <__fp_nan>
    7e3e:	68 94       	set
    7e40:	a6 cf       	rjmp	.-180    	; 0x7d8e <__fp_inf>

00007e42 <log>:
    7e42:	d5 df       	rcall	.-86     	; 0x7dee <__fp_splitA>
    7e44:	c8 f3       	brcs	.-14     	; 0x7e38 <__gesf2+0x8>
    7e46:	99 23       	and	r25, r25
    7e48:	d1 f3       	breq	.-12     	; 0x7e3e <__gesf2+0xe>
    7e4a:	c6 f3       	brts	.-16     	; 0x7e3c <__gesf2+0xc>
    7e4c:	df 93       	push	r29
    7e4e:	cf 93       	push	r28
    7e50:	1f 93       	push	r17
    7e52:	0f 93       	push	r16
    7e54:	ff 92       	push	r15
    7e56:	c9 2f       	mov	r28, r25
    7e58:	dd 27       	eor	r29, r29
    7e5a:	88 23       	and	r24, r24
    7e5c:	2a f0       	brmi	.+10     	; 0x7e68 <log+0x26>
    7e5e:	21 97       	sbiw	r28, 0x01	; 1
    7e60:	66 0f       	add	r22, r22
    7e62:	77 1f       	adc	r23, r23
    7e64:	88 1f       	adc	r24, r24
    7e66:	da f7       	brpl	.-10     	; 0x7e5e <log+0x1c>
    7e68:	20 e0       	ldi	r18, 0x00	; 0
    7e6a:	30 e0       	ldi	r19, 0x00	; 0
    7e6c:	40 e8       	ldi	r20, 0x80	; 128
    7e6e:	5f eb       	ldi	r21, 0xBF	; 191
    7e70:	9f e3       	ldi	r25, 0x3F	; 63
    7e72:	88 39       	cpi	r24, 0x98	; 152
    7e74:	20 f0       	brcs	.+8      	; 0x7e7e <log+0x3c>
    7e76:	80 3e       	cpi	r24, 0xE0	; 224
    7e78:	30 f0       	brcs	.+12     	; 0x7e86 <log+0x44>
    7e7a:	21 96       	adiw	r28, 0x01	; 1
    7e7c:	8f 77       	andi	r24, 0x7F	; 127
    7e7e:	52 de       	rcall	.-860    	; 0x7b24 <__addsf3>
    7e80:	e8 eb       	ldi	r30, 0xB8	; 184
    7e82:	f0 e0       	ldi	r31, 0x00	; 0
    7e84:	03 c0       	rjmp	.+6      	; 0x7e8c <log+0x4a>
    7e86:	4e de       	rcall	.-868    	; 0x7b24 <__addsf3>
    7e88:	e5 ee       	ldi	r30, 0xE5	; 229
    7e8a:	f0 e0       	ldi	r31, 0x00	; 0
    7e8c:	2c d1       	rcall	.+600    	; 0x80e6 <__fp_powser>
    7e8e:	8b 01       	movw	r16, r22
    7e90:	be 01       	movw	r22, r28
    7e92:	ec 01       	movw	r28, r24
    7e94:	fb 2e       	mov	r15, r27
    7e96:	6f 57       	subi	r22, 0x7F	; 127
    7e98:	71 09       	sbc	r23, r1
    7e9a:	75 95       	asr	r23
    7e9c:	77 1f       	adc	r23, r23
    7e9e:	88 0b       	sbc	r24, r24
    7ea0:	99 0b       	sbc	r25, r25
    7ea2:	3a df       	rcall	.-396    	; 0x7d18 <__floatsisf>
    7ea4:	28 e1       	ldi	r18, 0x18	; 24
    7ea6:	32 e7       	ldi	r19, 0x72	; 114
    7ea8:	41 e3       	ldi	r20, 0x31	; 49
    7eaa:	5f e3       	ldi	r21, 0x3F	; 63
    7eac:	16 d0       	rcall	.+44     	; 0x7eda <__mulsf3x>
    7eae:	af 2d       	mov	r26, r15
    7eb0:	98 01       	movw	r18, r16
    7eb2:	ae 01       	movw	r20, r28
    7eb4:	ff 90       	pop	r15
    7eb6:	0f 91       	pop	r16
    7eb8:	1f 91       	pop	r17
    7eba:	cf 91       	pop	r28
    7ebc:	df 91       	pop	r29
    7ebe:	43 de       	rcall	.-890    	; 0x7b46 <__addsf3x>
    7ec0:	7d cf       	rjmp	.-262    	; 0x7dbc <__fp_round>

00007ec2 <__mulsf3>:
    7ec2:	0b d0       	rcall	.+22     	; 0x7eda <__mulsf3x>
    7ec4:	7b cf       	rjmp	.-266    	; 0x7dbc <__fp_round>
    7ec6:	6c df       	rcall	.-296    	; 0x7da0 <__fp_pscA>
    7ec8:	28 f0       	brcs	.+10     	; 0x7ed4 <__mulsf3+0x12>
    7eca:	71 df       	rcall	.-286    	; 0x7dae <__fp_pscB>
    7ecc:	18 f0       	brcs	.+6      	; 0x7ed4 <__mulsf3+0x12>
    7ece:	95 23       	and	r25, r21
    7ed0:	09 f0       	breq	.+2      	; 0x7ed4 <__mulsf3+0x12>
    7ed2:	5d cf       	rjmp	.-326    	; 0x7d8e <__fp_inf>
    7ed4:	62 cf       	rjmp	.-316    	; 0x7d9a <__fp_nan>
    7ed6:	11 24       	eor	r1, r1
    7ed8:	a5 cf       	rjmp	.-182    	; 0x7e24 <__fp_szero>

00007eda <__mulsf3x>:
    7eda:	81 df       	rcall	.-254    	; 0x7dde <__fp_split3>
    7edc:	a0 f3       	brcs	.-24     	; 0x7ec6 <__mulsf3+0x4>

00007ede <__mulsf3_pse>:
    7ede:	95 9f       	mul	r25, r21
    7ee0:	d1 f3       	breq	.-12     	; 0x7ed6 <__mulsf3+0x14>
    7ee2:	95 0f       	add	r25, r21
    7ee4:	50 e0       	ldi	r21, 0x00	; 0
    7ee6:	55 1f       	adc	r21, r21
    7ee8:	62 9f       	mul	r22, r18
    7eea:	f0 01       	movw	r30, r0
    7eec:	72 9f       	mul	r23, r18
    7eee:	bb 27       	eor	r27, r27
    7ef0:	f0 0d       	add	r31, r0
    7ef2:	b1 1d       	adc	r27, r1
    7ef4:	63 9f       	mul	r22, r19
    7ef6:	aa 27       	eor	r26, r26
    7ef8:	f0 0d       	add	r31, r0
    7efa:	b1 1d       	adc	r27, r1
    7efc:	aa 1f       	adc	r26, r26
    7efe:	64 9f       	mul	r22, r20
    7f00:	66 27       	eor	r22, r22
    7f02:	b0 0d       	add	r27, r0
    7f04:	a1 1d       	adc	r26, r1
    7f06:	66 1f       	adc	r22, r22
    7f08:	82 9f       	mul	r24, r18
    7f0a:	22 27       	eor	r18, r18
    7f0c:	b0 0d       	add	r27, r0
    7f0e:	a1 1d       	adc	r26, r1
    7f10:	62 1f       	adc	r22, r18
    7f12:	73 9f       	mul	r23, r19
    7f14:	b0 0d       	add	r27, r0
    7f16:	a1 1d       	adc	r26, r1
    7f18:	62 1f       	adc	r22, r18
    7f1a:	83 9f       	mul	r24, r19
    7f1c:	a0 0d       	add	r26, r0
    7f1e:	61 1d       	adc	r22, r1
    7f20:	22 1f       	adc	r18, r18
    7f22:	74 9f       	mul	r23, r20
    7f24:	33 27       	eor	r19, r19
    7f26:	a0 0d       	add	r26, r0
    7f28:	61 1d       	adc	r22, r1
    7f2a:	23 1f       	adc	r18, r19
    7f2c:	84 9f       	mul	r24, r20
    7f2e:	60 0d       	add	r22, r0
    7f30:	21 1d       	adc	r18, r1
    7f32:	82 2f       	mov	r24, r18
    7f34:	76 2f       	mov	r23, r22
    7f36:	6a 2f       	mov	r22, r26
    7f38:	11 24       	eor	r1, r1
    7f3a:	9f 57       	subi	r25, 0x7F	; 127
    7f3c:	50 40       	sbci	r21, 0x00	; 0
    7f3e:	8a f0       	brmi	.+34     	; 0x7f62 <__mulsf3_pse+0x84>
    7f40:	e1 f0       	breq	.+56     	; 0x7f7a <__mulsf3_pse+0x9c>
    7f42:	88 23       	and	r24, r24
    7f44:	4a f0       	brmi	.+18     	; 0x7f58 <__mulsf3_pse+0x7a>
    7f46:	ee 0f       	add	r30, r30
    7f48:	ff 1f       	adc	r31, r31
    7f4a:	bb 1f       	adc	r27, r27
    7f4c:	66 1f       	adc	r22, r22
    7f4e:	77 1f       	adc	r23, r23
    7f50:	88 1f       	adc	r24, r24
    7f52:	91 50       	subi	r25, 0x01	; 1
    7f54:	50 40       	sbci	r21, 0x00	; 0
    7f56:	a9 f7       	brne	.-22     	; 0x7f42 <__mulsf3_pse+0x64>
    7f58:	9e 3f       	cpi	r25, 0xFE	; 254
    7f5a:	51 05       	cpc	r21, r1
    7f5c:	70 f0       	brcs	.+28     	; 0x7f7a <__mulsf3_pse+0x9c>
    7f5e:	17 cf       	rjmp	.-466    	; 0x7d8e <__fp_inf>
    7f60:	61 cf       	rjmp	.-318    	; 0x7e24 <__fp_szero>
    7f62:	5f 3f       	cpi	r21, 0xFF	; 255
    7f64:	ec f3       	brlt	.-6      	; 0x7f60 <__mulsf3_pse+0x82>
    7f66:	98 3e       	cpi	r25, 0xE8	; 232
    7f68:	dc f3       	brlt	.-10     	; 0x7f60 <__mulsf3_pse+0x82>
    7f6a:	86 95       	lsr	r24
    7f6c:	77 95       	ror	r23
    7f6e:	67 95       	ror	r22
    7f70:	b7 95       	ror	r27
    7f72:	f7 95       	ror	r31
    7f74:	e7 95       	ror	r30
    7f76:	9f 5f       	subi	r25, 0xFF	; 255
    7f78:	c1 f7       	brne	.-16     	; 0x7f6a <__mulsf3_pse+0x8c>
    7f7a:	fe 2b       	or	r31, r30
    7f7c:	88 0f       	add	r24, r24
    7f7e:	91 1d       	adc	r25, r1
    7f80:	96 95       	lsr	r25
    7f82:	87 95       	ror	r24
    7f84:	97 f9       	bld	r25, 7
    7f86:	08 95       	ret

00007f88 <pow>:
    7f88:	fa 01       	movw	r30, r20
    7f8a:	ee 0f       	add	r30, r30
    7f8c:	ff 1f       	adc	r31, r31
    7f8e:	30 96       	adiw	r30, 0x00	; 0
    7f90:	21 05       	cpc	r18, r1
    7f92:	31 05       	cpc	r19, r1
    7f94:	99 f1       	breq	.+102    	; 0x7ffc <pow+0x74>
    7f96:	61 15       	cp	r22, r1
    7f98:	71 05       	cpc	r23, r1
    7f9a:	61 f4       	brne	.+24     	; 0x7fb4 <pow+0x2c>
    7f9c:	80 38       	cpi	r24, 0x80	; 128
    7f9e:	bf e3       	ldi	r27, 0x3F	; 63
    7fa0:	9b 07       	cpc	r25, r27
    7fa2:	49 f1       	breq	.+82     	; 0x7ff6 <pow+0x6e>
    7fa4:	68 94       	set
    7fa6:	90 38       	cpi	r25, 0x80	; 128
    7fa8:	81 05       	cpc	r24, r1
    7faa:	61 f0       	breq	.+24     	; 0x7fc4 <pow+0x3c>
    7fac:	80 38       	cpi	r24, 0x80	; 128
    7fae:	bf ef       	ldi	r27, 0xFF	; 255
    7fb0:	9b 07       	cpc	r25, r27
    7fb2:	41 f0       	breq	.+16     	; 0x7fc4 <pow+0x3c>
    7fb4:	99 23       	and	r25, r25
    7fb6:	42 f5       	brpl	.+80     	; 0x8008 <pow+0x80>
    7fb8:	ff 3f       	cpi	r31, 0xFF	; 255
    7fba:	e1 05       	cpc	r30, r1
    7fbc:	31 05       	cpc	r19, r1
    7fbe:	21 05       	cpc	r18, r1
    7fc0:	11 f1       	breq	.+68     	; 0x8006 <pow+0x7e>
    7fc2:	e8 94       	clt
    7fc4:	08 94       	sec
    7fc6:	e7 95       	ror	r30
    7fc8:	d9 01       	movw	r26, r18
    7fca:	aa 23       	and	r26, r26
    7fcc:	29 f4       	brne	.+10     	; 0x7fd8 <pow+0x50>
    7fce:	ab 2f       	mov	r26, r27
    7fd0:	be 2f       	mov	r27, r30
    7fd2:	f8 5f       	subi	r31, 0xF8	; 248
    7fd4:	d0 f3       	brcs	.-12     	; 0x7fca <pow+0x42>
    7fd6:	10 c0       	rjmp	.+32     	; 0x7ff8 <pow+0x70>
    7fd8:	ff 5f       	subi	r31, 0xFF	; 255
    7fda:	70 f4       	brcc	.+28     	; 0x7ff8 <pow+0x70>
    7fdc:	a6 95       	lsr	r26
    7fde:	e0 f7       	brcc	.-8      	; 0x7fd8 <pow+0x50>
    7fe0:	f7 39       	cpi	r31, 0x97	; 151
    7fe2:	50 f0       	brcs	.+20     	; 0x7ff8 <pow+0x70>
    7fe4:	19 f0       	breq	.+6      	; 0x7fec <pow+0x64>
    7fe6:	ff 3a       	cpi	r31, 0xAF	; 175
    7fe8:	38 f4       	brcc	.+14     	; 0x7ff8 <pow+0x70>
    7fea:	9f 77       	andi	r25, 0x7F	; 127
    7fec:	9f 93       	push	r25
    7fee:	0c d0       	rcall	.+24     	; 0x8008 <pow+0x80>
    7ff0:	0f 90       	pop	r0
    7ff2:	07 fc       	sbrc	r0, 7
    7ff4:	90 58       	subi	r25, 0x80	; 128
    7ff6:	08 95       	ret
    7ff8:	3e f0       	brts	.+14     	; 0x8008 <pow+0x80>
    7ffa:	cf ce       	rjmp	.-610    	; 0x7d9a <__fp_nan>
    7ffc:	60 e0       	ldi	r22, 0x00	; 0
    7ffe:	70 e0       	ldi	r23, 0x00	; 0
    8000:	80 e8       	ldi	r24, 0x80	; 128
    8002:	9f e3       	ldi	r25, 0x3F	; 63
    8004:	08 95       	ret
    8006:	4f e7       	ldi	r20, 0x7F	; 127
    8008:	9f 77       	andi	r25, 0x7F	; 127
    800a:	5f 93       	push	r21
    800c:	4f 93       	push	r20
    800e:	3f 93       	push	r19
    8010:	2f 93       	push	r18
    8012:	17 df       	rcall	.-466    	; 0x7e42 <log>
    8014:	2f 91       	pop	r18
    8016:	3f 91       	pop	r19
    8018:	4f 91       	pop	r20
    801a:	5f 91       	pop	r21
    801c:	52 df       	rcall	.-348    	; 0x7ec2 <__mulsf3>
    801e:	05 c0       	rjmp	.+10     	; 0x802a <exp>
    8020:	19 f4       	brne	.+6      	; 0x8028 <pow+0xa0>
    8022:	0e f0       	brts	.+2      	; 0x8026 <pow+0x9e>
    8024:	b4 ce       	rjmp	.-664    	; 0x7d8e <__fp_inf>
    8026:	fd ce       	rjmp	.-518    	; 0x7e22 <__fp_zero>
    8028:	b8 ce       	rjmp	.-656    	; 0x7d9a <__fp_nan>

0000802a <exp>:
    802a:	e1 de       	rcall	.-574    	; 0x7dee <__fp_splitA>
    802c:	c8 f3       	brcs	.-14     	; 0x8020 <pow+0x98>
    802e:	96 38       	cpi	r25, 0x86	; 134
    8030:	c0 f7       	brcc	.-16     	; 0x8022 <pow+0x9a>
    8032:	07 f8       	bld	r0, 7
    8034:	0f 92       	push	r0
    8036:	e8 94       	clt
    8038:	2b e3       	ldi	r18, 0x3B	; 59
    803a:	3a ea       	ldi	r19, 0xAA	; 170
    803c:	48 eb       	ldi	r20, 0xB8	; 184
    803e:	5f e7       	ldi	r21, 0x7F	; 127
    8040:	4e df       	rcall	.-356    	; 0x7ede <__mulsf3_pse>
    8042:	0f 92       	push	r0
    8044:	0f 92       	push	r0
    8046:	0f 92       	push	r0
    8048:	4d b7       	in	r20, 0x3d	; 61
    804a:	5e b7       	in	r21, 0x3e	; 62
    804c:	0f 92       	push	r0
    804e:	ad d0       	rcall	.+346    	; 0x81aa <modf>
    8050:	e2 e1       	ldi	r30, 0x12	; 18
    8052:	f1 e0       	ldi	r31, 0x01	; 1
    8054:	48 d0       	rcall	.+144    	; 0x80e6 <__fp_powser>
    8056:	4f 91       	pop	r20
    8058:	5f 91       	pop	r21
    805a:	ef 91       	pop	r30
    805c:	ff 91       	pop	r31
    805e:	e5 95       	asr	r30
    8060:	ee 1f       	adc	r30, r30
    8062:	ff 1f       	adc	r31, r31
    8064:	49 f0       	breq	.+18     	; 0x8078 <exp+0x4e>
    8066:	fe 57       	subi	r31, 0x7E	; 126
    8068:	e0 68       	ori	r30, 0x80	; 128
    806a:	44 27       	eor	r20, r20
    806c:	ee 0f       	add	r30, r30
    806e:	44 1f       	adc	r20, r20
    8070:	fa 95       	dec	r31
    8072:	e1 f7       	brne	.-8      	; 0x806c <exp+0x42>
    8074:	41 95       	neg	r20
    8076:	55 0b       	sbc	r21, r21
    8078:	64 d0       	rcall	.+200    	; 0x8142 <ldexp>
    807a:	0f 90       	pop	r0
    807c:	07 fe       	sbrs	r0, 7
    807e:	58 c0       	rjmp	.+176    	; 0x8130 <inverse>
    8080:	08 95       	ret

00008082 <__fp_cmp>:
    8082:	99 0f       	add	r25, r25
    8084:	00 08       	sbc	r0, r0
    8086:	55 0f       	add	r21, r21
    8088:	aa 0b       	sbc	r26, r26
    808a:	e0 e8       	ldi	r30, 0x80	; 128
    808c:	fe ef       	ldi	r31, 0xFE	; 254
    808e:	16 16       	cp	r1, r22
    8090:	17 06       	cpc	r1, r23
    8092:	e8 07       	cpc	r30, r24
    8094:	f9 07       	cpc	r31, r25
    8096:	c0 f0       	brcs	.+48     	; 0x80c8 <__fp_cmp+0x46>
    8098:	12 16       	cp	r1, r18
    809a:	13 06       	cpc	r1, r19
    809c:	e4 07       	cpc	r30, r20
    809e:	f5 07       	cpc	r31, r21
    80a0:	98 f0       	brcs	.+38     	; 0x80c8 <__fp_cmp+0x46>
    80a2:	62 1b       	sub	r22, r18
    80a4:	73 0b       	sbc	r23, r19
    80a6:	84 0b       	sbc	r24, r20
    80a8:	95 0b       	sbc	r25, r21
    80aa:	39 f4       	brne	.+14     	; 0x80ba <__fp_cmp+0x38>
    80ac:	0a 26       	eor	r0, r26
    80ae:	61 f0       	breq	.+24     	; 0x80c8 <__fp_cmp+0x46>
    80b0:	23 2b       	or	r18, r19
    80b2:	24 2b       	or	r18, r20
    80b4:	25 2b       	or	r18, r21
    80b6:	21 f4       	brne	.+8      	; 0x80c0 <__fp_cmp+0x3e>
    80b8:	08 95       	ret
    80ba:	0a 26       	eor	r0, r26
    80bc:	09 f4       	brne	.+2      	; 0x80c0 <__fp_cmp+0x3e>
    80be:	a1 40       	sbci	r26, 0x01	; 1
    80c0:	a6 95       	lsr	r26
    80c2:	8f ef       	ldi	r24, 0xFF	; 255
    80c4:	81 1d       	adc	r24, r1
    80c6:	81 1d       	adc	r24, r1
    80c8:	08 95       	ret

000080ca <__fp_mpack>:
    80ca:	9f 3f       	cpi	r25, 0xFF	; 255
    80cc:	31 f0       	breq	.+12     	; 0x80da <__fp_mpack_finite+0xc>

000080ce <__fp_mpack_finite>:
    80ce:	91 50       	subi	r25, 0x01	; 1
    80d0:	20 f4       	brcc	.+8      	; 0x80da <__fp_mpack_finite+0xc>
    80d2:	87 95       	ror	r24
    80d4:	77 95       	ror	r23
    80d6:	67 95       	ror	r22
    80d8:	b7 95       	ror	r27
    80da:	88 0f       	add	r24, r24
    80dc:	91 1d       	adc	r25, r1
    80de:	96 95       	lsr	r25
    80e0:	87 95       	ror	r24
    80e2:	97 f9       	bld	r25, 7
    80e4:	08 95       	ret

000080e6 <__fp_powser>:
    80e6:	df 93       	push	r29
    80e8:	cf 93       	push	r28
    80ea:	1f 93       	push	r17
    80ec:	0f 93       	push	r16
    80ee:	ff 92       	push	r15
    80f0:	ef 92       	push	r14
    80f2:	df 92       	push	r13
    80f4:	7b 01       	movw	r14, r22
    80f6:	8c 01       	movw	r16, r24
    80f8:	68 94       	set
    80fa:	05 c0       	rjmp	.+10     	; 0x8106 <__fp_powser+0x20>
    80fc:	da 2e       	mov	r13, r26
    80fe:	ef 01       	movw	r28, r30
    8100:	ec de       	rcall	.-552    	; 0x7eda <__mulsf3x>
    8102:	fe 01       	movw	r30, r28
    8104:	e8 94       	clt
    8106:	a5 91       	lpm	r26, Z+
    8108:	25 91       	lpm	r18, Z+
    810a:	35 91       	lpm	r19, Z+
    810c:	45 91       	lpm	r20, Z+
    810e:	55 91       	lpm	r21, Z+
    8110:	ae f3       	brts	.-22     	; 0x80fc <__fp_powser+0x16>
    8112:	ef 01       	movw	r28, r30
    8114:	18 dd       	rcall	.-1488   	; 0x7b46 <__addsf3x>
    8116:	fe 01       	movw	r30, r28
    8118:	97 01       	movw	r18, r14
    811a:	a8 01       	movw	r20, r16
    811c:	da 94       	dec	r13
    811e:	79 f7       	brne	.-34     	; 0x80fe <__fp_powser+0x18>
    8120:	df 90       	pop	r13
    8122:	ef 90       	pop	r14
    8124:	ff 90       	pop	r15
    8126:	0f 91       	pop	r16
    8128:	1f 91       	pop	r17
    812a:	cf 91       	pop	r28
    812c:	df 91       	pop	r29
    812e:	08 95       	ret

00008130 <inverse>:
    8130:	9b 01       	movw	r18, r22
    8132:	ac 01       	movw	r20, r24
    8134:	60 e0       	ldi	r22, 0x00	; 0
    8136:	70 e0       	ldi	r23, 0x00	; 0
    8138:	80 e8       	ldi	r24, 0x80	; 128
    813a:	9f e3       	ldi	r25, 0x3F	; 63
    813c:	57 cd       	rjmp	.-1362   	; 0x7bec <__divsf3>
    813e:	27 ce       	rjmp	.-946    	; 0x7d8e <__fp_inf>
    8140:	c4 cf       	rjmp	.-120    	; 0x80ca <__fp_mpack>

00008142 <ldexp>:
    8142:	55 de       	rcall	.-854    	; 0x7dee <__fp_splitA>
    8144:	e8 f3       	brcs	.-6      	; 0x8140 <inverse+0x10>
    8146:	99 23       	and	r25, r25
    8148:	d9 f3       	breq	.-10     	; 0x8140 <inverse+0x10>
    814a:	94 0f       	add	r25, r20
    814c:	51 1d       	adc	r21, r1
    814e:	bb f3       	brvs	.-18     	; 0x813e <inverse+0xe>
    8150:	91 50       	subi	r25, 0x01	; 1
    8152:	50 40       	sbci	r21, 0x00	; 0
    8154:	94 f0       	brlt	.+36     	; 0x817a <ldexp+0x38>
    8156:	59 f0       	breq	.+22     	; 0x816e <ldexp+0x2c>
    8158:	88 23       	and	r24, r24
    815a:	32 f0       	brmi	.+12     	; 0x8168 <ldexp+0x26>
    815c:	66 0f       	add	r22, r22
    815e:	77 1f       	adc	r23, r23
    8160:	88 1f       	adc	r24, r24
    8162:	91 50       	subi	r25, 0x01	; 1
    8164:	50 40       	sbci	r21, 0x00	; 0
    8166:	c1 f7       	brne	.-16     	; 0x8158 <ldexp+0x16>
    8168:	9e 3f       	cpi	r25, 0xFE	; 254
    816a:	51 05       	cpc	r21, r1
    816c:	44 f7       	brge	.-48     	; 0x813e <inverse+0xe>
    816e:	88 0f       	add	r24, r24
    8170:	91 1d       	adc	r25, r1
    8172:	96 95       	lsr	r25
    8174:	87 95       	ror	r24
    8176:	97 f9       	bld	r25, 7
    8178:	08 95       	ret
    817a:	5f 3f       	cpi	r21, 0xFF	; 255
    817c:	ac f0       	brlt	.+42     	; 0x81a8 <ldexp+0x66>
    817e:	98 3e       	cpi	r25, 0xE8	; 232
    8180:	9c f0       	brlt	.+38     	; 0x81a8 <ldexp+0x66>
    8182:	bb 27       	eor	r27, r27
    8184:	86 95       	lsr	r24
    8186:	77 95       	ror	r23
    8188:	67 95       	ror	r22
    818a:	b7 95       	ror	r27
    818c:	08 f4       	brcc	.+2      	; 0x8190 <ldexp+0x4e>
    818e:	b1 60       	ori	r27, 0x01	; 1
    8190:	93 95       	inc	r25
    8192:	c1 f7       	brne	.-16     	; 0x8184 <ldexp+0x42>
    8194:	bb 0f       	add	r27, r27
    8196:	58 f7       	brcc	.-42     	; 0x816e <ldexp+0x2c>
    8198:	11 f4       	brne	.+4      	; 0x819e <ldexp+0x5c>
    819a:	60 ff       	sbrs	r22, 0
    819c:	e8 cf       	rjmp	.-48     	; 0x816e <ldexp+0x2c>
    819e:	6f 5f       	subi	r22, 0xFF	; 255
    81a0:	7f 4f       	sbci	r23, 0xFF	; 255
    81a2:	8f 4f       	sbci	r24, 0xFF	; 255
    81a4:	9f 4f       	sbci	r25, 0xFF	; 255
    81a6:	e3 cf       	rjmp	.-58     	; 0x816e <ldexp+0x2c>
    81a8:	3d ce       	rjmp	.-902    	; 0x7e24 <__fp_szero>

000081aa <modf>:
    81aa:	fa 01       	movw	r30, r20
    81ac:	dc 01       	movw	r26, r24
    81ae:	aa 0f       	add	r26, r26
    81b0:	bb 1f       	adc	r27, r27
    81b2:	9b 01       	movw	r18, r22
    81b4:	ac 01       	movw	r20, r24
    81b6:	bf 57       	subi	r27, 0x7F	; 127
    81b8:	28 f4       	brcc	.+10     	; 0x81c4 <modf+0x1a>
    81ba:	22 27       	eor	r18, r18
    81bc:	33 27       	eor	r19, r19
    81be:	44 27       	eor	r20, r20
    81c0:	50 78       	andi	r21, 0x80	; 128
    81c2:	1f c0       	rjmp	.+62     	; 0x8202 <modf+0x58>
    81c4:	b7 51       	subi	r27, 0x17	; 23
    81c6:	88 f4       	brcc	.+34     	; 0x81ea <modf+0x40>
    81c8:	ab 2f       	mov	r26, r27
    81ca:	00 24       	eor	r0, r0
    81cc:	46 95       	lsr	r20
    81ce:	37 95       	ror	r19
    81d0:	27 95       	ror	r18
    81d2:	01 1c       	adc	r0, r1
    81d4:	a3 95       	inc	r26
    81d6:	d2 f3       	brmi	.-12     	; 0x81cc <modf+0x22>
    81d8:	00 20       	and	r0, r0
    81da:	69 f0       	breq	.+26     	; 0x81f6 <modf+0x4c>
    81dc:	22 0f       	add	r18, r18
    81de:	33 1f       	adc	r19, r19
    81e0:	44 1f       	adc	r20, r20
    81e2:	b3 95       	inc	r27
    81e4:	da f3       	brmi	.-10     	; 0x81dc <modf+0x32>
    81e6:	0d d0       	rcall	.+26     	; 0x8202 <modf+0x58>
    81e8:	9c cc       	rjmp	.-1736   	; 0x7b22 <__subsf3>
    81ea:	61 30       	cpi	r22, 0x01	; 1
    81ec:	71 05       	cpc	r23, r1
    81ee:	a0 e8       	ldi	r26, 0x80	; 128
    81f0:	8a 07       	cpc	r24, r26
    81f2:	b9 46       	sbci	r27, 0x69	; 105
    81f4:	30 f4       	brcc	.+12     	; 0x8202 <modf+0x58>
    81f6:	9b 01       	movw	r18, r22
    81f8:	ac 01       	movw	r20, r24
    81fa:	66 27       	eor	r22, r22
    81fc:	77 27       	eor	r23, r23
    81fe:	88 27       	eor	r24, r24
    8200:	90 78       	andi	r25, 0x80	; 128
    8202:	30 96       	adiw	r30, 0x00	; 0
    8204:	21 f0       	breq	.+8      	; 0x820e <modf+0x64>
    8206:	20 83       	st	Z, r18
    8208:	31 83       	std	Z+1, r19	; 0x01
    820a:	42 83       	std	Z+2, r20	; 0x02
    820c:	53 83       	std	Z+3, r21	; 0x03
    820e:	08 95       	ret

00008210 <__mulsi3>:
    8210:	62 9f       	mul	r22, r18
    8212:	d0 01       	movw	r26, r0
    8214:	73 9f       	mul	r23, r19
    8216:	f0 01       	movw	r30, r0
    8218:	82 9f       	mul	r24, r18
    821a:	e0 0d       	add	r30, r0
    821c:	f1 1d       	adc	r31, r1
    821e:	64 9f       	mul	r22, r20
    8220:	e0 0d       	add	r30, r0
    8222:	f1 1d       	adc	r31, r1
    8224:	92 9f       	mul	r25, r18
    8226:	f0 0d       	add	r31, r0
    8228:	83 9f       	mul	r24, r19
    822a:	f0 0d       	add	r31, r0
    822c:	74 9f       	mul	r23, r20
    822e:	f0 0d       	add	r31, r0
    8230:	65 9f       	mul	r22, r21
    8232:	f0 0d       	add	r31, r0
    8234:	99 27       	eor	r25, r25
    8236:	72 9f       	mul	r23, r18
    8238:	b0 0d       	add	r27, r0
    823a:	e1 1d       	adc	r30, r1
    823c:	f9 1f       	adc	r31, r25
    823e:	63 9f       	mul	r22, r19
    8240:	b0 0d       	add	r27, r0
    8242:	e1 1d       	adc	r30, r1
    8244:	f9 1f       	adc	r31, r25
    8246:	bd 01       	movw	r22, r26
    8248:	cf 01       	movw	r24, r30
    824a:	11 24       	eor	r1, r1
    824c:	08 95       	ret

0000824e <__udivmodhi4>:
    824e:	aa 1b       	sub	r26, r26
    8250:	bb 1b       	sub	r27, r27
    8252:	51 e1       	ldi	r21, 0x11	; 17
    8254:	07 c0       	rjmp	.+14     	; 0x8264 <__udivmodhi4_ep>

00008256 <__udivmodhi4_loop>:
    8256:	aa 1f       	adc	r26, r26
    8258:	bb 1f       	adc	r27, r27
    825a:	a6 17       	cp	r26, r22
    825c:	b7 07       	cpc	r27, r23
    825e:	10 f0       	brcs	.+4      	; 0x8264 <__udivmodhi4_ep>
    8260:	a6 1b       	sub	r26, r22
    8262:	b7 0b       	sbc	r27, r23

00008264 <__udivmodhi4_ep>:
    8264:	88 1f       	adc	r24, r24
    8266:	99 1f       	adc	r25, r25
    8268:	5a 95       	dec	r21
    826a:	a9 f7       	brne	.-22     	; 0x8256 <__udivmodhi4_loop>
    826c:	80 95       	com	r24
    826e:	90 95       	com	r25
    8270:	bc 01       	movw	r22, r24
    8272:	cd 01       	movw	r24, r26
    8274:	08 95       	ret

00008276 <__divmodhi4>:
    8276:	97 fb       	bst	r25, 7
    8278:	09 2e       	mov	r0, r25
    827a:	07 26       	eor	r0, r23
    827c:	0a d0       	rcall	.+20     	; 0x8292 <__divmodhi4_neg1>
    827e:	77 fd       	sbrc	r23, 7
    8280:	04 d0       	rcall	.+8      	; 0x828a <__divmodhi4_neg2>
    8282:	e5 df       	rcall	.-54     	; 0x824e <__udivmodhi4>
    8284:	06 d0       	rcall	.+12     	; 0x8292 <__divmodhi4_neg1>
    8286:	00 20       	and	r0, r0
    8288:	1a f4       	brpl	.+6      	; 0x8290 <__divmodhi4_exit>

0000828a <__divmodhi4_neg2>:
    828a:	70 95       	com	r23
    828c:	61 95       	neg	r22
    828e:	7f 4f       	sbci	r23, 0xFF	; 255

00008290 <__divmodhi4_exit>:
    8290:	08 95       	ret

00008292 <__divmodhi4_neg1>:
    8292:	f6 f7       	brtc	.-4      	; 0x8290 <__divmodhi4_exit>
    8294:	90 95       	com	r25
    8296:	81 95       	neg	r24
    8298:	9f 4f       	sbci	r25, 0xFF	; 255
    829a:	08 95       	ret

0000829c <__udivmodsi4>:
    829c:	a1 e2       	ldi	r26, 0x21	; 33
    829e:	1a 2e       	mov	r1, r26
    82a0:	aa 1b       	sub	r26, r26
    82a2:	bb 1b       	sub	r27, r27
    82a4:	fd 01       	movw	r30, r26
    82a6:	0d c0       	rjmp	.+26     	; 0x82c2 <__udivmodsi4_ep>

000082a8 <__udivmodsi4_loop>:
    82a8:	aa 1f       	adc	r26, r26
    82aa:	bb 1f       	adc	r27, r27
    82ac:	ee 1f       	adc	r30, r30
    82ae:	ff 1f       	adc	r31, r31
    82b0:	a2 17       	cp	r26, r18
    82b2:	b3 07       	cpc	r27, r19
    82b4:	e4 07       	cpc	r30, r20
    82b6:	f5 07       	cpc	r31, r21
    82b8:	20 f0       	brcs	.+8      	; 0x82c2 <__udivmodsi4_ep>
    82ba:	a2 1b       	sub	r26, r18
    82bc:	b3 0b       	sbc	r27, r19
    82be:	e4 0b       	sbc	r30, r20
    82c0:	f5 0b       	sbc	r31, r21

000082c2 <__udivmodsi4_ep>:
    82c2:	66 1f       	adc	r22, r22
    82c4:	77 1f       	adc	r23, r23
    82c6:	88 1f       	adc	r24, r24
    82c8:	99 1f       	adc	r25, r25
    82ca:	1a 94       	dec	r1
    82cc:	69 f7       	brne	.-38     	; 0x82a8 <__udivmodsi4_loop>
    82ce:	60 95       	com	r22
    82d0:	70 95       	com	r23
    82d2:	80 95       	com	r24
    82d4:	90 95       	com	r25
    82d6:	9b 01       	movw	r18, r22
    82d8:	ac 01       	movw	r20, r24
    82da:	bd 01       	movw	r22, r26
    82dc:	cf 01       	movw	r24, r30
    82de:	08 95       	ret

000082e0 <__prologue_saves__>:
    82e0:	2f 92       	push	r2
    82e2:	3f 92       	push	r3
    82e4:	4f 92       	push	r4
    82e6:	5f 92       	push	r5
    82e8:	6f 92       	push	r6
    82ea:	7f 92       	push	r7
    82ec:	8f 92       	push	r8
    82ee:	9f 92       	push	r9
    82f0:	af 92       	push	r10
    82f2:	bf 92       	push	r11
    82f4:	cf 92       	push	r12
    82f6:	df 92       	push	r13
    82f8:	ef 92       	push	r14
    82fa:	ff 92       	push	r15
    82fc:	0f 93       	push	r16
    82fe:	1f 93       	push	r17
    8300:	cf 93       	push	r28
    8302:	df 93       	push	r29
    8304:	cd b7       	in	r28, 0x3d	; 61
    8306:	de b7       	in	r29, 0x3e	; 62
    8308:	ca 1b       	sub	r28, r26
    830a:	db 0b       	sbc	r29, r27
    830c:	0f b6       	in	r0, 0x3f	; 63
    830e:	f8 94       	cli
    8310:	de bf       	out	0x3e, r29	; 62
    8312:	0f be       	out	0x3f, r0	; 63
    8314:	cd bf       	out	0x3d, r28	; 61
    8316:	09 94       	ijmp

00008318 <__epilogue_restores__>:
    8318:	2a 88       	ldd	r2, Y+18	; 0x12
    831a:	39 88       	ldd	r3, Y+17	; 0x11
    831c:	48 88       	ldd	r4, Y+16	; 0x10
    831e:	5f 84       	ldd	r5, Y+15	; 0x0f
    8320:	6e 84       	ldd	r6, Y+14	; 0x0e
    8322:	7d 84       	ldd	r7, Y+13	; 0x0d
    8324:	8c 84       	ldd	r8, Y+12	; 0x0c
    8326:	9b 84       	ldd	r9, Y+11	; 0x0b
    8328:	aa 84       	ldd	r10, Y+10	; 0x0a
    832a:	b9 84       	ldd	r11, Y+9	; 0x09
    832c:	c8 84       	ldd	r12, Y+8	; 0x08
    832e:	df 80       	ldd	r13, Y+7	; 0x07
    8330:	ee 80       	ldd	r14, Y+6	; 0x06
    8332:	fd 80       	ldd	r15, Y+5	; 0x05
    8334:	0c 81       	ldd	r16, Y+4	; 0x04
    8336:	1b 81       	ldd	r17, Y+3	; 0x03
    8338:	aa 81       	ldd	r26, Y+2	; 0x02
    833a:	b9 81       	ldd	r27, Y+1	; 0x01
    833c:	ce 0f       	add	r28, r30
    833e:	d1 1d       	adc	r29, r1
    8340:	0f b6       	in	r0, 0x3f	; 63
    8342:	f8 94       	cli
    8344:	de bf       	out	0x3e, r29	; 62
    8346:	0f be       	out	0x3f, r0	; 63
    8348:	cd bf       	out	0x3d, r28	; 61
    834a:	ed 01       	movw	r28, r26
    834c:	08 95       	ret

0000834e <do_rand>:
    834e:	af 92       	push	r10
    8350:	bf 92       	push	r11
    8352:	cf 92       	push	r12
    8354:	df 92       	push	r13
    8356:	ef 92       	push	r14
    8358:	ff 92       	push	r15
    835a:	0f 93       	push	r16
    835c:	1f 93       	push	r17
    835e:	cf 93       	push	r28
    8360:	df 93       	push	r29
    8362:	ec 01       	movw	r28, r24
    8364:	68 81       	ld	r22, Y
    8366:	79 81       	ldd	r23, Y+1	; 0x01
    8368:	8a 81       	ldd	r24, Y+2	; 0x02
    836a:	9b 81       	ldd	r25, Y+3	; 0x03
    836c:	61 15       	cp	r22, r1
    836e:	71 05       	cpc	r23, r1
    8370:	81 05       	cpc	r24, r1
    8372:	91 05       	cpc	r25, r1
    8374:	21 f4       	brne	.+8      	; 0x837e <do_rand+0x30>
    8376:	64 e2       	ldi	r22, 0x24	; 36
    8378:	79 ed       	ldi	r23, 0xD9	; 217
    837a:	8b e5       	ldi	r24, 0x5B	; 91
    837c:	97 e0       	ldi	r25, 0x07	; 7
    837e:	2d e1       	ldi	r18, 0x1D	; 29
    8380:	33 ef       	ldi	r19, 0xF3	; 243
    8382:	41 e0       	ldi	r20, 0x01	; 1
    8384:	50 e0       	ldi	r21, 0x00	; 0
    8386:	0e 94 f7 45 	call	0x8bee	; 0x8bee <__divmodsi4>
    838a:	79 01       	movw	r14, r18
    838c:	8a 01       	movw	r16, r20
    838e:	27 ea       	ldi	r18, 0xA7	; 167
    8390:	31 e4       	ldi	r19, 0x41	; 65
    8392:	40 e0       	ldi	r20, 0x00	; 0
    8394:	50 e0       	ldi	r21, 0x00	; 0
    8396:	0e 94 08 41 	call	0x8210	; 0x8210 <__mulsi3>
    839a:	5b 01       	movw	r10, r22
    839c:	6c 01       	movw	r12, r24
    839e:	c8 01       	movw	r24, r16
    83a0:	b7 01       	movw	r22, r14
    83a2:	2c ee       	ldi	r18, 0xEC	; 236
    83a4:	34 ef       	ldi	r19, 0xF4	; 244
    83a6:	4f ef       	ldi	r20, 0xFF	; 255
    83a8:	5f ef       	ldi	r21, 0xFF	; 255
    83aa:	0e 94 08 41 	call	0x8210	; 0x8210 <__mulsi3>
    83ae:	6a 0d       	add	r22, r10
    83b0:	7b 1d       	adc	r23, r11
    83b2:	8c 1d       	adc	r24, r12
    83b4:	9d 1d       	adc	r25, r13
    83b6:	97 ff       	sbrs	r25, 7
    83b8:	04 c0       	rjmp	.+8      	; 0x83c2 <do_rand+0x74>
    83ba:	61 50       	subi	r22, 0x01	; 1
    83bc:	70 40       	sbci	r23, 0x00	; 0
    83be:	80 40       	sbci	r24, 0x00	; 0
    83c0:	90 48       	sbci	r25, 0x80	; 128
    83c2:	68 83       	st	Y, r22
    83c4:	79 83       	std	Y+1, r23	; 0x01
    83c6:	8a 83       	std	Y+2, r24	; 0x02
    83c8:	9b 83       	std	Y+3, r25	; 0x03
    83ca:	7f 77       	andi	r23, 0x7F	; 127
    83cc:	cb 01       	movw	r24, r22
    83ce:	df 91       	pop	r29
    83d0:	cf 91       	pop	r28
    83d2:	1f 91       	pop	r17
    83d4:	0f 91       	pop	r16
    83d6:	ff 90       	pop	r15
    83d8:	ef 90       	pop	r14
    83da:	df 90       	pop	r13
    83dc:	cf 90       	pop	r12
    83de:	bf 90       	pop	r11
    83e0:	af 90       	pop	r10
    83e2:	08 95       	ret

000083e4 <rand_r>:
    83e4:	0e 94 a7 41 	call	0x834e	; 0x834e <do_rand>
    83e8:	08 95       	ret

000083ea <rand>:
    83ea:	8a ed       	ldi	r24, 0xDA	; 218
    83ec:	93 e0       	ldi	r25, 0x03	; 3
    83ee:	0e 94 a7 41 	call	0x834e	; 0x834e <do_rand>
    83f2:	08 95       	ret

000083f4 <srand>:
    83f4:	a0 e0       	ldi	r26, 0x00	; 0
    83f6:	b0 e0       	ldi	r27, 0x00	; 0
    83f8:	80 93 da 03 	sts	0x03DA, r24
    83fc:	90 93 db 03 	sts	0x03DB, r25
    8400:	a0 93 dc 03 	sts	0x03DC, r26
    8404:	b0 93 dd 03 	sts	0x03DD, r27
    8408:	08 95       	ret

0000840a <__ftoa_engine>:
    840a:	28 30       	cpi	r18, 0x08	; 8
    840c:	08 f0       	brcs	.+2      	; 0x8410 <__ftoa_engine+0x6>
    840e:	27 e0       	ldi	r18, 0x07	; 7
    8410:	33 27       	eor	r19, r19
    8412:	da 01       	movw	r26, r20
    8414:	99 0f       	add	r25, r25
    8416:	31 1d       	adc	r19, r1
    8418:	87 fd       	sbrc	r24, 7
    841a:	91 60       	ori	r25, 0x01	; 1
    841c:	00 96       	adiw	r24, 0x00	; 0
    841e:	61 05       	cpc	r22, r1
    8420:	71 05       	cpc	r23, r1
    8422:	39 f4       	brne	.+14     	; 0x8432 <__ftoa_engine+0x28>
    8424:	32 60       	ori	r19, 0x02	; 2
    8426:	2e 5f       	subi	r18, 0xFE	; 254
    8428:	3d 93       	st	X+, r19
    842a:	30 e3       	ldi	r19, 0x30	; 48
    842c:	2a 95       	dec	r18
    842e:	e1 f7       	brne	.-8      	; 0x8428 <__ftoa_engine+0x1e>
    8430:	08 95       	ret
    8432:	9f 3f       	cpi	r25, 0xFF	; 255
    8434:	30 f0       	brcs	.+12     	; 0x8442 <__ftoa_engine+0x38>
    8436:	80 38       	cpi	r24, 0x80	; 128
    8438:	71 05       	cpc	r23, r1
    843a:	61 05       	cpc	r22, r1
    843c:	09 f0       	breq	.+2      	; 0x8440 <__ftoa_engine+0x36>
    843e:	3c 5f       	subi	r19, 0xFC	; 252
    8440:	3c 5f       	subi	r19, 0xFC	; 252
    8442:	3d 93       	st	X+, r19
    8444:	91 30       	cpi	r25, 0x01	; 1
    8446:	08 f0       	brcs	.+2      	; 0x844a <__ftoa_engine+0x40>
    8448:	80 68       	ori	r24, 0x80	; 128
    844a:	91 1d       	adc	r25, r1
    844c:	df 93       	push	r29
    844e:	cf 93       	push	r28
    8450:	1f 93       	push	r17
    8452:	0f 93       	push	r16
    8454:	ff 92       	push	r15
    8456:	ef 92       	push	r14
    8458:	19 2f       	mov	r17, r25
    845a:	98 7f       	andi	r25, 0xF8	; 248
    845c:	96 95       	lsr	r25
    845e:	e9 2f       	mov	r30, r25
    8460:	96 95       	lsr	r25
    8462:	96 95       	lsr	r25
    8464:	e9 0f       	add	r30, r25
    8466:	ff 27       	eor	r31, r31
    8468:	ee 50       	subi	r30, 0x0E	; 14
    846a:	f7 4f       	sbci	r31, 0xF7	; 247
    846c:	99 27       	eor	r25, r25
    846e:	33 27       	eor	r19, r19
    8470:	ee 24       	eor	r14, r14
    8472:	ff 24       	eor	r15, r15
    8474:	a7 01       	movw	r20, r14
    8476:	e7 01       	movw	r28, r14
    8478:	05 90       	lpm	r0, Z+
    847a:	08 94       	sec
    847c:	07 94       	ror	r0
    847e:	28 f4       	brcc	.+10     	; 0x848a <__ftoa_engine+0x80>
    8480:	36 0f       	add	r19, r22
    8482:	e7 1e       	adc	r14, r23
    8484:	f8 1e       	adc	r15, r24
    8486:	49 1f       	adc	r20, r25
    8488:	51 1d       	adc	r21, r1
    848a:	66 0f       	add	r22, r22
    848c:	77 1f       	adc	r23, r23
    848e:	88 1f       	adc	r24, r24
    8490:	99 1f       	adc	r25, r25
    8492:	06 94       	lsr	r0
    8494:	a1 f7       	brne	.-24     	; 0x847e <__ftoa_engine+0x74>
    8496:	05 90       	lpm	r0, Z+
    8498:	07 94       	ror	r0
    849a:	28 f4       	brcc	.+10     	; 0x84a6 <__ftoa_engine+0x9c>
    849c:	e7 0e       	add	r14, r23
    849e:	f8 1e       	adc	r15, r24
    84a0:	49 1f       	adc	r20, r25
    84a2:	56 1f       	adc	r21, r22
    84a4:	c1 1d       	adc	r28, r1
    84a6:	77 0f       	add	r23, r23
    84a8:	88 1f       	adc	r24, r24
    84aa:	99 1f       	adc	r25, r25
    84ac:	66 1f       	adc	r22, r22
    84ae:	06 94       	lsr	r0
    84b0:	a1 f7       	brne	.-24     	; 0x849a <__ftoa_engine+0x90>
    84b2:	05 90       	lpm	r0, Z+
    84b4:	07 94       	ror	r0
    84b6:	28 f4       	brcc	.+10     	; 0x84c2 <__ftoa_engine+0xb8>
    84b8:	f8 0e       	add	r15, r24
    84ba:	49 1f       	adc	r20, r25
    84bc:	56 1f       	adc	r21, r22
    84be:	c7 1f       	adc	r28, r23
    84c0:	d1 1d       	adc	r29, r1
    84c2:	88 0f       	add	r24, r24
    84c4:	99 1f       	adc	r25, r25
    84c6:	66 1f       	adc	r22, r22
    84c8:	77 1f       	adc	r23, r23
    84ca:	06 94       	lsr	r0
    84cc:	a1 f7       	brne	.-24     	; 0x84b6 <__ftoa_engine+0xac>
    84ce:	05 90       	lpm	r0, Z+
    84d0:	07 94       	ror	r0
    84d2:	20 f4       	brcc	.+8      	; 0x84dc <__ftoa_engine+0xd2>
    84d4:	49 0f       	add	r20, r25
    84d6:	56 1f       	adc	r21, r22
    84d8:	c7 1f       	adc	r28, r23
    84da:	d8 1f       	adc	r29, r24
    84dc:	99 0f       	add	r25, r25
    84de:	66 1f       	adc	r22, r22
    84e0:	77 1f       	adc	r23, r23
    84e2:	88 1f       	adc	r24, r24
    84e4:	06 94       	lsr	r0
    84e6:	a9 f7       	brne	.-22     	; 0x84d2 <__ftoa_engine+0xc8>
    84e8:	84 91       	lpm	r24, Z+
    84ea:	10 95       	com	r17
    84ec:	17 70       	andi	r17, 0x07	; 7
    84ee:	41 f0       	breq	.+16     	; 0x8500 <__ftoa_engine+0xf6>
    84f0:	d6 95       	lsr	r29
    84f2:	c7 95       	ror	r28
    84f4:	57 95       	ror	r21
    84f6:	47 95       	ror	r20
    84f8:	f7 94       	ror	r15
    84fa:	e7 94       	ror	r14
    84fc:	1a 95       	dec	r17
    84fe:	c1 f7       	brne	.-16     	; 0x84f0 <__ftoa_engine+0xe6>
    8500:	e8 e9       	ldi	r30, 0x98	; 152
    8502:	f8 e0       	ldi	r31, 0x08	; 8
    8504:	68 94       	set
    8506:	15 90       	lpm	r1, Z+
    8508:	15 91       	lpm	r17, Z+
    850a:	35 91       	lpm	r19, Z+
    850c:	65 91       	lpm	r22, Z+
    850e:	95 91       	lpm	r25, Z+
    8510:	05 90       	lpm	r0, Z+
    8512:	7f e2       	ldi	r23, 0x2F	; 47
    8514:	73 95       	inc	r23
    8516:	e1 18       	sub	r14, r1
    8518:	f1 0a       	sbc	r15, r17
    851a:	43 0b       	sbc	r20, r19
    851c:	56 0b       	sbc	r21, r22
    851e:	c9 0b       	sbc	r28, r25
    8520:	d0 09       	sbc	r29, r0
    8522:	c0 f7       	brcc	.-16     	; 0x8514 <__ftoa_engine+0x10a>
    8524:	e1 0c       	add	r14, r1
    8526:	f1 1e       	adc	r15, r17
    8528:	43 1f       	adc	r20, r19
    852a:	56 1f       	adc	r21, r22
    852c:	c9 1f       	adc	r28, r25
    852e:	d0 1d       	adc	r29, r0
    8530:	7e f4       	brtc	.+30     	; 0x8550 <__ftoa_engine+0x146>
    8532:	70 33       	cpi	r23, 0x30	; 48
    8534:	11 f4       	brne	.+4      	; 0x853a <__ftoa_engine+0x130>
    8536:	8a 95       	dec	r24
    8538:	e6 cf       	rjmp	.-52     	; 0x8506 <__ftoa_engine+0xfc>
    853a:	e8 94       	clt
    853c:	01 50       	subi	r16, 0x01	; 1
    853e:	30 f0       	brcs	.+12     	; 0x854c <__ftoa_engine+0x142>
    8540:	08 0f       	add	r16, r24
    8542:	0a f4       	brpl	.+2      	; 0x8546 <__ftoa_engine+0x13c>
    8544:	00 27       	eor	r16, r16
    8546:	02 17       	cp	r16, r18
    8548:	08 f4       	brcc	.+2      	; 0x854c <__ftoa_engine+0x142>
    854a:	20 2f       	mov	r18, r16
    854c:	23 95       	inc	r18
    854e:	02 2f       	mov	r16, r18
    8550:	7a 33       	cpi	r23, 0x3A	; 58
    8552:	28 f0       	brcs	.+10     	; 0x855e <__ftoa_engine+0x154>
    8554:	79 e3       	ldi	r23, 0x39	; 57
    8556:	7d 93       	st	X+, r23
    8558:	2a 95       	dec	r18
    855a:	e9 f7       	brne	.-6      	; 0x8556 <__ftoa_engine+0x14c>
    855c:	10 c0       	rjmp	.+32     	; 0x857e <__ftoa_engine+0x174>
    855e:	7d 93       	st	X+, r23
    8560:	2a 95       	dec	r18
    8562:	89 f6       	brne	.-94     	; 0x8506 <__ftoa_engine+0xfc>
    8564:	06 94       	lsr	r0
    8566:	97 95       	ror	r25
    8568:	67 95       	ror	r22
    856a:	37 95       	ror	r19
    856c:	17 95       	ror	r17
    856e:	17 94       	ror	r1
    8570:	e1 18       	sub	r14, r1
    8572:	f1 0a       	sbc	r15, r17
    8574:	43 0b       	sbc	r20, r19
    8576:	56 0b       	sbc	r21, r22
    8578:	c9 0b       	sbc	r28, r25
    857a:	d0 09       	sbc	r29, r0
    857c:	98 f0       	brcs	.+38     	; 0x85a4 <__ftoa_engine+0x19a>
    857e:	23 95       	inc	r18
    8580:	7e 91       	ld	r23, -X
    8582:	73 95       	inc	r23
    8584:	7a 33       	cpi	r23, 0x3A	; 58
    8586:	08 f0       	brcs	.+2      	; 0x858a <__ftoa_engine+0x180>
    8588:	70 e3       	ldi	r23, 0x30	; 48
    858a:	7c 93       	st	X, r23
    858c:	20 13       	cpse	r18, r16
    858e:	b8 f7       	brcc	.-18     	; 0x857e <__ftoa_engine+0x174>
    8590:	7e 91       	ld	r23, -X
    8592:	70 61       	ori	r23, 0x10	; 16
    8594:	7d 93       	st	X+, r23
    8596:	30 f0       	brcs	.+12     	; 0x85a4 <__ftoa_engine+0x19a>
    8598:	83 95       	inc	r24
    859a:	71 e3       	ldi	r23, 0x31	; 49
    859c:	7d 93       	st	X+, r23
    859e:	70 e3       	ldi	r23, 0x30	; 48
    85a0:	2a 95       	dec	r18
    85a2:	e1 f7       	brne	.-8      	; 0x859c <__ftoa_engine+0x192>
    85a4:	11 24       	eor	r1, r1
    85a6:	ef 90       	pop	r14
    85a8:	ff 90       	pop	r15
    85aa:	0f 91       	pop	r16
    85ac:	1f 91       	pop	r17
    85ae:	cf 91       	pop	r28
    85b0:	df 91       	pop	r29
    85b2:	99 27       	eor	r25, r25
    85b4:	87 fd       	sbrc	r24, 7
    85b6:	90 95       	com	r25
    85b8:	08 95       	ret

000085ba <strnlen_P>:
    85ba:	fc 01       	movw	r30, r24
    85bc:	05 90       	lpm	r0, Z+
    85be:	61 50       	subi	r22, 0x01	; 1
    85c0:	70 40       	sbci	r23, 0x00	; 0
    85c2:	01 10       	cpse	r0, r1
    85c4:	d8 f7       	brcc	.-10     	; 0x85bc <strnlen_P+0x2>
    85c6:	80 95       	com	r24
    85c8:	90 95       	com	r25
    85ca:	8e 0f       	add	r24, r30
    85cc:	9f 1f       	adc	r25, r31
    85ce:	08 95       	ret

000085d0 <strnlen>:
    85d0:	fc 01       	movw	r30, r24
    85d2:	61 50       	subi	r22, 0x01	; 1
    85d4:	70 40       	sbci	r23, 0x00	; 0
    85d6:	01 90       	ld	r0, Z+
    85d8:	01 10       	cpse	r0, r1
    85da:	d8 f7       	brcc	.-10     	; 0x85d2 <strnlen+0x2>
    85dc:	80 95       	com	r24
    85de:	90 95       	com	r25
    85e0:	8e 0f       	add	r24, r30
    85e2:	9f 1f       	adc	r25, r31
    85e4:	08 95       	ret

000085e6 <fdevopen>:
    85e6:	0f 93       	push	r16
    85e8:	1f 93       	push	r17
    85ea:	cf 93       	push	r28
    85ec:	df 93       	push	r29
    85ee:	8c 01       	movw	r16, r24
    85f0:	eb 01       	movw	r28, r22
    85f2:	00 97       	sbiw	r24, 0x00	; 0
    85f4:	11 f4       	brne	.+4      	; 0x85fa <fdevopen+0x14>
    85f6:	20 97       	sbiw	r28, 0x00	; 0
    85f8:	c9 f1       	breq	.+114    	; 0x866c <fdevopen+0x86>
    85fa:	81 e0       	ldi	r24, 0x01	; 1
    85fc:	90 e0       	ldi	r25, 0x00	; 0
    85fe:	6e e0       	ldi	r22, 0x0E	; 14
    8600:	70 e0       	ldi	r23, 0x00	; 0
    8602:	0e 94 98 44 	call	0x8930	; 0x8930 <calloc>
    8606:	fc 01       	movw	r30, r24
    8608:	9c 01       	movw	r18, r24
    860a:	00 97       	sbiw	r24, 0x00	; 0
    860c:	89 f1       	breq	.+98     	; 0x8670 <fdevopen+0x8a>
    860e:	80 e8       	ldi	r24, 0x80	; 128
    8610:	83 83       	std	Z+3, r24	; 0x03
    8612:	20 97       	sbiw	r28, 0x00	; 0
    8614:	71 f0       	breq	.+28     	; 0x8632 <fdevopen+0x4c>
    8616:	d3 87       	std	Z+11, r29	; 0x0b
    8618:	c2 87       	std	Z+10, r28	; 0x0a
    861a:	81 e8       	ldi	r24, 0x81	; 129
    861c:	83 83       	std	Z+3, r24	; 0x03
    861e:	80 91 04 08 	lds	r24, 0x0804
    8622:	90 91 05 08 	lds	r25, 0x0805
    8626:	00 97       	sbiw	r24, 0x00	; 0
    8628:	21 f4       	brne	.+8      	; 0x8632 <fdevopen+0x4c>
    862a:	f0 93 05 08 	sts	0x0805, r31
    862e:	e0 93 04 08 	sts	0x0804, r30
    8632:	01 15       	cp	r16, r1
    8634:	11 05       	cpc	r17, r1
    8636:	e1 f0       	breq	.+56     	; 0x8670 <fdevopen+0x8a>
    8638:	11 87       	std	Z+9, r17	; 0x09
    863a:	00 87       	std	Z+8, r16	; 0x08
    863c:	83 81       	ldd	r24, Z+3	; 0x03
    863e:	82 60       	ori	r24, 0x02	; 2
    8640:	83 83       	std	Z+3, r24	; 0x03
    8642:	80 91 06 08 	lds	r24, 0x0806
    8646:	90 91 07 08 	lds	r25, 0x0807
    864a:	00 97       	sbiw	r24, 0x00	; 0
    864c:	89 f4       	brne	.+34     	; 0x8670 <fdevopen+0x8a>
    864e:	f0 93 07 08 	sts	0x0807, r31
    8652:	e0 93 06 08 	sts	0x0806, r30
    8656:	80 91 08 08 	lds	r24, 0x0808
    865a:	90 91 09 08 	lds	r25, 0x0809
    865e:	00 97       	sbiw	r24, 0x00	; 0
    8660:	39 f4       	brne	.+14     	; 0x8670 <fdevopen+0x8a>
    8662:	f0 93 09 08 	sts	0x0809, r31
    8666:	e0 93 08 08 	sts	0x0808, r30
    866a:	02 c0       	rjmp	.+4      	; 0x8670 <fdevopen+0x8a>
    866c:	20 e0       	ldi	r18, 0x00	; 0
    866e:	30 e0       	ldi	r19, 0x00	; 0
    8670:	c9 01       	movw	r24, r18
    8672:	df 91       	pop	r29
    8674:	cf 91       	pop	r28
    8676:	1f 91       	pop	r17
    8678:	0f 91       	pop	r16
    867a:	08 95       	ret

0000867c <fgetc>:
    867c:	cf 93       	push	r28
    867e:	df 93       	push	r29
    8680:	ec 01       	movw	r28, r24
    8682:	3b 81       	ldd	r19, Y+3	; 0x03
    8684:	30 ff       	sbrs	r19, 0
    8686:	36 c0       	rjmp	.+108    	; 0x86f4 <fgetc+0x78>
    8688:	36 ff       	sbrs	r19, 6
    868a:	09 c0       	rjmp	.+18     	; 0x869e <fgetc+0x22>
    868c:	3f 7b       	andi	r19, 0xBF	; 191
    868e:	3b 83       	std	Y+3, r19	; 0x03
    8690:	8e 81       	ldd	r24, Y+6	; 0x06
    8692:	9f 81       	ldd	r25, Y+7	; 0x07
    8694:	01 96       	adiw	r24, 0x01	; 1
    8696:	9f 83       	std	Y+7, r25	; 0x07
    8698:	8e 83       	std	Y+6, r24	; 0x06
    869a:	2a 81       	ldd	r18, Y+2	; 0x02
    869c:	29 c0       	rjmp	.+82     	; 0x86f0 <fgetc+0x74>
    869e:	32 ff       	sbrs	r19, 2
    86a0:	0f c0       	rjmp	.+30     	; 0x86c0 <fgetc+0x44>
    86a2:	e8 81       	ld	r30, Y
    86a4:	f9 81       	ldd	r31, Y+1	; 0x01
    86a6:	80 81       	ld	r24, Z
    86a8:	99 27       	eor	r25, r25
    86aa:	87 fd       	sbrc	r24, 7
    86ac:	90 95       	com	r25
    86ae:	00 97       	sbiw	r24, 0x00	; 0
    86b0:	19 f4       	brne	.+6      	; 0x86b8 <fgetc+0x3c>
    86b2:	30 62       	ori	r19, 0x20	; 32
    86b4:	3b 83       	std	Y+3, r19	; 0x03
    86b6:	1e c0       	rjmp	.+60     	; 0x86f4 <fgetc+0x78>
    86b8:	31 96       	adiw	r30, 0x01	; 1
    86ba:	f9 83       	std	Y+1, r31	; 0x01
    86bc:	e8 83       	st	Y, r30
    86be:	11 c0       	rjmp	.+34     	; 0x86e2 <fgetc+0x66>
    86c0:	ea 85       	ldd	r30, Y+10	; 0x0a
    86c2:	fb 85       	ldd	r31, Y+11	; 0x0b
    86c4:	ce 01       	movw	r24, r28
    86c6:	09 95       	icall
    86c8:	97 ff       	sbrs	r25, 7
    86ca:	0b c0       	rjmp	.+22     	; 0x86e2 <fgetc+0x66>
    86cc:	2b 81       	ldd	r18, Y+3	; 0x03
    86ce:	3f ef       	ldi	r19, 0xFF	; 255
    86d0:	8f 3f       	cpi	r24, 0xFF	; 255
    86d2:	93 07       	cpc	r25, r19
    86d4:	11 f4       	brne	.+4      	; 0x86da <fgetc+0x5e>
    86d6:	80 e1       	ldi	r24, 0x10	; 16
    86d8:	01 c0       	rjmp	.+2      	; 0x86dc <fgetc+0x60>
    86da:	80 e2       	ldi	r24, 0x20	; 32
    86dc:	82 2b       	or	r24, r18
    86de:	8b 83       	std	Y+3, r24	; 0x03
    86e0:	09 c0       	rjmp	.+18     	; 0x86f4 <fgetc+0x78>
    86e2:	2e 81       	ldd	r18, Y+6	; 0x06
    86e4:	3f 81       	ldd	r19, Y+7	; 0x07
    86e6:	2f 5f       	subi	r18, 0xFF	; 255
    86e8:	3f 4f       	sbci	r19, 0xFF	; 255
    86ea:	3f 83       	std	Y+7, r19	; 0x07
    86ec:	2e 83       	std	Y+6, r18	; 0x06
    86ee:	28 2f       	mov	r18, r24
    86f0:	30 e0       	ldi	r19, 0x00	; 0
    86f2:	02 c0       	rjmp	.+4      	; 0x86f8 <fgetc+0x7c>
    86f4:	2f ef       	ldi	r18, 0xFF	; 255
    86f6:	3f ef       	ldi	r19, 0xFF	; 255
    86f8:	c9 01       	movw	r24, r18
    86fa:	df 91       	pop	r29
    86fc:	cf 91       	pop	r28
    86fe:	08 95       	ret

00008700 <fputc>:
    8700:	0f 93       	push	r16
    8702:	1f 93       	push	r17
    8704:	cf 93       	push	r28
    8706:	df 93       	push	r29
    8708:	8c 01       	movw	r16, r24
    870a:	eb 01       	movw	r28, r22
    870c:	8b 81       	ldd	r24, Y+3	; 0x03
    870e:	81 ff       	sbrs	r24, 1
    8710:	1b c0       	rjmp	.+54     	; 0x8748 <fputc+0x48>
    8712:	82 ff       	sbrs	r24, 2
    8714:	0d c0       	rjmp	.+26     	; 0x8730 <fputc+0x30>
    8716:	2e 81       	ldd	r18, Y+6	; 0x06
    8718:	3f 81       	ldd	r19, Y+7	; 0x07
    871a:	8c 81       	ldd	r24, Y+4	; 0x04
    871c:	9d 81       	ldd	r25, Y+5	; 0x05
    871e:	28 17       	cp	r18, r24
    8720:	39 07       	cpc	r19, r25
    8722:	64 f4       	brge	.+24     	; 0x873c <fputc+0x3c>
    8724:	e8 81       	ld	r30, Y
    8726:	f9 81       	ldd	r31, Y+1	; 0x01
    8728:	01 93       	st	Z+, r16
    872a:	f9 83       	std	Y+1, r31	; 0x01
    872c:	e8 83       	st	Y, r30
    872e:	06 c0       	rjmp	.+12     	; 0x873c <fputc+0x3c>
    8730:	e8 85       	ldd	r30, Y+8	; 0x08
    8732:	f9 85       	ldd	r31, Y+9	; 0x09
    8734:	80 2f       	mov	r24, r16
    8736:	09 95       	icall
    8738:	00 97       	sbiw	r24, 0x00	; 0
    873a:	31 f4       	brne	.+12     	; 0x8748 <fputc+0x48>
    873c:	8e 81       	ldd	r24, Y+6	; 0x06
    873e:	9f 81       	ldd	r25, Y+7	; 0x07
    8740:	01 96       	adiw	r24, 0x01	; 1
    8742:	9f 83       	std	Y+7, r25	; 0x07
    8744:	8e 83       	std	Y+6, r24	; 0x06
    8746:	02 c0       	rjmp	.+4      	; 0x874c <fputc+0x4c>
    8748:	0f ef       	ldi	r16, 0xFF	; 255
    874a:	1f ef       	ldi	r17, 0xFF	; 255
    874c:	c8 01       	movw	r24, r16
    874e:	df 91       	pop	r29
    8750:	cf 91       	pop	r28
    8752:	1f 91       	pop	r17
    8754:	0f 91       	pop	r16
    8756:	08 95       	ret

00008758 <printf>:
    8758:	df 93       	push	r29
    875a:	cf 93       	push	r28
    875c:	cd b7       	in	r28, 0x3d	; 61
    875e:	de b7       	in	r29, 0x3e	; 62
    8760:	fe 01       	movw	r30, r28
    8762:	35 96       	adiw	r30, 0x05	; 5
    8764:	61 91       	ld	r22, Z+
    8766:	71 91       	ld	r23, Z+
    8768:	80 91 06 08 	lds	r24, 0x0806
    876c:	90 91 07 08 	lds	r25, 0x0807
    8770:	af 01       	movw	r20, r30
    8772:	0e 94 e2 39 	call	0x73c4	; 0x73c4 <vfprintf>
    8776:	cf 91       	pop	r28
    8778:	df 91       	pop	r29
    877a:	08 95       	ret

0000877c <puts>:
    877c:	ef 92       	push	r14
    877e:	ff 92       	push	r15
    8780:	0f 93       	push	r16
    8782:	1f 93       	push	r17
    8784:	cf 93       	push	r28
    8786:	df 93       	push	r29
    8788:	8c 01       	movw	r16, r24
    878a:	e0 91 06 08 	lds	r30, 0x0806
    878e:	f0 91 07 08 	lds	r31, 0x0807
    8792:	83 81       	ldd	r24, Z+3	; 0x03
    8794:	81 ff       	sbrs	r24, 1
    8796:	1f c0       	rjmp	.+62     	; 0x87d6 <puts+0x5a>
    8798:	c0 e0       	ldi	r28, 0x00	; 0
    879a:	d0 e0       	ldi	r29, 0x00	; 0
    879c:	0a c0       	rjmp	.+20     	; 0x87b2 <puts+0x36>
    879e:	db 01       	movw	r26, r22
    87a0:	18 96       	adiw	r26, 0x08	; 8
    87a2:	ed 91       	ld	r30, X+
    87a4:	fc 91       	ld	r31, X
    87a6:	19 97       	sbiw	r26, 0x09	; 9
    87a8:	09 95       	icall
    87aa:	00 97       	sbiw	r24, 0x00	; 0
    87ac:	11 f0       	breq	.+4      	; 0x87b2 <puts+0x36>
    87ae:	cf ef       	ldi	r28, 0xFF	; 255
    87b0:	df ef       	ldi	r29, 0xFF	; 255
    87b2:	f8 01       	movw	r30, r16
    87b4:	81 91       	ld	r24, Z+
    87b6:	8f 01       	movw	r16, r30
    87b8:	60 91 06 08 	lds	r22, 0x0806
    87bc:	70 91 07 08 	lds	r23, 0x0807
    87c0:	88 23       	and	r24, r24
    87c2:	69 f7       	brne	.-38     	; 0x879e <puts+0x22>
    87c4:	db 01       	movw	r26, r22
    87c6:	18 96       	adiw	r26, 0x08	; 8
    87c8:	ed 91       	ld	r30, X+
    87ca:	fc 91       	ld	r31, X
    87cc:	19 97       	sbiw	r26, 0x09	; 9
    87ce:	8a e0       	ldi	r24, 0x0A	; 10
    87d0:	09 95       	icall
    87d2:	00 97       	sbiw	r24, 0x00	; 0
    87d4:	11 f0       	breq	.+4      	; 0x87da <puts+0x5e>
    87d6:	cf ef       	ldi	r28, 0xFF	; 255
    87d8:	df ef       	ldi	r29, 0xFF	; 255
    87da:	ce 01       	movw	r24, r28
    87dc:	df 91       	pop	r29
    87de:	cf 91       	pop	r28
    87e0:	1f 91       	pop	r17
    87e2:	0f 91       	pop	r16
    87e4:	ff 90       	pop	r15
    87e6:	ef 90       	pop	r14
    87e8:	08 95       	ret

000087ea <sprintf>:
    87ea:	0f 93       	push	r16
    87ec:	1f 93       	push	r17
    87ee:	df 93       	push	r29
    87f0:	cf 93       	push	r28
    87f2:	cd b7       	in	r28, 0x3d	; 61
    87f4:	de b7       	in	r29, 0x3e	; 62
    87f6:	2e 97       	sbiw	r28, 0x0e	; 14
    87f8:	0f b6       	in	r0, 0x3f	; 63
    87fa:	f8 94       	cli
    87fc:	de bf       	out	0x3e, r29	; 62
    87fe:	0f be       	out	0x3f, r0	; 63
    8800:	cd bf       	out	0x3d, r28	; 61
    8802:	0d 89       	ldd	r16, Y+21	; 0x15
    8804:	1e 89       	ldd	r17, Y+22	; 0x16
    8806:	86 e0       	ldi	r24, 0x06	; 6
    8808:	8c 83       	std	Y+4, r24	; 0x04
    880a:	1a 83       	std	Y+2, r17	; 0x02
    880c:	09 83       	std	Y+1, r16	; 0x01
    880e:	8f ef       	ldi	r24, 0xFF	; 255
    8810:	9f e7       	ldi	r25, 0x7F	; 127
    8812:	9e 83       	std	Y+6, r25	; 0x06
    8814:	8d 83       	std	Y+5, r24	; 0x05
    8816:	9e 01       	movw	r18, r28
    8818:	27 5e       	subi	r18, 0xE7	; 231
    881a:	3f 4f       	sbci	r19, 0xFF	; 255
    881c:	ce 01       	movw	r24, r28
    881e:	01 96       	adiw	r24, 0x01	; 1
    8820:	6f 89       	ldd	r22, Y+23	; 0x17
    8822:	78 8d       	ldd	r23, Y+24	; 0x18
    8824:	a9 01       	movw	r20, r18
    8826:	0e 94 e2 39 	call	0x73c4	; 0x73c4 <vfprintf>
    882a:	ef 81       	ldd	r30, Y+7	; 0x07
    882c:	f8 85       	ldd	r31, Y+8	; 0x08
    882e:	e0 0f       	add	r30, r16
    8830:	f1 1f       	adc	r31, r17
    8832:	10 82       	st	Z, r1
    8834:	2e 96       	adiw	r28, 0x0e	; 14
    8836:	0f b6       	in	r0, 0x3f	; 63
    8838:	f8 94       	cli
    883a:	de bf       	out	0x3e, r29	; 62
    883c:	0f be       	out	0x3f, r0	; 63
    883e:	cd bf       	out	0x3d, r28	; 61
    8840:	cf 91       	pop	r28
    8842:	df 91       	pop	r29
    8844:	1f 91       	pop	r17
    8846:	0f 91       	pop	r16
    8848:	08 95       	ret

0000884a <__ultoa_invert>:
    884a:	fa 01       	movw	r30, r20
    884c:	aa 27       	eor	r26, r26
    884e:	28 30       	cpi	r18, 0x08	; 8
    8850:	51 f1       	breq	.+84     	; 0x88a6 <__ultoa_invert+0x5c>
    8852:	20 31       	cpi	r18, 0x10	; 16
    8854:	81 f1       	breq	.+96     	; 0x88b6 <__ultoa_invert+0x6c>
    8856:	e8 94       	clt
    8858:	6f 93       	push	r22
    885a:	6e 7f       	andi	r22, 0xFE	; 254
    885c:	6e 5f       	subi	r22, 0xFE	; 254
    885e:	7f 4f       	sbci	r23, 0xFF	; 255
    8860:	8f 4f       	sbci	r24, 0xFF	; 255
    8862:	9f 4f       	sbci	r25, 0xFF	; 255
    8864:	af 4f       	sbci	r26, 0xFF	; 255
    8866:	b1 e0       	ldi	r27, 0x01	; 1
    8868:	3e d0       	rcall	.+124    	; 0x88e6 <__ultoa_invert+0x9c>
    886a:	b4 e0       	ldi	r27, 0x04	; 4
    886c:	3c d0       	rcall	.+120    	; 0x88e6 <__ultoa_invert+0x9c>
    886e:	67 0f       	add	r22, r23
    8870:	78 1f       	adc	r23, r24
    8872:	89 1f       	adc	r24, r25
    8874:	9a 1f       	adc	r25, r26
    8876:	a1 1d       	adc	r26, r1
    8878:	68 0f       	add	r22, r24
    887a:	79 1f       	adc	r23, r25
    887c:	8a 1f       	adc	r24, r26
    887e:	91 1d       	adc	r25, r1
    8880:	a1 1d       	adc	r26, r1
    8882:	6a 0f       	add	r22, r26
    8884:	71 1d       	adc	r23, r1
    8886:	81 1d       	adc	r24, r1
    8888:	91 1d       	adc	r25, r1
    888a:	a1 1d       	adc	r26, r1
    888c:	20 d0       	rcall	.+64     	; 0x88ce <__ultoa_invert+0x84>
    888e:	09 f4       	brne	.+2      	; 0x8892 <__ultoa_invert+0x48>
    8890:	68 94       	set
    8892:	3f 91       	pop	r19
    8894:	2a e0       	ldi	r18, 0x0A	; 10
    8896:	26 9f       	mul	r18, r22
    8898:	11 24       	eor	r1, r1
    889a:	30 19       	sub	r19, r0
    889c:	30 5d       	subi	r19, 0xD0	; 208
    889e:	31 93       	st	Z+, r19
    88a0:	de f6       	brtc	.-74     	; 0x8858 <__ultoa_invert+0xe>
    88a2:	cf 01       	movw	r24, r30
    88a4:	08 95       	ret
    88a6:	46 2f       	mov	r20, r22
    88a8:	47 70       	andi	r20, 0x07	; 7
    88aa:	40 5d       	subi	r20, 0xD0	; 208
    88ac:	41 93       	st	Z+, r20
    88ae:	b3 e0       	ldi	r27, 0x03	; 3
    88b0:	0f d0       	rcall	.+30     	; 0x88d0 <__ultoa_invert+0x86>
    88b2:	c9 f7       	brne	.-14     	; 0x88a6 <__ultoa_invert+0x5c>
    88b4:	f6 cf       	rjmp	.-20     	; 0x88a2 <__ultoa_invert+0x58>
    88b6:	46 2f       	mov	r20, r22
    88b8:	4f 70       	andi	r20, 0x0F	; 15
    88ba:	40 5d       	subi	r20, 0xD0	; 208
    88bc:	4a 33       	cpi	r20, 0x3A	; 58
    88be:	18 f0       	brcs	.+6      	; 0x88c6 <__ultoa_invert+0x7c>
    88c0:	49 5d       	subi	r20, 0xD9	; 217
    88c2:	31 fd       	sbrc	r19, 1
    88c4:	40 52       	subi	r20, 0x20	; 32
    88c6:	41 93       	st	Z+, r20
    88c8:	02 d0       	rcall	.+4      	; 0x88ce <__ultoa_invert+0x84>
    88ca:	a9 f7       	brne	.-22     	; 0x88b6 <__ultoa_invert+0x6c>
    88cc:	ea cf       	rjmp	.-44     	; 0x88a2 <__ultoa_invert+0x58>
    88ce:	b4 e0       	ldi	r27, 0x04	; 4
    88d0:	a6 95       	lsr	r26
    88d2:	97 95       	ror	r25
    88d4:	87 95       	ror	r24
    88d6:	77 95       	ror	r23
    88d8:	67 95       	ror	r22
    88da:	ba 95       	dec	r27
    88dc:	c9 f7       	brne	.-14     	; 0x88d0 <__ultoa_invert+0x86>
    88de:	00 97       	sbiw	r24, 0x00	; 0
    88e0:	61 05       	cpc	r22, r1
    88e2:	71 05       	cpc	r23, r1
    88e4:	08 95       	ret
    88e6:	9b 01       	movw	r18, r22
    88e8:	ac 01       	movw	r20, r24
    88ea:	0a 2e       	mov	r0, r26
    88ec:	06 94       	lsr	r0
    88ee:	57 95       	ror	r21
    88f0:	47 95       	ror	r20
    88f2:	37 95       	ror	r19
    88f4:	27 95       	ror	r18
    88f6:	ba 95       	dec	r27
    88f8:	c9 f7       	brne	.-14     	; 0x88ec <__ultoa_invert+0xa2>
    88fa:	62 0f       	add	r22, r18
    88fc:	73 1f       	adc	r23, r19
    88fe:	84 1f       	adc	r24, r20
    8900:	95 1f       	adc	r25, r21
    8902:	a0 1d       	adc	r26, r0
    8904:	08 95       	ret

00008906 <__eerd_byte_m128>:
    8906:	e1 99       	sbic	0x1c, 1	; 28
    8908:	fe cf       	rjmp	.-4      	; 0x8906 <__eerd_byte_m128>
    890a:	9f bb       	out	0x1f, r25	; 31
    890c:	8e bb       	out	0x1e, r24	; 30
    890e:	e0 9a       	sbi	0x1c, 0	; 28
    8910:	99 27       	eor	r25, r25
    8912:	8d b3       	in	r24, 0x1d	; 29
    8914:	08 95       	ret

00008916 <__eewr_byte_m128>:
    8916:	26 2f       	mov	r18, r22

00008918 <__eewr_r18_m128>:
    8918:	e1 99       	sbic	0x1c, 1	; 28
    891a:	fe cf       	rjmp	.-4      	; 0x8918 <__eewr_r18_m128>
    891c:	9f bb       	out	0x1f, r25	; 31
    891e:	8e bb       	out	0x1e, r24	; 30
    8920:	2d bb       	out	0x1d, r18	; 29
    8922:	0f b6       	in	r0, 0x3f	; 63
    8924:	f8 94       	cli
    8926:	e2 9a       	sbi	0x1c, 2	; 28
    8928:	e1 9a       	sbi	0x1c, 1	; 28
    892a:	0f be       	out	0x3f, r0	; 63
    892c:	01 96       	adiw	r24, 0x01	; 1
    892e:	08 95       	ret

00008930 <calloc>:
    8930:	ef 92       	push	r14
    8932:	ff 92       	push	r15
    8934:	0f 93       	push	r16
    8936:	1f 93       	push	r17
    8938:	cf 93       	push	r28
    893a:	df 93       	push	r29
    893c:	68 9f       	mul	r22, r24
    893e:	80 01       	movw	r16, r0
    8940:	69 9f       	mul	r22, r25
    8942:	10 0d       	add	r17, r0
    8944:	78 9f       	mul	r23, r24
    8946:	10 0d       	add	r17, r0
    8948:	11 24       	eor	r1, r1
    894a:	c8 01       	movw	r24, r16
    894c:	0e 94 bd 44 	call	0x897a	; 0x897a <malloc>
    8950:	e8 2e       	mov	r14, r24
    8952:	e7 01       	movw	r28, r14
    8954:	7e 01       	movw	r14, r28
    8956:	f9 2e       	mov	r15, r25
    8958:	e7 01       	movw	r28, r14
    895a:	20 97       	sbiw	r28, 0x00	; 0
    895c:	31 f0       	breq	.+12     	; 0x896a <calloc+0x3a>
    895e:	8e 2d       	mov	r24, r14
    8960:	60 e0       	ldi	r22, 0x00	; 0
    8962:	70 e0       	ldi	r23, 0x00	; 0
    8964:	a8 01       	movw	r20, r16
    8966:	0e 94 f0 45 	call	0x8be0	; 0x8be0 <memset>
    896a:	ce 01       	movw	r24, r28
    896c:	df 91       	pop	r29
    896e:	cf 91       	pop	r28
    8970:	1f 91       	pop	r17
    8972:	0f 91       	pop	r16
    8974:	ff 90       	pop	r15
    8976:	ef 90       	pop	r14
    8978:	08 95       	ret

0000897a <malloc>:
    897a:	cf 93       	push	r28
    897c:	df 93       	push	r29
    897e:	82 30       	cpi	r24, 0x02	; 2
    8980:	91 05       	cpc	r25, r1
    8982:	10 f4       	brcc	.+4      	; 0x8988 <malloc+0xe>
    8984:	82 e0       	ldi	r24, 0x02	; 2
    8986:	90 e0       	ldi	r25, 0x00	; 0
    8988:	e0 91 0c 08 	lds	r30, 0x080C
    898c:	f0 91 0d 08 	lds	r31, 0x080D
    8990:	40 e0       	ldi	r20, 0x00	; 0
    8992:	50 e0       	ldi	r21, 0x00	; 0
    8994:	20 e0       	ldi	r18, 0x00	; 0
    8996:	30 e0       	ldi	r19, 0x00	; 0
    8998:	26 c0       	rjmp	.+76     	; 0x89e6 <malloc+0x6c>
    899a:	60 81       	ld	r22, Z
    899c:	71 81       	ldd	r23, Z+1	; 0x01
    899e:	68 17       	cp	r22, r24
    89a0:	79 07       	cpc	r23, r25
    89a2:	e0 f0       	brcs	.+56     	; 0x89dc <malloc+0x62>
    89a4:	68 17       	cp	r22, r24
    89a6:	79 07       	cpc	r23, r25
    89a8:	81 f4       	brne	.+32     	; 0x89ca <malloc+0x50>
    89aa:	82 81       	ldd	r24, Z+2	; 0x02
    89ac:	93 81       	ldd	r25, Z+3	; 0x03
    89ae:	21 15       	cp	r18, r1
    89b0:	31 05       	cpc	r19, r1
    89b2:	31 f0       	breq	.+12     	; 0x89c0 <malloc+0x46>
    89b4:	d9 01       	movw	r26, r18
    89b6:	13 96       	adiw	r26, 0x03	; 3
    89b8:	9c 93       	st	X, r25
    89ba:	8e 93       	st	-X, r24
    89bc:	12 97       	sbiw	r26, 0x02	; 2
    89be:	2b c0       	rjmp	.+86     	; 0x8a16 <malloc+0x9c>
    89c0:	90 93 0d 08 	sts	0x080D, r25
    89c4:	80 93 0c 08 	sts	0x080C, r24
    89c8:	26 c0       	rjmp	.+76     	; 0x8a16 <malloc+0x9c>
    89ca:	41 15       	cp	r20, r1
    89cc:	51 05       	cpc	r21, r1
    89ce:	19 f0       	breq	.+6      	; 0x89d6 <malloc+0x5c>
    89d0:	64 17       	cp	r22, r20
    89d2:	75 07       	cpc	r23, r21
    89d4:	18 f4       	brcc	.+6      	; 0x89dc <malloc+0x62>
    89d6:	ab 01       	movw	r20, r22
    89d8:	e9 01       	movw	r28, r18
    89da:	df 01       	movw	r26, r30
    89dc:	9f 01       	movw	r18, r30
    89de:	72 81       	ldd	r23, Z+2	; 0x02
    89e0:	63 81       	ldd	r22, Z+3	; 0x03
    89e2:	e7 2f       	mov	r30, r23
    89e4:	f6 2f       	mov	r31, r22
    89e6:	30 97       	sbiw	r30, 0x00	; 0
    89e8:	c1 f6       	brne	.-80     	; 0x899a <malloc+0x20>
    89ea:	41 15       	cp	r20, r1
    89ec:	51 05       	cpc	r21, r1
    89ee:	01 f1       	breq	.+64     	; 0x8a30 <malloc+0xb6>
    89f0:	48 1b       	sub	r20, r24
    89f2:	59 0b       	sbc	r21, r25
    89f4:	44 30       	cpi	r20, 0x04	; 4
    89f6:	51 05       	cpc	r21, r1
    89f8:	80 f4       	brcc	.+32     	; 0x8a1a <malloc+0xa0>
    89fa:	12 96       	adiw	r26, 0x02	; 2
    89fc:	8d 91       	ld	r24, X+
    89fe:	9c 91       	ld	r25, X
    8a00:	13 97       	sbiw	r26, 0x03	; 3
    8a02:	20 97       	sbiw	r28, 0x00	; 0
    8a04:	19 f0       	breq	.+6      	; 0x8a0c <malloc+0x92>
    8a06:	9b 83       	std	Y+3, r25	; 0x03
    8a08:	8a 83       	std	Y+2, r24	; 0x02
    8a0a:	04 c0       	rjmp	.+8      	; 0x8a14 <malloc+0x9a>
    8a0c:	90 93 0d 08 	sts	0x080D, r25
    8a10:	80 93 0c 08 	sts	0x080C, r24
    8a14:	fd 01       	movw	r30, r26
    8a16:	32 96       	adiw	r30, 0x02	; 2
    8a18:	46 c0       	rjmp	.+140    	; 0x8aa6 <malloc+0x12c>
    8a1a:	fd 01       	movw	r30, r26
    8a1c:	e4 0f       	add	r30, r20
    8a1e:	f5 1f       	adc	r31, r21
    8a20:	81 93       	st	Z+, r24
    8a22:	91 93       	st	Z+, r25
    8a24:	42 50       	subi	r20, 0x02	; 2
    8a26:	50 40       	sbci	r21, 0x00	; 0
    8a28:	11 96       	adiw	r26, 0x01	; 1
    8a2a:	5c 93       	st	X, r21
    8a2c:	4e 93       	st	-X, r20
    8a2e:	3b c0       	rjmp	.+118    	; 0x8aa6 <malloc+0x12c>
    8a30:	20 91 0a 08 	lds	r18, 0x080A
    8a34:	30 91 0b 08 	lds	r19, 0x080B
    8a38:	21 15       	cp	r18, r1
    8a3a:	31 05       	cpc	r19, r1
    8a3c:	41 f4       	brne	.+16     	; 0x8a4e <malloc+0xd4>
    8a3e:	20 91 e0 03 	lds	r18, 0x03E0
    8a42:	30 91 e1 03 	lds	r19, 0x03E1
    8a46:	30 93 0b 08 	sts	0x080B, r19
    8a4a:	20 93 0a 08 	sts	0x080A, r18
    8a4e:	20 91 e2 03 	lds	r18, 0x03E2
    8a52:	30 91 e3 03 	lds	r19, 0x03E3
    8a56:	21 15       	cp	r18, r1
    8a58:	31 05       	cpc	r19, r1
    8a5a:	41 f4       	brne	.+16     	; 0x8a6c <malloc+0xf2>
    8a5c:	2d b7       	in	r18, 0x3d	; 61
    8a5e:	3e b7       	in	r19, 0x3e	; 62
    8a60:	40 91 de 03 	lds	r20, 0x03DE
    8a64:	50 91 df 03 	lds	r21, 0x03DF
    8a68:	24 1b       	sub	r18, r20
    8a6a:	35 0b       	sbc	r19, r21
    8a6c:	e0 91 0a 08 	lds	r30, 0x080A
    8a70:	f0 91 0b 08 	lds	r31, 0x080B
    8a74:	e2 17       	cp	r30, r18
    8a76:	f3 07       	cpc	r31, r19
    8a78:	a0 f4       	brcc	.+40     	; 0x8aa2 <malloc+0x128>
    8a7a:	2e 1b       	sub	r18, r30
    8a7c:	3f 0b       	sbc	r19, r31
    8a7e:	28 17       	cp	r18, r24
    8a80:	39 07       	cpc	r19, r25
    8a82:	78 f0       	brcs	.+30     	; 0x8aa2 <malloc+0x128>
    8a84:	ac 01       	movw	r20, r24
    8a86:	4e 5f       	subi	r20, 0xFE	; 254
    8a88:	5f 4f       	sbci	r21, 0xFF	; 255
    8a8a:	24 17       	cp	r18, r20
    8a8c:	35 07       	cpc	r19, r21
    8a8e:	48 f0       	brcs	.+18     	; 0x8aa2 <malloc+0x128>
    8a90:	4e 0f       	add	r20, r30
    8a92:	5f 1f       	adc	r21, r31
    8a94:	50 93 0b 08 	sts	0x080B, r21
    8a98:	40 93 0a 08 	sts	0x080A, r20
    8a9c:	81 93       	st	Z+, r24
    8a9e:	91 93       	st	Z+, r25
    8aa0:	02 c0       	rjmp	.+4      	; 0x8aa6 <malloc+0x12c>
    8aa2:	e0 e0       	ldi	r30, 0x00	; 0
    8aa4:	f0 e0       	ldi	r31, 0x00	; 0
    8aa6:	cf 01       	movw	r24, r30
    8aa8:	df 91       	pop	r29
    8aaa:	cf 91       	pop	r28
    8aac:	08 95       	ret

00008aae <free>:
    8aae:	cf 93       	push	r28
    8ab0:	df 93       	push	r29
    8ab2:	00 97       	sbiw	r24, 0x00	; 0
    8ab4:	09 f4       	brne	.+2      	; 0x8ab8 <free+0xa>
    8ab6:	91 c0       	rjmp	.+290    	; 0x8bda <free+0x12c>
    8ab8:	fc 01       	movw	r30, r24
    8aba:	32 97       	sbiw	r30, 0x02	; 2
    8abc:	13 82       	std	Z+3, r1	; 0x03
    8abe:	12 82       	std	Z+2, r1	; 0x02
    8ac0:	60 91 0c 08 	lds	r22, 0x080C
    8ac4:	70 91 0d 08 	lds	r23, 0x080D
    8ac8:	61 15       	cp	r22, r1
    8aca:	71 05       	cpc	r23, r1
    8acc:	81 f4       	brne	.+32     	; 0x8aee <free+0x40>
    8ace:	20 81       	ld	r18, Z
    8ad0:	31 81       	ldd	r19, Z+1	; 0x01
    8ad2:	28 0f       	add	r18, r24
    8ad4:	39 1f       	adc	r19, r25
    8ad6:	80 91 0a 08 	lds	r24, 0x080A
    8ada:	90 91 0b 08 	lds	r25, 0x080B
    8ade:	82 17       	cp	r24, r18
    8ae0:	93 07       	cpc	r25, r19
    8ae2:	99 f5       	brne	.+102    	; 0x8b4a <free+0x9c>
    8ae4:	f0 93 0b 08 	sts	0x080B, r31
    8ae8:	e0 93 0a 08 	sts	0x080A, r30
    8aec:	76 c0       	rjmp	.+236    	; 0x8bda <free+0x12c>
    8aee:	db 01       	movw	r26, r22
    8af0:	80 e0       	ldi	r24, 0x00	; 0
    8af2:	90 e0       	ldi	r25, 0x00	; 0
    8af4:	02 c0       	rjmp	.+4      	; 0x8afa <free+0x4c>
    8af6:	cd 01       	movw	r24, r26
    8af8:	d9 01       	movw	r26, r18
    8afa:	ae 17       	cp	r26, r30
    8afc:	bf 07       	cpc	r27, r31
    8afe:	48 f4       	brcc	.+18     	; 0x8b12 <free+0x64>
    8b00:	12 96       	adiw	r26, 0x02	; 2
    8b02:	2d 91       	ld	r18, X+
    8b04:	3c 91       	ld	r19, X
    8b06:	13 97       	sbiw	r26, 0x03	; 3
    8b08:	21 15       	cp	r18, r1
    8b0a:	31 05       	cpc	r19, r1
    8b0c:	a1 f7       	brne	.-24     	; 0x8af6 <free+0x48>
    8b0e:	cd 01       	movw	r24, r26
    8b10:	21 c0       	rjmp	.+66     	; 0x8b54 <free+0xa6>
    8b12:	b3 83       	std	Z+3, r27	; 0x03
    8b14:	a2 83       	std	Z+2, r26	; 0x02
    8b16:	ef 01       	movw	r28, r30
    8b18:	49 91       	ld	r20, Y+
    8b1a:	59 91       	ld	r21, Y+
    8b1c:	9e 01       	movw	r18, r28
    8b1e:	24 0f       	add	r18, r20
    8b20:	35 1f       	adc	r19, r21
    8b22:	a2 17       	cp	r26, r18
    8b24:	b3 07       	cpc	r27, r19
    8b26:	79 f4       	brne	.+30     	; 0x8b46 <free+0x98>
    8b28:	2d 91       	ld	r18, X+
    8b2a:	3c 91       	ld	r19, X
    8b2c:	11 97       	sbiw	r26, 0x01	; 1
    8b2e:	24 0f       	add	r18, r20
    8b30:	35 1f       	adc	r19, r21
    8b32:	2e 5f       	subi	r18, 0xFE	; 254
    8b34:	3f 4f       	sbci	r19, 0xFF	; 255
    8b36:	31 83       	std	Z+1, r19	; 0x01
    8b38:	20 83       	st	Z, r18
    8b3a:	12 96       	adiw	r26, 0x02	; 2
    8b3c:	2d 91       	ld	r18, X+
    8b3e:	3c 91       	ld	r19, X
    8b40:	13 97       	sbiw	r26, 0x03	; 3
    8b42:	33 83       	std	Z+3, r19	; 0x03
    8b44:	22 83       	std	Z+2, r18	; 0x02
    8b46:	00 97       	sbiw	r24, 0x00	; 0
    8b48:	29 f4       	brne	.+10     	; 0x8b54 <free+0xa6>
    8b4a:	f0 93 0d 08 	sts	0x080D, r31
    8b4e:	e0 93 0c 08 	sts	0x080C, r30
    8b52:	43 c0       	rjmp	.+134    	; 0x8bda <free+0x12c>
    8b54:	dc 01       	movw	r26, r24
    8b56:	13 96       	adiw	r26, 0x03	; 3
    8b58:	fc 93       	st	X, r31
    8b5a:	ee 93       	st	-X, r30
    8b5c:	12 97       	sbiw	r26, 0x02	; 2
    8b5e:	4d 91       	ld	r20, X+
    8b60:	5d 91       	ld	r21, X+
    8b62:	a4 0f       	add	r26, r20
    8b64:	b5 1f       	adc	r27, r21
    8b66:	ea 17       	cp	r30, r26
    8b68:	fb 07       	cpc	r31, r27
    8b6a:	69 f4       	brne	.+26     	; 0x8b86 <free+0xd8>
    8b6c:	20 81       	ld	r18, Z
    8b6e:	31 81       	ldd	r19, Z+1	; 0x01
    8b70:	24 0f       	add	r18, r20
    8b72:	35 1f       	adc	r19, r21
    8b74:	2e 5f       	subi	r18, 0xFE	; 254
    8b76:	3f 4f       	sbci	r19, 0xFF	; 255
    8b78:	ec 01       	movw	r28, r24
    8b7a:	39 83       	std	Y+1, r19	; 0x01
    8b7c:	28 83       	st	Y, r18
    8b7e:	22 81       	ldd	r18, Z+2	; 0x02
    8b80:	33 81       	ldd	r19, Z+3	; 0x03
    8b82:	3b 83       	std	Y+3, r19	; 0x03
    8b84:	2a 83       	std	Y+2, r18	; 0x02
    8b86:	e0 e0       	ldi	r30, 0x00	; 0
    8b88:	f0 e0       	ldi	r31, 0x00	; 0
    8b8a:	02 c0       	rjmp	.+4      	; 0x8b90 <free+0xe2>
    8b8c:	fb 01       	movw	r30, r22
    8b8e:	bc 01       	movw	r22, r24
    8b90:	db 01       	movw	r26, r22
    8b92:	12 96       	adiw	r26, 0x02	; 2
    8b94:	8d 91       	ld	r24, X+
    8b96:	9c 91       	ld	r25, X
    8b98:	13 97       	sbiw	r26, 0x03	; 3
    8b9a:	00 97       	sbiw	r24, 0x00	; 0
    8b9c:	b9 f7       	brne	.-18     	; 0x8b8c <free+0xde>
    8b9e:	9b 01       	movw	r18, r22
    8ba0:	2e 5f       	subi	r18, 0xFE	; 254
    8ba2:	3f 4f       	sbci	r19, 0xFF	; 255
    8ba4:	8d 91       	ld	r24, X+
    8ba6:	9c 91       	ld	r25, X
    8ba8:	11 97       	sbiw	r26, 0x01	; 1
    8baa:	82 0f       	add	r24, r18
    8bac:	93 1f       	adc	r25, r19
    8bae:	40 91 0a 08 	lds	r20, 0x080A
    8bb2:	50 91 0b 08 	lds	r21, 0x080B
    8bb6:	48 17       	cp	r20, r24
    8bb8:	59 07       	cpc	r21, r25
    8bba:	79 f4       	brne	.+30     	; 0x8bda <free+0x12c>
    8bbc:	30 97       	sbiw	r30, 0x00	; 0
    8bbe:	29 f4       	brne	.+10     	; 0x8bca <free+0x11c>
    8bc0:	10 92 0d 08 	sts	0x080D, r1
    8bc4:	10 92 0c 08 	sts	0x080C, r1
    8bc8:	02 c0       	rjmp	.+4      	; 0x8bce <free+0x120>
    8bca:	13 82       	std	Z+3, r1	; 0x03
    8bcc:	12 82       	std	Z+2, r1	; 0x02
    8bce:	22 50       	subi	r18, 0x02	; 2
    8bd0:	30 40       	sbci	r19, 0x00	; 0
    8bd2:	30 93 0b 08 	sts	0x080B, r19
    8bd6:	20 93 0a 08 	sts	0x080A, r18
    8bda:	df 91       	pop	r29
    8bdc:	cf 91       	pop	r28
    8bde:	08 95       	ret

00008be0 <memset>:
    8be0:	dc 01       	movw	r26, r24
    8be2:	01 c0       	rjmp	.+2      	; 0x8be6 <memset+0x6>
    8be4:	6d 93       	st	X+, r22
    8be6:	41 50       	subi	r20, 0x01	; 1
    8be8:	50 40       	sbci	r21, 0x00	; 0
    8bea:	e0 f7       	brcc	.-8      	; 0x8be4 <memset+0x4>
    8bec:	08 95       	ret

00008bee <__divmodsi4>:
    8bee:	97 fb       	bst	r25, 7
    8bf0:	09 2e       	mov	r0, r25
    8bf2:	05 26       	eor	r0, r21
    8bf4:	0e d0       	rcall	.+28     	; 0x8c12 <__divmodsi4_neg1>
    8bf6:	57 fd       	sbrc	r21, 7
    8bf8:	04 d0       	rcall	.+8      	; 0x8c02 <__divmodsi4_neg2>
    8bfa:	50 db       	rcall	.-2400   	; 0x829c <__udivmodsi4>
    8bfc:	0a d0       	rcall	.+20     	; 0x8c12 <__divmodsi4_neg1>
    8bfe:	00 1c       	adc	r0, r0
    8c00:	38 f4       	brcc	.+14     	; 0x8c10 <__divmodsi4_exit>

00008c02 <__divmodsi4_neg2>:
    8c02:	50 95       	com	r21
    8c04:	40 95       	com	r20
    8c06:	30 95       	com	r19
    8c08:	21 95       	neg	r18
    8c0a:	3f 4f       	sbci	r19, 0xFF	; 255
    8c0c:	4f 4f       	sbci	r20, 0xFF	; 255
    8c0e:	5f 4f       	sbci	r21, 0xFF	; 255

00008c10 <__divmodsi4_exit>:
    8c10:	08 95       	ret

00008c12 <__divmodsi4_neg1>:
    8c12:	f6 f7       	brtc	.-4      	; 0x8c10 <__divmodsi4_exit>
    8c14:	90 95       	com	r25
    8c16:	80 95       	com	r24
    8c18:	70 95       	com	r23
    8c1a:	61 95       	neg	r22
    8c1c:	7f 4f       	sbci	r23, 0xFF	; 255
    8c1e:	8f 4f       	sbci	r24, 0xFF	; 255
    8c20:	9f 4f       	sbci	r25, 0xFF	; 255
    8c22:	08 95       	ret

00008c24 <_exit>:
    8c24:	f8 94       	cli

00008c26 <__stop_program>:
    8c26:	ff cf       	rjmp	.-2      	; 0x8c26 <__stop_program>
